
main.elf:     file format elf32-littlearm


Disassembly of section .text:

00000000 <_VectorsFlash>:
       0:	00 00 03 20 d1 01 00 00 55 09 00 00 2d 09 00 00     ... ....U...-...
      10:	2d 09 00 00 2d 09 00 00 2d 09 00 00 2d 09 00 00     -...-...-...-...
      20:	2d 09 00 00 2d 09 00 00 2d 09 00 00 55 09 00 00     -...-...-...U...
      30:	55 09 00 00 2d 09 00 00 55 09 00 00 1d 09 00 00     U...-...U.......
      40:	55 09 00 00 55 09 00 00 55 09 00 00 55 09 00 00     U...U...U...U...
      50:	55 09 00 00 55 09 00 00 55 09 00 00 55 09 00 00     U...U...U...U...
      60:	55 09 00 00 55 09 00 00 55 09 00 00 55 09 00 00     U...U...U...U...
      70:	55 09 00 00 55 09 00 00 55 09 00 00 55 09 00 00     U...U...U...U...
      80:	55 09 00 00 55 09 00 00 55 09 00 00 55 09 00 00     U...U...U...U...
      90:	55 09 00 00 55 09 00 00 55 09 00 00 55 09 00 00     U...U...U...U...
      a0:	55 09 00 00 55 09 00 00 55 09 00 00 55 09 00 00     U...U...U...U...
      b0:	55 09 00 00 55 09 00 00 55 09 00 00 55 1b 00 00     U...U...U...U...
      c0:	55 09 00 00 cd 21 00 00 55 09 00 00 39 26 00 00     U....!..U...9&..
      d0:	55 09 00 00 25 2b 00 00 55 09 00 00 55 09 00 00     U...%+..U...U...
      e0:	55 09 00 00 55 09 00 00 55 09 00 00 55 09 00 00     U...U...U...U...
      f0:	55 09 00 00 55 09 00 00 55 09 00 00 55 09 00 00     U...U...U...U...
     100:	55 09 00 00 55 09 00 00 55 09 00 00 55 09 00 00     U...U...U...U...
     110:	55 09 00 00 8d 37 00 00 55 09 00 00 55 09 00 00     U....7..U...U...
     120:	55 09 00 00 55 09 00 00 55 09 00 00 55 09 00 00     U...U...U...U...
     130:	55 09 00 00 55 09 00 00 55 09 00 00 55 09 00 00     U...U...U...U...
     140:	55 09 00 00 55 09 00 00 5d 2f 00 00 55 09 00 00     U...U...]/..U...
     150:	55 09 00 00 55 09 00 00 55 09 00 00 55 09 00 00     U...U...U...U...
     160:	55 09 00 00 55 09 00 00 55 09 00 00 55 09 00 00     U...U...U...U...
     170:	55 09 00 00 55 09 00 00 55 09 00 00 55 09 00 00     U...U...U...U...
     180:	55 09 00 00 55 09 00 00 55 09 00 00 55 09 00 00     U...U...U...U...
     190:	55 09 00 00 55 09 00 00 69 34 00 00 55 09 00 00     U...U...i4..U...
     1a0:	55 09 00 00 55 09 00 00 55 09 00 00 55 09 00 00     U...U...U...U...
     1b0:	55 09 00 00 55 09 00 00 55 09 00 00 55 09 00 00     U...U...U...U...
     1c0:	55 09 00 00 55 09 00 00 55 09 00 00 55 09 00 00     U...U...U...U...

000001d0 <ResetHandler>:
     1d0:	4b59      	ldr	r3, [pc, #356]	; (338 <ResetHandler+0x168>)
     1d2:	f24c 5220 	movw	r2, #50464	; 0xc520
     1d6:	b510      	push	{r4, lr}
     1d8:	801a      	strh	r2, [r3, #0]
     1da:	f64d 1228 	movw	r2, #55592	; 0xd928
     1de:	801a      	strh	r2, [r3, #0]
     1e0:	bf00      	nop
     1e2:	bf00      	nop
     1e4:	f000 fbb9 	bl	95a <startup_early_hook>
     1e8:	4b54      	ldr	r3, [pc, #336]	; (33c <ResetHandler+0x16c>)
     1ea:	f04f 6230 	mov.w	r2, #184549376	; 0xb000000
     1ee:	601a      	str	r2, [r3, #0]
     1f0:	4a53      	ldr	r2, [pc, #332]	; (340 <ResetHandler+0x170>)
     1f2:	609a      	str	r2, [r3, #8]
     1f4:	4a53      	ldr	r2, [pc, #332]	; (344 <ResetHandler+0x174>)
     1f6:	60da      	str	r2, [r3, #12]
     1f8:	4b53      	ldr	r3, [pc, #332]	; (348 <ResetHandler+0x178>)
     1fa:	f44f 0270 	mov.w	r2, #15728640	; 0xf00000
     1fe:	601a      	str	r2, [r3, #0]
     200:	4b52      	ldr	r3, [pc, #328]	; (34c <ResetHandler+0x17c>)
     202:	4a53      	ldr	r2, [pc, #332]	; (350 <ResetHandler+0x180>)
     204:	601a      	str	r2, [r3, #0]
     206:	4b53      	ldr	r3, [pc, #332]	; (354 <ResetHandler+0x184>)
     208:	681a      	ldr	r2, [r3, #0]
     20a:	f412 7280 	ands.w	r2, r2, #256	; 0x100
     20e:	d104      	bne.n	21a <ResetHandler+0x4a>
     210:	4951      	ldr	r1, [pc, #324]	; (358 <ResetHandler+0x188>)
     212:	600a      	str	r2, [r1, #0]
     214:	f44f 52a8 	mov.w	r2, #5376	; 0x1500
     218:	601a      	str	r2, [r3, #0]
     21a:	4b50      	ldr	r3, [pc, #320]	; (35c <ResetHandler+0x18c>)
     21c:	781a      	ldrb	r2, [r3, #0]
     21e:	0711      	lsls	r1, r2, #28
     220:	d503      	bpl.n	22a <ResetHandler+0x5a>
     222:	781a      	ldrb	r2, [r3, #0]
     224:	f042 0208 	orr.w	r2, r2, #8
     228:	701a      	strb	r2, [r3, #0]
     22a:	4b4d      	ldr	r3, [pc, #308]	; (360 <ResetHandler+0x190>)
     22c:	22aa      	movs	r2, #170	; 0xaa
     22e:	701a      	strb	r2, [r3, #0]
     230:	2300      	movs	r3, #0
     232:	4a4c      	ldr	r2, [pc, #304]	; (364 <ResetHandler+0x194>)
     234:	494c      	ldr	r1, [pc, #304]	; (368 <ResetHandler+0x198>)
     236:	1898      	adds	r0, r3, r2
     238:	4288      	cmp	r0, r1
     23a:	d204      	bcs.n	246 <ResetHandler+0x76>
     23c:	494b      	ldr	r1, [pc, #300]	; (36c <ResetHandler+0x19c>)
     23e:	5859      	ldr	r1, [r3, r1]
     240:	5099      	str	r1, [r3, r2]
     242:	3304      	adds	r3, #4
     244:	e7f5      	b.n	232 <ResetHandler+0x62>
     246:	4a4a      	ldr	r2, [pc, #296]	; (370 <ResetHandler+0x1a0>)
     248:	4b4a      	ldr	r3, [pc, #296]	; (374 <ResetHandler+0x1a4>)
     24a:	429a      	cmp	r2, r3
     24c:	f04f 0300 	mov.w	r3, #0
     250:	d202      	bcs.n	258 <ResetHandler+0x88>
     252:	f842 3b04 	str.w	r3, [r2], #4
     256:	e7f7      	b.n	248 <ResetHandler+0x78>
     258:	4947      	ldr	r1, [pc, #284]	; (378 <ResetHandler+0x1a8>)
     25a:	4a48      	ldr	r2, [pc, #288]	; (37c <ResetHandler+0x1ac>)
     25c:	5859      	ldr	r1, [r3, r1]
     25e:	5099      	str	r1, [r3, r2]
     260:	3304      	adds	r3, #4
     262:	f5b3 7fe8 	cmp.w	r3, #464	; 0x1d0
     266:	d1f7      	bne.n	258 <ResetHandler+0x88>
     268:	4b45      	ldr	r3, [pc, #276]	; (380 <ResetHandler+0x1b0>)
     26a:	2180      	movs	r1, #128	; 0x80
     26c:	f803 1b01 	strb.w	r1, [r3], #1
     270:	4944      	ldr	r1, [pc, #272]	; (384 <ResetHandler+0x1b4>)
     272:	428b      	cmp	r3, r1
     274:	d1f9      	bne.n	26a <ResetHandler+0x9a>
     276:	4b44      	ldr	r3, [pc, #272]	; (388 <ResetHandler+0x1b8>)
     278:	601a      	str	r2, [r3, #0]
     27a:	4b44      	ldr	r3, [pc, #272]	; (38c <ResetHandler+0x1bc>)
     27c:	228a      	movs	r2, #138	; 0x8a
     27e:	701a      	strb	r2, [r3, #0]
     280:	f5a3 5380 	sub.w	r3, r3, #4096	; 0x1000
     284:	2224      	movs	r2, #36	; 0x24
     286:	705a      	strb	r2, [r3, #1]
     288:	22a0      	movs	r2, #160	; 0xa0
     28a:	701a      	strb	r2, [r3, #0]
     28c:	799a      	ldrb	r2, [r3, #6]
     28e:	0792      	lsls	r2, r2, #30
     290:	d5fc      	bpl.n	28c <ResetHandler+0xbc>
     292:	799a      	ldrb	r2, [r3, #6]
     294:	06d4      	lsls	r4, r2, #27
     296:	d4fc      	bmi.n	292 <ResetHandler+0xc2>
     298:	4b3d      	ldr	r3, [pc, #244]	; (390 <ResetHandler+0x1c0>)
     29a:	799a      	ldrb	r2, [r3, #6]
     29c:	f002 020c 	and.w	r2, r2, #12
     2a0:	2a08      	cmp	r2, #8
     2a2:	d1f9      	bne.n	298 <ResetHandler+0xc8>
     2a4:	2201      	movs	r2, #1
     2a6:	711a      	strb	r2, [r3, #4]
     2a8:	224e      	movs	r2, #78	; 0x4e
     2aa:	715a      	strb	r2, [r3, #5]
     2ac:	799a      	ldrb	r2, [r3, #6]
     2ae:	0690      	lsls	r0, r2, #26
     2b0:	d5fc      	bpl.n	2ac <ResetHandler+0xdc>
     2b2:	4b37      	ldr	r3, [pc, #220]	; (390 <ResetHandler+0x1c0>)
     2b4:	799a      	ldrb	r2, [r3, #6]
     2b6:	0651      	lsls	r1, r2, #25
     2b8:	d5fb      	bpl.n	2b2 <ResetHandler+0xe2>
     2ba:	4a36      	ldr	r2, [pc, #216]	; (394 <ResetHandler+0x1c4>)
     2bc:	f04f 7182 	mov.w	r1, #17039360	; 0x1040000
     2c0:	6011      	str	r1, [r2, #0]
     2c2:	2109      	movs	r1, #9
     2c4:	6051      	str	r1, [r2, #4]
     2c6:	2220      	movs	r2, #32
     2c8:	701a      	strb	r2, [r3, #0]
     2ca:	4b31      	ldr	r3, [pc, #196]	; (390 <ResetHandler+0x1c0>)
     2cc:	799b      	ldrb	r3, [r3, #6]
     2ce:	f003 030c 	and.w	r3, r3, #12
     2d2:	2b0c      	cmp	r3, #12
     2d4:	d1f9      	bne.n	2ca <ResetHandler+0xfa>
     2d6:	4b30      	ldr	r3, [pc, #192]	; (398 <ResetHandler+0x1c8>)
     2d8:	4a30      	ldr	r2, [pc, #192]	; (39c <ResetHandler+0x1cc>)
     2da:	601a      	str	r2, [r3, #0]
     2dc:	4b30      	ldr	r3, [pc, #192]	; (3a0 <ResetHandler+0x1d0>)
     2de:	4a31      	ldr	r2, [pc, #196]	; (3a4 <ResetHandler+0x1d4>)
     2e0:	601a      	str	r2, [r3, #0]
     2e2:	2200      	movs	r2, #0
     2e4:	605a      	str	r2, [r3, #4]
     2e6:	2207      	movs	r2, #7
     2e8:	f843 2c04 	str.w	r2, [r3, #-4]
     2ec:	4a2e      	ldr	r2, [pc, #184]	; (3a8 <ResetHandler+0x1d8>)
     2ee:	f8c3 2d0c 	str.w	r2, [r3, #3340]	; 0xd0c
     2f2:	b662      	cpsie	i
     2f4:	f001 f8bb 	bl	146e <_init_Teensyduino_internal_>
     2f8:	4b17      	ldr	r3, [pc, #92]	; (358 <ResetHandler+0x188>)
     2fa:	681b      	ldr	r3, [r3, #0]
     2fc:	07da      	lsls	r2, r3, #31
     2fe:	d505      	bpl.n	30c <ResetHandler+0x13c>
     300:	482a      	ldr	r0, [pc, #168]	; (3ac <ResetHandler+0x1dc>)
     302:	f000 fd05 	bl	d10 <rtc_set>
     306:	4b2a      	ldr	r3, [pc, #168]	; (3b0 <ResetHandler+0x1e0>)
     308:	4a2a      	ldr	r2, [pc, #168]	; (3b4 <ResetHandler+0x1e4>)
     30a:	601a      	str	r2, [r3, #0]
     30c:	4b2a      	ldr	r3, [pc, #168]	; (3b8 <ResetHandler+0x1e8>)
     30e:	781b      	ldrb	r3, [r3, #0]
     310:	065b      	lsls	r3, r3, #25
     312:	d509      	bpl.n	328 <ResetHandler+0x158>
     314:	4c26      	ldr	r4, [pc, #152]	; (3b0 <ResetHandler+0x1e0>)
     316:	4a27      	ldr	r2, [pc, #156]	; (3b4 <ResetHandler+0x1e4>)
     318:	6823      	ldr	r3, [r4, #0]
     31a:	4293      	cmp	r3, r2
     31c:	d104      	bne.n	328 <ResetHandler+0x158>
     31e:	4823      	ldr	r0, [pc, #140]	; (3ac <ResetHandler+0x1dc>)
     320:	f000 fcf6 	bl	d10 <rtc_set>
     324:	2300      	movs	r3, #0
     326:	6023      	str	r3, [r4, #0]
     328:	f006 f9a6 	bl	6678 <__libc_init_array>
     32c:	f000 fb1c 	bl	968 <startup_late_hook>
     330:	f004 fa88 	bl	4844 <main>
     334:	e7fe      	b.n	334 <ResetHandler+0x164>
     336:	bf00      	nop
     338:	4005200e 	.word	0x4005200e
     33c:	40048030 	.word	0x40048030
     340:	00043f82 	.word	0x00043f82
     344:	2b000001 	.word	0x2b000001
     348:	e000ed88 	.word	0xe000ed88
     34c:	e0082000 	.word	0xe0082000
     350:	85000003 	.word	0x85000003
     354:	4003d010 	.word	0x4003d010
     358:	4003d014 	.word	0x4003d014
     35c:	4007d002 	.word	0x4007d002
     360:	4007e000 	.word	0x4007e000
     364:	1fff0760 	.word	0x1fff0760
     368:	1fff0b54 	.word	0x1fff0b54
     36c:	0000a710 	.word	0x0000a710
     370:	1fff0b54 	.word	0x1fff0b54
     374:	1fff10f4 	.word	0x1fff10f4
     378:	00000000 	.word	0x00000000
     37c:	1fff0200 	.word	0x1fff0200
     380:	e000e400 	.word	0xe000e400
     384:	e000e464 	.word	0xe000e464
     388:	e000ed08 	.word	0xe000ed08
     38c:	40065000 	.word	0x40065000
     390:	40064000 	.word	0x40064000
     394:	40048044 	.word	0x40048044
     398:	40048004 	.word	0x40048004
     39c:	000510c0 	.word	0x000510c0
     3a0:	e000e014 	.word	0xe000e014
     3a4:	0001d4bf 	.word	0x0001d4bf
     3a8:	20200000 	.word	0x20200000
     3ac:	00000000 	.word	0x00000000
     3b0:	4003e01c 	.word	0x4003e01c
     3b4:	5a94c3a5 	.word	0x5a94c3a5
     3b8:	4007f000 	.word	0x4007f000
     3bc:	ffffffff 	.word	0xffffffff
     3c0:	ffffffff 	.word	0xffffffff
     3c4:	ffffffff 	.word	0xffffffff
     3c8:	ffffffff 	.word	0xffffffff
     3cc:	ffffffff 	.word	0xffffffff
     3d0:	ffffffff 	.word	0xffffffff
     3d4:	ffffffff 	.word	0xffffffff
     3d8:	ffffffff 	.word	0xffffffff
     3dc:	ffffffff 	.word	0xffffffff
     3e0:	ffffffff 	.word	0xffffffff
     3e4:	ffffffff 	.word	0xffffffff
     3e8:	ffffffff 	.word	0xffffffff
     3ec:	ffffffff 	.word	0xffffffff
     3f0:	ffffffff 	.word	0xffffffff
     3f4:	ffffffff 	.word	0xffffffff
     3f8:	ffffffff 	.word	0xffffffff
     3fc:	ffffffff 	.word	0xffffffff

00000400 <flashconfigbytes>:
     400:	ffffffff ffffffff ffffffff fffff9de     ................

00000410 <__do_global_dtors_aux>:
     410:	b510      	push	{r4, lr}
     412:	4c05      	ldr	r4, [pc, #20]	; (428 <__do_global_dtors_aux+0x18>)
     414:	7823      	ldrb	r3, [r4, #0]
     416:	b933      	cbnz	r3, 426 <__do_global_dtors_aux+0x16>
     418:	4b04      	ldr	r3, [pc, #16]	; (42c <__do_global_dtors_aux+0x1c>)
     41a:	b113      	cbz	r3, 422 <__do_global_dtors_aux+0x12>
     41c:	4804      	ldr	r0, [pc, #16]	; (430 <__do_global_dtors_aux+0x20>)
     41e:	f3af 8000 	nop.w
     422:	2301      	movs	r3, #1
     424:	7023      	strb	r3, [r4, #0]
     426:	bd10      	pop	{r4, pc}
     428:	1fff0b54 	.word	0x1fff0b54
     42c:	00000000 	.word	0x00000000
     430:	0000a710 	.word	0x0000a710

00000434 <frame_dummy>:
     434:	b508      	push	{r3, lr}
     436:	4b06      	ldr	r3, [pc, #24]	; (450 <frame_dummy+0x1c>)
     438:	b11b      	cbz	r3, 442 <frame_dummy+0xe>
     43a:	4806      	ldr	r0, [pc, #24]	; (454 <frame_dummy+0x20>)
     43c:	4906      	ldr	r1, [pc, #24]	; (458 <frame_dummy+0x24>)
     43e:	f3af 8000 	nop.w
     442:	4806      	ldr	r0, [pc, #24]	; (45c <frame_dummy+0x28>)
     444:	6803      	ldr	r3, [r0, #0]
     446:	b113      	cbz	r3, 44e <frame_dummy+0x1a>
     448:	4b05      	ldr	r3, [pc, #20]	; (460 <frame_dummy+0x2c>)
     44a:	b103      	cbz	r3, 44e <frame_dummy+0x1a>
     44c:	4798      	blx	r3
     44e:	bd08      	pop	{r3, pc}
     450:	00000000 	.word	0x00000000
     454:	0000a710 	.word	0x0000a710
     458:	1fff0b58 	.word	0x1fff0b58
     45c:	1fff0b54 	.word	0x1fff0b54
     460:	00000000 	.word	0x00000000

00000464 <wait_for_cal>:
     464:	b5f0      	push	{r4, r5, r6, r7, lr}
     466:	4b30      	ldr	r3, [pc, #192]	; (528 <wait_for_cal+0xc4>)
     468:	681b      	ldr	r3, [r3, #0]
     46a:	061b      	lsls	r3, r3, #24
     46c:	d4fb      	bmi.n	466 <wait_for_cal+0x2>
     46e:	4b2f      	ldr	r3, [pc, #188]	; (52c <wait_for_cal+0xc8>)
     470:	681b      	ldr	r3, [r3, #0]
     472:	f013 0280 	ands.w	r2, r3, #128	; 0x80
     476:	d1f6      	bne.n	466 <wait_for_cal+0x2>
     478:	b672      	cpsid	i
     47a:	4b2d      	ldr	r3, [pc, #180]	; (530 <wait_for_cal+0xcc>)
     47c:	7819      	ldrb	r1, [r3, #0]
     47e:	2900      	cmp	r1, #0
     480:	d050      	beq.n	524 <wait_for_cal+0xc0>
     482:	492c      	ldr	r1, [pc, #176]	; (534 <wait_for_cal+0xd0>)
     484:	6808      	ldr	r0, [r1, #0]
     486:	684f      	ldr	r7, [r1, #4]
     488:	688e      	ldr	r6, [r1, #8]
     48a:	68cd      	ldr	r5, [r1, #12]
     48c:	690c      	ldr	r4, [r1, #16]
     48e:	4438      	add	r0, r7
     490:	3114      	adds	r1, #20
     492:	4430      	add	r0, r6
     494:	6809      	ldr	r1, [r1, #0]
     496:	4428      	add	r0, r5
     498:	4420      	add	r0, r4
     49a:	4408      	add	r0, r1
     49c:	f3c0 004e 	ubfx	r0, r0, #1, #15
     4a0:	4925      	ldr	r1, [pc, #148]	; (538 <wait_for_cal+0xd4>)
     4a2:	f440 4000 	orr.w	r0, r0, #32768	; 0x8000
     4a6:	6008      	str	r0, [r1, #0]
     4a8:	6ac8      	ldr	r0, [r1, #44]	; 0x2c
     4aa:	6b0f      	ldr	r7, [r1, #48]	; 0x30
     4ac:	6b4e      	ldr	r6, [r1, #52]	; 0x34
     4ae:	6b8d      	ldr	r5, [r1, #56]	; 0x38
     4b0:	6bcc      	ldr	r4, [r1, #60]	; 0x3c
     4b2:	4438      	add	r0, r7
     4b4:	3140      	adds	r1, #64	; 0x40
     4b6:	4430      	add	r0, r6
     4b8:	6809      	ldr	r1, [r1, #0]
     4ba:	4428      	add	r0, r5
     4bc:	4420      	add	r0, r4
     4be:	4408      	add	r0, r1
     4c0:	f3c0 004e 	ubfx	r0, r0, #1, #15
     4c4:	491d      	ldr	r1, [pc, #116]	; (53c <wait_for_cal+0xd8>)
     4c6:	f440 4000 	orr.w	r0, r0, #32768	; 0x8000
     4ca:	6008      	str	r0, [r1, #0]
     4cc:	f101 1108 	add.w	r1, r1, #524296	; 0x80008
     4d0:	3114      	adds	r1, #20
     4d2:	f851 0c14 	ldr.w	r0, [r1, #-20]
     4d6:	f851 7c10 	ldr.w	r7, [r1, #-16]
     4da:	f851 6c0c 	ldr.w	r6, [r1, #-12]
     4de:	f851 5c08 	ldr.w	r5, [r1, #-8]
     4e2:	f851 4c04 	ldr.w	r4, [r1, #-4]
     4e6:	6809      	ldr	r1, [r1, #0]
     4e8:	4438      	add	r0, r7
     4ea:	4430      	add	r0, r6
     4ec:	4428      	add	r0, r5
     4ee:	4420      	add	r0, r4
     4f0:	4408      	add	r0, r1
     4f2:	f3c0 004e 	ubfx	r0, r0, #1, #15
     4f6:	4912      	ldr	r1, [pc, #72]	; (540 <wait_for_cal+0xdc>)
     4f8:	f440 4000 	orr.w	r0, r0, #32768	; 0x8000
     4fc:	6008      	str	r0, [r1, #0]
     4fe:	6ac8      	ldr	r0, [r1, #44]	; 0x2c
     500:	6b0f      	ldr	r7, [r1, #48]	; 0x30
     502:	6b4e      	ldr	r6, [r1, #52]	; 0x34
     504:	6b8d      	ldr	r5, [r1, #56]	; 0x38
     506:	6bcc      	ldr	r4, [r1, #60]	; 0x3c
     508:	4438      	add	r0, r7
     50a:	3140      	adds	r1, #64	; 0x40
     50c:	4430      	add	r0, r6
     50e:	6809      	ldr	r1, [r1, #0]
     510:	4428      	add	r0, r5
     512:	4420      	add	r0, r4
     514:	4408      	add	r0, r1
     516:	f3c0 004e 	ubfx	r0, r0, #1, #15
     51a:	490a      	ldr	r1, [pc, #40]	; (544 <wait_for_cal+0xe0>)
     51c:	f440 4000 	orr.w	r0, r0, #32768	; 0x8000
     520:	6008      	str	r0, [r1, #0]
     522:	701a      	strb	r2, [r3, #0]
     524:	b662      	cpsie	i
     526:	bdf0      	pop	{r4, r5, r6, r7, pc}
     528:	4003b024 	.word	0x4003b024
     52c:	400bb024 	.word	0x400bb024
     530:	1fff0b70 	.word	0x1fff0b70
     534:	4003b038 	.word	0x4003b038
     538:	4003b02c 	.word	0x4003b02c
     53c:	4003b030 	.word	0x4003b030
     540:	400bb02c 	.word	0x400bb02c
     544:	400bb030 	.word	0x400bb030

00000548 <analog_init>:
     548:	b530      	push	{r4, r5, lr}
     54a:	4b21      	ldr	r3, [pc, #132]	; (5d0 <analog_init+0x88>)
     54c:	4d21      	ldr	r5, [pc, #132]	; (5d4 <analog_init+0x8c>)
     54e:	4822      	ldr	r0, [pc, #136]	; (5d8 <analog_init+0x90>)
     550:	4922      	ldr	r1, [pc, #136]	; (5dc <analog_init+0x94>)
     552:	2260      	movs	r2, #96	; 0x60
     554:	701a      	strb	r2, [r3, #0]
     556:	22e1      	movs	r2, #225	; 0xe1
     558:	705a      	strb	r2, [r3, #1]
     55a:	782c      	ldrb	r4, [r5, #0]
     55c:	4a20      	ldr	r2, [pc, #128]	; (5e0 <analog_init+0x98>)
     55e:	f503 238e 	add.w	r3, r3, #290816	; 0x47000
     562:	2c08      	cmp	r4, #8
     564:	f103 030c 	add.w	r3, r3, #12
     568:	d101      	bne.n	56e <analog_init+0x26>
     56a:	2421      	movs	r4, #33	; 0x21
     56c:	e002      	b.n	574 <analog_init+0x2c>
     56e:	2c0a      	cmp	r4, #10
     570:	d103      	bne.n	57a <analog_init+0x32>
     572:	2439      	movs	r4, #57	; 0x39
     574:	6004      	str	r4, [r0, #0]
     576:	2013      	movs	r0, #19
     578:	e005      	b.n	586 <analog_init+0x3e>
     57a:	2c0c      	cmp	r4, #12
     57c:	bf0c      	ite	eq
     57e:	2435      	moveq	r4, #53	; 0x35
     580:	245d      	movne	r4, #93	; 0x5d
     582:	6004      	str	r4, [r0, #0]
     584:	2012      	movs	r0, #18
     586:	6008      	str	r0, [r1, #0]
     588:	6014      	str	r4, [r2, #0]
     58a:	4a16      	ldr	r2, [pc, #88]	; (5e4 <analog_init+0x9c>)
     58c:	6018      	str	r0, [r3, #0]
     58e:	7853      	ldrb	r3, [r2, #1]
     590:	4915      	ldr	r1, [pc, #84]	; (5e8 <analog_init+0xa0>)
     592:	4610      	mov	r0, r2
     594:	4a15      	ldr	r2, [pc, #84]	; (5ec <analog_init+0xa4>)
     596:	b103      	cbz	r3, 59a <analog_init+0x52>
     598:	2301      	movs	r3, #1
     59a:	600b      	str	r3, [r1, #0]
     59c:	6013      	str	r3, [r2, #0]
     59e:	7869      	ldrb	r1, [r5, #1]
     5a0:	4a13      	ldr	r2, [pc, #76]	; (5f0 <analog_init+0xa8>)
     5a2:	4b14      	ldr	r3, [pc, #80]	; (5f4 <analog_init+0xac>)
     5a4:	2901      	cmp	r1, #1
     5a6:	d801      	bhi.n	5ac <analog_init+0x64>
     5a8:	2180      	movs	r1, #128	; 0x80
     5aa:	e00b      	b.n	5c4 <analog_init+0x7c>
     5ac:	2904      	cmp	r1, #4
     5ae:	d801      	bhi.n	5b4 <analog_init+0x6c>
     5b0:	2184      	movs	r1, #132	; 0x84
     5b2:	e007      	b.n	5c4 <analog_init+0x7c>
     5b4:	2908      	cmp	r1, #8
     5b6:	d801      	bhi.n	5bc <analog_init+0x74>
     5b8:	2185      	movs	r1, #133	; 0x85
     5ba:	e003      	b.n	5c4 <analog_init+0x7c>
     5bc:	2910      	cmp	r1, #16
     5be:	bf94      	ite	ls
     5c0:	2186      	movls	r1, #134	; 0x86
     5c2:	2187      	movhi	r1, #135	; 0x87
     5c4:	6011      	str	r1, [r2, #0]
     5c6:	6019      	str	r1, [r3, #0]
     5c8:	2301      	movs	r3, #1
     5ca:	7003      	strb	r3, [r0, #0]
     5cc:	bd30      	pop	{r4, r5, pc}
     5ce:	bf00      	nop
     5d0:	40074000 	.word	0x40074000
     5d4:	1fff0848 	.word	0x1fff0848
     5d8:	4003b008 	.word	0x4003b008
     5dc:	4003b00c 	.word	0x4003b00c
     5e0:	400bb008 	.word	0x400bb008
     5e4:	1fff0b70 	.word	0x1fff0b70
     5e8:	4003b020 	.word	0x4003b020
     5ec:	400bb020 	.word	0x400bb020
     5f0:	4003b024 	.word	0x4003b024
     5f4:	400bb024 	.word	0x400bb024

000005f8 <analogReference>:
     5f8:	4b0d      	ldr	r3, [pc, #52]	; (630 <analogReference+0x38>)
     5fa:	785a      	ldrb	r2, [r3, #1]
     5fc:	b158      	cbz	r0, 616 <analogReference+0x1e>
     5fe:	b9aa      	cbnz	r2, 62c <analogReference+0x34>
     600:	2101      	movs	r1, #1
     602:	7059      	strb	r1, [r3, #1]
     604:	781b      	ldrb	r3, [r3, #0]
     606:	b123      	cbz	r3, 612 <analogReference+0x1a>
     608:	4b0a      	ldr	r3, [pc, #40]	; (634 <analogReference+0x3c>)
     60a:	601a      	str	r2, [r3, #0]
     60c:	f503 2300 	add.w	r3, r3, #524288	; 0x80000
     610:	601a      	str	r2, [r3, #0]
     612:	f7ff bf99 	b.w	548 <analog_init>
     616:	b14a      	cbz	r2, 62c <analogReference+0x34>
     618:	7058      	strb	r0, [r3, #1]
     61a:	781b      	ldrb	r3, [r3, #0]
     61c:	2b00      	cmp	r3, #0
     61e:	d0f8      	beq.n	612 <analogReference+0x1a>
     620:	4b04      	ldr	r3, [pc, #16]	; (634 <analogReference+0x3c>)
     622:	6018      	str	r0, [r3, #0]
     624:	f503 2300 	add.w	r3, r3, #524288	; 0x80000
     628:	6018      	str	r0, [r3, #0]
     62a:	e7f2      	b.n	612 <analogReference+0x1a>
     62c:	4770      	bx	lr
     62e:	bf00      	nop
     630:	1fff0b70 	.word	0x1fff0b70
     634:	4003b024 	.word	0x4003b024

00000638 <analogReadRes>:
     638:	280c      	cmp	r0, #12
     63a:	b510      	push	{r4, lr}
     63c:	d904      	bls.n	648 <analogReadRes+0x10>
     63e:	2810      	cmp	r0, #16
     640:	bf28      	it	cs
     642:	2010      	movcs	r0, #16
     644:	2310      	movs	r3, #16
     646:	e007      	b.n	658 <analogReadRes+0x20>
     648:	280a      	cmp	r0, #10
     64a:	d804      	bhi.n	656 <analogReadRes+0x1e>
     64c:	2809      	cmp	r0, #9
     64e:	bf34      	ite	cc
     650:	2308      	movcc	r3, #8
     652:	230a      	movcs	r3, #10
     654:	e000      	b.n	658 <analogReadRes+0x20>
     656:	230c      	movs	r3, #12
     658:	b2dc      	uxtb	r4, r3
     65a:	4a0a      	ldr	r2, [pc, #40]	; (684 <analogReadRes+0x4c>)
     65c:	490a      	ldr	r1, [pc, #40]	; (688 <analogReadRes+0x50>)
     65e:	1a20      	subs	r0, r4, r0
     660:	7090      	strb	r0, [r2, #2]
     662:	7808      	ldrb	r0, [r1, #0]
     664:	4283      	cmp	r3, r0
     666:	d00c      	beq.n	682 <analogReadRes+0x4a>
     668:	7813      	ldrb	r3, [r2, #0]
     66a:	700c      	strb	r4, [r1, #0]
     66c:	b12b      	cbz	r3, 67a <analogReadRes+0x42>
     66e:	4a07      	ldr	r2, [pc, #28]	; (68c <analogReadRes+0x54>)
     670:	2300      	movs	r3, #0
     672:	6013      	str	r3, [r2, #0]
     674:	f502 2200 	add.w	r2, r2, #524288	; 0x80000
     678:	6013      	str	r3, [r2, #0]
     67a:	e8bd 4010 	ldmia.w	sp!, {r4, lr}
     67e:	f7ff bf63 	b.w	548 <analog_init>
     682:	bd10      	pop	{r4, pc}
     684:	1fff0b70 	.word	0x1fff0b70
     688:	1fff0848 	.word	0x1fff0848
     68c:	4003b024 	.word	0x4003b024

00000690 <analogReadAveraging>:
     690:	b510      	push	{r4, lr}
     692:	4b11      	ldr	r3, [pc, #68]	; (6d8 <analogReadAveraging+0x48>)
     694:	781b      	ldrb	r3, [r3, #0]
     696:	4604      	mov	r4, r0
     698:	b10b      	cbz	r3, 69e <analogReadAveraging+0xe>
     69a:	f7ff fee3 	bl	464 <wait_for_cal>
     69e:	2c01      	cmp	r4, #1
     6a0:	4a0e      	ldr	r2, [pc, #56]	; (6dc <analogReadAveraging+0x4c>)
     6a2:	d801      	bhi.n	6a8 <analogReadAveraging+0x18>
     6a4:	2300      	movs	r3, #0
     6a6:	e002      	b.n	6ae <analogReadAveraging+0x1e>
     6a8:	2c04      	cmp	r4, #4
     6aa:	d802      	bhi.n	6b2 <analogReadAveraging+0x22>
     6ac:	2304      	movs	r3, #4
     6ae:	6013      	str	r3, [r2, #0]
     6b0:	e00e      	b.n	6d0 <analogReadAveraging+0x40>
     6b2:	2c08      	cmp	r4, #8
     6b4:	d803      	bhi.n	6be <analogReadAveraging+0x2e>
     6b6:	2305      	movs	r3, #5
     6b8:	6013      	str	r3, [r2, #0]
     6ba:	2308      	movs	r3, #8
     6bc:	e008      	b.n	6d0 <analogReadAveraging+0x40>
     6be:	2c10      	cmp	r4, #16
     6c0:	d803      	bhi.n	6ca <analogReadAveraging+0x3a>
     6c2:	2306      	movs	r3, #6
     6c4:	6013      	str	r3, [r2, #0]
     6c6:	2310      	movs	r3, #16
     6c8:	e002      	b.n	6d0 <analogReadAveraging+0x40>
     6ca:	2307      	movs	r3, #7
     6cc:	6013      	str	r3, [r2, #0]
     6ce:	2320      	movs	r3, #32
     6d0:	4a03      	ldr	r2, [pc, #12]	; (6e0 <analogReadAveraging+0x50>)
     6d2:	7053      	strb	r3, [r2, #1]
     6d4:	bd10      	pop	{r4, pc}
     6d6:	bf00      	nop
     6d8:	1fff0b70 	.word	0x1fff0b70
     6dc:	4003b024 	.word	0x4003b024
     6e0:	1fff0848 	.word	0x1fff0848

000006e4 <analogRead>:
     6e4:	2847      	cmp	r0, #71	; 0x47
     6e6:	b538      	push	{r3, r4, r5, lr}
     6e8:	d847      	bhi.n	77a <analogRead+0x96>
     6ea:	4b25      	ldr	r3, [pc, #148]	; (780 <analogRead+0x9c>)
     6ec:	5c1d      	ldrb	r5, [r3, r0]
     6ee:	2dff      	cmp	r5, #255	; 0xff
     6f0:	d043      	beq.n	77a <analogRead+0x96>
     6f2:	4c24      	ldr	r4, [pc, #144]	; (784 <analogRead+0xa0>)
     6f4:	7823      	ldrb	r3, [r4, #0]
     6f6:	b10b      	cbz	r3, 6fc <analogRead+0x18>
     6f8:	f7ff feb4 	bl	464 <wait_for_cal>
     6fc:	0629      	lsls	r1, r5, #24
     6fe:	d416      	bmi.n	72e <analogRead+0x4a>
     700:	b672      	cpsid	i
     702:	4b21      	ldr	r3, [pc, #132]	; (788 <analogRead+0xa4>)
     704:	601d      	str	r5, [r3, #0]
     706:	2301      	movs	r3, #1
     708:	70e3      	strb	r3, [r4, #3]
     70a:	b662      	cpsie	i
     70c:	b672      	cpsid	i
     70e:	4b1e      	ldr	r3, [pc, #120]	; (788 <analogRead+0xa4>)
     710:	681b      	ldr	r3, [r3, #0]
     712:	061a      	lsls	r2, r3, #24
     714:	d504      	bpl.n	720 <analogRead+0x3c>
     716:	4b1d      	ldr	r3, [pc, #116]	; (78c <analogRead+0xa8>)
     718:	6818      	ldr	r0, [r3, #0]
     71a:	2300      	movs	r3, #0
     71c:	70e3      	strb	r3, [r4, #3]
     71e:	e021      	b.n	764 <analogRead+0x80>
     720:	78e3      	ldrb	r3, [r4, #3]
     722:	2b00      	cmp	r3, #0
     724:	d0ed      	beq.n	702 <analogRead+0x1e>
     726:	b662      	cpsie	i
     728:	f004 ff42 	bl	55b0 <yield>
     72c:	e7ee      	b.n	70c <analogRead+0x28>
     72e:	b672      	cpsid	i
     730:	4b17      	ldr	r3, [pc, #92]	; (790 <analogRead+0xac>)
     732:	681a      	ldr	r2, [r3, #0]
     734:	f015 0f40 	tst.w	r5, #64	; 0x40
     738:	bf14      	ite	ne
     73a:	f022 0210 	bicne.w	r2, r2, #16
     73e:	f042 0210 	orreq.w	r2, r2, #16
     742:	601a      	str	r2, [r3, #0]
     744:	4b13      	ldr	r3, [pc, #76]	; (794 <analogRead+0xb0>)
     746:	f005 023f 	and.w	r2, r5, #63	; 0x3f
     74a:	601a      	str	r2, [r3, #0]
     74c:	2301      	movs	r3, #1
     74e:	7123      	strb	r3, [r4, #4]
     750:	b662      	cpsie	i
     752:	b672      	cpsid	i
     754:	4b0f      	ldr	r3, [pc, #60]	; (794 <analogRead+0xb0>)
     756:	681b      	ldr	r3, [r3, #0]
     758:	061b      	lsls	r3, r3, #24
     75a:	d507      	bpl.n	76c <analogRead+0x88>
     75c:	4b0e      	ldr	r3, [pc, #56]	; (798 <analogRead+0xb4>)
     75e:	6818      	ldr	r0, [r3, #0]
     760:	2300      	movs	r3, #0
     762:	7123      	strb	r3, [r4, #4]
     764:	b662      	cpsie	i
     766:	78a3      	ldrb	r3, [r4, #2]
     768:	4118      	asrs	r0, r3
     76a:	bd38      	pop	{r3, r4, r5, pc}
     76c:	7923      	ldrb	r3, [r4, #4]
     76e:	2b00      	cmp	r3, #0
     770:	d0de      	beq.n	730 <analogRead+0x4c>
     772:	b662      	cpsie	i
     774:	f004 ff1c 	bl	55b0 <yield>
     778:	e7eb      	b.n	752 <analogRead+0x6e>
     77a:	2000      	movs	r0, #0
     77c:	bd38      	pop	{r3, r4, r5, pc}
     77e:	bf00      	nop
     780:	00009e76 	.word	0x00009e76
     784:	1fff0b70 	.word	0x1fff0b70
     788:	4003b000 	.word	0x4003b000
     78c:	4003b010 	.word	0x4003b010
     790:	400bb00c 	.word	0x400bb00c
     794:	400bb000 	.word	0x400bb000
     798:	400bb010 	.word	0x400bb010

0000079c <analogWriteDAC0>:
     79c:	4b08      	ldr	r3, [pc, #32]	; (7c0 <analogWriteDAC0+0x24>)
     79e:	681a      	ldr	r2, [r3, #0]
     7a0:	f442 5280 	orr.w	r2, r2, #4096	; 0x1000
     7a4:	601a      	str	r2, [r3, #0]
     7a6:	4b07      	ldr	r3, [pc, #28]	; (7c4 <analogWriteDAC0+0x28>)
     7a8:	785a      	ldrb	r2, [r3, #1]
     7aa:	4b07      	ldr	r3, [pc, #28]	; (7c8 <analogWriteDAC0+0x2c>)
     7ac:	b10a      	cbz	r2, 7b2 <analogWriteDAC0+0x16>
     7ae:	2280      	movs	r2, #128	; 0x80
     7b0:	e000      	b.n	7b4 <analogWriteDAC0+0x18>
     7b2:	22c0      	movs	r2, #192	; 0xc0
     7b4:	701a      	strb	r2, [r3, #0]
     7b6:	4b05      	ldr	r3, [pc, #20]	; (7cc <analogWriteDAC0+0x30>)
     7b8:	f380 000c 	usat	r0, #12, r0
     7bc:	8018      	strh	r0, [r3, #0]
     7be:	4770      	bx	lr
     7c0:	4004802c 	.word	0x4004802c
     7c4:	1fff0b70 	.word	0x1fff0b70
     7c8:	400cc021 	.word	0x400cc021
     7cc:	400cc000 	.word	0x400cc000

000007d0 <analogWriteDAC1>:
     7d0:	4b08      	ldr	r3, [pc, #32]	; (7f4 <analogWriteDAC1+0x24>)
     7d2:	681a      	ldr	r2, [r3, #0]
     7d4:	f442 5200 	orr.w	r2, r2, #8192	; 0x2000
     7d8:	601a      	str	r2, [r3, #0]
     7da:	4b07      	ldr	r3, [pc, #28]	; (7f8 <analogWriteDAC1+0x28>)
     7dc:	785a      	ldrb	r2, [r3, #1]
     7de:	4b07      	ldr	r3, [pc, #28]	; (7fc <analogWriteDAC1+0x2c>)
     7e0:	b10a      	cbz	r2, 7e6 <analogWriteDAC1+0x16>
     7e2:	2280      	movs	r2, #128	; 0x80
     7e4:	e000      	b.n	7e8 <analogWriteDAC1+0x18>
     7e6:	22c0      	movs	r2, #192	; 0xc0
     7e8:	701a      	strb	r2, [r3, #0]
     7ea:	4b05      	ldr	r3, [pc, #20]	; (800 <analogWriteDAC1+0x30>)
     7ec:	f380 000c 	usat	r0, #12, r0
     7f0:	8018      	strh	r0, [r3, #0]
     7f2:	4770      	bx	lr
     7f4:	4004802c 	.word	0x4004802c
     7f8:	1fff0b70 	.word	0x1fff0b70
     7fc:	400cd021 	.word	0x400cd021
     800:	400cd000 	.word	0x400cd000

00000804 <PrintWord>:
     804:	b507      	push	{r0, r1, r2, lr}
     806:	2307      	movs	r3, #7
     808:	009a      	lsls	r2, r3, #2
     80a:	f1c2 021c 	rsb	r2, r2, #28
     80e:	fa20 f202 	lsr.w	r2, r0, r2
     812:	f002 020f 	and.w	r2, r2, #15
     816:	2a09      	cmp	r2, #9
     818:	bf94      	ite	ls
     81a:	3230      	addls	r2, #48	; 0x30
     81c:	3257      	addhi	r2, #87	; 0x57
     81e:	f80d 2003 	strb.w	r2, [sp, r3]
     822:	f113 33ff 	adds.w	r3, r3, #4294967295
     826:	d2ef      	bcs.n	808 <PrintWord+0x4>
     828:	4668      	mov	r0, sp
     82a:	2108      	movs	r1, #8
     82c:	f003 fc06 	bl	403c <usb_serial_write>
     830:	b003      	add	sp, #12
     832:	f85d fb04 	ldr.w	pc, [sp], #4

00000836 <ConvertToHexChars>:
     836:	b530      	push	{r4, r5, lr}
     838:	0904      	lsrs	r4, r0, #4
     83a:	2c09      	cmp	r4, #9
     83c:	f000 000f 	and.w	r0, r0, #15
     840:	eb01 0502 	add.w	r5, r1, r2
     844:	bf94      	ite	ls
     846:	3430      	addls	r4, #48	; 0x30
     848:	3457      	addhi	r4, #87	; 0x57
     84a:	3201      	adds	r2, #1
     84c:	2809      	cmp	r0, #9
     84e:	bf94      	ite	ls
     850:	3030      	addls	r0, #48	; 0x30
     852:	3057      	addhi	r0, #87	; 0x57
     854:	2320      	movs	r3, #32
     856:	702c      	strb	r4, [r5, #0]
     858:	5488      	strb	r0, [r1, r2]
     85a:	70ab      	strb	r3, [r5, #2]
     85c:	bd30      	pop	{r4, r5, pc}

0000085e <ScanForFlashCode>:
     85e:	b5f0      	push	{r4, r5, r6, r7, lr}
     860:	4e12      	ldr	r6, [pc, #72]	; (8ac <ScanForFlashCode+0x4e>)
     862:	f5ad 7d41 	sub.w	sp, sp, #772	; 0x304
     866:	4637      	mov	r7, r6
     868:	2400      	movs	r4, #0
     86a:	2500      	movs	r5, #0
     86c:	4622      	mov	r2, r4
     86e:	462b      	mov	r3, r5
     870:	f817 0b01 	ldrb.w	r0, [r7], #1
     874:	4669      	mov	r1, sp
     876:	f7ff ffde 	bl	836 <ConvertToHexChars>
     87a:	3403      	adds	r4, #3
     87c:	f145 0500 	adc.w	r5, r5, #0
     880:	2d00      	cmp	r5, #0
     882:	bf08      	it	eq
     884:	f5b4 7f40 	cmpeq.w	r4, #768	; 0x300
     888:	d1f0      	bne.n	86c <ScanForFlashCode+0xe>
     88a:	200a      	movs	r0, #10
     88c:	f003 fc32 	bl	40f4 <usb_serial_putchar>
     890:	4668      	mov	r0, sp
     892:	f44f 7140 	mov.w	r1, #768	; 0x300
     896:	f003 fbd1 	bl	403c <usb_serial_write>
     89a:	4b05      	ldr	r3, [pc, #20]	; (8b0 <ScanForFlashCode+0x52>)
     89c:	f506 7680 	add.w	r6, r6, #256	; 0x100
     8a0:	429e      	cmp	r6, r3
     8a2:	d1e0      	bne.n	866 <ScanForFlashCode+0x8>
     8a4:	f50d 7d41 	add.w	sp, sp, #772	; 0x304
     8a8:	bdf0      	pop	{r4, r5, r6, r7, pc}
     8aa:	bf00      	nop
     8ac:	2002ff00 	.word	0x2002ff00
     8b0:	2003ff00 	.word	0x2003ff00

000008b4 <StackAccess>:
     8b4:	2300      	movs	r3, #0
     8b6:	4907      	ldr	r1, [pc, #28]	; (8d4 <StackAccess+0x20>)
     8b8:	6802      	ldr	r2, [r0, #0]
     8ba:	f841 2023 	str.w	r2, [r1, r3, lsl #2]
     8be:	f850 2b04 	ldr.w	r2, [r0], #4
     8c2:	3201      	adds	r2, #1
     8c4:	d002      	beq.n	8cc <StackAccess+0x18>
     8c6:	3301      	adds	r3, #1
     8c8:	2b40      	cmp	r3, #64	; 0x40
     8ca:	d1f4      	bne.n	8b6 <StackAccess+0x2>
     8cc:	4a02      	ldr	r2, [pc, #8]	; (8d8 <StackAccess+0x24>)
     8ce:	3301      	adds	r3, #1
     8d0:	6013      	str	r3, [r2, #0]
     8d2:	4770      	bx	lr
     8d4:	1fff0fdc 	.word	0x1fff0fdc
     8d8:	1fff0b78 	.word	0x1fff0b78

000008dc <SendData>:
     8dc:	b510      	push	{r4, lr}
     8de:	f003 fb07 	bl	3ef0 <usb_serial_getchar>
     8e2:	2824      	cmp	r0, #36	; 0x24
     8e4:	d115      	bne.n	912 <SendData+0x36>
     8e6:	2400      	movs	r4, #0
     8e8:	4b0a      	ldr	r3, [pc, #40]	; (914 <SendData+0x38>)
     8ea:	681b      	ldr	r3, [r3, #0]
     8ec:	429c      	cmp	r4, r3
     8ee:	d209      	bcs.n	904 <SendData+0x28>
     8f0:	4b09      	ldr	r3, [pc, #36]	; (918 <SendData+0x3c>)
     8f2:	f853 0024 	ldr.w	r0, [r3, r4, lsl #2]
     8f6:	f7ff ff85 	bl	804 <PrintWord>
     8fa:	2020      	movs	r0, #32
     8fc:	f003 fbfa 	bl	40f4 <usb_serial_putchar>
     900:	3401      	adds	r4, #1
     902:	e7f1      	b.n	8e8 <SendData+0xc>
     904:	200a      	movs	r0, #10
     906:	f003 fbf5 	bl	40f4 <usb_serial_putchar>
     90a:	e8bd 4010 	ldmia.w	sp!, {r4, lr}
     90e:	f003 bb7d 	b.w	400c <usb_serial_flush_input>
     912:	bd10      	pop	{r4, pc}
     914:	1fff0b78 	.word	0x1fff0b78
     918:	1fff0fdc 	.word	0x1fff0fdc

0000091c <systick_default_isr>:
     91c:	4b02      	ldr	r3, [pc, #8]	; (928 <systick_default_isr+0xc>)
     91e:	681a      	ldr	r2, [r3, #0]
     920:	3201      	adds	r2, #1
     922:	601a      	str	r2, [r3, #0]
     924:	4770      	bx	lr
     926:	bf00      	nop
     928:	1fff0b7c 	.word	0x1fff0b7c

0000092c <fault_isr>:
     92c:	b508      	push	{r3, lr}
     92e:	4c08      	ldr	r4, [pc, #32]	; (950 <fault_isr+0x24>)
     930:	6823      	ldr	r3, [r4, #0]
     932:	0559      	lsls	r1, r3, #21
     934:	d501      	bpl.n	93a <fault_isr+0xe>
     936:	f001 f90d 	bl	1b54 <uart0_status_isr>
     93a:	6823      	ldr	r3, [r4, #0]
     93c:	051a      	lsls	r2, r3, #20
     93e:	d501      	bpl.n	944 <fault_isr+0x18>
     940:	f001 fc44 	bl	21cc <uart1_status_isr>
     944:	6823      	ldr	r3, [r4, #0]
     946:	04db      	lsls	r3, r3, #19
     948:	d5f1      	bpl.n	92e <fault_isr+0x2>
     94a:	f001 fe75 	bl	2638 <uart2_status_isr>
     94e:	e7ee      	b.n	92e <fault_isr+0x2>
     950:	40048034 	.word	0x40048034

00000954 <unused_isr>:
     954:	b508      	push	{r3, lr}
     956:	f7ff ffe9 	bl	92c <fault_isr>

0000095a <startup_early_hook>:
     95a:	4b02      	ldr	r3, [pc, #8]	; (964 <startup_early_hook+0xa>)
     95c:	2210      	movs	r2, #16
     95e:	801a      	strh	r2, [r3, #0]
     960:	4770      	bx	lr
     962:	bf00      	nop
     964:	40052000 	.word	0x40052000

00000968 <startup_late_hook>:
     968:	4770      	bx	lr

0000096a <_sbrk>:
     96a:	4a03      	ldr	r2, [pc, #12]	; (978 <_sbrk+0xe>)
     96c:	6813      	ldr	r3, [r2, #0]
     96e:	4418      	add	r0, r3
     970:	6010      	str	r0, [r2, #0]
     972:	4618      	mov	r0, r3
     974:	4770      	bx	lr
     976:	bf00      	nop
     978:	1fff084c 	.word	0x1fff084c

0000097c <_read>:
     97c:	2000      	movs	r0, #0
     97e:	4770      	bx	lr

00000980 <_close>:
     980:	f04f 30ff 	mov.w	r0, #4294967295
     984:	4770      	bx	lr

00000986 <_fstat>:
     986:	f44f 5300 	mov.w	r3, #8192	; 0x2000
     98a:	604b      	str	r3, [r1, #4]
     98c:	2000      	movs	r0, #0
     98e:	4770      	bx	lr

00000990 <_isatty>:
     990:	2001      	movs	r0, #1
     992:	4770      	bx	lr

00000994 <_lseek>:
     994:	f04f 30ff 	mov.w	r0, #4294967295
     998:	4770      	bx	lr

0000099a <_exit>:
     99a:	e7fe      	b.n	99a <_exit>

0000099c <__cxa_pure_virtual>:
     99c:	e7fe      	b.n	99c <__cxa_pure_virtual>

0000099e <__cxa_guard_acquire>:
     99e:	7800      	ldrb	r0, [r0, #0]
     9a0:	f1d0 0001 	rsbs	r0, r0, #1
     9a4:	bf38      	it	cc
     9a6:	2000      	movcc	r0, #0
     9a8:	4770      	bx	lr

000009aa <__cxa_guard_release>:
     9aa:	2301      	movs	r3, #1
     9ac:	7003      	strb	r3, [r0, #0]
     9ae:	4770      	bx	lr

000009b0 <nvic_execution_priority>:
     9b0:	f3ef 8313 	mrs	r3, FAULTMASK
     9b4:	b99b      	cbnz	r3, 9de <nvic_execution_priority+0x2e>
     9b6:	f3ef 8010 	mrs	r0, PRIMASK
     9ba:	b998      	cbnz	r0, 9e4 <nvic_execution_priority+0x34>
     9bc:	f3ef 8305 	mrs	r3, IPSR
     9c0:	b123      	cbz	r3, 9cc <nvic_execution_priority+0x1c>
     9c2:	2b0f      	cmp	r3, #15
     9c4:	d904      	bls.n	9d0 <nvic_execution_priority+0x20>
     9c6:	4a08      	ldr	r2, [pc, #32]	; (9e8 <nvic_execution_priority+0x38>)
     9c8:	5c98      	ldrb	r0, [r3, r2]
     9ca:	e001      	b.n	9d0 <nvic_execution_priority+0x20>
     9cc:	f44f 7080 	mov.w	r0, #256	; 0x100
     9d0:	f3ef 8311 	mrs	r3, BASEPRI
     9d4:	b13b      	cbz	r3, 9e6 <nvic_execution_priority+0x36>
     9d6:	4283      	cmp	r3, r0
     9d8:	bf38      	it	cc
     9da:	4618      	movcc	r0, r3
     9dc:	4770      	bx	lr
     9de:	f04f 30ff 	mov.w	r0, #4294967295
     9e2:	4770      	bx	lr
     9e4:	4618      	mov	r0, r3
     9e6:	4770      	bx	lr
     9e8:	e000e3f0 	.word	0xe000e3f0

000009ec <ultoa>:
     9ec:	b510      	push	{r4, lr}
     9ee:	2300      	movs	r3, #0
     9f0:	fbb0 f4f2 	udiv	r4, r0, r2
     9f4:	fb02 0014 	mls	r0, r2, r4, r0
     9f8:	2809      	cmp	r0, #9
     9fa:	bf94      	ite	ls
     9fc:	3030      	addls	r0, #48	; 0x30
     9fe:	3037      	addhi	r0, #55	; 0x37
     a00:	b2c0      	uxtb	r0, r0
     a02:	54c8      	strb	r0, [r1, r3]
     a04:	4620      	mov	r0, r4
     a06:	b10c      	cbz	r4, a0c <ultoa+0x20>
     a08:	3301      	adds	r3, #1
     a0a:	e7f1      	b.n	9f0 <ultoa+0x4>
     a0c:	18ca      	adds	r2, r1, r3
     a0e:	7054      	strb	r4, [r2, #1]
     a10:	4622      	mov	r2, r4
     a12:	429a      	cmp	r2, r3
     a14:	da06      	bge.n	a24 <ultoa+0x38>
     a16:	5c88      	ldrb	r0, [r1, r2]
     a18:	5ccc      	ldrb	r4, [r1, r3]
     a1a:	548c      	strb	r4, [r1, r2]
     a1c:	54c8      	strb	r0, [r1, r3]
     a1e:	3201      	adds	r2, #1
     a20:	3b01      	subs	r3, #1
     a22:	e7f6      	b.n	a12 <ultoa+0x26>
     a24:	4608      	mov	r0, r1
     a26:	bd10      	pop	{r4, pc}

00000a28 <ltoa>:
     a28:	1e03      	subs	r3, r0, #0
     a2a:	b510      	push	{r4, lr}
     a2c:	460c      	mov	r4, r1
     a2e:	db03      	blt.n	a38 <ltoa+0x10>
     a30:	e8bd 4010 	ldmia.w	sp!, {r4, lr}
     a34:	f7ff bfda 	b.w	9ec <ultoa>
     a38:	202d      	movs	r0, #45	; 0x2d
     a3a:	f801 0b01 	strb.w	r0, [r1], #1
     a3e:	4258      	negs	r0, r3
     a40:	f7ff ffd4 	bl	9ec <ultoa>
     a44:	4620      	mov	r0, r4
     a46:	bd10      	pop	{r4, pc}

00000a48 <dtostrf>:
     a48:	e92d 47f3 	stmdb	sp!, {r0, r1, r4, r5, r6, r7, r8, r9, sl, lr}
     a4c:	4688      	mov	r8, r1
     a4e:	ea81 75e1 	eor.w	r5, r1, r1, asr #31
     a52:	eba5 75e1 	sub.w	r5, r5, r1, asr #31
     a56:	4601      	mov	r1, r0
     a58:	4606      	mov	r6, r0
     a5a:	4691      	mov	r9, r2
     a5c:	461c      	mov	r4, r3
     a5e:	f005 fdbb 	bl	65d8 <__aeabi_fcmpun>
     a62:	b388      	cbz	r0, ac8 <dtostrf+0x80>
     a64:	4630      	mov	r0, r6
     a66:	2100      	movs	r1, #0
     a68:	f005 fd8e 	bl	6588 <__aeabi_fcmplt>
     a6c:	2800      	cmp	r0, #0
     a6e:	bf14      	ite	ne
     a70:	2004      	movne	r0, #4
     a72:	2003      	moveq	r0, #3
     a74:	4285      	cmp	r5, r0
     a76:	bfcc      	ite	gt
     a78:	ebc0 0505 	rsbgt	r5, r0, r5
     a7c:	2500      	movle	r5, #0
     a7e:	f1b8 0f00 	cmp.w	r8, #0
     a82:	da07      	bge.n	a94 <dtostrf+0x4c>
     a84:	4425      	add	r5, r4
     a86:	42ac      	cmp	r4, r5
     a88:	d003      	beq.n	a92 <dtostrf+0x4a>
     a8a:	2320      	movs	r3, #32
     a8c:	f804 3b01 	strb.w	r3, [r4], #1
     a90:	e7f9      	b.n	a86 <dtostrf+0x3e>
     a92:	2500      	movs	r5, #0
     a94:	2e00      	cmp	r6, #0
     a96:	f04f 507e 	mov.w	r0, #1065353216	; 0x3f800000
     a9a:	f04f 0100 	mov.w	r1, #0
     a9e:	bfb8      	it	lt
     aa0:	486a      	ldrlt	r0, [pc, #424]	; (c4c <dtostrf+0x204>)
     aa2:	f005 fd71 	bl	6588 <__aeabi_fcmplt>
     aa6:	b110      	cbz	r0, aae <dtostrf+0x66>
     aa8:	232d      	movs	r3, #45	; 0x2d
     aaa:	7023      	strb	r3, [r4, #0]
     aac:	3401      	adds	r4, #1
     aae:	2341      	movs	r3, #65	; 0x41
     ab0:	224e      	movs	r2, #78	; 0x4e
     ab2:	7063      	strb	r3, [r4, #1]
     ab4:	1ce3      	adds	r3, r4, #3
     ab6:	7022      	strb	r2, [r4, #0]
     ab8:	70a2      	strb	r2, [r4, #2]
     aba:	1958      	adds	r0, r3, r5
     abc:	4283      	cmp	r3, r0
     abe:	d03e      	beq.n	b3e <dtostrf+0xf6>
     ac0:	2220      	movs	r2, #32
     ac2:	f803 2b01 	strb.w	r2, [r3], #1
     ac6:	e7f9      	b.n	abc <dtostrf+0x74>
     ac8:	f026 4700 	bic.w	r7, r6, #2147483648	; 0x80000000
     acc:	4638      	mov	r0, r7
     ace:	4960      	ldr	r1, [pc, #384]	; (c50 <dtostrf+0x208>)
     ad0:	f005 fd82 	bl	65d8 <__aeabi_fcmpun>
     ad4:	bbb0      	cbnz	r0, b44 <dtostrf+0xfc>
     ad6:	4638      	mov	r0, r7
     ad8:	495d      	ldr	r1, [pc, #372]	; (c50 <dtostrf+0x208>)
     ada:	f005 fd5f 	bl	659c <__aeabi_fcmple>
     ade:	4607      	mov	r7, r0
     ae0:	bb80      	cbnz	r0, b44 <dtostrf+0xfc>
     ae2:	4630      	mov	r0, r6
     ae4:	2100      	movs	r1, #0
     ae6:	f005 fd4f 	bl	6588 <__aeabi_fcmplt>
     aea:	2800      	cmp	r0, #0
     aec:	bf14      	ite	ne
     aee:	2004      	movne	r0, #4
     af0:	2003      	moveq	r0, #3
     af2:	4285      	cmp	r5, r0
     af4:	bfcc      	ite	gt
     af6:	ebc0 0505 	rsbgt	r5, r0, r5
     afa:	463d      	movle	r5, r7
     afc:	f1b8 0f00 	cmp.w	r8, #0
     b00:	da07      	bge.n	b12 <dtostrf+0xca>
     b02:	4425      	add	r5, r4
     b04:	42ac      	cmp	r4, r5
     b06:	d003      	beq.n	b10 <dtostrf+0xc8>
     b08:	2320      	movs	r3, #32
     b0a:	f804 3b01 	strb.w	r3, [r4], #1
     b0e:	e7f9      	b.n	b04 <dtostrf+0xbc>
     b10:	2500      	movs	r5, #0
     b12:	4630      	mov	r0, r6
     b14:	2100      	movs	r1, #0
     b16:	f005 fd37 	bl	6588 <__aeabi_fcmplt>
     b1a:	b110      	cbz	r0, b22 <dtostrf+0xda>
     b1c:	232d      	movs	r3, #45	; 0x2d
     b1e:	7023      	strb	r3, [r4, #0]
     b20:	3401      	adds	r4, #1
     b22:	2349      	movs	r3, #73	; 0x49
     b24:	7023      	strb	r3, [r4, #0]
     b26:	234e      	movs	r3, #78	; 0x4e
     b28:	7063      	strb	r3, [r4, #1]
     b2a:	2246      	movs	r2, #70	; 0x46
     b2c:	1ce3      	adds	r3, r4, #3
     b2e:	70a2      	strb	r2, [r4, #2]
     b30:	1958      	adds	r0, r3, r5
     b32:	4283      	cmp	r3, r0
     b34:	d003      	beq.n	b3e <dtostrf+0xf6>
     b36:	2220      	movs	r2, #32
     b38:	f803 2b01 	strb.w	r2, [r3], #1
     b3c:	e7f9      	b.n	b32 <dtostrf+0xea>
     b3e:	2300      	movs	r3, #0
     b40:	7003      	strb	r3, [r0, #0]
     b42:	e080      	b.n	c46 <dtostrf+0x1fe>
     b44:	4630      	mov	r0, r6
     b46:	4649      	mov	r1, r9
     b48:	466a      	mov	r2, sp
     b4a:	ab01      	add	r3, sp, #4
     b4c:	f005 fd87 	bl	665e <fcvtf>
     b50:	9e00      	ldr	r6, [sp, #0]
     b52:	4682      	mov	sl, r0
     b54:	f1b9 0f00 	cmp.w	r9, #0
     b58:	d10b      	bne.n	b72 <dtostrf+0x12a>
     b5a:	b956      	cbnz	r6, b72 <dtostrf+0x12a>
     b5c:	f890 a000 	ldrb.w	sl, [r0]
     b60:	4b3c      	ldr	r3, [pc, #240]	; (c54 <dtostrf+0x20c>)
     b62:	4a3d      	ldr	r2, [pc, #244]	; (c58 <dtostrf+0x210>)
     b64:	2501      	movs	r5, #1
     b66:	f1ba 0f34 	cmp.w	sl, #52	; 0x34
     b6a:	bf8c      	ite	hi
     b6c:	4692      	movhi	sl, r2
     b6e:	469a      	movls	sl, r3
     b70:	e008      	b.n	b84 <dtostrf+0x13c>
     b72:	4650      	mov	r0, sl
     b74:	f005 febd 	bl	68f2 <strlen>
     b78:	42b0      	cmp	r0, r6
     b7a:	4605      	mov	r5, r0
     b7c:	bfc8      	it	gt
     b7e:	1c45      	addgt	r5, r0, #1
     b80:	b906      	cbnz	r6, b84 <dtostrf+0x13c>
     b82:	3501      	adds	r5, #1
     b84:	9901      	ldr	r1, [sp, #4]
     b86:	b101      	cbz	r1, b8a <dtostrf+0x142>
     b88:	3501      	adds	r5, #1
     b8a:	ebc5 0308 	rsb	r3, r5, r8
     b8e:	2b00      	cmp	r3, #0
     b90:	eb04 0705 	add.w	r7, r4, r5
     b94:	dd08      	ble.n	ba8 <dtostrf+0x160>
     b96:	441f      	add	r7, r3
     b98:	4622      	mov	r2, r4
     b9a:	4423      	add	r3, r4
     b9c:	429a      	cmp	r2, r3
     b9e:	d004      	beq.n	baa <dtostrf+0x162>
     ba0:	2020      	movs	r0, #32
     ba2:	f802 0b01 	strb.w	r0, [r2], #1
     ba6:	e7f9      	b.n	b9c <dtostrf+0x154>
     ba8:	4623      	mov	r3, r4
     baa:	b111      	cbz	r1, bb2 <dtostrf+0x16a>
     bac:	222d      	movs	r2, #45	; 0x2d
     bae:	701a      	strb	r2, [r3, #0]
     bb0:	3301      	adds	r3, #1
     bb2:	2e00      	cmp	r6, #0
     bb4:	d107      	bne.n	bc6 <dtostrf+0x17e>
     bb6:	f1b9 0f00 	cmp.w	r9, #0
     bba:	d01e      	beq.n	bfa <dtostrf+0x1b2>
     bbc:	461a      	mov	r2, r3
     bbe:	2130      	movs	r1, #48	; 0x30
     bc0:	f802 1b02 	strb.w	r1, [r2], #2
     bc4:	e027      	b.n	c16 <dtostrf+0x1ce>
     bc6:	da18      	bge.n	bfa <dtostrf+0x1b2>
     bc8:	f1b9 0f00 	cmp.w	r9, #0
     bcc:	d015      	beq.n	bfa <dtostrf+0x1b2>
     bce:	4619      	mov	r1, r3
     bd0:	2230      	movs	r2, #48	; 0x30
     bd2:	f801 2b02 	strb.w	r2, [r1], #2
     bd6:	222e      	movs	r2, #46	; 0x2e
     bd8:	705a      	strb	r2, [r3, #1]
     bda:	3701      	adds	r7, #1
     bdc:	4632      	mov	r2, r6
     bde:	1b8b      	subs	r3, r1, r6
     be0:	2a00      	cmp	r2, #0
     be2:	f1c6 0000 	rsb	r0, r6, #0
     be6:	4413      	add	r3, r2
     be8:	da04      	bge.n	bf4 <dtostrf+0x1ac>
     bea:	4408      	add	r0, r1
     bec:	2330      	movs	r3, #48	; 0x30
     bee:	5483      	strb	r3, [r0, r2]
     bf0:	3201      	adds	r2, #1
     bf2:	e7f4      	b.n	bde <dtostrf+0x196>
     bf4:	9200      	str	r2, [sp, #0]
     bf6:	e000      	b.n	bfa <dtostrf+0x1b2>
     bf8:	4613      	mov	r3, r2
     bfa:	42bb      	cmp	r3, r7
     bfc:	d20f      	bcs.n	c1e <dtostrf+0x1d6>
     bfe:	1c5a      	adds	r2, r3, #1
     c00:	f81a 1b01 	ldrb.w	r1, [sl], #1
     c04:	7019      	strb	r1, [r3, #0]
     c06:	42ba      	cmp	r2, r7
     c08:	d008      	beq.n	c1c <dtostrf+0x1d4>
     c0a:	9900      	ldr	r1, [sp, #0]
     c0c:	3901      	subs	r1, #1
     c0e:	9100      	str	r1, [sp, #0]
     c10:	2900      	cmp	r1, #0
     c12:	d1f1      	bne.n	bf8 <dtostrf+0x1b0>
     c14:	1c9a      	adds	r2, r3, #2
     c16:	212e      	movs	r1, #46	; 0x2e
     c18:	7059      	strb	r1, [r3, #1]
     c1a:	e7ed      	b.n	bf8 <dtostrf+0x1b0>
     c1c:	463b      	mov	r3, r7
     c1e:	f1b8 0f00 	cmp.w	r8, #0
     c22:	da0d      	bge.n	c40 <dtostrf+0x1f8>
     c24:	4445      	add	r5, r8
     c26:	426d      	negs	r5, r5
     c28:	461a      	mov	r2, r3
     c2a:	1959      	adds	r1, r3, r5
     c2c:	1a89      	subs	r1, r1, r2
     c2e:	2900      	cmp	r1, #0
     c30:	dd03      	ble.n	c3a <dtostrf+0x1f2>
     c32:	2120      	movs	r1, #32
     c34:	f802 1b01 	strb.w	r1, [r2], #1
     c38:	e7f7      	b.n	c2a <dtostrf+0x1e2>
     c3a:	2d00      	cmp	r5, #0
     c3c:	bfa8      	it	ge
     c3e:	195b      	addge	r3, r3, r5
     c40:	2200      	movs	r2, #0
     c42:	701a      	strb	r2, [r3, #0]
     c44:	4620      	mov	r0, r4
     c46:	b002      	add	sp, #8
     c48:	e8bd 87f0 	ldmia.w	sp!, {r4, r5, r6, r7, r8, r9, sl, pc}
     c4c:	bf800000 	.word	0xbf800000
     c50:	7f7fffff 	.word	0x7f7fffff
     c54:	00009ec0 	.word	0x00009ec0
     c58:	00009ebe 	.word	0x00009ebe

00000c5c <dummy_isr>:
     c5c:	4770      	bx	lr

00000c5e <getIsrTable>:
     c5e:	f100 4040 	add.w	r0, r0, #3221225472	; 0xc0000000
     c62:	f5a0 2392 	sub.w	r3, r0, #299008	; 0x49000
     c66:	2b7c      	cmp	r3, #124	; 0x7c
     c68:	d914      	bls.n	c94 <getIsrTable+0x36>
     c6a:	f5a0 2394 	sub.w	r3, r0, #303104	; 0x4a000
     c6e:	2b7c      	cmp	r3, #124	; 0x7c
     c70:	d912      	bls.n	c98 <getIsrTable+0x3a>
     c72:	f5a0 2396 	sub.w	r3, r0, #307200	; 0x4b000
     c76:	2b7c      	cmp	r3, #124	; 0x7c
     c78:	d910      	bls.n	c9c <getIsrTable+0x3e>
     c7a:	f5a0 2398 	sub.w	r3, r0, #311296	; 0x4c000
     c7e:	2b7c      	cmp	r3, #124	; 0x7c
     c80:	d906      	bls.n	c90 <getIsrTable+0x32>
     c82:	f5a0 209a 	sub.w	r0, r0, #315392	; 0x4d000
     c86:	287d      	cmp	r0, #125	; 0x7d
     c88:	4805      	ldr	r0, [pc, #20]	; (ca0 <getIsrTable+0x42>)
     c8a:	bf28      	it	cs
     c8c:	2000      	movcs	r0, #0
     c8e:	4770      	bx	lr
     c90:	4804      	ldr	r0, [pc, #16]	; (ca4 <getIsrTable+0x46>)
     c92:	4770      	bx	lr
     c94:	4804      	ldr	r0, [pc, #16]	; (ca8 <getIsrTable+0x4a>)
     c96:	4770      	bx	lr
     c98:	4804      	ldr	r0, [pc, #16]	; (cac <getIsrTable+0x4e>)
     c9a:	4770      	bx	lr
     c9c:	4804      	ldr	r0, [pc, #16]	; (cb0 <getIsrTable+0x52>)
     c9e:	4770      	bx	lr
     ca0:	1fff0850 	.word	0x1fff0850
     ca4:	1fff08bc 	.word	0x1fff08bc
     ca8:	1fff098c 	.word	0x1fff098c
     cac:	1fff092c 	.word	0x1fff092c
     cb0:	1fff08fc 	.word	0x1fff08fc

00000cb4 <getPinIndex>:
     cb4:	f3c0 0084 	ubfx	r0, r0, #2, #5
     cb8:	4770      	bx	lr

00000cba <attachInterruptVector>:
     cba:	3010      	adds	r0, #16
     cbc:	4b01      	ldr	r3, [pc, #4]	; (cc4 <attachInterruptVector+0xa>)
     cbe:	f843 1020 	str.w	r1, [r3, r0, lsl #2]
     cc2:	4770      	bx	lr
     cc4:	1fff0200 	.word	0x1fff0200

00000cc8 <detachInterrupt>:
     cc8:	4b0c      	ldr	r3, [pc, #48]	; (cfc <detachInterrupt+0x34>)
     cca:	eb03 00c0 	add.w	r0, r3, r0, lsl #3
     cce:	b510      	push	{r4, lr}
     cd0:	6844      	ldr	r4, [r0, #4]
     cd2:	4620      	mov	r0, r4
     cd4:	f7ff ffc3 	bl	c5e <getIsrTable>
     cd8:	b170      	cbz	r0, cf8 <detachInterrupt+0x30>
     cda:	b672      	cpsid	i
     cdc:	6823      	ldr	r3, [r4, #0]
     cde:	f023 7387 	bic.w	r3, r3, #17694720	; 0x10e0000
     ce2:	f423 3380 	bic.w	r3, r3, #65536	; 0x10000
     ce6:	f043 7380 	orr.w	r3, r3, #16777216	; 0x1000000
     cea:	6023      	str	r3, [r4, #0]
     cec:	f3c4 0484 	ubfx	r4, r4, #2, #5
     cf0:	4b03      	ldr	r3, [pc, #12]	; (d00 <detachInterrupt+0x38>)
     cf2:	f840 3024 	str.w	r3, [r0, r4, lsl #2]
     cf6:	b662      	cpsie	i
     cf8:	bd10      	pop	{r4, pc}
     cfa:	bf00      	nop
     cfc:	00009ec4 	.word	0x00009ec4
     d00:	00000c5d 	.word	0x00000c5d

00000d04 <rtc_get>:
     d04:	4b01      	ldr	r3, [pc, #4]	; (d0c <rtc_get+0x8>)
     d06:	6818      	ldr	r0, [r3, #0]
     d08:	4770      	bx	lr
     d0a:	bf00      	nop
     d0c:	4003d000 	.word	0x4003d000

00000d10 <rtc_set>:
     d10:	4b04      	ldr	r3, [pc, #16]	; (d24 <rtc_set+0x14>)
     d12:	4905      	ldr	r1, [pc, #20]	; (d28 <rtc_set+0x18>)
     d14:	2200      	movs	r2, #0
     d16:	601a      	str	r2, [r3, #0]
     d18:	600a      	str	r2, [r1, #0]
     d1a:	4a04      	ldr	r2, [pc, #16]	; (d2c <rtc_set+0x1c>)
     d1c:	6010      	str	r0, [r2, #0]
     d1e:	2210      	movs	r2, #16
     d20:	601a      	str	r2, [r3, #0]
     d22:	4770      	bx	lr
     d24:	4003d014 	.word	0x4003d014
     d28:	4003d004 	.word	0x4003d004
     d2c:	4003d000 	.word	0x4003d000

00000d30 <rtc_compensate>:
     d30:	2800      	cmp	r0, #0
     d32:	db0e      	blt.n	d52 <rtc_compensate+0x22>
     d34:	0202      	lsls	r2, r0, #8
     d36:	f44f 7380 	mov.w	r3, #256	; 0x100
     d3a:	f5b2 4f00 	cmp.w	r2, #32768	; 0x8000
     d3e:	d306      	bcc.n	d4e <rtc_compensate+0x1e>
     d40:	3b01      	subs	r3, #1
     d42:	2b01      	cmp	r3, #1
     d44:	ebc0 0102 	rsb	r1, r0, r2
     d48:	d001      	beq.n	d4e <rtc_compensate+0x1e>
     d4a:	460a      	mov	r2, r1
     d4c:	e7f5      	b.n	d3a <rtc_compensate+0xa>
     d4e:	0a12      	lsrs	r2, r2, #8
     d50:	e010      	b.n	d74 <rtc_compensate+0x44>
     d52:	4240      	negs	r0, r0
     d54:	0202      	lsls	r2, r0, #8
     d56:	f44f 7380 	mov.w	r3, #256	; 0x100
     d5a:	f5b2 4f01 	cmp.w	r2, #33024	; 0x8100
     d5e:	d306      	bcc.n	d6e <rtc_compensate+0x3e>
     d60:	3b01      	subs	r3, #1
     d62:	2b01      	cmp	r3, #1
     d64:	ebc0 0102 	rsb	r1, r0, r2
     d68:	d001      	beq.n	d6e <rtc_compensate+0x3e>
     d6a:	460a      	mov	r2, r1
     d6c:	e7f5      	b.n	d5a <rtc_compensate+0x2a>
     d6e:	0a12      	lsrs	r2, r2, #8
     d70:	f5c2 7280 	rsb	r2, r2, #256	; 0x100
     d74:	3b01      	subs	r3, #1
     d76:	4902      	ldr	r1, [pc, #8]	; (d80 <rtc_compensate+0x50>)
     d78:	ea42 2203 	orr.w	r2, r2, r3, lsl #8
     d7c:	600a      	str	r2, [r1, #0]
     d7e:	4770      	bx	lr
     d80:	4003d00c 	.word	0x4003d00c

00000d84 <analogWriteRes>:
     d84:	b118      	cbz	r0, d8e <analogWriteRes+0xa>
     d86:	2810      	cmp	r0, #16
     d88:	bf28      	it	cs
     d8a:	2010      	movcs	r0, #16
     d8c:	e000      	b.n	d90 <analogWriteRes+0xc>
     d8e:	2001      	movs	r0, #1
     d90:	4b01      	ldr	r3, [pc, #4]	; (d98 <analogWriteRes+0x14>)
     d92:	f883 01b4 	strb.w	r0, [r3, #436]	; 0x1b4
     d96:	4770      	bx	lr
     d98:	1fff0850 	.word	0x1fff0850

00000d9c <analogWriteFrequency>:
     d9c:	e92d 43f8 	stmdb	sp!, {r3, r4, r5, r6, r7, r8, r9, lr}
     da0:	f1a0 0910 	sub.w	r9, r0, #16
     da4:	fa5f f989 	uxtb.w	r9, r9
     da8:	f1b9 0f01 	cmp.w	r9, #1
     dac:	4605      	mov	r5, r0
     dae:	460f      	mov	r7, r1
     db0:	d90d      	bls.n	dce <analogWriteFrequency+0x32>
     db2:	4608      	mov	r0, r1
     db4:	493d      	ldr	r1, [pc, #244]	; (eac <analogWriteFrequency+0x110>)
     db6:	f005 fbe7 	bl	6588 <__aeabi_fcmplt>
     dba:	4b3d      	ldr	r3, [pc, #244]	; (eb0 <analogWriteFrequency+0x114>)
     dbc:	2800      	cmp	r0, #0
     dbe:	f647 2812 	movw	r8, #31250	; 0x7a12
     dc2:	bf14      	ite	ne
     dc4:	2602      	movne	r6, #2
     dc6:	2601      	moveq	r6, #1
     dc8:	bf08      	it	eq
     dca:	4698      	moveq	r8, r3
     dcc:	e002      	b.n	dd4 <analogWriteFrequency+0x38>
     dce:	f8df 8120 	ldr.w	r8, [pc, #288]	; ef0 <analogWriteFrequency+0x154>
     dd2:	2601      	movs	r6, #1
     dd4:	2400      	movs	r4, #0
     dd6:	fa28 f004 	lsr.w	r0, r8, r4
     dda:	f005 f9df 	bl	619c <__aeabi_ui2f>
     dde:	f04f 515e 	mov.w	r1, #931135488	; 0x37800000
     de2:	f005 fa33 	bl	624c <__aeabi_fmul>
     de6:	4601      	mov	r1, r0
     de8:	4638      	mov	r0, r7
     dea:	f005 fbe1 	bl	65b0 <__aeabi_fcmpge>
     dee:	b910      	cbnz	r0, df6 <analogWriteFrequency+0x5a>
     df0:	3401      	adds	r4, #1
     df2:	2c07      	cmp	r4, #7
     df4:	d1ef      	bne.n	dd6 <analogWriteFrequency+0x3a>
     df6:	fa28 f004 	lsr.w	r0, r8, r4
     dfa:	f005 f9cf 	bl	619c <__aeabi_ui2f>
     dfe:	4639      	mov	r1, r7
     e00:	f005 fad8 	bl	63b4 <__aeabi_fdiv>
     e04:	f04f 517c 	mov.w	r1, #1056964608	; 0x3f000000
     e08:	f005 f916 	bl	6038 <__aeabi_fsub>
     e0c:	f005 fbfa 	bl	6604 <__aeabi_f2uiz>
     e10:	f64f 73ff 	movw	r3, #65535	; 0xffff
     e14:	4298      	cmp	r0, r3
     e16:	bf28      	it	cs
     e18:	4618      	movcs	r0, r3
     e1a:	1eeb      	subs	r3, r5, #3
     e1c:	2b01      	cmp	r3, #1
     e1e:	d806      	bhi.n	e2e <analogWriteFrequency+0x92>
     e20:	4b24      	ldr	r3, [pc, #144]	; (eb4 <analogWriteFrequency+0x118>)
     e22:	4925      	ldr	r1, [pc, #148]	; (eb8 <analogWriteFrequency+0x11c>)
     e24:	2200      	movs	r2, #0
     e26:	601a      	str	r2, [r3, #0]
     e28:	600a      	str	r2, [r1, #0]
     e2a:	4a24      	ldr	r2, [pc, #144]	; (ebc <analogWriteFrequency+0x120>)
     e2c:	e036      	b.n	e9c <analogWriteFrequency+0x100>
     e2e:	f1a5 0309 	sub.w	r3, r5, #9
     e32:	2b01      	cmp	r3, #1
     e34:	d906      	bls.n	e44 <analogWriteFrequency+0xa8>
     e36:	f1a5 0314 	sub.w	r3, r5, #20
     e3a:	2b03      	cmp	r3, #3
     e3c:	d902      	bls.n	e44 <analogWriteFrequency+0xa8>
     e3e:	1f6b      	subs	r3, r5, #5
     e40:	2b01      	cmp	r3, #1
     e42:	d806      	bhi.n	e52 <analogWriteFrequency+0xb6>
     e44:	4b1e      	ldr	r3, [pc, #120]	; (ec0 <analogWriteFrequency+0x124>)
     e46:	491f      	ldr	r1, [pc, #124]	; (ec4 <analogWriteFrequency+0x128>)
     e48:	2200      	movs	r2, #0
     e4a:	601a      	str	r2, [r3, #0]
     e4c:	600a      	str	r2, [r1, #0]
     e4e:	4a1e      	ldr	r2, [pc, #120]	; (ec8 <analogWriteFrequency+0x12c>)
     e50:	e024      	b.n	e9c <analogWriteFrequency+0x100>
     e52:	f1a5 031d 	sub.w	r3, r5, #29
     e56:	2b01      	cmp	r3, #1
     e58:	d806      	bhi.n	e68 <analogWriteFrequency+0xcc>
     e5a:	4b1c      	ldr	r3, [pc, #112]	; (ecc <analogWriteFrequency+0x130>)
     e5c:	491c      	ldr	r1, [pc, #112]	; (ed0 <analogWriteFrequency+0x134>)
     e5e:	2200      	movs	r2, #0
     e60:	601a      	str	r2, [r3, #0]
     e62:	600a      	str	r2, [r1, #0]
     e64:	4a1b      	ldr	r2, [pc, #108]	; (ed4 <analogWriteFrequency+0x138>)
     e66:	e019      	b.n	e9c <analogWriteFrequency+0x100>
     e68:	2d02      	cmp	r5, #2
     e6a:	d007      	beq.n	e7c <analogWriteFrequency+0xe0>
     e6c:	2d0e      	cmp	r5, #14
     e6e:	d005      	beq.n	e7c <analogWriteFrequency+0xe0>
     e70:	1feb      	subs	r3, r5, #7
     e72:	2b01      	cmp	r3, #1
     e74:	d902      	bls.n	e7c <analogWriteFrequency+0xe0>
     e76:	3d23      	subs	r5, #35	; 0x23
     e78:	2d03      	cmp	r5, #3
     e7a:	d806      	bhi.n	e8a <analogWriteFrequency+0xee>
     e7c:	4b16      	ldr	r3, [pc, #88]	; (ed8 <analogWriteFrequency+0x13c>)
     e7e:	4917      	ldr	r1, [pc, #92]	; (edc <analogWriteFrequency+0x140>)
     e80:	2200      	movs	r2, #0
     e82:	601a      	str	r2, [r3, #0]
     e84:	600a      	str	r2, [r1, #0]
     e86:	4a16      	ldr	r2, [pc, #88]	; (ee0 <analogWriteFrequency+0x144>)
     e88:	e008      	b.n	e9c <analogWriteFrequency+0x100>
     e8a:	f1b9 0f01 	cmp.w	r9, #1
     e8e:	d80b      	bhi.n	ea8 <analogWriteFrequency+0x10c>
     e90:	4b14      	ldr	r3, [pc, #80]	; (ee4 <analogWriteFrequency+0x148>)
     e92:	4915      	ldr	r1, [pc, #84]	; (ee8 <analogWriteFrequency+0x14c>)
     e94:	2200      	movs	r2, #0
     e96:	601a      	str	r2, [r3, #0]
     e98:	600a      	str	r2, [r1, #0]
     e9a:	4a14      	ldr	r2, [pc, #80]	; (eec <analogWriteFrequency+0x150>)
     e9c:	f004 0407 	and.w	r4, r4, #7
     ea0:	ea44 06c6 	orr.w	r6, r4, r6, lsl #3
     ea4:	6010      	str	r0, [r2, #0]
     ea6:	601e      	str	r6, [r3, #0]
     ea8:	e8bd 83f8 	ldmia.w	sp!, {r3, r4, r5, r6, r7, r8, r9, pc}
     eac:	40e4e1c0 	.word	0x40e4e1c0
     eb0:	03938700 	.word	0x03938700
     eb4:	40039000 	.word	0x40039000
     eb8:	40039004 	.word	0x40039004
     ebc:	40039008 	.word	0x40039008
     ec0:	40038000 	.word	0x40038000
     ec4:	40038004 	.word	0x40038004
     ec8:	40038008 	.word	0x40038008
     ecc:	400b8000 	.word	0x400b8000
     ed0:	400b8004 	.word	0x400b8004
     ed4:	400b8008 	.word	0x400b8008
     ed8:	400b9000 	.word	0x400b9000
     edc:	400b9004 	.word	0x400b9004
     ee0:	400b9008 	.word	0x400b9008
     ee4:	400c9000 	.word	0x400c9000
     ee8:	400c9004 	.word	0x400c9004
     eec:	400c9008 	.word	0x400c9008
     ef0:	00f42400 	.word	0x00f42400

00000ef4 <digitalWrite>:
     ef4:	283f      	cmp	r0, #63	; 0x3f
     ef6:	b510      	push	{r4, lr}
     ef8:	d818      	bhi.n	f2c <digitalWrite+0x38>
     efa:	4a0d      	ldr	r2, [pc, #52]	; (f30 <digitalWrite+0x3c>)
     efc:	f852 3030 	ldr.w	r3, [r2, r0, lsl #3]
     f00:	f893 4280 	ldrb.w	r4, [r3, #640]	; 0x280
     f04:	b13c      	cbz	r4, f16 <digitalWrite+0x22>
     f06:	2201      	movs	r2, #1
     f08:	b111      	cbz	r1, f10 <digitalWrite+0x1c>
     f0a:	f883 2080 	strb.w	r2, [r3, #128]	; 0x80
     f0e:	bd10      	pop	{r4, pc}
     f10:	f883 2100 	strb.w	r2, [r3, #256]	; 0x100
     f14:	bd10      	pop	{r4, pc}
     f16:	eb02 00c0 	add.w	r0, r2, r0, lsl #3
     f1a:	6843      	ldr	r3, [r0, #4]
     f1c:	681a      	ldr	r2, [r3, #0]
     f1e:	b111      	cbz	r1, f26 <digitalWrite+0x32>
     f20:	f042 0203 	orr.w	r2, r2, #3
     f24:	e001      	b.n	f2a <digitalWrite+0x36>
     f26:	f022 0202 	bic.w	r2, r2, #2
     f2a:	601a      	str	r2, [r3, #0]
     f2c:	bd10      	pop	{r4, pc}
     f2e:	bf00      	nop
     f30:	00009ec4 	.word	0x00009ec4

00000f34 <digitalRead>:
     f34:	283f      	cmp	r0, #63	; 0x3f
     f36:	d806      	bhi.n	f46 <digitalRead+0x12>
     f38:	4b04      	ldr	r3, [pc, #16]	; (f4c <digitalRead+0x18>)
     f3a:	f853 3030 	ldr.w	r3, [r3, r0, lsl #3]
     f3e:	f893 0200 	ldrb.w	r0, [r3, #512]	; 0x200
     f42:	b2c0      	uxtb	r0, r0
     f44:	4770      	bx	lr
     f46:	2000      	movs	r0, #0
     f48:	4770      	bx	lr
     f4a:	bf00      	nop
     f4c:	00009ec4 	.word	0x00009ec4

00000f50 <pinMode>:
     f50:	283f      	cmp	r0, #63	; 0x3f
     f52:	b510      	push	{r4, lr}
     f54:	d82b      	bhi.n	fae <pinMode+0x5e>
     f56:	4a16      	ldr	r2, [pc, #88]	; (fb0 <pinMode+0x60>)
     f58:	eb02 03c0 	add.w	r3, r2, r0, lsl #3
     f5c:	2901      	cmp	r1, #1
     f5e:	685b      	ldr	r3, [r3, #4]
     f60:	4614      	mov	r4, r2
     f62:	d001      	beq.n	f68 <pinMode+0x18>
     f64:	2904      	cmp	r1, #4
     f66:	d10f      	bne.n	f88 <pinMode+0x38>
     f68:	f854 2030 	ldr.w	r2, [r4, r0, lsl #3]
     f6c:	2001      	movs	r0, #1
     f6e:	f882 0280 	strb.w	r0, [r2, #640]	; 0x280
     f72:	f44f 72a2 	mov.w	r2, #324	; 0x144
     f76:	601a      	str	r2, [r3, #0]
     f78:	681a      	ldr	r2, [r3, #0]
     f7a:	2904      	cmp	r1, #4
     f7c:	bf0c      	ite	eq
     f7e:	f042 0220 	orreq.w	r2, r2, #32
     f82:	f022 0220 	bicne.w	r2, r2, #32
     f86:	e011      	b.n	fac <pinMode+0x5c>
     f88:	f852 0030 	ldr.w	r0, [r2, r0, lsl #3]
     f8c:	2200      	movs	r2, #0
     f8e:	f880 2280 	strb.w	r2, [r0, #640]	; 0x280
     f92:	b911      	cbnz	r1, f9a <pinMode+0x4a>
     f94:	f44f 7280 	mov.w	r2, #256	; 0x100
     f98:	e008      	b.n	fac <pinMode+0x5c>
     f9a:	2902      	cmp	r1, #2
     f9c:	d102      	bne.n	fa4 <pinMode+0x54>
     f9e:	f240 1203 	movw	r2, #259	; 0x103
     fa2:	e003      	b.n	fac <pinMode+0x5c>
     fa4:	2903      	cmp	r1, #3
     fa6:	bf08      	it	eq
     fa8:	f44f 7281 	moveq.w	r2, #258	; 0x102
     fac:	601a      	str	r2, [r3, #0]
     fae:	bd10      	pop	{r4, pc}
     fb0:	00009ec4 	.word	0x00009ec4

00000fb4 <attachInterrupt>:
     fb4:	283f      	cmp	r0, #63	; 0x3f
     fb6:	b570      	push	{r4, r5, r6, lr}
     fb8:	460d      	mov	r5, r1
     fba:	d83c      	bhi.n	1036 <attachInterrupt+0x82>
     fbc:	2a04      	cmp	r2, #4
     fbe:	d83a      	bhi.n	1036 <attachInterrupt+0x82>
     fc0:	e8df f002 	tbb	[pc, r2]
     fc4:	0b050907 	.word	0x0b050907
     fc8:	03          	.byte	0x03
     fc9:	00          	.byte	0x00
     fca:	230b      	movs	r3, #11
     fcc:	e006      	b.n	fdc <attachInterrupt+0x28>
     fce:	230a      	movs	r3, #10
     fd0:	e004      	b.n	fdc <attachInterrupt+0x28>
     fd2:	2308      	movs	r3, #8
     fd4:	e002      	b.n	fdc <attachInterrupt+0x28>
     fd6:	230c      	movs	r3, #12
     fd8:	e000      	b.n	fdc <attachInterrupt+0x28>
     fda:	2309      	movs	r3, #9
     fdc:	041e      	lsls	r6, r3, #16
     fde:	4b16      	ldr	r3, [pc, #88]	; (1038 <attachInterrupt+0x84>)
     fe0:	eb03 03c0 	add.w	r3, r3, r0, lsl #3
     fe4:	685c      	ldr	r4, [r3, #4]
     fe6:	6821      	ldr	r1, [r4, #0]
     fe8:	f411 61e0 	ands.w	r1, r1, #1792	; 0x700
     fec:	d101      	bne.n	ff2 <attachInterrupt+0x3e>
     fee:	f7ff ffaf 	bl	f50 <pinMode>
     ff2:	4b12      	ldr	r3, [pc, #72]	; (103c <attachInterrupt+0x88>)
     ff4:	4a12      	ldr	r2, [pc, #72]	; (1040 <attachInterrupt+0x8c>)
     ff6:	f8c3 212c 	str.w	r2, [r3, #300]	; 0x12c
     ffa:	4a12      	ldr	r2, [pc, #72]	; (1044 <attachInterrupt+0x90>)
     ffc:	f8c3 2130 	str.w	r2, [r3, #304]	; 0x130
    1000:	4a11      	ldr	r2, [pc, #68]	; (1048 <attachInterrupt+0x94>)
    1002:	f8c3 2134 	str.w	r2, [r3, #308]	; 0x134
    1006:	4a11      	ldr	r2, [pc, #68]	; (104c <attachInterrupt+0x98>)
    1008:	f8c3 2138 	str.w	r2, [r3, #312]	; 0x138
    100c:	4620      	mov	r0, r4
    100e:	4a10      	ldr	r2, [pc, #64]	; (1050 <attachInterrupt+0x9c>)
    1010:	f8c3 213c 	str.w	r2, [r3, #316]	; 0x13c
    1014:	f7ff fe23 	bl	c5e <getIsrTable>
    1018:	b168      	cbz	r0, 1036 <attachInterrupt+0x82>
    101a:	b672      	cpsid	i
    101c:	6822      	ldr	r2, [r4, #0]
    101e:	f422 2270 	bic.w	r2, r2, #983040	; 0xf0000
    1022:	6022      	str	r2, [r4, #0]
    1024:	f3c4 0384 	ubfx	r3, r4, #2, #5
    1028:	f042 7280 	orr.w	r2, r2, #16777216	; 0x1000000
    102c:	4316      	orrs	r6, r2
    102e:	f840 5023 	str.w	r5, [r0, r3, lsl #2]
    1032:	6026      	str	r6, [r4, #0]
    1034:	b662      	cpsie	i
    1036:	bd70      	pop	{r4, r5, r6, pc}
    1038:	00009ec4 	.word	0x00009ec4
    103c:	1fff0200 	.word	0x1fff0200
    1040:	1fff0819 	.word	0x1fff0819
    1044:	1fff07e9 	.word	0x1fff07e9
    1048:	1fff07b9 	.word	0x1fff07b9
    104c:	1fff078d 	.word	0x1fff078d
    1050:	1fff0761 	.word	0x1fff0761

00001054 <analogWrite>:
    1054:	f1a0 0342 	sub.w	r3, r0, #66	; 0x42
    1058:	2b01      	cmp	r3, #1
    105a:	b570      	push	{r4, r5, r6, lr}
    105c:	460a      	mov	r2, r1
    105e:	4604      	mov	r4, r0
    1060:	4b7c      	ldr	r3, [pc, #496]	; (1254 <analogWrite+0x200>)
    1062:	d818      	bhi.n	1096 <analogWrite+0x42>
    1064:	f893 31b4 	ldrb.w	r3, [r3, #436]	; 0x1b4
    1068:	2b0b      	cmp	r3, #11
    106a:	d804      	bhi.n	1076 <analogWrite+0x22>
    106c:	f1c3 030c 	rsb	r3, r3, #12
    1070:	fa01 f203 	lsl.w	r2, r1, r3
    1074:	e004      	b.n	1080 <analogWrite+0x2c>
    1076:	2b0c      	cmp	r3, #12
    1078:	bf1c      	itt	ne
    107a:	3b0c      	subne	r3, #12
    107c:	fa41 f203 	asrne.w	r2, r1, r3
    1080:	2c42      	cmp	r4, #66	; 0x42
    1082:	4610      	mov	r0, r2
    1084:	d103      	bne.n	108e <analogWrite+0x3a>
    1086:	e8bd 4070 	ldmia.w	sp!, {r4, r5, r6, lr}
    108a:	f7ff bb87 	b.w	79c <analogWriteDAC0>
    108e:	e8bd 4070 	ldmia.w	sp!, {r4, r5, r6, lr}
    1092:	f7ff bb9d 	b.w	7d0 <analogWriteDAC1>
    1096:	f893 51b4 	ldrb.w	r5, [r3, #436]	; 0x1b4
    109a:	2601      	movs	r6, #1
    109c:	2900      	cmp	r1, #0
    109e:	fa06 f305 	lsl.w	r3, r6, r5
    10a2:	bfd8      	it	le
    10a4:	2100      	movle	r1, #0
    10a6:	dd02      	ble.n	10ae <analogWrite+0x5a>
    10a8:	429a      	cmp	r2, r3
    10aa:	d305      	bcc.n	10b8 <analogWrite+0x64>
    10ac:	4631      	mov	r1, r6
    10ae:	f7ff ff21 	bl	ef4 <digitalWrite>
    10b2:	4620      	mov	r0, r4
    10b4:	4631      	mov	r1, r6
    10b6:	e0c8      	b.n	124a <analogWrite+0x1f6>
    10b8:	1ec3      	subs	r3, r0, #3
    10ba:	2b01      	cmp	r3, #1
    10bc:	d801      	bhi.n	10c2 <analogWrite+0x6e>
    10be:	4b66      	ldr	r3, [pc, #408]	; (1258 <analogWrite+0x204>)
    10c0:	e018      	b.n	10f4 <analogWrite+0xa0>
    10c2:	f1a0 031d 	sub.w	r3, r0, #29
    10c6:	2b01      	cmp	r3, #1
    10c8:	d801      	bhi.n	10ce <analogWrite+0x7a>
    10ca:	4b64      	ldr	r3, [pc, #400]	; (125c <analogWrite+0x208>)
    10cc:	e012      	b.n	10f4 <analogWrite+0xa0>
    10ce:	2802      	cmp	r0, #2
    10d0:	d008      	beq.n	10e4 <analogWrite+0x90>
    10d2:	280e      	cmp	r0, #14
    10d4:	d006      	beq.n	10e4 <analogWrite+0x90>
    10d6:	1fc3      	subs	r3, r0, #7
    10d8:	2b01      	cmp	r3, #1
    10da:	d903      	bls.n	10e4 <analogWrite+0x90>
    10dc:	f1a0 0323 	sub.w	r3, r0, #35	; 0x23
    10e0:	2b03      	cmp	r3, #3
    10e2:	d801      	bhi.n	10e8 <analogWrite+0x94>
    10e4:	4b5e      	ldr	r3, [pc, #376]	; (1260 <analogWrite+0x20c>)
    10e6:	e005      	b.n	10f4 <analogWrite+0xa0>
    10e8:	f1a0 0310 	sub.w	r3, r0, #16
    10ec:	2b01      	cmp	r3, #1
    10ee:	bf94      	ite	ls
    10f0:	4b5c      	ldrls	r3, [pc, #368]	; (1264 <analogWrite+0x210>)
    10f2:	4b5d      	ldrhi	r3, [pc, #372]	; (1268 <analogWrite+0x214>)
    10f4:	681b      	ldr	r3, [r3, #0]
    10f6:	1ea1      	subs	r1, r4, #2
    10f8:	fb03 2302 	mla	r3, r3, r2, r2
    10fc:	40eb      	lsrs	r3, r5
    10fe:	2924      	cmp	r1, #36	; 0x24
    1100:	f200 809a 	bhi.w	1238 <analogWrite+0x1e4>
    1104:	e8df f001 	tbb	[pc, r1]
    1108:	3d49435b 	.word	0x3d49435b
    110c:	1f6d672b 	.word	0x1f6d672b
    1110:	98989825 	.word	0x98989825
    1114:	918b9861 	.word	0x918b9861
    1118:	37319898 	.word	0x37319898
    111c:	98981913 	.word	0x98981913
    1120:	4f989898 	.word	0x4f989898
    1124:	98989855 	.word	0x98989855
    1128:	7f797398 	.word	0x7f797398
    112c:	85          	.byte	0x85
    112d:	00          	.byte	0x00
    112e:	4a4f      	ldr	r2, [pc, #316]	; (126c <analogWrite+0x218>)
    1130:	6013      	str	r3, [r2, #0]
    1132:	f240 4244 	movw	r2, #1092	; 0x444
    1136:	4b4e      	ldr	r3, [pc, #312]	; (1270 <analogWrite+0x21c>)
    1138:	e07c      	b.n	1234 <analogWrite+0x1e0>
    113a:	4a4e      	ldr	r2, [pc, #312]	; (1274 <analogWrite+0x220>)
    113c:	6013      	str	r3, [r2, #0]
    113e:	f240 4244 	movw	r2, #1092	; 0x444
    1142:	4b4d      	ldr	r3, [pc, #308]	; (1278 <analogWrite+0x224>)
    1144:	e076      	b.n	1234 <analogWrite+0x1e0>
    1146:	4a4d      	ldr	r2, [pc, #308]	; (127c <analogWrite+0x228>)
    1148:	6013      	str	r3, [r2, #0]
    114a:	f240 4244 	movw	r2, #1092	; 0x444
    114e:	4b4c      	ldr	r3, [pc, #304]	; (1280 <analogWrite+0x22c>)
    1150:	e070      	b.n	1234 <analogWrite+0x1e0>
    1152:	4a4c      	ldr	r2, [pc, #304]	; (1284 <analogWrite+0x230>)
    1154:	6013      	str	r3, [r2, #0]
    1156:	f240 4244 	movw	r2, #1092	; 0x444
    115a:	4b4b      	ldr	r3, [pc, #300]	; (1288 <analogWrite+0x234>)
    115c:	e06a      	b.n	1234 <analogWrite+0x1e0>
    115e:	4a4b      	ldr	r2, [pc, #300]	; (128c <analogWrite+0x238>)
    1160:	6013      	str	r3, [r2, #0]
    1162:	f240 4244 	movw	r2, #1092	; 0x444
    1166:	4b4a      	ldr	r3, [pc, #296]	; (1290 <analogWrite+0x23c>)
    1168:	e064      	b.n	1234 <analogWrite+0x1e0>
    116a:	4a4a      	ldr	r2, [pc, #296]	; (1294 <analogWrite+0x240>)
    116c:	6013      	str	r3, [r2, #0]
    116e:	f240 4244 	movw	r2, #1092	; 0x444
    1172:	4b49      	ldr	r3, [pc, #292]	; (1298 <analogWrite+0x244>)
    1174:	e05e      	b.n	1234 <analogWrite+0x1e0>
    1176:	4a49      	ldr	r2, [pc, #292]	; (129c <analogWrite+0x248>)
    1178:	6013      	str	r3, [r2, #0]
    117a:	f240 4244 	movw	r2, #1092	; 0x444
    117e:	4b48      	ldr	r3, [pc, #288]	; (12a0 <analogWrite+0x24c>)
    1180:	e058      	b.n	1234 <analogWrite+0x1e0>
    1182:	4a48      	ldr	r2, [pc, #288]	; (12a4 <analogWrite+0x250>)
    1184:	6013      	str	r3, [r2, #0]
    1186:	f240 4244 	movw	r2, #1092	; 0x444
    118a:	4b47      	ldr	r3, [pc, #284]	; (12a8 <analogWrite+0x254>)
    118c:	e052      	b.n	1234 <analogWrite+0x1e0>
    118e:	4a47      	ldr	r2, [pc, #284]	; (12ac <analogWrite+0x258>)
    1190:	6013      	str	r3, [r2, #0]
    1192:	f44f 7251 	mov.w	r2, #836	; 0x344
    1196:	4b46      	ldr	r3, [pc, #280]	; (12b0 <analogWrite+0x25c>)
    1198:	e04c      	b.n	1234 <analogWrite+0x1e0>
    119a:	4a46      	ldr	r2, [pc, #280]	; (12b4 <analogWrite+0x260>)
    119c:	6013      	str	r3, [r2, #0]
    119e:	f44f 7251 	mov.w	r2, #836	; 0x344
    11a2:	4b45      	ldr	r3, [pc, #276]	; (12b8 <analogWrite+0x264>)
    11a4:	e046      	b.n	1234 <analogWrite+0x1e0>
    11a6:	4a45      	ldr	r2, [pc, #276]	; (12bc <analogWrite+0x268>)
    11a8:	6013      	str	r3, [r2, #0]
    11aa:	f44f 7251 	mov.w	r2, #836	; 0x344
    11ae:	4b44      	ldr	r3, [pc, #272]	; (12c0 <analogWrite+0x26c>)
    11b0:	e040      	b.n	1234 <analogWrite+0x1e0>
    11b2:	4a44      	ldr	r2, [pc, #272]	; (12c4 <analogWrite+0x270>)
    11b4:	6013      	str	r3, [r2, #0]
    11b6:	f44f 7251 	mov.w	r2, #836	; 0x344
    11ba:	4b43      	ldr	r3, [pc, #268]	; (12c8 <analogWrite+0x274>)
    11bc:	e03a      	b.n	1234 <analogWrite+0x1e0>
    11be:	4a43      	ldr	r2, [pc, #268]	; (12cc <analogWrite+0x278>)
    11c0:	6013      	str	r3, [r2, #0]
    11c2:	f240 4244 	movw	r2, #1092	; 0x444
    11c6:	4b42      	ldr	r3, [pc, #264]	; (12d0 <analogWrite+0x27c>)
    11c8:	e034      	b.n	1234 <analogWrite+0x1e0>
    11ca:	4a42      	ldr	r2, [pc, #264]	; (12d4 <analogWrite+0x280>)
    11cc:	6013      	str	r3, [r2, #0]
    11ce:	f240 4244 	movw	r2, #1092	; 0x444
    11d2:	4b41      	ldr	r3, [pc, #260]	; (12d8 <analogWrite+0x284>)
    11d4:	e02e      	b.n	1234 <analogWrite+0x1e0>
    11d6:	4a41      	ldr	r2, [pc, #260]	; (12dc <analogWrite+0x288>)
    11d8:	6013      	str	r3, [r2, #0]
    11da:	f240 4244 	movw	r2, #1092	; 0x444
    11de:	4b40      	ldr	r3, [pc, #256]	; (12e0 <analogWrite+0x28c>)
    11e0:	e028      	b.n	1234 <analogWrite+0x1e0>
    11e2:	4a40      	ldr	r2, [pc, #256]	; (12e4 <analogWrite+0x290>)
    11e4:	6013      	str	r3, [r2, #0]
    11e6:	f240 4244 	movw	r2, #1092	; 0x444
    11ea:	4b3f      	ldr	r3, [pc, #252]	; (12e8 <analogWrite+0x294>)
    11ec:	e022      	b.n	1234 <analogWrite+0x1e0>
    11ee:	4a3f      	ldr	r2, [pc, #252]	; (12ec <analogWrite+0x298>)
    11f0:	6013      	str	r3, [r2, #0]
    11f2:	f44f 7251 	mov.w	r2, #836	; 0x344
    11f6:	4b3e      	ldr	r3, [pc, #248]	; (12f0 <analogWrite+0x29c>)
    11f8:	e01c      	b.n	1234 <analogWrite+0x1e0>
    11fa:	4a3e      	ldr	r2, [pc, #248]	; (12f4 <analogWrite+0x2a0>)
    11fc:	6013      	str	r3, [r2, #0]
    11fe:	f44f 7251 	mov.w	r2, #836	; 0x344
    1202:	4b3d      	ldr	r3, [pc, #244]	; (12f8 <analogWrite+0x2a4>)
    1204:	e016      	b.n	1234 <analogWrite+0x1e0>
    1206:	4a3d      	ldr	r2, [pc, #244]	; (12fc <analogWrite+0x2a8>)
    1208:	6013      	str	r3, [r2, #0]
    120a:	f44f 7251 	mov.w	r2, #836	; 0x344
    120e:	4b3c      	ldr	r3, [pc, #240]	; (1300 <analogWrite+0x2ac>)
    1210:	e010      	b.n	1234 <analogWrite+0x1e0>
    1212:	4a3c      	ldr	r2, [pc, #240]	; (1304 <analogWrite+0x2b0>)
    1214:	6013      	str	r3, [r2, #0]
    1216:	f44f 7251 	mov.w	r2, #836	; 0x344
    121a:	4b3b      	ldr	r3, [pc, #236]	; (1308 <analogWrite+0x2b4>)
    121c:	e00a      	b.n	1234 <analogWrite+0x1e0>
    121e:	4a3b      	ldr	r2, [pc, #236]	; (130c <analogWrite+0x2b8>)
    1220:	6013      	str	r3, [r2, #0]
    1222:	f240 6244 	movw	r2, #1604	; 0x644
    1226:	4b3a      	ldr	r3, [pc, #232]	; (1310 <analogWrite+0x2bc>)
    1228:	e004      	b.n	1234 <analogWrite+0x1e0>
    122a:	4a3a      	ldr	r2, [pc, #232]	; (1314 <analogWrite+0x2c0>)
    122c:	6013      	str	r3, [r2, #0]
    122e:	4b3a      	ldr	r3, [pc, #232]	; (1318 <analogWrite+0x2c4>)
    1230:	f240 6244 	movw	r2, #1604	; 0x644
    1234:	601a      	str	r2, [r3, #0]
    1236:	bd70      	pop	{r4, r5, r6, pc}
    1238:	2a7f      	cmp	r2, #127	; 0x7f
    123a:	4620      	mov	r0, r4
    123c:	bfd4      	ite	le
    123e:	2100      	movle	r1, #0
    1240:	2101      	movgt	r1, #1
    1242:	f7ff fe57 	bl	ef4 <digitalWrite>
    1246:	4620      	mov	r0, r4
    1248:	2101      	movs	r1, #1
    124a:	e8bd 4070 	ldmia.w	sp!, {r4, r5, r6, lr}
    124e:	f7ff be7f 	b.w	f50 <pinMode>
    1252:	bf00      	nop
    1254:	1fff0850 	.word	0x1fff0850
    1258:	40039008 	.word	0x40039008
    125c:	400b8008 	.word	0x400b8008
    1260:	400b9008 	.word	0x400b9008
    1264:	400c9008 	.word	0x400c9008
    1268:	40038008 	.word	0x40038008
    126c:	40038010 	.word	0x40038010
    1270:	4004b004 	.word	0x4004b004
    1274:	40038018 	.word	0x40038018
    1278:	4004b008 	.word	0x4004b008
    127c:	40038020 	.word	0x40038020
    1280:	4004b00c 	.word	0x4004b00c
    1284:	40038028 	.word	0x40038028
    1288:	4004b010 	.word	0x4004b010
    128c:	40038030 	.word	0x40038030
    1290:	4004c010 	.word	0x4004c010
    1294:	40038038 	.word	0x40038038
    1298:	4004c014 	.word	0x4004c014
    129c:	40038040 	.word	0x40038040
    12a0:	4004c018 	.word	0x4004c018
    12a4:	40038048 	.word	0x40038048
    12a8:	4004c01c 	.word	0x4004c01c
    12ac:	40039010 	.word	0x40039010
    12b0:	40049030 	.word	0x40049030
    12b4:	40039018 	.word	0x40039018
    12b8:	40049034 	.word	0x40049034
    12bc:	400b8010 	.word	0x400b8010
    12c0:	4004a048 	.word	0x4004a048
    12c4:	400b8018 	.word	0x400b8018
    12c8:	4004a04c 	.word	0x4004a04c
    12cc:	400b9010 	.word	0x400b9010
    12d0:	4004c000 	.word	0x4004c000
    12d4:	400b9018 	.word	0x400b9018
    12d8:	4004c004 	.word	0x4004c004
    12dc:	400b9020 	.word	0x400b9020
    12e0:	4004c008 	.word	0x4004c008
    12e4:	400b9028 	.word	0x400b9028
    12e8:	4004c00c 	.word	0x4004c00c
    12ec:	400b9030 	.word	0x400b9030
    12f0:	4004b020 	.word	0x4004b020
    12f4:	400b9038 	.word	0x400b9038
    12f8:	4004b024 	.word	0x4004b024
    12fc:	400b9040 	.word	0x400b9040
    1300:	4004b028 	.word	0x4004b028
    1304:	400b9048 	.word	0x400b9048
    1308:	4004b02c 	.word	0x4004b02c
    130c:	400c9010 	.word	0x400c9010
    1310:	4004a000 	.word	0x4004a000
    1314:	400c9018 	.word	0x400c9018
    1318:	4004a004 	.word	0x4004a004

0000131c <shiftOut_lsbFirst>:
    131c:	e92d 41f0 	stmdb	sp!, {r4, r5, r6, r7, r8, lr}
    1320:	4607      	mov	r7, r0
    1322:	460e      	mov	r6, r1
    1324:	4690      	mov	r8, r2
    1326:	2408      	movs	r4, #8
    1328:	2501      	movs	r5, #1
    132a:	ea05 0108 	and.w	r1, r5, r8
    132e:	4638      	mov	r0, r7
    1330:	f7ff fde0 	bl	ef4 <digitalWrite>
    1334:	4630      	mov	r0, r6
    1336:	2101      	movs	r1, #1
    1338:	f7ff fddc 	bl	ef4 <digitalWrite>
    133c:	4630      	mov	r0, r6
    133e:	2100      	movs	r1, #0
    1340:	f7ff fdd8 	bl	ef4 <digitalWrite>
    1344:	006d      	lsls	r5, r5, #1
    1346:	3c01      	subs	r4, #1
    1348:	b2ed      	uxtb	r5, r5
    134a:	d1ee      	bne.n	132a <shiftOut_lsbFirst+0xe>
    134c:	e8bd 81f0 	ldmia.w	sp!, {r4, r5, r6, r7, r8, pc}

00001350 <shiftOut_msbFirst>:
    1350:	e92d 41f0 	stmdb	sp!, {r4, r5, r6, r7, r8, lr}
    1354:	4607      	mov	r7, r0
    1356:	460e      	mov	r6, r1
    1358:	4690      	mov	r8, r2
    135a:	2408      	movs	r4, #8
    135c:	2580      	movs	r5, #128	; 0x80
    135e:	ea05 0108 	and.w	r1, r5, r8
    1362:	4638      	mov	r0, r7
    1364:	f7ff fdc6 	bl	ef4 <digitalWrite>
    1368:	4630      	mov	r0, r6
    136a:	2101      	movs	r1, #1
    136c:	f7ff fdc2 	bl	ef4 <digitalWrite>
    1370:	4630      	mov	r0, r6
    1372:	2100      	movs	r1, #0
    1374:	f7ff fdbe 	bl	ef4 <digitalWrite>
    1378:	3c01      	subs	r4, #1
    137a:	ea4f 0555 	mov.w	r5, r5, lsr #1
    137e:	d1ee      	bne.n	135e <shiftOut_msbFirst+0xe>
    1380:	e8bd 81f0 	ldmia.w	sp!, {r4, r5, r6, r7, r8, pc}

00001384 <_shiftOut>:
    1384:	b912      	cbnz	r2, 138c <_shiftOut+0x8>
    1386:	461a      	mov	r2, r3
    1388:	f7ff bfc8 	b.w	131c <shiftOut_lsbFirst>
    138c:	461a      	mov	r2, r3
    138e:	f7ff bfdf 	b.w	1350 <shiftOut_msbFirst>

00001392 <shiftIn_lsbFirst>:
    1392:	e92d 41f0 	stmdb	sp!, {r4, r5, r6, r7, r8, lr}
    1396:	4680      	mov	r8, r0
    1398:	460f      	mov	r7, r1
    139a:	2408      	movs	r4, #8
    139c:	2500      	movs	r5, #0
    139e:	2601      	movs	r6, #1
    13a0:	4638      	mov	r0, r7
    13a2:	2101      	movs	r1, #1
    13a4:	f7ff fda6 	bl	ef4 <digitalWrite>
    13a8:	4640      	mov	r0, r8
    13aa:	f7ff fdc3 	bl	f34 <digitalRead>
    13ae:	b100      	cbz	r0, 13b2 <shiftIn_lsbFirst+0x20>
    13b0:	4335      	orrs	r5, r6
    13b2:	4638      	mov	r0, r7
    13b4:	2100      	movs	r1, #0
    13b6:	f7ff fd9d 	bl	ef4 <digitalWrite>
    13ba:	0076      	lsls	r6, r6, #1
    13bc:	3c01      	subs	r4, #1
    13be:	b2f6      	uxtb	r6, r6
    13c0:	d1ee      	bne.n	13a0 <shiftIn_lsbFirst+0xe>
    13c2:	4628      	mov	r0, r5
    13c4:	e8bd 81f0 	ldmia.w	sp!, {r4, r5, r6, r7, r8, pc}

000013c8 <shiftIn_msbFirst>:
    13c8:	e92d 41f0 	stmdb	sp!, {r4, r5, r6, r7, r8, lr}
    13cc:	4680      	mov	r8, r0
    13ce:	460f      	mov	r7, r1
    13d0:	2408      	movs	r4, #8
    13d2:	2500      	movs	r5, #0
    13d4:	2680      	movs	r6, #128	; 0x80
    13d6:	4638      	mov	r0, r7
    13d8:	2101      	movs	r1, #1
    13da:	f7ff fd8b 	bl	ef4 <digitalWrite>
    13de:	4640      	mov	r0, r8
    13e0:	f7ff fda8 	bl	f34 <digitalRead>
    13e4:	b100      	cbz	r0, 13e8 <shiftIn_msbFirst+0x20>
    13e6:	4335      	orrs	r5, r6
    13e8:	4638      	mov	r0, r7
    13ea:	2100      	movs	r1, #0
    13ec:	f7ff fd82 	bl	ef4 <digitalWrite>
    13f0:	3c01      	subs	r4, #1
    13f2:	ea4f 0656 	mov.w	r6, r6, lsr #1
    13f6:	d1ee      	bne.n	13d6 <shiftIn_msbFirst+0xe>
    13f8:	4628      	mov	r0, r5
    13fa:	e8bd 81f0 	ldmia.w	sp!, {r4, r5, r6, r7, r8, pc}

000013fe <_shiftIn>:
    13fe:	b90a      	cbnz	r2, 1404 <_shiftIn+0x6>
    1400:	f7ff bfc7 	b.w	1392 <shiftIn_lsbFirst>
    1404:	f7ff bfe0 	b.w	13c8 <shiftIn_msbFirst>

00001408 <micros>:
    1408:	b672      	cpsid	i
    140a:	4b0b      	ldr	r3, [pc, #44]	; (1438 <micros+0x30>)
    140c:	490b      	ldr	r1, [pc, #44]	; (143c <micros+0x34>)
    140e:	681a      	ldr	r2, [r3, #0]
    1410:	4b0b      	ldr	r3, [pc, #44]	; (1440 <micros+0x38>)
    1412:	681b      	ldr	r3, [r3, #0]
    1414:	6809      	ldr	r1, [r1, #0]
    1416:	b662      	cpsie	i
    1418:	0149      	lsls	r1, r1, #5
    141a:	d502      	bpl.n	1422 <micros+0x1a>
    141c:	2a32      	cmp	r2, #50	; 0x32
    141e:	bf88      	it	hi
    1420:	3301      	addhi	r3, #1
    1422:	f5c2 32ea 	rsb	r2, r2, #119808	; 0x1d400
    1426:	2178      	movs	r1, #120	; 0x78
    1428:	32bf      	adds	r2, #191	; 0xbf
    142a:	fbb2 f2f1 	udiv	r2, r2, r1
    142e:	f44f 707a 	mov.w	r0, #1000	; 0x3e8
    1432:	fb00 2003 	mla	r0, r0, r3, r2
    1436:	4770      	bx	lr
    1438:	e000e018 	.word	0xe000e018
    143c:	e000ed04 	.word	0xe000ed04
    1440:	1fff0b7c 	.word	0x1fff0b7c

00001444 <delay>:
    1444:	b538      	push	{r3, r4, r5, lr}
    1446:	4604      	mov	r4, r0
    1448:	f7ff ffde 	bl	1408 <micros>
    144c:	4605      	mov	r5, r0
    144e:	b924      	cbnz	r4, 145a <delay+0x16>
    1450:	bd38      	pop	{r3, r4, r5, pc}
    1452:	3c01      	subs	r4, #1
    1454:	d00a      	beq.n	146c <delay+0x28>
    1456:	f505 757a 	add.w	r5, r5, #1000	; 0x3e8
    145a:	f7ff ffd5 	bl	1408 <micros>
    145e:	1b40      	subs	r0, r0, r5
    1460:	f5b0 7f7a 	cmp.w	r0, #1000	; 0x3e8
    1464:	d2f5      	bcs.n	1452 <delay+0xe>
    1466:	f004 f8a3 	bl	55b0 <yield>
    146a:	e7f6      	b.n	145a <delay+0x16>
    146c:	bd38      	pop	{r3, r4, r5, pc}

0000146e <_init_Teensyduino_internal_>:
    146e:	4b36      	ldr	r3, [pc, #216]	; (1548 <_init_Teensyduino_internal_+0xda>)
    1470:	4936      	ldr	r1, [pc, #216]	; (154c <_init_Teensyduino_internal_+0xde>)
    1472:	f04f 6200 	mov.w	r2, #134217728	; 0x8000000
    1476:	b570      	push	{r4, r5, r6, lr}
    1478:	601a      	str	r2, [r3, #0]
    147a:	f04f 5280 	mov.w	r2, #268435456	; 0x10000000
    147e:	601a      	str	r2, [r3, #0]
    1480:	f04f 5200 	mov.w	r2, #536870912	; 0x20000000
    1484:	601a      	str	r2, [r3, #0]
    1486:	f04f 4280 	mov.w	r2, #1073741824	; 0x40000000
    148a:	601a      	str	r2, [r3, #0]
    148c:	f04f 4200 	mov.w	r2, #2147483648	; 0x80000000
    1490:	601a      	str	r2, [r3, #0]
    1492:	4b2f      	ldr	r3, [pc, #188]	; (1550 <_init_Teensyduino_internal_+0xe2>)
    1494:	4d2f      	ldr	r5, [pc, #188]	; (1554 <_init_Teensyduino_internal_+0xe6>)
    1496:	4c30      	ldr	r4, [pc, #192]	; (1558 <_init_Teensyduino_internal_+0xea>)
    1498:	4e30      	ldr	r6, [pc, #192]	; (155c <_init_Teensyduino_internal_+0xee>)
    149a:	2200      	movs	r2, #0
    149c:	f64e 70ff 	movw	r0, #61439	; 0xefff
    14a0:	601a      	str	r2, [r3, #0]
    14a2:	6058      	str	r0, [r3, #4]
    14a4:	2328      	movs	r3, #40	; 0x28
    14a6:	600b      	str	r3, [r1, #0]
    14a8:	608b      	str	r3, [r1, #8]
    14aa:	610b      	str	r3, [r1, #16]
    14ac:	618b      	str	r3, [r1, #24]
    14ae:	620b      	str	r3, [r1, #32]
    14b0:	628b      	str	r3, [r1, #40]	; 0x28
    14b2:	630b      	str	r3, [r1, #48]	; 0x30
    14b4:	638b      	str	r3, [r1, #56]	; 0x38
    14b6:	3110      	adds	r1, #16
    14b8:	f501 2101 	add.w	r1, r1, #528384	; 0x81000
    14bc:	602b      	str	r3, [r5, #0]
    14be:	6023      	str	r3, [r4, #0]
    14c0:	600b      	str	r3, [r1, #0]
    14c2:	608b      	str	r3, [r1, #8]
    14c4:	610b      	str	r3, [r1, #16]
    14c6:	618b      	str	r3, [r1, #24]
    14c8:	620b      	str	r3, [r1, #32]
    14ca:	628b      	str	r3, [r1, #40]	; 0x28
    14cc:	2109      	movs	r1, #9
    14ce:	6031      	str	r1, [r6, #0]
    14d0:	f506 5680 	add.w	r6, r6, #4096	; 0x1000
    14d4:	3604      	adds	r6, #4
    14d6:	6032      	str	r2, [r6, #0]
    14d8:	6070      	str	r0, [r6, #4]
    14da:	60b3      	str	r3, [r6, #8]
    14dc:	6133      	str	r3, [r6, #16]
    14de:	f846 1c04 	str.w	r1, [r6, #-4]
    14e2:	f506 26fe 	add.w	r6, r6, #520192	; 0x7f000
    14e6:	6032      	str	r2, [r6, #0]
    14e8:	6070      	str	r0, [r6, #4]
    14ea:	60b3      	str	r3, [r6, #8]
    14ec:	6133      	str	r3, [r6, #16]
    14ee:	f846 1c04 	str.w	r1, [r6, #-4]
    14f2:	f506 5680 	add.w	r6, r6, #4096	; 0x1000
    14f6:	6032      	str	r2, [r6, #0]
    14f8:	6070      	str	r0, [r6, #4]
    14fa:	4819      	ldr	r0, [pc, #100]	; (1560 <_init_Teensyduino_internal_+0xf2>)
    14fc:	602b      	str	r3, [r5, #0]
    14fe:	6023      	str	r3, [r4, #0]
    1500:	6001      	str	r1, [r0, #0]
    1502:	4918      	ldr	r1, [pc, #96]	; (1564 <_init_Teensyduino_internal_+0xf6>)
    1504:	6808      	ldr	r0, [r1, #0]
    1506:	f440 7000 	orr.w	r0, r0, #512	; 0x200
    150a:	6008      	str	r0, [r1, #0]
    150c:	f851 0c28 	ldr.w	r0, [r1, #-40]
    1510:	f040 7000 	orr.w	r0, r0, #33554432	; 0x2000000
    1514:	f841 0c28 	str.w	r0, [r1, #-40]
    1518:	3928      	subs	r1, #40	; 0x28
    151a:	f501 2101 	add.w	r1, r1, #528384	; 0x81000
    151e:	600a      	str	r2, [r1, #0]
    1520:	4a11      	ldr	r2, [pc, #68]	; (1568 <_init_Teensyduino_internal_+0xfa>)
    1522:	f647 71ff 	movw	r1, #32767	; 0x7fff
    1526:	6011      	str	r1, [r2, #0]
    1528:	6053      	str	r3, [r2, #4]
    152a:	60d3      	str	r3, [r2, #12]
    152c:	4b0f      	ldr	r3, [pc, #60]	; (156c <_init_Teensyduino_internal_+0xfe>)
    152e:	2208      	movs	r2, #8
    1530:	601a      	str	r2, [r3, #0]
    1532:	f7ff f809 	bl	548 <analog_init>
    1536:	f44f 70c8 	mov.w	r0, #400	; 0x190
    153a:	f7ff ff83 	bl	1444 <delay>
    153e:	e8bd 4070 	ldmia.w	sp!, {r4, r5, r6, lr}
    1542:	f002 bc4f 	b.w	3de4 <usb_init>
    1546:	bf00      	nop
    1548:	e000e104 	.word	0xe000e104
    154c:	4003800c 	.word	0x4003800c
    1550:	40038004 	.word	0x40038004
    1554:	400b900c 	.word	0x400b900c
    1558:	400b9014 	.word	0x400b9014
    155c:	40038000 	.word	0x40038000
    1560:	400b9000 	.word	0x400b9000
    1564:	4004802c 	.word	0x4004802c
    1568:	400c9008 	.word	0x400c9008
    156c:	400c9000 	.word	0x400c9000

00001570 <pulseIn_high>:
    1570:	b570      	push	{r4, r5, r6, lr}
    1572:	2412      	movs	r4, #18
    1574:	4605      	mov	r5, r0
    1576:	434c      	muls	r4, r1
    1578:	782b      	ldrb	r3, [r5, #0]
    157a:	b12b      	cbz	r3, 1588 <pulseIn_high+0x18>
    157c:	3c01      	subs	r4, #1
    157e:	d1fb      	bne.n	1578 <pulseIn_high+0x8>
    1580:	2000      	movs	r0, #0
    1582:	bd70      	pop	{r4, r5, r6, pc}
    1584:	3c01      	subs	r4, #1
    1586:	d0fb      	beq.n	1580 <pulseIn_high+0x10>
    1588:	782b      	ldrb	r3, [r5, #0]
    158a:	2b00      	cmp	r3, #0
    158c:	d0fa      	beq.n	1584 <pulseIn_high+0x14>
    158e:	f7ff ff3b 	bl	1408 <micros>
    1592:	4606      	mov	r6, r0
    1594:	782b      	ldrb	r3, [r5, #0]
    1596:	b113      	cbz	r3, 159e <pulseIn_high+0x2e>
    1598:	3c01      	subs	r4, #1
    159a:	d1fb      	bne.n	1594 <pulseIn_high+0x24>
    159c:	e7f0      	b.n	1580 <pulseIn_high+0x10>
    159e:	f7ff ff33 	bl	1408 <micros>
    15a2:	1b80      	subs	r0, r0, r6
    15a4:	bd70      	pop	{r4, r5, r6, pc}

000015a6 <pulseIn_low>:
    15a6:	b570      	push	{r4, r5, r6, lr}
    15a8:	2412      	movs	r4, #18
    15aa:	4605      	mov	r5, r0
    15ac:	434c      	muls	r4, r1
    15ae:	782b      	ldrb	r3, [r5, #0]
    15b0:	b92b      	cbnz	r3, 15be <pulseIn_low+0x18>
    15b2:	3c01      	subs	r4, #1
    15b4:	d1fb      	bne.n	15ae <pulseIn_low+0x8>
    15b6:	2000      	movs	r0, #0
    15b8:	bd70      	pop	{r4, r5, r6, pc}
    15ba:	3c01      	subs	r4, #1
    15bc:	d0fb      	beq.n	15b6 <pulseIn_low+0x10>
    15be:	782b      	ldrb	r3, [r5, #0]
    15c0:	2b00      	cmp	r3, #0
    15c2:	d1fa      	bne.n	15ba <pulseIn_low+0x14>
    15c4:	f7ff ff20 	bl	1408 <micros>
    15c8:	4606      	mov	r6, r0
    15ca:	782b      	ldrb	r3, [r5, #0]
    15cc:	b913      	cbnz	r3, 15d4 <pulseIn_low+0x2e>
    15ce:	3c01      	subs	r4, #1
    15d0:	d1fb      	bne.n	15ca <pulseIn_low+0x24>
    15d2:	e7f0      	b.n	15b6 <pulseIn_low+0x10>
    15d4:	f7ff ff18 	bl	1408 <micros>
    15d8:	1b80      	subs	r0, r0, r6
    15da:	bd70      	pop	{r4, r5, r6, pc}

000015dc <pulseIn>:
    15dc:	283f      	cmp	r0, #63	; 0x3f
    15de:	d80b      	bhi.n	15f8 <pulseIn+0x1c>
    15e0:	4b06      	ldr	r3, [pc, #24]	; (15fc <pulseIn+0x20>)
    15e2:	f853 0030 	ldr.w	r0, [r3, r0, lsl #3]
    15e6:	f500 7000 	add.w	r0, r0, #512	; 0x200
    15ea:	b111      	cbz	r1, 15f2 <pulseIn+0x16>
    15ec:	4611      	mov	r1, r2
    15ee:	f7ff bfbf 	b.w	1570 <pulseIn_high>
    15f2:	4611      	mov	r1, r2
    15f4:	f7ff bfd7 	b.w	15a6 <pulseIn_low>
    15f8:	2000      	movs	r0, #0
    15fa:	4770      	bx	lr
    15fc:	00009ec4 	.word	0x00009ec4

00001600 <serial_begin>:
    1600:	4b26      	ldr	r3, [pc, #152]	; (169c <serial_begin+0x9c>)
    1602:	681a      	ldr	r2, [r3, #0]
    1604:	f442 6280 	orr.w	r2, r2, #1024	; 0x400
    1608:	601a      	str	r2, [r3, #0]
    160a:	4b25      	ldr	r3, [pc, #148]	; (16a0 <serial_begin+0xa0>)
    160c:	2200      	movs	r2, #0
    160e:	701a      	strb	r2, [r3, #0]
    1610:	705a      	strb	r2, [r3, #1]
    1612:	709a      	strb	r2, [r3, #2]
    1614:	70da      	strb	r2, [r3, #3]
    1616:	711a      	strb	r2, [r3, #4]
    1618:	795b      	ldrb	r3, [r3, #5]
    161a:	2b15      	cmp	r3, #21
    161c:	d006      	beq.n	162c <serial_begin+0x2c>
    161e:	2b1b      	cmp	r3, #27
    1620:	d008      	beq.n	1634 <serial_begin+0x34>
    1622:	b95b      	cbnz	r3, 163c <serial_begin+0x3c>
    1624:	f240 3213 	movw	r2, #787	; 0x313
    1628:	4b1e      	ldr	r3, [pc, #120]	; (16a4 <serial_begin+0xa4>)
    162a:	e006      	b.n	163a <serial_begin+0x3a>
    162c:	f240 3213 	movw	r2, #787	; 0x313
    1630:	4b1d      	ldr	r3, [pc, #116]	; (16a8 <serial_begin+0xa8>)
    1632:	e002      	b.n	163a <serial_begin+0x3a>
    1634:	4b1d      	ldr	r3, [pc, #116]	; (16ac <serial_begin+0xac>)
    1636:	f240 3213 	movw	r2, #787	; 0x313
    163a:	601a      	str	r2, [r3, #0]
    163c:	4b1c      	ldr	r3, [pc, #112]	; (16b0 <serial_begin+0xb0>)
    163e:	781b      	ldrb	r3, [r3, #0]
    1640:	2b05      	cmp	r3, #5
    1642:	d007      	beq.n	1654 <serial_begin+0x54>
    1644:	2b1a      	cmp	r3, #26
    1646:	d009      	beq.n	165c <serial_begin+0x5c>
    1648:	2b01      	cmp	r3, #1
    164a:	d10b      	bne.n	1664 <serial_begin+0x64>
    164c:	f44f 7251 	mov.w	r2, #836	; 0x344
    1650:	4b18      	ldr	r3, [pc, #96]	; (16b4 <serial_begin+0xb4>)
    1652:	e006      	b.n	1662 <serial_begin+0x62>
    1654:	f44f 7251 	mov.w	r2, #836	; 0x344
    1658:	4b17      	ldr	r3, [pc, #92]	; (16b8 <serial_begin+0xb8>)
    165a:	e002      	b.n	1662 <serial_begin+0x62>
    165c:	4b17      	ldr	r3, [pc, #92]	; (16bc <serial_begin+0xbc>)
    165e:	f44f 7251 	mov.w	r2, #836	; 0x344
    1662:	601a      	str	r2, [r3, #0]
    1664:	4b16      	ldr	r3, [pc, #88]	; (16c0 <serial_begin+0xc0>)
    1666:	f3c0 3244 	ubfx	r2, r0, #13, #5
    166a:	701a      	strb	r2, [r3, #0]
    166c:	f3c0 1247 	ubfx	r2, r0, #5, #8
    1670:	705a      	strb	r2, [r3, #1]
    1672:	f000 001f 	and.w	r0, r0, #31
    1676:	2204      	movs	r2, #4
    1678:	2102      	movs	r1, #2
    167a:	7298      	strb	r0, [r3, #10]
    167c:	709a      	strb	r2, [r3, #2]
    167e:	74d9      	strb	r1, [r3, #19]
    1680:	755a      	strb	r2, [r3, #21]
    1682:	2288      	movs	r2, #136	; 0x88
    1684:	741a      	strb	r2, [r3, #16]
    1686:	223c      	movs	r2, #60	; 0x3c
    1688:	70da      	strb	r2, [r3, #3]
    168a:	4b0e      	ldr	r3, [pc, #56]	; (16c4 <serial_begin+0xc4>)
    168c:	2240      	movs	r2, #64	; 0x40
    168e:	701a      	strb	r2, [r3, #0]
    1690:	f2a3 331f 	subw	r3, r3, #799	; 0x31f
    1694:	f04f 4200 	mov.w	r2, #2147483648	; 0x80000000
    1698:	601a      	str	r2, [r3, #0]
    169a:	4770      	bx	lr
    169c:	40048034 	.word	0x40048034
    16a0:	1fff0b80 	.word	0x1fff0b80
    16a4:	4004a040 	.word	0x4004a040
    16a8:	4004c018 	.word	0x4004c018
    16ac:	4004903c 	.word	0x4004903c
    16b0:	1fff0a08 	.word	0x1fff0a08
    16b4:	4004a044 	.word	0x4004a044
    16b8:	4004c01c 	.word	0x4004c01c
    16bc:	40049038 	.word	0x40049038
    16c0:	4006a000 	.word	0x4006a000
    16c4:	e000e41f 	.word	0xe000e41f

000016c8 <serial_format>:
    16c8:	4a19      	ldr	r2, [pc, #100]	; (1730 <serial_format+0x68>)
    16ca:	7893      	ldrb	r3, [r2, #2]
    16cc:	f000 0103 	and.w	r1, r0, #3
    16d0:	f003 03ec 	and.w	r3, r3, #236	; 0xec
    16d4:	430b      	orrs	r3, r1
    16d6:	0741      	lsls	r1, r0, #29
    16d8:	bf48      	it	mi
    16da:	f043 0310 	orrmi.w	r3, r3, #16
    16de:	7093      	strb	r3, [r2, #2]
    16e0:	f000 030f 	and.w	r3, r0, #15
    16e4:	2b04      	cmp	r3, #4
    16e6:	4912      	ldr	r1, [pc, #72]	; (1730 <serial_format+0x68>)
    16e8:	d103      	bne.n	16f2 <serial_format+0x2a>
    16ea:	798b      	ldrb	r3, [r1, #6]
    16ec:	f043 0340 	orr.w	r3, r3, #64	; 0x40
    16f0:	718b      	strb	r3, [r1, #6]
    16f2:	7952      	ldrb	r2, [r2, #5]
    16f4:	4b0e      	ldr	r3, [pc, #56]	; (1730 <serial_format+0x68>)
    16f6:	f002 02ef 	and.w	r2, r2, #239	; 0xef
    16fa:	06c1      	lsls	r1, r0, #27
    16fc:	bf48      	it	mi
    16fe:	f042 0210 	orrmi.w	r2, r2, #16
    1702:	715a      	strb	r2, [r3, #5]
    1704:	799a      	ldrb	r2, [r3, #6]
    1706:	f010 0f20 	tst.w	r0, #32
    170a:	f002 02ef 	and.w	r2, r2, #239	; 0xef
    170e:	4619      	mov	r1, r3
    1710:	bf18      	it	ne
    1712:	f042 0210 	orrne.w	r2, r2, #16
    1716:	718a      	strb	r2, [r1, #6]
    1718:	05c2      	lsls	r2, r0, #23
    171a:	4b05      	ldr	r3, [pc, #20]	; (1730 <serial_format+0x68>)
    171c:	d506      	bpl.n	172c <serial_format+0x64>
    171e:	785a      	ldrb	r2, [r3, #1]
    1720:	7819      	ldrb	r1, [r3, #0]
    1722:	b2d2      	uxtb	r2, r2
    1724:	f041 0120 	orr.w	r1, r1, #32
    1728:	7019      	strb	r1, [r3, #0]
    172a:	705a      	strb	r2, [r3, #1]
    172c:	4770      	bx	lr
    172e:	bf00      	nop
    1730:	4006a000 	.word	0x4006a000

00001734 <serial_end>:
    1734:	b508      	push	{r3, lr}
    1736:	4b0f      	ldr	r3, [pc, #60]	; (1774 <serial_end+0x40>)
    1738:	681b      	ldr	r3, [r3, #0]
    173a:	055b      	lsls	r3, r3, #21
    173c:	d400      	bmi.n	1740 <serial_end+0xc>
    173e:	bd08      	pop	{r3, pc}
    1740:	4b0d      	ldr	r3, [pc, #52]	; (1778 <serial_end+0x44>)
    1742:	7919      	ldrb	r1, [r3, #4]
    1744:	f001 02ff 	and.w	r2, r1, #255	; 0xff
    1748:	b111      	cbz	r1, 1750 <serial_end+0x1c>
    174a:	f003 ff31 	bl	55b0 <yield>
    174e:	e7f7      	b.n	1740 <serial_end+0xc>
    1750:	490a      	ldr	r1, [pc, #40]	; (177c <serial_end+0x48>)
    1752:	f04f 4000 	mov.w	r0, #2147483648	; 0x80000000
    1756:	6008      	str	r0, [r1, #0]
    1758:	4909      	ldr	r1, [pc, #36]	; (1780 <serial_end+0x4c>)
    175a:	480a      	ldr	r0, [pc, #40]	; (1784 <serial_end+0x50>)
    175c:	70ca      	strb	r2, [r1, #3]
    175e:	f240 1103 	movw	r1, #259	; 0x103
    1762:	6001      	str	r1, [r0, #0]
    1764:	6041      	str	r1, [r0, #4]
    1766:	701a      	strb	r2, [r3, #0]
    1768:	705a      	strb	r2, [r3, #1]
    176a:	689b      	ldr	r3, [r3, #8]
    176c:	b10b      	cbz	r3, 1772 <serial_end+0x3e>
    176e:	2201      	movs	r2, #1
    1770:	701a      	strb	r2, [r3, #0]
    1772:	bd08      	pop	{r3, pc}
    1774:	40048034 	.word	0x40048034
    1778:	1fff0b80 	.word	0x1fff0b80
    177c:	e000e180 	.word	0xe000e180
    1780:	4006a000 	.word	0x4006a000
    1784:	4004a040 	.word	0x4004a040

00001788 <serial_set_transmit_pin>:
    1788:	b570      	push	{r4, r5, r6, lr}
    178a:	4604      	mov	r4, r0
    178c:	4d09      	ldr	r5, [pc, #36]	; (17b4 <serial_set_transmit_pin+0x2c>)
    178e:	792b      	ldrb	r3, [r5, #4]
    1790:	f003 06ff 	and.w	r6, r3, #255	; 0xff
    1794:	2b00      	cmp	r3, #0
    1796:	d1f9      	bne.n	178c <serial_set_transmit_pin+0x4>
    1798:	4620      	mov	r0, r4
    179a:	2101      	movs	r1, #1
    179c:	f7ff fbd8 	bl	f50 <pinMode>
    17a0:	4620      	mov	r0, r4
    17a2:	4631      	mov	r1, r6
    17a4:	f7ff fba6 	bl	ef4 <digitalWrite>
    17a8:	4b03      	ldr	r3, [pc, #12]	; (17b8 <serial_set_transmit_pin+0x30>)
    17aa:	f853 3034 	ldr.w	r3, [r3, r4, lsl #3]
    17ae:	60eb      	str	r3, [r5, #12]
    17b0:	bd70      	pop	{r4, r5, r6, pc}
    17b2:	bf00      	nop
    17b4:	1fff0b80 	.word	0x1fff0b80
    17b8:	00009ec4 	.word	0x00009ec4

000017bc <serial_set_tx>:
    17bc:	b510      	push	{r4, lr}
    17be:	b109      	cbz	r1, 17c4 <serial_set_tx+0x8>
    17c0:	f040 0080 	orr.w	r0, r0, #128	; 0x80
    17c4:	4a19      	ldr	r2, [pc, #100]	; (182c <serial_set_tx+0x70>)
    17c6:	7813      	ldrb	r3, [r2, #0]
    17c8:	4298      	cmp	r0, r3
    17ca:	4614      	mov	r4, r2
    17cc:	d02d      	beq.n	182a <serial_set_tx+0x6e>
    17ce:	4a18      	ldr	r2, [pc, #96]	; (1830 <serial_set_tx+0x74>)
    17d0:	6812      	ldr	r2, [r2, #0]
    17d2:	0552      	lsls	r2, r2, #21
    17d4:	d528      	bpl.n	1828 <serial_set_tx+0x6c>
    17d6:	f003 037f 	and.w	r3, r3, #127	; 0x7f
    17da:	2b05      	cmp	r3, #5
    17dc:	d006      	beq.n	17ec <serial_set_tx+0x30>
    17de:	2b1a      	cmp	r3, #26
    17e0:	d007      	beq.n	17f2 <serial_set_tx+0x36>
    17e2:	2b01      	cmp	r3, #1
    17e4:	d108      	bne.n	17f8 <serial_set_tx+0x3c>
    17e6:	2200      	movs	r2, #0
    17e8:	4b12      	ldr	r3, [pc, #72]	; (1834 <serial_set_tx+0x78>)
    17ea:	e004      	b.n	17f6 <serial_set_tx+0x3a>
    17ec:	2200      	movs	r2, #0
    17ee:	4b12      	ldr	r3, [pc, #72]	; (1838 <serial_set_tx+0x7c>)
    17f0:	e001      	b.n	17f6 <serial_set_tx+0x3a>
    17f2:	4b12      	ldr	r3, [pc, #72]	; (183c <serial_set_tx+0x80>)
    17f4:	2200      	movs	r2, #0
    17f6:	601a      	str	r2, [r3, #0]
    17f8:	2900      	cmp	r1, #0
    17fa:	f000 027f 	and.w	r2, r0, #127	; 0x7f
    17fe:	bf0c      	ite	eq
    1800:	2344      	moveq	r3, #68	; 0x44
    1802:	2360      	movne	r3, #96	; 0x60
    1804:	2a05      	cmp	r2, #5
    1806:	d007      	beq.n	1818 <serial_set_tx+0x5c>
    1808:	2a1a      	cmp	r2, #26
    180a:	d009      	beq.n	1820 <serial_set_tx+0x64>
    180c:	2a01      	cmp	r2, #1
    180e:	d10b      	bne.n	1828 <serial_set_tx+0x6c>
    1810:	f443 7340 	orr.w	r3, r3, #768	; 0x300
    1814:	4a07      	ldr	r2, [pc, #28]	; (1834 <serial_set_tx+0x78>)
    1816:	e006      	b.n	1826 <serial_set_tx+0x6a>
    1818:	f443 7340 	orr.w	r3, r3, #768	; 0x300
    181c:	4a06      	ldr	r2, [pc, #24]	; (1838 <serial_set_tx+0x7c>)
    181e:	e002      	b.n	1826 <serial_set_tx+0x6a>
    1820:	4a06      	ldr	r2, [pc, #24]	; (183c <serial_set_tx+0x80>)
    1822:	f443 7340 	orr.w	r3, r3, #768	; 0x300
    1826:	6013      	str	r3, [r2, #0]
    1828:	7020      	strb	r0, [r4, #0]
    182a:	bd10      	pop	{r4, pc}
    182c:	1fff0a08 	.word	0x1fff0a08
    1830:	40048034 	.word	0x40048034
    1834:	4004a044 	.word	0x4004a044
    1838:	4004c01c 	.word	0x4004c01c
    183c:	40049038 	.word	0x40049038

00001840 <serial_set_rx>:
    1840:	4a14      	ldr	r2, [pc, #80]	; (1894 <serial_set_rx+0x54>)
    1842:	7953      	ldrb	r3, [r2, #5]
    1844:	4298      	cmp	r0, r3
    1846:	d023      	beq.n	1890 <serial_set_rx+0x50>
    1848:	4913      	ldr	r1, [pc, #76]	; (1898 <serial_set_rx+0x58>)
    184a:	6809      	ldr	r1, [r1, #0]
    184c:	0549      	lsls	r1, r1, #21
    184e:	d51e      	bpl.n	188e <serial_set_rx+0x4e>
    1850:	2b15      	cmp	r3, #21
    1852:	d005      	beq.n	1860 <serial_set_rx+0x20>
    1854:	2b1b      	cmp	r3, #27
    1856:	d006      	beq.n	1866 <serial_set_rx+0x26>
    1858:	b943      	cbnz	r3, 186c <serial_set_rx+0x2c>
    185a:	4910      	ldr	r1, [pc, #64]	; (189c <serial_set_rx+0x5c>)
    185c:	600b      	str	r3, [r1, #0]
    185e:	e005      	b.n	186c <serial_set_rx+0x2c>
    1860:	2100      	movs	r1, #0
    1862:	4b0f      	ldr	r3, [pc, #60]	; (18a0 <serial_set_rx+0x60>)
    1864:	e001      	b.n	186a <serial_set_rx+0x2a>
    1866:	4b0f      	ldr	r3, [pc, #60]	; (18a4 <serial_set_rx+0x64>)
    1868:	2100      	movs	r1, #0
    186a:	6019      	str	r1, [r3, #0]
    186c:	2815      	cmp	r0, #21
    186e:	d006      	beq.n	187e <serial_set_rx+0x3e>
    1870:	281b      	cmp	r0, #27
    1872:	d008      	beq.n	1886 <serial_set_rx+0x46>
    1874:	b958      	cbnz	r0, 188e <serial_set_rx+0x4e>
    1876:	f240 3113 	movw	r1, #787	; 0x313
    187a:	4b08      	ldr	r3, [pc, #32]	; (189c <serial_set_rx+0x5c>)
    187c:	e006      	b.n	188c <serial_set_rx+0x4c>
    187e:	f240 3113 	movw	r1, #787	; 0x313
    1882:	4b07      	ldr	r3, [pc, #28]	; (18a0 <serial_set_rx+0x60>)
    1884:	e002      	b.n	188c <serial_set_rx+0x4c>
    1886:	4b07      	ldr	r3, [pc, #28]	; (18a4 <serial_set_rx+0x64>)
    1888:	f240 3113 	movw	r1, #787	; 0x313
    188c:	6019      	str	r1, [r3, #0]
    188e:	7150      	strb	r0, [r2, #5]
    1890:	4770      	bx	lr
    1892:	bf00      	nop
    1894:	1fff0b80 	.word	0x1fff0b80
    1898:	40048034 	.word	0x40048034
    189c:	4004a040 	.word	0x4004a040
    18a0:	4004c018 	.word	0x4004c018
    18a4:	4004903c 	.word	0x4004903c

000018a8 <serial_set_rts>:
    18a8:	4a0d      	ldr	r2, [pc, #52]	; (18e0 <serial_set_rts+0x38>)
    18aa:	b538      	push	{r3, r4, r5, lr}
    18ac:	6814      	ldr	r4, [r2, #0]
    18ae:	f414 6280 	ands.w	r2, r4, #1024	; 0x400
    18b2:	f04f 0400 	mov.w	r4, #0
    18b6:	d010      	beq.n	18da <serial_set_rts+0x32>
    18b8:	283f      	cmp	r0, #63	; 0x3f
    18ba:	4d0a      	ldr	r5, [pc, #40]	; (18e4 <serial_set_rts+0x3c>)
    18bc:	d80a      	bhi.n	18d4 <serial_set_rts+0x2c>
    18be:	4a0a      	ldr	r2, [pc, #40]	; (18e8 <serial_set_rts+0x40>)
    18c0:	2101      	movs	r1, #1
    18c2:	f852 3030 	ldr.w	r3, [r2, r0, lsl #3]
    18c6:	60ab      	str	r3, [r5, #8]
    18c8:	f7ff fb42 	bl	f50 <pinMode>
    18cc:	68ab      	ldr	r3, [r5, #8]
    18ce:	701c      	strb	r4, [r3, #0]
    18d0:	2001      	movs	r0, #1
    18d2:	bd38      	pop	{r3, r4, r5, pc}
    18d4:	60ac      	str	r4, [r5, #8]
    18d6:	4620      	mov	r0, r4
    18d8:	bd38      	pop	{r3, r4, r5, pc}
    18da:	4610      	mov	r0, r2
    18dc:	bd38      	pop	{r3, r4, r5, pc}
    18de:	bf00      	nop
    18e0:	40048034 	.word	0x40048034
    18e4:	1fff0b80 	.word	0x1fff0b80
    18e8:	00009ec4 	.word	0x00009ec4

000018ec <serial_set_cts>:
    18ec:	4b0e      	ldr	r3, [pc, #56]	; (1928 <serial_set_cts+0x3c>)
    18ee:	681b      	ldr	r3, [r3, #0]
    18f0:	f413 6380 	ands.w	r3, r3, #1024	; 0x400
    18f4:	d016      	beq.n	1924 <serial_set_cts+0x38>
    18f6:	2812      	cmp	r0, #18
    18f8:	4b0c      	ldr	r3, [pc, #48]	; (192c <serial_set_cts+0x40>)
    18fa:	d103      	bne.n	1904 <serial_set_cts+0x18>
    18fc:	f240 3102 	movw	r1, #770	; 0x302
    1900:	4a0b      	ldr	r2, [pc, #44]	; (1930 <serial_set_cts+0x44>)
    1902:	e004      	b.n	190e <serial_set_cts+0x22>
    1904:	2814      	cmp	r0, #20
    1906:	d109      	bne.n	191c <serial_set_cts+0x30>
    1908:	4a0a      	ldr	r2, [pc, #40]	; (1934 <serial_set_cts+0x48>)
    190a:	f240 3102 	movw	r1, #770	; 0x302
    190e:	6011      	str	r1, [r2, #0]
    1910:	7b5a      	ldrb	r2, [r3, #13]
    1912:	f042 0201 	orr.w	r2, r2, #1
    1916:	735a      	strb	r2, [r3, #13]
    1918:	2001      	movs	r0, #1
    191a:	4770      	bx	lr
    191c:	7b5a      	ldrb	r2, [r3, #13]
    191e:	f002 02fe 	and.w	r2, r2, #254	; 0xfe
    1922:	735a      	strb	r2, [r3, #13]
    1924:	2000      	movs	r0, #0
    1926:	4770      	bx	lr
    1928:	40048034 	.word	0x40048034
    192c:	4006a000 	.word	0x4006a000
    1930:	4004a00c 	.word	0x4004a00c
    1934:	4004c014 	.word	0x4004c014

00001938 <serial_putchar>:
    1938:	b5f8      	push	{r3, r4, r5, r6, r7, lr}
    193a:	4b1b      	ldr	r3, [pc, #108]	; (19a8 <serial_putchar+0x70>)
    193c:	681b      	ldr	r3, [r3, #0]
    193e:	055a      	lsls	r2, r3, #21
    1940:	4607      	mov	r7, r0
    1942:	d530      	bpl.n	19a6 <serial_putchar+0x6e>
    1944:	4e19      	ldr	r6, [pc, #100]	; (19ac <serial_putchar+0x74>)
    1946:	68f3      	ldr	r3, [r6, #12]
    1948:	b10b      	cbz	r3, 194e <serial_putchar+0x16>
    194a:	2201      	movs	r2, #1
    194c:	701a      	strb	r2, [r3, #0]
    194e:	78b4      	ldrb	r4, [r6, #2]
    1950:	3401      	adds	r4, #1
    1952:	2c40      	cmp	r4, #64	; 0x40
    1954:	bf28      	it	cs
    1956:	2400      	movcs	r4, #0
    1958:	78f3      	ldrb	r3, [r6, #3]
    195a:	4d14      	ldr	r5, [pc, #80]	; (19ac <serial_putchar+0x74>)
    195c:	42a3      	cmp	r3, r4
    195e:	d118      	bne.n	1992 <serial_putchar+0x5a>
    1960:	f7ff f826 	bl	9b0 <nvic_execution_priority>
    1964:	2840      	cmp	r0, #64	; 0x40
    1966:	dc0f      	bgt.n	1988 <serial_putchar+0x50>
    1968:	4a11      	ldr	r2, [pc, #68]	; (19b0 <serial_putchar+0x78>)
    196a:	7913      	ldrb	r3, [r2, #4]
    196c:	061b      	lsls	r3, r3, #24
    196e:	d5f3      	bpl.n	1958 <serial_putchar+0x20>
    1970:	78eb      	ldrb	r3, [r5, #3]
    1972:	3301      	adds	r3, #1
    1974:	2b40      	cmp	r3, #64	; 0x40
    1976:	bf28      	it	cs
    1978:	2300      	movcs	r3, #0
    197a:	18f1      	adds	r1, r6, r3
    197c:	b2db      	uxtb	r3, r3
    197e:	7c09      	ldrb	r1, [r1, #16]
    1980:	b2c9      	uxtb	r1, r1
    1982:	71d1      	strb	r1, [r2, #7]
    1984:	70f3      	strb	r3, [r6, #3]
    1986:	e7e7      	b.n	1958 <serial_putchar+0x20>
    1988:	28ff      	cmp	r0, #255	; 0xff
    198a:	dde5      	ble.n	1958 <serial_putchar+0x20>
    198c:	f003 fe10 	bl	55b0 <yield>
    1990:	e7e2      	b.n	1958 <serial_putchar+0x20>
    1992:	192b      	adds	r3, r5, r4
    1994:	b2ff      	uxtb	r7, r7
    1996:	741f      	strb	r7, [r3, #16]
    1998:	2301      	movs	r3, #1
    199a:	712b      	strb	r3, [r5, #4]
    199c:	4b04      	ldr	r3, [pc, #16]	; (19b0 <serial_putchar+0x78>)
    199e:	b2e4      	uxtb	r4, r4
    19a0:	22bc      	movs	r2, #188	; 0xbc
    19a2:	70ac      	strb	r4, [r5, #2]
    19a4:	70da      	strb	r2, [r3, #3]
    19a6:	bdf8      	pop	{r3, r4, r5, r6, r7, pc}
    19a8:	40048034 	.word	0x40048034
    19ac:	1fff0b80 	.word	0x1fff0b80
    19b0:	4006a000 	.word	0x4006a000

000019b4 <serial_phex1>:
    19b4:	f000 000f 	and.w	r0, r0, #15
    19b8:	2809      	cmp	r0, #9
    19ba:	bf94      	ite	ls
    19bc:	3030      	addls	r0, #48	; 0x30
    19be:	3037      	addhi	r0, #55	; 0x37
    19c0:	f7ff bfba 	b.w	1938 <serial_putchar>

000019c4 <serial_write>:
    19c4:	e92d 43f8 	stmdb	sp!, {r3, r4, r5, r6, r7, r8, r9, lr}
    19c8:	4b23      	ldr	r3, [pc, #140]	; (1a58 <serial_write+0x94>)
    19ca:	681b      	ldr	r3, [r3, #0]
    19cc:	055a      	lsls	r2, r3, #21
    19ce:	4607      	mov	r7, r0
    19d0:	4689      	mov	r9, r1
    19d2:	d53e      	bpl.n	1a52 <serial_write+0x8e>
    19d4:	4c21      	ldr	r4, [pc, #132]	; (1a5c <serial_write+0x98>)
    19d6:	68e3      	ldr	r3, [r4, #12]
    19d8:	b10b      	cbz	r3, 19de <serial_write+0x1a>
    19da:	2201      	movs	r2, #1
    19dc:	701a      	strb	r2, [r3, #0]
    19de:	463e      	mov	r6, r7
    19e0:	eb07 0309 	add.w	r3, r7, r9
    19e4:	429e      	cmp	r6, r3
    19e6:	d231      	bcs.n	1a4c <serial_write+0x88>
    19e8:	78a5      	ldrb	r5, [r4, #2]
    19ea:	f894 8003 	ldrb.w	r8, [r4, #3]
    19ee:	3501      	adds	r5, #1
    19f0:	2d40      	cmp	r5, #64	; 0x40
    19f2:	bf28      	it	cs
    19f4:	2500      	movcs	r5, #0
    19f6:	fa5f f888 	uxtb.w	r8, r8
    19fa:	45a8      	cmp	r8, r5
    19fc:	d11d      	bne.n	1a3a <serial_write+0x76>
    19fe:	4b18      	ldr	r3, [pc, #96]	; (1a60 <serial_write+0x9c>)
    1a00:	22bc      	movs	r2, #188	; 0xbc
    1a02:	70da      	strb	r2, [r3, #3]
    1a04:	f7fe ffd4 	bl	9b0 <nvic_execution_priority>
    1a08:	2840      	cmp	r0, #64	; 0x40
    1a0a:	dc0f      	bgt.n	1a2c <serial_write+0x68>
    1a0c:	4a14      	ldr	r2, [pc, #80]	; (1a60 <serial_write+0x9c>)
    1a0e:	7913      	ldrb	r3, [r2, #4]
    1a10:	061b      	lsls	r3, r3, #24
    1a12:	d50f      	bpl.n	1a34 <serial_write+0x70>
    1a14:	78e3      	ldrb	r3, [r4, #3]
    1a16:	3301      	adds	r3, #1
    1a18:	2b40      	cmp	r3, #64	; 0x40
    1a1a:	bf28      	it	cs
    1a1c:	2300      	movcs	r3, #0
    1a1e:	18e1      	adds	r1, r4, r3
    1a20:	b2db      	uxtb	r3, r3
    1a22:	7c09      	ldrb	r1, [r1, #16]
    1a24:	b2c9      	uxtb	r1, r1
    1a26:	71d1      	strb	r1, [r2, #7]
    1a28:	70e3      	strb	r3, [r4, #3]
    1a2a:	e003      	b.n	1a34 <serial_write+0x70>
    1a2c:	28ff      	cmp	r0, #255	; 0xff
    1a2e:	dd01      	ble.n	1a34 <serial_write+0x70>
    1a30:	f003 fdbe 	bl	55b0 <yield>
    1a34:	78e3      	ldrb	r3, [r4, #3]
    1a36:	4543      	cmp	r3, r8
    1a38:	d0e4      	beq.n	1a04 <serial_write+0x40>
    1a3a:	1963      	adds	r3, r4, r5
    1a3c:	f816 2b01 	ldrb.w	r2, [r6], #1
    1a40:	741a      	strb	r2, [r3, #16]
    1a42:	b2ed      	uxtb	r5, r5
    1a44:	2301      	movs	r3, #1
    1a46:	7123      	strb	r3, [r4, #4]
    1a48:	70a5      	strb	r5, [r4, #2]
    1a4a:	e7c9      	b.n	19e0 <serial_write+0x1c>
    1a4c:	4b04      	ldr	r3, [pc, #16]	; (1a60 <serial_write+0x9c>)
    1a4e:	22bc      	movs	r2, #188	; 0xbc
    1a50:	70da      	strb	r2, [r3, #3]
    1a52:	e8bd 83f8 	ldmia.w	sp!, {r3, r4, r5, r6, r7, r8, r9, pc}
    1a56:	bf00      	nop
    1a58:	40048034 	.word	0x40048034
    1a5c:	1fff0b80 	.word	0x1fff0b80
    1a60:	4006a000 	.word	0x4006a000

00001a64 <serial_flush>:
    1a64:	b508      	push	{r3, lr}
    1a66:	4b03      	ldr	r3, [pc, #12]	; (1a74 <serial_flush+0x10>)
    1a68:	791b      	ldrb	r3, [r3, #4]
    1a6a:	b113      	cbz	r3, 1a72 <serial_flush+0xe>
    1a6c:	f003 fda0 	bl	55b0 <yield>
    1a70:	e7f9      	b.n	1a66 <serial_flush+0x2>
    1a72:	bd08      	pop	{r3, pc}
    1a74:	1fff0b80 	.word	0x1fff0b80

00001a78 <serial_write_buffer_free>:
    1a78:	4a05      	ldr	r2, [pc, #20]	; (1a90 <serial_write_buffer_free+0x18>)
    1a7a:	7893      	ldrb	r3, [r2, #2]
    1a7c:	78d0      	ldrb	r0, [r2, #3]
    1a7e:	b2db      	uxtb	r3, r3
    1a80:	b2c0      	uxtb	r0, r0
    1a82:	4283      	cmp	r3, r0
    1a84:	bf2c      	ite	cs
    1a86:	303f      	addcs	r0, #63	; 0x3f
    1a88:	f100 30ff 	addcc.w	r0, r0, #4294967295
    1a8c:	1ac0      	subs	r0, r0, r3
    1a8e:	4770      	bx	lr
    1a90:	1fff0b80 	.word	0x1fff0b80

00001a94 <serial_available>:
    1a94:	4a04      	ldr	r2, [pc, #16]	; (1aa8 <serial_available+0x14>)
    1a96:	7810      	ldrb	r0, [r2, #0]
    1a98:	7853      	ldrb	r3, [r2, #1]
    1a9a:	b2c0      	uxtb	r0, r0
    1a9c:	b2db      	uxtb	r3, r3
    1a9e:	4298      	cmp	r0, r3
    1aa0:	bf38      	it	cc
    1aa2:	3040      	addcc	r0, #64	; 0x40
    1aa4:	1ac0      	subs	r0, r0, r3
    1aa6:	4770      	bx	lr
    1aa8:	1fff0b80 	.word	0x1fff0b80

00001aac <serial_getchar>:
    1aac:	b510      	push	{r4, lr}
    1aae:	4a0f      	ldr	r2, [pc, #60]	; (1aec <serial_getchar+0x40>)
    1ab0:	7811      	ldrb	r1, [r2, #0]
    1ab2:	7853      	ldrb	r3, [r2, #1]
    1ab4:	b2c9      	uxtb	r1, r1
    1ab6:	b2db      	uxtb	r3, r3
    1ab8:	4299      	cmp	r1, r3
    1aba:	d014      	beq.n	1ae6 <serial_getchar+0x3a>
    1abc:	3301      	adds	r3, #1
    1abe:	2b40      	cmp	r3, #64	; 0x40
    1ac0:	bf28      	it	cs
    1ac2:	2300      	movcs	r3, #0
    1ac4:	18d0      	adds	r0, r2, r3
    1ac6:	b2dc      	uxtb	r4, r3
    1ac8:	f890 0050 	ldrb.w	r0, [r0, #80]	; 0x50
    1acc:	7054      	strb	r4, [r2, #1]
    1ace:	6892      	ldr	r2, [r2, #8]
    1ad0:	b2c0      	uxtb	r0, r0
    1ad2:	b152      	cbz	r2, 1aea <serial_getchar+0x3e>
    1ad4:	4299      	cmp	r1, r3
    1ad6:	bf38      	it	cc
    1ad8:	3140      	addcc	r1, #64	; 0x40
    1ada:	1acb      	subs	r3, r1, r3
    1adc:	2b1a      	cmp	r3, #26
    1ade:	dc04      	bgt.n	1aea <serial_getchar+0x3e>
    1ae0:	2300      	movs	r3, #0
    1ae2:	7013      	strb	r3, [r2, #0]
    1ae4:	bd10      	pop	{r4, pc}
    1ae6:	f04f 30ff 	mov.w	r0, #4294967295
    1aea:	bd10      	pop	{r4, pc}
    1aec:	1fff0b80 	.word	0x1fff0b80

00001af0 <serial_peek>:
    1af0:	4a08      	ldr	r2, [pc, #32]	; (1b14 <serial_peek+0x24>)
    1af2:	7811      	ldrb	r1, [r2, #0]
    1af4:	7853      	ldrb	r3, [r2, #1]
    1af6:	b2db      	uxtb	r3, r3
    1af8:	4299      	cmp	r1, r3
    1afa:	d008      	beq.n	1b0e <serial_peek+0x1e>
    1afc:	3301      	adds	r3, #1
    1afe:	2b40      	cmp	r3, #64	; 0x40
    1b00:	bf28      	it	cs
    1b02:	2300      	movcs	r3, #0
    1b04:	4413      	add	r3, r2
    1b06:	f893 0050 	ldrb.w	r0, [r3, #80]	; 0x50
    1b0a:	b2c0      	uxtb	r0, r0
    1b0c:	4770      	bx	lr
    1b0e:	f04f 30ff 	mov.w	r0, #4294967295
    1b12:	4770      	bx	lr
    1b14:	1fff0b80 	.word	0x1fff0b80

00001b18 <serial_clear>:
    1b18:	4b0b      	ldr	r3, [pc, #44]	; (1b48 <serial_clear+0x30>)
    1b1a:	681b      	ldr	r3, [r3, #0]
    1b1c:	055b      	lsls	r3, r3, #21
    1b1e:	d512      	bpl.n	1b46 <serial_clear+0x2e>
    1b20:	4b0a      	ldr	r3, [pc, #40]	; (1b4c <serial_clear+0x34>)
    1b22:	78da      	ldrb	r2, [r3, #3]
    1b24:	f002 02cb 	and.w	r2, r2, #203	; 0xcb
    1b28:	70da      	strb	r2, [r3, #3]
    1b2a:	2240      	movs	r2, #64	; 0x40
    1b2c:	745a      	strb	r2, [r3, #17]
    1b2e:	78da      	ldrb	r2, [r3, #3]
    1b30:	f042 0234 	orr.w	r2, r2, #52	; 0x34
    1b34:	70da      	strb	r2, [r3, #3]
    1b36:	4b06      	ldr	r3, [pc, #24]	; (1b50 <serial_clear+0x38>)
    1b38:	785a      	ldrb	r2, [r3, #1]
    1b3a:	b2d2      	uxtb	r2, r2
    1b3c:	701a      	strb	r2, [r3, #0]
    1b3e:	689b      	ldr	r3, [r3, #8]
    1b40:	b10b      	cbz	r3, 1b46 <serial_clear+0x2e>
    1b42:	2200      	movs	r2, #0
    1b44:	701a      	strb	r2, [r3, #0]
    1b46:	4770      	bx	lr
    1b48:	40048034 	.word	0x40048034
    1b4c:	4006a000 	.word	0x4006a000
    1b50:	1fff0b80 	.word	0x1fff0b80

00001b54 <uart0_status_isr>:
    1b54:	b530      	push	{r4, r5, lr}
    1b56:	4b35      	ldr	r3, [pc, #212]	; (1c2c <uart0_status_isr+0xd8>)
    1b58:	791a      	ldrb	r2, [r3, #4]
    1b5a:	f012 0f30 	tst.w	r2, #48	; 0x30
    1b5e:	d02f      	beq.n	1bc0 <uart0_status_isr+0x6c>
    1b60:	b672      	cpsid	i
    1b62:	7d9a      	ldrb	r2, [r3, #22]
    1b64:	f002 04ff 	and.w	r4, r2, #255	; 0xff
    1b68:	b922      	cbnz	r2, 1b74 <uart0_status_isr+0x20>
    1b6a:	79da      	ldrb	r2, [r3, #7]
    1b6c:	2240      	movs	r2, #64	; 0x40
    1b6e:	745a      	strb	r2, [r3, #17]
    1b70:	b662      	cpsie	i
    1b72:	e025      	b.n	1bc0 <uart0_status_isr+0x6c>
    1b74:	b662      	cpsie	i
    1b76:	482e      	ldr	r0, [pc, #184]	; (1c30 <uart0_status_isr+0xdc>)
    1b78:	7803      	ldrb	r3, [r0, #0]
    1b7a:	7841      	ldrb	r1, [r0, #1]
    1b7c:	b2db      	uxtb	r3, r3
    1b7e:	b2c9      	uxtb	r1, r1
    1b80:	4a2a      	ldr	r2, [pc, #168]	; (1c2c <uart0_status_isr+0xd8>)
    1b82:	79d5      	ldrb	r5, [r2, #7]
    1b84:	1c5a      	adds	r2, r3, #1
    1b86:	2a40      	cmp	r2, #64	; 0x40
    1b88:	bf28      	it	cs
    1b8a:	2200      	movcs	r2, #0
    1b8c:	428a      	cmp	r2, r1
    1b8e:	b2ed      	uxtb	r5, r5
    1b90:	d003      	beq.n	1b9a <uart0_status_isr+0x46>
    1b92:	1883      	adds	r3, r0, r2
    1b94:	f883 5050 	strb.w	r5, [r3, #80]	; 0x50
    1b98:	4613      	mov	r3, r2
    1b9a:	1e62      	subs	r2, r4, #1
    1b9c:	f012 04ff 	ands.w	r4, r2, #255	; 0xff
    1ba0:	d1ee      	bne.n	1b80 <uart0_status_isr+0x2c>
    1ba2:	b2da      	uxtb	r2, r3
    1ba4:	7002      	strb	r2, [r0, #0]
    1ba6:	6882      	ldr	r2, [r0, #8]
    1ba8:	b152      	cbz	r2, 1bc0 <uart0_status_isr+0x6c>
    1baa:	428b      	cmp	r3, r1
    1bac:	bf36      	itet	cc
    1bae:	f1c1 0140 	rsbcc	r1, r1, #64	; 0x40
    1bb2:	ebc1 0303 	rsbcs	r3, r1, r3
    1bb6:	185b      	addcc	r3, r3, r1
    1bb8:	2b27      	cmp	r3, #39	; 0x27
    1bba:	bfc4      	itt	gt
    1bbc:	2301      	movgt	r3, #1
    1bbe:	7013      	strbgt	r3, [r2, #0]
    1bc0:	4b1a      	ldr	r3, [pc, #104]	; (1c2c <uart0_status_isr+0xd8>)
    1bc2:	78d9      	ldrb	r1, [r3, #3]
    1bc4:	b2c9      	uxtb	r1, r1
    1bc6:	060c      	lsls	r4, r1, #24
    1bc8:	d51f      	bpl.n	1c0a <uart0_status_isr+0xb6>
    1bca:	791b      	ldrb	r3, [r3, #4]
    1bcc:	0618      	lsls	r0, r3, #24
    1bce:	d51c      	bpl.n	1c0a <uart0_status_isr+0xb6>
    1bd0:	4a17      	ldr	r2, [pc, #92]	; (1c30 <uart0_status_isr+0xdc>)
    1bd2:	7895      	ldrb	r5, [r2, #2]
    1bd4:	78d3      	ldrb	r3, [r2, #3]
    1bd6:	b2ed      	uxtb	r5, r5
    1bd8:	b2db      	uxtb	r3, r3
    1bda:	4610      	mov	r0, r2
    1bdc:	42ab      	cmp	r3, r5
    1bde:	d00c      	beq.n	1bfa <uart0_status_isr+0xa6>
    1be0:	3301      	adds	r3, #1
    1be2:	4a12      	ldr	r2, [pc, #72]	; (1c2c <uart0_status_isr+0xd8>)
    1be4:	2b40      	cmp	r3, #64	; 0x40
    1be6:	bf28      	it	cs
    1be8:	2300      	movcs	r3, #0
    1bea:	7914      	ldrb	r4, [r2, #4]
    1bec:	18c4      	adds	r4, r0, r3
    1bee:	7c24      	ldrb	r4, [r4, #16]
    1bf0:	b2e4      	uxtb	r4, r4
    1bf2:	71d4      	strb	r4, [r2, #7]
    1bf4:	7d12      	ldrb	r2, [r2, #20]
    1bf6:	2a07      	cmp	r2, #7
    1bf8:	d9f0      	bls.n	1bdc <uart0_status_isr+0x88>
    1bfa:	b2db      	uxtb	r3, r3
    1bfc:	70c3      	strb	r3, [r0, #3]
    1bfe:	4b0b      	ldr	r3, [pc, #44]	; (1c2c <uart0_status_isr+0xd8>)
    1c00:	791a      	ldrb	r2, [r3, #4]
    1c02:	0612      	lsls	r2, r2, #24
    1c04:	bf44      	itt	mi
    1c06:	227c      	movmi	r2, #124	; 0x7c
    1c08:	70da      	strbmi	r2, [r3, #3]
    1c0a:	064b      	lsls	r3, r1, #25
    1c0c:	d50d      	bpl.n	1c2a <uart0_status_isr+0xd6>
    1c0e:	4b07      	ldr	r3, [pc, #28]	; (1c2c <uart0_status_isr+0xd8>)
    1c10:	791a      	ldrb	r2, [r3, #4]
    1c12:	f012 0f40 	tst.w	r2, #64	; 0x40
    1c16:	4619      	mov	r1, r3
    1c18:	d007      	beq.n	1c2a <uart0_status_isr+0xd6>
    1c1a:	4b05      	ldr	r3, [pc, #20]	; (1c30 <uart0_status_isr+0xdc>)
    1c1c:	2200      	movs	r2, #0
    1c1e:	711a      	strb	r2, [r3, #4]
    1c20:	68db      	ldr	r3, [r3, #12]
    1c22:	b103      	cbz	r3, 1c26 <uart0_status_isr+0xd2>
    1c24:	701a      	strb	r2, [r3, #0]
    1c26:	233c      	movs	r3, #60	; 0x3c
    1c28:	70cb      	strb	r3, [r1, #3]
    1c2a:	bd30      	pop	{r4, r5, pc}
    1c2c:	4006a000 	.word	0x4006a000
    1c30:	1fff0b80 	.word	0x1fff0b80

00001c34 <serial_print>:
    1c34:	b538      	push	{r3, r4, r5, lr}
    1c36:	1e45      	subs	r5, r0, #1
    1c38:	f815 4f01 	ldrb.w	r4, [r5, #1]!
    1c3c:	b144      	cbz	r4, 1c50 <serial_print+0x1c>
    1c3e:	2c0a      	cmp	r4, #10
    1c40:	d102      	bne.n	1c48 <serial_print+0x14>
    1c42:	200d      	movs	r0, #13
    1c44:	f7ff fe78 	bl	1938 <serial_putchar>
    1c48:	4620      	mov	r0, r4
    1c4a:	f7ff fe75 	bl	1938 <serial_putchar>
    1c4e:	e7f3      	b.n	1c38 <serial_print+0x4>
    1c50:	bd38      	pop	{r3, r4, r5, pc}

00001c52 <serial_phex>:
    1c52:	b510      	push	{r4, lr}
    1c54:	4604      	mov	r4, r0
    1c56:	0900      	lsrs	r0, r0, #4
    1c58:	f7ff feac 	bl	19b4 <serial_phex1>
    1c5c:	4620      	mov	r0, r4
    1c5e:	e8bd 4010 	ldmia.w	sp!, {r4, lr}
    1c62:	f7ff bea7 	b.w	19b4 <serial_phex1>

00001c66 <serial_phex16>:
    1c66:	b510      	push	{r4, lr}
    1c68:	4604      	mov	r4, r0
    1c6a:	0a00      	lsrs	r0, r0, #8
    1c6c:	f7ff fff1 	bl	1c52 <serial_phex>
    1c70:	4620      	mov	r0, r4
    1c72:	e8bd 4010 	ldmia.w	sp!, {r4, lr}
    1c76:	f7ff bfec 	b.w	1c52 <serial_phex>

00001c7a <serial_phex32>:
    1c7a:	b510      	push	{r4, lr}
    1c7c:	4604      	mov	r4, r0
    1c7e:	0e00      	lsrs	r0, r0, #24
    1c80:	f7ff ffe7 	bl	1c52 <serial_phex>
    1c84:	0c20      	lsrs	r0, r4, #16
    1c86:	f7ff ffe4 	bl	1c52 <serial_phex>
    1c8a:	0a20      	lsrs	r0, r4, #8
    1c8c:	f7ff ffe1 	bl	1c52 <serial_phex>
    1c90:	4620      	mov	r0, r4
    1c92:	e8bd 4010 	ldmia.w	sp!, {r4, lr}
    1c96:	f7ff bfdc 	b.w	1c52 <serial_phex>
    1c9a:	bf00      	nop

00001c9c <serial2_begin>:
    1c9c:	4b20      	ldr	r3, [pc, #128]	; (1d20 <serial2_begin+0x84>)
    1c9e:	681a      	ldr	r2, [r3, #0]
    1ca0:	f442 6200 	orr.w	r2, r2, #2048	; 0x800
    1ca4:	601a      	str	r2, [r3, #0]
    1ca6:	4b1f      	ldr	r3, [pc, #124]	; (1d24 <serial2_begin+0x88>)
    1ca8:	2200      	movs	r2, #0
    1caa:	701a      	strb	r2, [r3, #0]
    1cac:	705a      	strb	r2, [r3, #1]
    1cae:	709a      	strb	r2, [r3, #2]
    1cb0:	70da      	strb	r2, [r3, #3]
    1cb2:	711a      	strb	r2, [r3, #4]
    1cb4:	4a1c      	ldr	r2, [pc, #112]	; (1d28 <serial2_begin+0x8c>)
    1cb6:	7813      	ldrb	r3, [r2, #0]
    1cb8:	2b09      	cmp	r3, #9
    1cba:	d005      	beq.n	1cc8 <serial2_begin+0x2c>
    1cbc:	2b3b      	cmp	r3, #59	; 0x3b
    1cbe:	d107      	bne.n	1cd0 <serial2_begin+0x34>
    1cc0:	f240 3113 	movw	r1, #787	; 0x313
    1cc4:	4b19      	ldr	r3, [pc, #100]	; (1d2c <serial2_begin+0x90>)
    1cc6:	e002      	b.n	1cce <serial2_begin+0x32>
    1cc8:	4b19      	ldr	r3, [pc, #100]	; (1d30 <serial2_begin+0x94>)
    1cca:	f240 3113 	movw	r1, #787	; 0x313
    1cce:	6019      	str	r1, [r3, #0]
    1cd0:	7853      	ldrb	r3, [r2, #1]
    1cd2:	2b0a      	cmp	r3, #10
    1cd4:	d005      	beq.n	1ce2 <serial2_begin+0x46>
    1cd6:	2b3a      	cmp	r3, #58	; 0x3a
    1cd8:	d107      	bne.n	1cea <serial2_begin+0x4e>
    1cda:	f44f 7251 	mov.w	r2, #836	; 0x344
    1cde:	4b15      	ldr	r3, [pc, #84]	; (1d34 <serial2_begin+0x98>)
    1ce0:	e002      	b.n	1ce8 <serial2_begin+0x4c>
    1ce2:	4b15      	ldr	r3, [pc, #84]	; (1d38 <serial2_begin+0x9c>)
    1ce4:	f44f 7251 	mov.w	r2, #836	; 0x344
    1ce8:	601a      	str	r2, [r3, #0]
    1cea:	4b14      	ldr	r3, [pc, #80]	; (1d3c <serial2_begin+0xa0>)
    1cec:	f3c0 3244 	ubfx	r2, r0, #13, #5
    1cf0:	701a      	strb	r2, [r3, #0]
    1cf2:	f3c0 1247 	ubfx	r2, r0, #5, #8
    1cf6:	705a      	strb	r2, [r3, #1]
    1cf8:	2104      	movs	r1, #4
    1cfa:	2202      	movs	r2, #2
    1cfc:	f000 001f 	and.w	r0, r0, #31
    1d00:	7298      	strb	r0, [r3, #10]
    1d02:	7099      	strb	r1, [r3, #2]
    1d04:	74da      	strb	r2, [r3, #19]
    1d06:	7559      	strb	r1, [r3, #21]
    1d08:	2188      	movs	r1, #136	; 0x88
    1d0a:	7419      	strb	r1, [r3, #16]
    1d0c:	213c      	movs	r1, #60	; 0x3c
    1d0e:	70d9      	strb	r1, [r3, #3]
    1d10:	4b0b      	ldr	r3, [pc, #44]	; (1d40 <serial2_begin+0xa4>)
    1d12:	2140      	movs	r1, #64	; 0x40
    1d14:	7019      	strb	r1, [r3, #0]
    1d16:	f46f 7147 	mvn.w	r1, #796	; 0x31c
    1d1a:	440b      	add	r3, r1
    1d1c:	601a      	str	r2, [r3, #0]
    1d1e:	4770      	bx	lr
    1d20:	40048034 	.word	0x40048034
    1d24:	1fff0c10 	.word	0x1fff0c10
    1d28:	1fff0a09 	.word	0x1fff0a09
    1d2c:	4004d004 	.word	0x4004d004
    1d30:	4004b00c 	.word	0x4004b00c
    1d34:	4004d000 	.word	0x4004d000
    1d38:	4004b010 	.word	0x4004b010
    1d3c:	4006b000 	.word	0x4006b000
    1d40:	e000e421 	.word	0xe000e421

00001d44 <serial2_format>:
    1d44:	4a19      	ldr	r2, [pc, #100]	; (1dac <serial2_format+0x68>)
    1d46:	7893      	ldrb	r3, [r2, #2]
    1d48:	f000 0103 	and.w	r1, r0, #3
    1d4c:	f003 03ec 	and.w	r3, r3, #236	; 0xec
    1d50:	430b      	orrs	r3, r1
    1d52:	0741      	lsls	r1, r0, #29
    1d54:	bf48      	it	mi
    1d56:	f043 0310 	orrmi.w	r3, r3, #16
    1d5a:	7093      	strb	r3, [r2, #2]
    1d5c:	f000 030f 	and.w	r3, r0, #15
    1d60:	2b04      	cmp	r3, #4
    1d62:	4912      	ldr	r1, [pc, #72]	; (1dac <serial2_format+0x68>)
    1d64:	d103      	bne.n	1d6e <serial2_format+0x2a>
    1d66:	798b      	ldrb	r3, [r1, #6]
    1d68:	f043 0340 	orr.w	r3, r3, #64	; 0x40
    1d6c:	718b      	strb	r3, [r1, #6]
    1d6e:	7952      	ldrb	r2, [r2, #5]
    1d70:	4b0e      	ldr	r3, [pc, #56]	; (1dac <serial2_format+0x68>)
    1d72:	f002 02ef 	and.w	r2, r2, #239	; 0xef
    1d76:	06c1      	lsls	r1, r0, #27
    1d78:	bf48      	it	mi
    1d7a:	f042 0210 	orrmi.w	r2, r2, #16
    1d7e:	715a      	strb	r2, [r3, #5]
    1d80:	799a      	ldrb	r2, [r3, #6]
    1d82:	f010 0f20 	tst.w	r0, #32
    1d86:	f002 02ef 	and.w	r2, r2, #239	; 0xef
    1d8a:	4619      	mov	r1, r3
    1d8c:	bf18      	it	ne
    1d8e:	f042 0210 	orrne.w	r2, r2, #16
    1d92:	718a      	strb	r2, [r1, #6]
    1d94:	05c2      	lsls	r2, r0, #23
    1d96:	4b05      	ldr	r3, [pc, #20]	; (1dac <serial2_format+0x68>)
    1d98:	d506      	bpl.n	1da8 <serial2_format+0x64>
    1d9a:	785a      	ldrb	r2, [r3, #1]
    1d9c:	7819      	ldrb	r1, [r3, #0]
    1d9e:	b2d2      	uxtb	r2, r2
    1da0:	f041 0120 	orr.w	r1, r1, #32
    1da4:	7019      	strb	r1, [r3, #0]
    1da6:	705a      	strb	r2, [r3, #1]
    1da8:	4770      	bx	lr
    1daa:	bf00      	nop
    1dac:	4006b000 	.word	0x4006b000

00001db0 <serial2_end>:
    1db0:	b508      	push	{r3, lr}
    1db2:	4b1a      	ldr	r3, [pc, #104]	; (1e1c <serial2_end+0x6c>)
    1db4:	681b      	ldr	r3, [r3, #0]
    1db6:	051b      	lsls	r3, r3, #20
    1db8:	d400      	bmi.n	1dbc <serial2_end+0xc>
    1dba:	bd08      	pop	{r3, pc}
    1dbc:	4b18      	ldr	r3, [pc, #96]	; (1e20 <serial2_end+0x70>)
    1dbe:	7919      	ldrb	r1, [r3, #4]
    1dc0:	f001 02ff 	and.w	r2, r1, #255	; 0xff
    1dc4:	b111      	cbz	r1, 1dcc <serial2_end+0x1c>
    1dc6:	f003 fbf3 	bl	55b0 <yield>
    1dca:	e7f7      	b.n	1dbc <serial2_end+0xc>
    1dcc:	4915      	ldr	r1, [pc, #84]	; (1e24 <serial2_end+0x74>)
    1dce:	2002      	movs	r0, #2
    1dd0:	6008      	str	r0, [r1, #0]
    1dd2:	4915      	ldr	r1, [pc, #84]	; (1e28 <serial2_end+0x78>)
    1dd4:	4815      	ldr	r0, [pc, #84]	; (1e2c <serial2_end+0x7c>)
    1dd6:	70ca      	strb	r2, [r1, #3]
    1dd8:	7801      	ldrb	r1, [r0, #0]
    1dda:	2909      	cmp	r1, #9
    1ddc:	d004      	beq.n	1de8 <serial2_end+0x38>
    1dde:	293b      	cmp	r1, #59	; 0x3b
    1de0:	d106      	bne.n	1df0 <serial2_end+0x40>
    1de2:	4913      	ldr	r1, [pc, #76]	; (1e30 <serial2_end+0x80>)
    1de4:	600a      	str	r2, [r1, #0]
    1de6:	e003      	b.n	1df0 <serial2_end+0x40>
    1de8:	4a12      	ldr	r2, [pc, #72]	; (1e34 <serial2_end+0x84>)
    1dea:	f240 1103 	movw	r1, #259	; 0x103
    1dee:	6011      	str	r1, [r2, #0]
    1df0:	7842      	ldrb	r2, [r0, #1]
    1df2:	f002 027f 	and.w	r2, r2, #127	; 0x7f
    1df6:	2a0a      	cmp	r2, #10
    1df8:	d004      	beq.n	1e04 <serial2_end+0x54>
    1dfa:	2a3a      	cmp	r2, #58	; 0x3a
    1dfc:	d106      	bne.n	1e0c <serial2_end+0x5c>
    1dfe:	2100      	movs	r1, #0
    1e00:	4a0d      	ldr	r2, [pc, #52]	; (1e38 <serial2_end+0x88>)
    1e02:	e002      	b.n	1e0a <serial2_end+0x5a>
    1e04:	4a0d      	ldr	r2, [pc, #52]	; (1e3c <serial2_end+0x8c>)
    1e06:	f240 1103 	movw	r1, #259	; 0x103
    1e0a:	6011      	str	r1, [r2, #0]
    1e0c:	2200      	movs	r2, #0
    1e0e:	701a      	strb	r2, [r3, #0]
    1e10:	705a      	strb	r2, [r3, #1]
    1e12:	689b      	ldr	r3, [r3, #8]
    1e14:	b10b      	cbz	r3, 1e1a <serial2_end+0x6a>
    1e16:	2201      	movs	r2, #1
    1e18:	701a      	strb	r2, [r3, #0]
    1e1a:	bd08      	pop	{r3, pc}
    1e1c:	40048034 	.word	0x40048034
    1e20:	1fff0c10 	.word	0x1fff0c10
    1e24:	e000e184 	.word	0xe000e184
    1e28:	4006b000 	.word	0x4006b000
    1e2c:	1fff0a09 	.word	0x1fff0a09
    1e30:	4004d004 	.word	0x4004d004
    1e34:	4004b00c 	.word	0x4004b00c
    1e38:	4004d000 	.word	0x4004d000
    1e3c:	4004b010 	.word	0x4004b010

00001e40 <serial2_set_transmit_pin>:
    1e40:	b570      	push	{r4, r5, r6, lr}
    1e42:	4604      	mov	r4, r0
    1e44:	4d09      	ldr	r5, [pc, #36]	; (1e6c <serial2_set_transmit_pin+0x2c>)
    1e46:	792b      	ldrb	r3, [r5, #4]
    1e48:	f003 06ff 	and.w	r6, r3, #255	; 0xff
    1e4c:	2b00      	cmp	r3, #0
    1e4e:	d1f9      	bne.n	1e44 <serial2_set_transmit_pin+0x4>
    1e50:	4620      	mov	r0, r4
    1e52:	2101      	movs	r1, #1
    1e54:	f7ff f87c 	bl	f50 <pinMode>
    1e58:	4620      	mov	r0, r4
    1e5a:	4631      	mov	r1, r6
    1e5c:	f7ff f84a 	bl	ef4 <digitalWrite>
    1e60:	4b03      	ldr	r3, [pc, #12]	; (1e70 <serial2_set_transmit_pin+0x30>)
    1e62:	f853 3034 	ldr.w	r3, [r3, r4, lsl #3]
    1e66:	60eb      	str	r3, [r5, #12]
    1e68:	bd70      	pop	{r4, r5, r6, pc}
    1e6a:	bf00      	nop
    1e6c:	1fff0c10 	.word	0x1fff0c10
    1e70:	00009ec4 	.word	0x00009ec4

00001e74 <serial2_set_tx>:
    1e74:	b510      	push	{r4, lr}
    1e76:	b109      	cbz	r1, 1e7c <serial2_set_tx+0x8>
    1e78:	f040 0080 	orr.w	r0, r0, #128	; 0x80
    1e7c:	4a14      	ldr	r2, [pc, #80]	; (1ed0 <serial2_set_tx+0x5c>)
    1e7e:	7853      	ldrb	r3, [r2, #1]
    1e80:	4298      	cmp	r0, r3
    1e82:	4614      	mov	r4, r2
    1e84:	d022      	beq.n	1ecc <serial2_set_tx+0x58>
    1e86:	4a13      	ldr	r2, [pc, #76]	; (1ed4 <serial2_set_tx+0x60>)
    1e88:	6812      	ldr	r2, [r2, #0]
    1e8a:	0512      	lsls	r2, r2, #20
    1e8c:	d51d      	bpl.n	1eca <serial2_set_tx+0x56>
    1e8e:	f003 037f 	and.w	r3, r3, #127	; 0x7f
    1e92:	2b0a      	cmp	r3, #10
    1e94:	d004      	beq.n	1ea0 <serial2_set_tx+0x2c>
    1e96:	2b3a      	cmp	r3, #58	; 0x3a
    1e98:	d105      	bne.n	1ea6 <serial2_set_tx+0x32>
    1e9a:	2200      	movs	r2, #0
    1e9c:	4b0e      	ldr	r3, [pc, #56]	; (1ed8 <serial2_set_tx+0x64>)
    1e9e:	e001      	b.n	1ea4 <serial2_set_tx+0x30>
    1ea0:	4b0e      	ldr	r3, [pc, #56]	; (1edc <serial2_set_tx+0x68>)
    1ea2:	2200      	movs	r2, #0
    1ea4:	601a      	str	r2, [r3, #0]
    1ea6:	2900      	cmp	r1, #0
    1ea8:	f000 027f 	and.w	r2, r0, #127	; 0x7f
    1eac:	bf0c      	ite	eq
    1eae:	2344      	moveq	r3, #68	; 0x44
    1eb0:	2360      	movne	r3, #96	; 0x60
    1eb2:	2a0a      	cmp	r2, #10
    1eb4:	d005      	beq.n	1ec2 <serial2_set_tx+0x4e>
    1eb6:	2a3a      	cmp	r2, #58	; 0x3a
    1eb8:	d107      	bne.n	1eca <serial2_set_tx+0x56>
    1eba:	f443 7340 	orr.w	r3, r3, #768	; 0x300
    1ebe:	4a06      	ldr	r2, [pc, #24]	; (1ed8 <serial2_set_tx+0x64>)
    1ec0:	e002      	b.n	1ec8 <serial2_set_tx+0x54>
    1ec2:	4a06      	ldr	r2, [pc, #24]	; (1edc <serial2_set_tx+0x68>)
    1ec4:	f443 7340 	orr.w	r3, r3, #768	; 0x300
    1ec8:	6013      	str	r3, [r2, #0]
    1eca:	7060      	strb	r0, [r4, #1]
    1ecc:	bd10      	pop	{r4, pc}
    1ece:	bf00      	nop
    1ed0:	1fff0a09 	.word	0x1fff0a09
    1ed4:	40048034 	.word	0x40048034
    1ed8:	4004d000 	.word	0x4004d000
    1edc:	4004b010 	.word	0x4004b010

00001ee0 <serial2_set_rx>:
    1ee0:	4a0f      	ldr	r2, [pc, #60]	; (1f20 <serial2_set_rx+0x40>)
    1ee2:	7813      	ldrb	r3, [r2, #0]
    1ee4:	4298      	cmp	r0, r3
    1ee6:	d01a      	beq.n	1f1e <serial2_set_rx+0x3e>
    1ee8:	490e      	ldr	r1, [pc, #56]	; (1f24 <serial2_set_rx+0x44>)
    1eea:	6809      	ldr	r1, [r1, #0]
    1eec:	0509      	lsls	r1, r1, #20
    1eee:	d515      	bpl.n	1f1c <serial2_set_rx+0x3c>
    1ef0:	2b09      	cmp	r3, #9
    1ef2:	d004      	beq.n	1efe <serial2_set_rx+0x1e>
    1ef4:	2b3b      	cmp	r3, #59	; 0x3b
    1ef6:	d105      	bne.n	1f04 <serial2_set_rx+0x24>
    1ef8:	2100      	movs	r1, #0
    1efa:	4b0b      	ldr	r3, [pc, #44]	; (1f28 <serial2_set_rx+0x48>)
    1efc:	e001      	b.n	1f02 <serial2_set_rx+0x22>
    1efe:	4b0b      	ldr	r3, [pc, #44]	; (1f2c <serial2_set_rx+0x4c>)
    1f00:	2100      	movs	r1, #0
    1f02:	6019      	str	r1, [r3, #0]
    1f04:	2809      	cmp	r0, #9
    1f06:	d005      	beq.n	1f14 <serial2_set_rx+0x34>
    1f08:	283b      	cmp	r0, #59	; 0x3b
    1f0a:	d107      	bne.n	1f1c <serial2_set_rx+0x3c>
    1f0c:	f240 3113 	movw	r1, #787	; 0x313
    1f10:	4b05      	ldr	r3, [pc, #20]	; (1f28 <serial2_set_rx+0x48>)
    1f12:	e002      	b.n	1f1a <serial2_set_rx+0x3a>
    1f14:	4b05      	ldr	r3, [pc, #20]	; (1f2c <serial2_set_rx+0x4c>)
    1f16:	f240 3113 	movw	r1, #787	; 0x313
    1f1a:	6019      	str	r1, [r3, #0]
    1f1c:	7010      	strb	r0, [r2, #0]
    1f1e:	4770      	bx	lr
    1f20:	1fff0a09 	.word	0x1fff0a09
    1f24:	40048034 	.word	0x40048034
    1f28:	4004d004 	.word	0x4004d004
    1f2c:	4004b00c 	.word	0x4004b00c

00001f30 <serial2_set_rts>:
    1f30:	4a0d      	ldr	r2, [pc, #52]	; (1f68 <serial2_set_rts+0x38>)
    1f32:	b538      	push	{r3, r4, r5, lr}
    1f34:	6814      	ldr	r4, [r2, #0]
    1f36:	f414 6200 	ands.w	r2, r4, #2048	; 0x800
    1f3a:	f04f 0400 	mov.w	r4, #0
    1f3e:	d010      	beq.n	1f62 <serial2_set_rts+0x32>
    1f40:	283f      	cmp	r0, #63	; 0x3f
    1f42:	4d0a      	ldr	r5, [pc, #40]	; (1f6c <serial2_set_rts+0x3c>)
    1f44:	d80a      	bhi.n	1f5c <serial2_set_rts+0x2c>
    1f46:	4a0a      	ldr	r2, [pc, #40]	; (1f70 <serial2_set_rts+0x40>)
    1f48:	2101      	movs	r1, #1
    1f4a:	f852 3030 	ldr.w	r3, [r2, r0, lsl #3]
    1f4e:	60ab      	str	r3, [r5, #8]
    1f50:	f7fe fffe 	bl	f50 <pinMode>
    1f54:	68ab      	ldr	r3, [r5, #8]
    1f56:	701c      	strb	r4, [r3, #0]
    1f58:	2001      	movs	r0, #1
    1f5a:	bd38      	pop	{r3, r4, r5, pc}
    1f5c:	60ac      	str	r4, [r5, #8]
    1f5e:	4620      	mov	r0, r4
    1f60:	bd38      	pop	{r3, r4, r5, pc}
    1f62:	4610      	mov	r0, r2
    1f64:	bd38      	pop	{r3, r4, r5, pc}
    1f66:	bf00      	nop
    1f68:	40048034 	.word	0x40048034
    1f6c:	1fff0c10 	.word	0x1fff0c10
    1f70:	00009ec4 	.word	0x00009ec4

00001f74 <serial2_set_cts>:
    1f74:	4b0e      	ldr	r3, [pc, #56]	; (1fb0 <serial2_set_cts+0x3c>)
    1f76:	681b      	ldr	r3, [r3, #0]
    1f78:	f413 6300 	ands.w	r3, r3, #2048	; 0x800
    1f7c:	d016      	beq.n	1fac <serial2_set_cts+0x38>
    1f7e:	2817      	cmp	r0, #23
    1f80:	4b0c      	ldr	r3, [pc, #48]	; (1fb4 <serial2_set_cts+0x40>)
    1f82:	d103      	bne.n	1f8c <serial2_set_cts+0x18>
    1f84:	f240 3102 	movw	r1, #770	; 0x302
    1f88:	4a0b      	ldr	r2, [pc, #44]	; (1fb8 <serial2_set_cts+0x44>)
    1f8a:	e004      	b.n	1f96 <serial2_set_cts+0x22>
    1f8c:	283c      	cmp	r0, #60	; 0x3c
    1f8e:	d109      	bne.n	1fa4 <serial2_set_cts+0x30>
    1f90:	4a0a      	ldr	r2, [pc, #40]	; (1fbc <serial2_set_cts+0x48>)
    1f92:	f240 3102 	movw	r1, #770	; 0x302
    1f96:	6011      	str	r1, [r2, #0]
    1f98:	7b5a      	ldrb	r2, [r3, #13]
    1f9a:	f042 0201 	orr.w	r2, r2, #1
    1f9e:	735a      	strb	r2, [r3, #13]
    1fa0:	2001      	movs	r0, #1
    1fa2:	4770      	bx	lr
    1fa4:	7b5a      	ldrb	r2, [r3, #13]
    1fa6:	f002 02fe 	and.w	r2, r2, #254	; 0xfe
    1faa:	735a      	strb	r2, [r3, #13]
    1fac:	2000      	movs	r0, #0
    1fae:	4770      	bx	lr
    1fb0:	40048034 	.word	0x40048034
    1fb4:	4006b000 	.word	0x4006b000
    1fb8:	4004b008 	.word	0x4004b008
    1fbc:	4004d008 	.word	0x4004d008

00001fc0 <serial2_putchar>:
    1fc0:	b5f8      	push	{r3, r4, r5, r6, r7, lr}
    1fc2:	4b1b      	ldr	r3, [pc, #108]	; (2030 <serial2_putchar+0x70>)
    1fc4:	681b      	ldr	r3, [r3, #0]
    1fc6:	051a      	lsls	r2, r3, #20
    1fc8:	4607      	mov	r7, r0
    1fca:	d530      	bpl.n	202e <serial2_putchar+0x6e>
    1fcc:	4e19      	ldr	r6, [pc, #100]	; (2034 <serial2_putchar+0x74>)
    1fce:	68f3      	ldr	r3, [r6, #12]
    1fd0:	b10b      	cbz	r3, 1fd6 <serial2_putchar+0x16>
    1fd2:	2201      	movs	r2, #1
    1fd4:	701a      	strb	r2, [r3, #0]
    1fd6:	78b4      	ldrb	r4, [r6, #2]
    1fd8:	3401      	adds	r4, #1
    1fda:	2c28      	cmp	r4, #40	; 0x28
    1fdc:	bf28      	it	cs
    1fde:	2400      	movcs	r4, #0
    1fe0:	78f3      	ldrb	r3, [r6, #3]
    1fe2:	4d14      	ldr	r5, [pc, #80]	; (2034 <serial2_putchar+0x74>)
    1fe4:	42a3      	cmp	r3, r4
    1fe6:	d118      	bne.n	201a <serial2_putchar+0x5a>
    1fe8:	f7fe fce2 	bl	9b0 <nvic_execution_priority>
    1fec:	2840      	cmp	r0, #64	; 0x40
    1fee:	dc0f      	bgt.n	2010 <serial2_putchar+0x50>
    1ff0:	4a11      	ldr	r2, [pc, #68]	; (2038 <serial2_putchar+0x78>)
    1ff2:	7913      	ldrb	r3, [r2, #4]
    1ff4:	061b      	lsls	r3, r3, #24
    1ff6:	d5f3      	bpl.n	1fe0 <serial2_putchar+0x20>
    1ff8:	78eb      	ldrb	r3, [r5, #3]
    1ffa:	3301      	adds	r3, #1
    1ffc:	2b28      	cmp	r3, #40	; 0x28
    1ffe:	bf28      	it	cs
    2000:	2300      	movcs	r3, #0
    2002:	18f1      	adds	r1, r6, r3
    2004:	b2db      	uxtb	r3, r3
    2006:	7c09      	ldrb	r1, [r1, #16]
    2008:	b2c9      	uxtb	r1, r1
    200a:	71d1      	strb	r1, [r2, #7]
    200c:	70f3      	strb	r3, [r6, #3]
    200e:	e7e7      	b.n	1fe0 <serial2_putchar+0x20>
    2010:	28ff      	cmp	r0, #255	; 0xff
    2012:	dde5      	ble.n	1fe0 <serial2_putchar+0x20>
    2014:	f003 facc 	bl	55b0 <yield>
    2018:	e7e2      	b.n	1fe0 <serial2_putchar+0x20>
    201a:	192b      	adds	r3, r5, r4
    201c:	b2ff      	uxtb	r7, r7
    201e:	741f      	strb	r7, [r3, #16]
    2020:	2301      	movs	r3, #1
    2022:	712b      	strb	r3, [r5, #4]
    2024:	4b04      	ldr	r3, [pc, #16]	; (2038 <serial2_putchar+0x78>)
    2026:	b2e4      	uxtb	r4, r4
    2028:	22bc      	movs	r2, #188	; 0xbc
    202a:	70ac      	strb	r4, [r5, #2]
    202c:	70da      	strb	r2, [r3, #3]
    202e:	bdf8      	pop	{r3, r4, r5, r6, r7, pc}
    2030:	40048034 	.word	0x40048034
    2034:	1fff0c10 	.word	0x1fff0c10
    2038:	4006b000 	.word	0x4006b000

0000203c <serial2_write>:
    203c:	e92d 43f8 	stmdb	sp!, {r3, r4, r5, r6, r7, r8, r9, lr}
    2040:	4b23      	ldr	r3, [pc, #140]	; (20d0 <serial2_write+0x94>)
    2042:	681b      	ldr	r3, [r3, #0]
    2044:	051a      	lsls	r2, r3, #20
    2046:	4607      	mov	r7, r0
    2048:	4689      	mov	r9, r1
    204a:	d53e      	bpl.n	20ca <serial2_write+0x8e>
    204c:	4c21      	ldr	r4, [pc, #132]	; (20d4 <serial2_write+0x98>)
    204e:	68e3      	ldr	r3, [r4, #12]
    2050:	b10b      	cbz	r3, 2056 <serial2_write+0x1a>
    2052:	2201      	movs	r2, #1
    2054:	701a      	strb	r2, [r3, #0]
    2056:	463e      	mov	r6, r7
    2058:	eb07 0309 	add.w	r3, r7, r9
    205c:	429e      	cmp	r6, r3
    205e:	d231      	bcs.n	20c4 <serial2_write+0x88>
    2060:	78a5      	ldrb	r5, [r4, #2]
    2062:	f894 8003 	ldrb.w	r8, [r4, #3]
    2066:	3501      	adds	r5, #1
    2068:	2d28      	cmp	r5, #40	; 0x28
    206a:	bf28      	it	cs
    206c:	2500      	movcs	r5, #0
    206e:	fa5f f888 	uxtb.w	r8, r8
    2072:	45a8      	cmp	r8, r5
    2074:	d11d      	bne.n	20b2 <serial2_write+0x76>
    2076:	4b18      	ldr	r3, [pc, #96]	; (20d8 <serial2_write+0x9c>)
    2078:	22bc      	movs	r2, #188	; 0xbc
    207a:	70da      	strb	r2, [r3, #3]
    207c:	f7fe fc98 	bl	9b0 <nvic_execution_priority>
    2080:	2840      	cmp	r0, #64	; 0x40
    2082:	dc0f      	bgt.n	20a4 <serial2_write+0x68>
    2084:	4a14      	ldr	r2, [pc, #80]	; (20d8 <serial2_write+0x9c>)
    2086:	7913      	ldrb	r3, [r2, #4]
    2088:	061b      	lsls	r3, r3, #24
    208a:	d50f      	bpl.n	20ac <serial2_write+0x70>
    208c:	78e3      	ldrb	r3, [r4, #3]
    208e:	3301      	adds	r3, #1
    2090:	2b28      	cmp	r3, #40	; 0x28
    2092:	bf28      	it	cs
    2094:	2300      	movcs	r3, #0
    2096:	18e1      	adds	r1, r4, r3
    2098:	b2db      	uxtb	r3, r3
    209a:	7c09      	ldrb	r1, [r1, #16]
    209c:	b2c9      	uxtb	r1, r1
    209e:	71d1      	strb	r1, [r2, #7]
    20a0:	70e3      	strb	r3, [r4, #3]
    20a2:	e003      	b.n	20ac <serial2_write+0x70>
    20a4:	28ff      	cmp	r0, #255	; 0xff
    20a6:	dd01      	ble.n	20ac <serial2_write+0x70>
    20a8:	f003 fa82 	bl	55b0 <yield>
    20ac:	78e3      	ldrb	r3, [r4, #3]
    20ae:	4543      	cmp	r3, r8
    20b0:	d0e4      	beq.n	207c <serial2_write+0x40>
    20b2:	1963      	adds	r3, r4, r5
    20b4:	f816 2b01 	ldrb.w	r2, [r6], #1
    20b8:	741a      	strb	r2, [r3, #16]
    20ba:	b2ed      	uxtb	r5, r5
    20bc:	2301      	movs	r3, #1
    20be:	7123      	strb	r3, [r4, #4]
    20c0:	70a5      	strb	r5, [r4, #2]
    20c2:	e7c9      	b.n	2058 <serial2_write+0x1c>
    20c4:	4b04      	ldr	r3, [pc, #16]	; (20d8 <serial2_write+0x9c>)
    20c6:	22bc      	movs	r2, #188	; 0xbc
    20c8:	70da      	strb	r2, [r3, #3]
    20ca:	e8bd 83f8 	ldmia.w	sp!, {r3, r4, r5, r6, r7, r8, r9, pc}
    20ce:	bf00      	nop
    20d0:	40048034 	.word	0x40048034
    20d4:	1fff0c10 	.word	0x1fff0c10
    20d8:	4006b000 	.word	0x4006b000

000020dc <serial2_flush>:
    20dc:	b508      	push	{r3, lr}
    20de:	4b03      	ldr	r3, [pc, #12]	; (20ec <serial2_flush+0x10>)
    20e0:	791b      	ldrb	r3, [r3, #4]
    20e2:	b113      	cbz	r3, 20ea <serial2_flush+0xe>
    20e4:	f003 fa64 	bl	55b0 <yield>
    20e8:	e7f9      	b.n	20de <serial2_flush+0x2>
    20ea:	bd08      	pop	{r3, pc}
    20ec:	1fff0c10 	.word	0x1fff0c10

000020f0 <serial2_write_buffer_free>:
    20f0:	4a05      	ldr	r2, [pc, #20]	; (2108 <serial2_write_buffer_free+0x18>)
    20f2:	7893      	ldrb	r3, [r2, #2]
    20f4:	78d0      	ldrb	r0, [r2, #3]
    20f6:	b2db      	uxtb	r3, r3
    20f8:	b2c0      	uxtb	r0, r0
    20fa:	4283      	cmp	r3, r0
    20fc:	bf2c      	ite	cs
    20fe:	3027      	addcs	r0, #39	; 0x27
    2100:	f100 30ff 	addcc.w	r0, r0, #4294967295
    2104:	1ac0      	subs	r0, r0, r3
    2106:	4770      	bx	lr
    2108:	1fff0c10 	.word	0x1fff0c10

0000210c <serial2_available>:
    210c:	4a04      	ldr	r2, [pc, #16]	; (2120 <serial2_available+0x14>)
    210e:	7810      	ldrb	r0, [r2, #0]
    2110:	7853      	ldrb	r3, [r2, #1]
    2112:	b2c0      	uxtb	r0, r0
    2114:	b2db      	uxtb	r3, r3
    2116:	4298      	cmp	r0, r3
    2118:	bf38      	it	cc
    211a:	3040      	addcc	r0, #64	; 0x40
    211c:	1ac0      	subs	r0, r0, r3
    211e:	4770      	bx	lr
    2120:	1fff0c10 	.word	0x1fff0c10

00002124 <serial2_getchar>:
    2124:	b510      	push	{r4, lr}
    2126:	4a0f      	ldr	r2, [pc, #60]	; (2164 <serial2_getchar+0x40>)
    2128:	7811      	ldrb	r1, [r2, #0]
    212a:	7853      	ldrb	r3, [r2, #1]
    212c:	b2c9      	uxtb	r1, r1
    212e:	b2db      	uxtb	r3, r3
    2130:	4299      	cmp	r1, r3
    2132:	d014      	beq.n	215e <serial2_getchar+0x3a>
    2134:	3301      	adds	r3, #1
    2136:	2b40      	cmp	r3, #64	; 0x40
    2138:	bf28      	it	cs
    213a:	2300      	movcs	r3, #0
    213c:	18d0      	adds	r0, r2, r3
    213e:	b2dc      	uxtb	r4, r3
    2140:	f890 0038 	ldrb.w	r0, [r0, #56]	; 0x38
    2144:	7054      	strb	r4, [r2, #1]
    2146:	6892      	ldr	r2, [r2, #8]
    2148:	b2c0      	uxtb	r0, r0
    214a:	b152      	cbz	r2, 2162 <serial2_getchar+0x3e>
    214c:	4299      	cmp	r1, r3
    214e:	bf38      	it	cc
    2150:	3140      	addcc	r1, #64	; 0x40
    2152:	1acb      	subs	r3, r1, r3
    2154:	2b1a      	cmp	r3, #26
    2156:	dc04      	bgt.n	2162 <serial2_getchar+0x3e>
    2158:	2300      	movs	r3, #0
    215a:	7013      	strb	r3, [r2, #0]
    215c:	bd10      	pop	{r4, pc}
    215e:	f04f 30ff 	mov.w	r0, #4294967295
    2162:	bd10      	pop	{r4, pc}
    2164:	1fff0c10 	.word	0x1fff0c10

00002168 <serial2_peek>:
    2168:	4a08      	ldr	r2, [pc, #32]	; (218c <serial2_peek+0x24>)
    216a:	7811      	ldrb	r1, [r2, #0]
    216c:	7853      	ldrb	r3, [r2, #1]
    216e:	b2db      	uxtb	r3, r3
    2170:	4299      	cmp	r1, r3
    2172:	d008      	beq.n	2186 <serial2_peek+0x1e>
    2174:	3301      	adds	r3, #1
    2176:	2b40      	cmp	r3, #64	; 0x40
    2178:	bf28      	it	cs
    217a:	2300      	movcs	r3, #0
    217c:	4413      	add	r3, r2
    217e:	f893 0038 	ldrb.w	r0, [r3, #56]	; 0x38
    2182:	b2c0      	uxtb	r0, r0
    2184:	4770      	bx	lr
    2186:	f04f 30ff 	mov.w	r0, #4294967295
    218a:	4770      	bx	lr
    218c:	1fff0c10 	.word	0x1fff0c10

00002190 <serial2_clear>:
    2190:	4b0b      	ldr	r3, [pc, #44]	; (21c0 <serial2_clear+0x30>)
    2192:	681b      	ldr	r3, [r3, #0]
    2194:	051b      	lsls	r3, r3, #20
    2196:	d512      	bpl.n	21be <serial2_clear+0x2e>
    2198:	4b0a      	ldr	r3, [pc, #40]	; (21c4 <serial2_clear+0x34>)
    219a:	78da      	ldrb	r2, [r3, #3]
    219c:	f002 02cb 	and.w	r2, r2, #203	; 0xcb
    21a0:	70da      	strb	r2, [r3, #3]
    21a2:	2240      	movs	r2, #64	; 0x40
    21a4:	745a      	strb	r2, [r3, #17]
    21a6:	78da      	ldrb	r2, [r3, #3]
    21a8:	f042 0234 	orr.w	r2, r2, #52	; 0x34
    21ac:	70da      	strb	r2, [r3, #3]
    21ae:	4b06      	ldr	r3, [pc, #24]	; (21c8 <serial2_clear+0x38>)
    21b0:	785a      	ldrb	r2, [r3, #1]
    21b2:	b2d2      	uxtb	r2, r2
    21b4:	701a      	strb	r2, [r3, #0]
    21b6:	689b      	ldr	r3, [r3, #8]
    21b8:	b10b      	cbz	r3, 21be <serial2_clear+0x2e>
    21ba:	2200      	movs	r2, #0
    21bc:	701a      	strb	r2, [r3, #0]
    21be:	4770      	bx	lr
    21c0:	40048034 	.word	0x40048034
    21c4:	4006b000 	.word	0x4006b000
    21c8:	1fff0c10 	.word	0x1fff0c10

000021cc <uart1_status_isr>:
    21cc:	b530      	push	{r4, r5, lr}
    21ce:	4b35      	ldr	r3, [pc, #212]	; (22a4 <uart1_status_isr+0xd8>)
    21d0:	791a      	ldrb	r2, [r3, #4]
    21d2:	f012 0f30 	tst.w	r2, #48	; 0x30
    21d6:	d02f      	beq.n	2238 <uart1_status_isr+0x6c>
    21d8:	b672      	cpsid	i
    21da:	7d9a      	ldrb	r2, [r3, #22]
    21dc:	f002 04ff 	and.w	r4, r2, #255	; 0xff
    21e0:	b922      	cbnz	r2, 21ec <uart1_status_isr+0x20>
    21e2:	79da      	ldrb	r2, [r3, #7]
    21e4:	2240      	movs	r2, #64	; 0x40
    21e6:	745a      	strb	r2, [r3, #17]
    21e8:	b662      	cpsie	i
    21ea:	e025      	b.n	2238 <uart1_status_isr+0x6c>
    21ec:	b662      	cpsie	i
    21ee:	482e      	ldr	r0, [pc, #184]	; (22a8 <uart1_status_isr+0xdc>)
    21f0:	7803      	ldrb	r3, [r0, #0]
    21f2:	7841      	ldrb	r1, [r0, #1]
    21f4:	b2db      	uxtb	r3, r3
    21f6:	b2c9      	uxtb	r1, r1
    21f8:	4a2a      	ldr	r2, [pc, #168]	; (22a4 <uart1_status_isr+0xd8>)
    21fa:	79d5      	ldrb	r5, [r2, #7]
    21fc:	1c5a      	adds	r2, r3, #1
    21fe:	2a40      	cmp	r2, #64	; 0x40
    2200:	bf28      	it	cs
    2202:	2200      	movcs	r2, #0
    2204:	428a      	cmp	r2, r1
    2206:	b2ed      	uxtb	r5, r5
    2208:	d003      	beq.n	2212 <uart1_status_isr+0x46>
    220a:	1883      	adds	r3, r0, r2
    220c:	f883 5038 	strb.w	r5, [r3, #56]	; 0x38
    2210:	4613      	mov	r3, r2
    2212:	1e62      	subs	r2, r4, #1
    2214:	f012 04ff 	ands.w	r4, r2, #255	; 0xff
    2218:	d1ee      	bne.n	21f8 <uart1_status_isr+0x2c>
    221a:	b2da      	uxtb	r2, r3
    221c:	7002      	strb	r2, [r0, #0]
    221e:	6882      	ldr	r2, [r0, #8]
    2220:	b152      	cbz	r2, 2238 <uart1_status_isr+0x6c>
    2222:	428b      	cmp	r3, r1
    2224:	bf36      	itet	cc
    2226:	f1c1 0140 	rsbcc	r1, r1, #64	; 0x40
    222a:	ebc1 0303 	rsbcs	r3, r1, r3
    222e:	185b      	addcc	r3, r3, r1
    2230:	2b27      	cmp	r3, #39	; 0x27
    2232:	bfc4      	itt	gt
    2234:	2301      	movgt	r3, #1
    2236:	7013      	strbgt	r3, [r2, #0]
    2238:	4b1a      	ldr	r3, [pc, #104]	; (22a4 <uart1_status_isr+0xd8>)
    223a:	78d9      	ldrb	r1, [r3, #3]
    223c:	b2c9      	uxtb	r1, r1
    223e:	060c      	lsls	r4, r1, #24
    2240:	d51f      	bpl.n	2282 <uart1_status_isr+0xb6>
    2242:	791b      	ldrb	r3, [r3, #4]
    2244:	0618      	lsls	r0, r3, #24
    2246:	d51c      	bpl.n	2282 <uart1_status_isr+0xb6>
    2248:	4a17      	ldr	r2, [pc, #92]	; (22a8 <uart1_status_isr+0xdc>)
    224a:	7895      	ldrb	r5, [r2, #2]
    224c:	78d3      	ldrb	r3, [r2, #3]
    224e:	b2ed      	uxtb	r5, r5
    2250:	b2db      	uxtb	r3, r3
    2252:	4610      	mov	r0, r2
    2254:	42ab      	cmp	r3, r5
    2256:	d00c      	beq.n	2272 <uart1_status_isr+0xa6>
    2258:	3301      	adds	r3, #1
    225a:	4a12      	ldr	r2, [pc, #72]	; (22a4 <uart1_status_isr+0xd8>)
    225c:	2b28      	cmp	r3, #40	; 0x28
    225e:	bf28      	it	cs
    2260:	2300      	movcs	r3, #0
    2262:	7914      	ldrb	r4, [r2, #4]
    2264:	18c4      	adds	r4, r0, r3
    2266:	7c24      	ldrb	r4, [r4, #16]
    2268:	b2e4      	uxtb	r4, r4
    226a:	71d4      	strb	r4, [r2, #7]
    226c:	7d12      	ldrb	r2, [r2, #20]
    226e:	2a07      	cmp	r2, #7
    2270:	d9f0      	bls.n	2254 <uart1_status_isr+0x88>
    2272:	b2db      	uxtb	r3, r3
    2274:	70c3      	strb	r3, [r0, #3]
    2276:	4b0b      	ldr	r3, [pc, #44]	; (22a4 <uart1_status_isr+0xd8>)
    2278:	791a      	ldrb	r2, [r3, #4]
    227a:	0612      	lsls	r2, r2, #24
    227c:	bf44      	itt	mi
    227e:	227c      	movmi	r2, #124	; 0x7c
    2280:	70da      	strbmi	r2, [r3, #3]
    2282:	064b      	lsls	r3, r1, #25
    2284:	d50d      	bpl.n	22a2 <uart1_status_isr+0xd6>
    2286:	4b07      	ldr	r3, [pc, #28]	; (22a4 <uart1_status_isr+0xd8>)
    2288:	791a      	ldrb	r2, [r3, #4]
    228a:	f012 0f40 	tst.w	r2, #64	; 0x40
    228e:	4619      	mov	r1, r3
    2290:	d007      	beq.n	22a2 <uart1_status_isr+0xd6>
    2292:	4b05      	ldr	r3, [pc, #20]	; (22a8 <uart1_status_isr+0xdc>)
    2294:	2200      	movs	r2, #0
    2296:	711a      	strb	r2, [r3, #4]
    2298:	68db      	ldr	r3, [r3, #12]
    229a:	b103      	cbz	r3, 229e <uart1_status_isr+0xd2>
    229c:	701a      	strb	r2, [r3, #0]
    229e:	233c      	movs	r3, #60	; 0x3c
    22a0:	70cb      	strb	r3, [r1, #3]
    22a2:	bd30      	pop	{r4, r5, pc}
    22a4:	4006b000 	.word	0x4006b000
    22a8:	1fff0c10 	.word	0x1fff0c10

000022ac <serial3_begin>:
    22ac:	4b14      	ldr	r3, [pc, #80]	; (2300 <serial3_begin+0x54>)
    22ae:	681a      	ldr	r2, [r3, #0]
    22b0:	f442 5280 	orr.w	r2, r2, #4096	; 0x1000
    22b4:	601a      	str	r2, [r3, #0]
    22b6:	4a13      	ldr	r2, [pc, #76]	; (2304 <serial3_begin+0x58>)
    22b8:	2300      	movs	r3, #0
    22ba:	7013      	strb	r3, [r2, #0]
    22bc:	7053      	strb	r3, [r2, #1]
    22be:	7093      	strb	r3, [r2, #2]
    22c0:	70d3      	strb	r3, [r2, #3]
    22c2:	7113      	strb	r3, [r2, #4]
    22c4:	4a10      	ldr	r2, [pc, #64]	; (2308 <serial3_begin+0x5c>)
    22c6:	f240 3113 	movw	r1, #787	; 0x313
    22ca:	6011      	str	r1, [r2, #0]
    22cc:	f44f 7151 	mov.w	r1, #836	; 0x344
    22d0:	6051      	str	r1, [r2, #4]
    22d2:	4a0e      	ldr	r2, [pc, #56]	; (230c <serial3_begin+0x60>)
    22d4:	f3c0 3144 	ubfx	r1, r0, #13, #5
    22d8:	7011      	strb	r1, [r2, #0]
    22da:	f3c0 1147 	ubfx	r1, r0, #5, #8
    22de:	f000 001f 	and.w	r0, r0, #31
    22e2:	7051      	strb	r1, [r2, #1]
    22e4:	7290      	strb	r0, [r2, #10]
    22e6:	7093      	strb	r3, [r2, #2]
    22e8:	7413      	strb	r3, [r2, #16]
    22ea:	232c      	movs	r3, #44	; 0x2c
    22ec:	70d3      	strb	r3, [r2, #3]
    22ee:	4b08      	ldr	r3, [pc, #32]	; (2310 <serial3_begin+0x64>)
    22f0:	2240      	movs	r2, #64	; 0x40
    22f2:	701a      	strb	r2, [r3, #0]
    22f4:	f2a3 331f 	subw	r3, r3, #799	; 0x31f
    22f8:	2208      	movs	r2, #8
    22fa:	601a      	str	r2, [r3, #0]
    22fc:	4770      	bx	lr
    22fe:	bf00      	nop
    2300:	40048034 	.word	0x40048034
    2304:	1fff0c88 	.word	0x1fff0c88
    2308:	4004c008 	.word	0x4004c008
    230c:	4006c000 	.word	0x4006c000
    2310:	e000e423 	.word	0xe000e423

00002314 <serial3_format>:
    2314:	4a19      	ldr	r2, [pc, #100]	; (237c <serial3_format+0x68>)
    2316:	7893      	ldrb	r3, [r2, #2]
    2318:	f000 0103 	and.w	r1, r0, #3
    231c:	f003 03ec 	and.w	r3, r3, #236	; 0xec
    2320:	430b      	orrs	r3, r1
    2322:	0741      	lsls	r1, r0, #29
    2324:	bf48      	it	mi
    2326:	f043 0310 	orrmi.w	r3, r3, #16
    232a:	7093      	strb	r3, [r2, #2]
    232c:	f000 030f 	and.w	r3, r0, #15
    2330:	2b04      	cmp	r3, #4
    2332:	4912      	ldr	r1, [pc, #72]	; (237c <serial3_format+0x68>)
    2334:	d103      	bne.n	233e <serial3_format+0x2a>
    2336:	798b      	ldrb	r3, [r1, #6]
    2338:	f043 0340 	orr.w	r3, r3, #64	; 0x40
    233c:	718b      	strb	r3, [r1, #6]
    233e:	7952      	ldrb	r2, [r2, #5]
    2340:	4b0e      	ldr	r3, [pc, #56]	; (237c <serial3_format+0x68>)
    2342:	f002 02ef 	and.w	r2, r2, #239	; 0xef
    2346:	06c1      	lsls	r1, r0, #27
    2348:	bf48      	it	mi
    234a:	f042 0210 	orrmi.w	r2, r2, #16
    234e:	715a      	strb	r2, [r3, #5]
    2350:	799a      	ldrb	r2, [r3, #6]
    2352:	f010 0f20 	tst.w	r0, #32
    2356:	f002 02ef 	and.w	r2, r2, #239	; 0xef
    235a:	4619      	mov	r1, r3
    235c:	bf18      	it	ne
    235e:	f042 0210 	orrne.w	r2, r2, #16
    2362:	718a      	strb	r2, [r1, #6]
    2364:	05c2      	lsls	r2, r0, #23
    2366:	4b05      	ldr	r3, [pc, #20]	; (237c <serial3_format+0x68>)
    2368:	d506      	bpl.n	2378 <serial3_format+0x64>
    236a:	785a      	ldrb	r2, [r3, #1]
    236c:	7819      	ldrb	r1, [r3, #0]
    236e:	b2d2      	uxtb	r2, r2
    2370:	f041 0120 	orr.w	r1, r1, #32
    2374:	7019      	strb	r1, [r3, #0]
    2376:	705a      	strb	r2, [r3, #1]
    2378:	4770      	bx	lr
    237a:	bf00      	nop
    237c:	4006c000 	.word	0x4006c000

00002380 <serial3_end>:
    2380:	b508      	push	{r3, lr}
    2382:	4b10      	ldr	r3, [pc, #64]	; (23c4 <serial3_end+0x44>)
    2384:	681b      	ldr	r3, [r3, #0]
    2386:	04db      	lsls	r3, r3, #19
    2388:	d400      	bmi.n	238c <serial3_end+0xc>
    238a:	bd08      	pop	{r3, pc}
    238c:	4b0e      	ldr	r3, [pc, #56]	; (23c8 <serial3_end+0x48>)
    238e:	7919      	ldrb	r1, [r3, #4]
    2390:	f001 02ff 	and.w	r2, r1, #255	; 0xff
    2394:	b111      	cbz	r1, 239c <serial3_end+0x1c>
    2396:	f003 f90b 	bl	55b0 <yield>
    239a:	e7f7      	b.n	238c <serial3_end+0xc>
    239c:	490b      	ldr	r1, [pc, #44]	; (23cc <serial3_end+0x4c>)
    239e:	2008      	movs	r0, #8
    23a0:	6008      	str	r0, [r1, #0]
    23a2:	490b      	ldr	r1, [pc, #44]	; (23d0 <serial3_end+0x50>)
    23a4:	f100 4080 	add.w	r0, r0, #1073741824	; 0x40000000
    23a8:	f500 2098 	add.w	r0, r0, #311296	; 0x4c000
    23ac:	70ca      	strb	r2, [r1, #3]
    23ae:	f240 1103 	movw	r1, #259	; 0x103
    23b2:	6001      	str	r1, [r0, #0]
    23b4:	6041      	str	r1, [r0, #4]
    23b6:	701a      	strb	r2, [r3, #0]
    23b8:	705a      	strb	r2, [r3, #1]
    23ba:	689b      	ldr	r3, [r3, #8]
    23bc:	b10b      	cbz	r3, 23c2 <serial3_end+0x42>
    23be:	2201      	movs	r2, #1
    23c0:	701a      	strb	r2, [r3, #0]
    23c2:	bd08      	pop	{r3, pc}
    23c4:	40048034 	.word	0x40048034
    23c8:	1fff0c88 	.word	0x1fff0c88
    23cc:	e000e184 	.word	0xe000e184
    23d0:	4006c000 	.word	0x4006c000

000023d4 <serial3_set_transmit_pin>:
    23d4:	b570      	push	{r4, r5, r6, lr}
    23d6:	4604      	mov	r4, r0
    23d8:	4d09      	ldr	r5, [pc, #36]	; (2400 <serial3_set_transmit_pin+0x2c>)
    23da:	792b      	ldrb	r3, [r5, #4]
    23dc:	f003 06ff 	and.w	r6, r3, #255	; 0xff
    23e0:	2b00      	cmp	r3, #0
    23e2:	d1f9      	bne.n	23d8 <serial3_set_transmit_pin+0x4>
    23e4:	4620      	mov	r0, r4
    23e6:	2101      	movs	r1, #1
    23e8:	f7fe fdb2 	bl	f50 <pinMode>
    23ec:	4620      	mov	r0, r4
    23ee:	4631      	mov	r1, r6
    23f0:	f7fe fd80 	bl	ef4 <digitalWrite>
    23f4:	4b03      	ldr	r3, [pc, #12]	; (2404 <serial3_set_transmit_pin+0x30>)
    23f6:	f853 3034 	ldr.w	r3, [r3, r4, lsl #3]
    23fa:	60eb      	str	r3, [r5, #12]
    23fc:	bd70      	pop	{r4, r5, r6, pc}
    23fe:	bf00      	nop
    2400:	1fff0c88 	.word	0x1fff0c88
    2404:	00009ec4 	.word	0x00009ec4

00002408 <serial3_set_tx>:
    2408:	b510      	push	{r4, lr}
    240a:	b109      	cbz	r1, 2410 <serial3_set_tx+0x8>
    240c:	f040 0080 	orr.w	r0, r0, #128	; 0x80
    2410:	4a0e      	ldr	r2, [pc, #56]	; (244c <serial3_set_tx+0x44>)
    2412:	7813      	ldrb	r3, [r2, #0]
    2414:	4298      	cmp	r0, r3
    2416:	d017      	beq.n	2448 <serial3_set_tx+0x40>
    2418:	4c0d      	ldr	r4, [pc, #52]	; (2450 <serial3_set_tx+0x48>)
    241a:	6824      	ldr	r4, [r4, #0]
    241c:	04e4      	lsls	r4, r4, #19
    241e:	d512      	bpl.n	2446 <serial3_set_tx+0x3e>
    2420:	f003 037f 	and.w	r3, r3, #127	; 0x7f
    2424:	2b08      	cmp	r3, #8
    2426:	d102      	bne.n	242e <serial3_set_tx+0x26>
    2428:	4b0a      	ldr	r3, [pc, #40]	; (2454 <serial3_set_tx+0x4c>)
    242a:	2400      	movs	r4, #0
    242c:	601c      	str	r4, [r3, #0]
    242e:	2900      	cmp	r1, #0
    2430:	f000 037f 	and.w	r3, r0, #127	; 0x7f
    2434:	bf0c      	ite	eq
    2436:	2144      	moveq	r1, #68	; 0x44
    2438:	2160      	movne	r1, #96	; 0x60
    243a:	2b08      	cmp	r3, #8
    243c:	d103      	bne.n	2446 <serial3_set_tx+0x3e>
    243e:	4b05      	ldr	r3, [pc, #20]	; (2454 <serial3_set_tx+0x4c>)
    2440:	f441 7140 	orr.w	r1, r1, #768	; 0x300
    2444:	6019      	str	r1, [r3, #0]
    2446:	7010      	strb	r0, [r2, #0]
    2448:	bd10      	pop	{r4, pc}
    244a:	bf00      	nop
    244c:	1fff0a0b 	.word	0x1fff0a0b
    2450:	40048034 	.word	0x40048034
    2454:	4004c00c 	.word	0x4004c00c

00002458 <serial3_set_rx>:
    2458:	4770      	bx	lr

0000245a <serial3_set_rts>:
    245a:	4a0d      	ldr	r2, [pc, #52]	; (2490 <serial3_set_rts+0x36>)
    245c:	b538      	push	{r3, r4, r5, lr}
    245e:	6814      	ldr	r4, [r2, #0]
    2460:	f414 5280 	ands.w	r2, r4, #4096	; 0x1000
    2464:	f04f 0400 	mov.w	r4, #0
    2468:	d010      	beq.n	248c <serial3_set_rts+0x32>
    246a:	283f      	cmp	r0, #63	; 0x3f
    246c:	4d09      	ldr	r5, [pc, #36]	; (2494 <serial3_set_rts+0x3a>)
    246e:	d80a      	bhi.n	2486 <serial3_set_rts+0x2c>
    2470:	4a09      	ldr	r2, [pc, #36]	; (2498 <serial3_set_rts+0x3e>)
    2472:	2101      	movs	r1, #1
    2474:	f852 3030 	ldr.w	r3, [r2, r0, lsl #3]
    2478:	60ab      	str	r3, [r5, #8]
    247a:	f7fe fd69 	bl	f50 <pinMode>
    247e:	68ab      	ldr	r3, [r5, #8]
    2480:	701c      	strb	r4, [r3, #0]
    2482:	2001      	movs	r0, #1
    2484:	bd38      	pop	{r3, r4, r5, pc}
    2486:	60ac      	str	r4, [r5, #8]
    2488:	4620      	mov	r0, r4
    248a:	bd38      	pop	{r3, r4, r5, pc}
    248c:	4610      	mov	r0, r2
    248e:	bd38      	pop	{r3, r4, r5, pc}
    2490:	40048034 	.word	0x40048034
    2494:	1fff0c88 	.word	0x1fff0c88
    2498:	00009ec4 	.word	0x00009ec4

0000249c <serial3_set_cts>:
    249c:	4b0b      	ldr	r3, [pc, #44]	; (24cc <serial3_set_cts+0x30>)
    249e:	681b      	ldr	r3, [r3, #0]
    24a0:	f413 5380 	ands.w	r3, r3, #4096	; 0x1000
    24a4:	d010      	beq.n	24c8 <serial3_set_cts+0x2c>
    24a6:	280e      	cmp	r0, #14
    24a8:	4b09      	ldr	r3, [pc, #36]	; (24d0 <serial3_set_cts+0x34>)
    24aa:	d109      	bne.n	24c0 <serial3_set_cts+0x24>
    24ac:	4a09      	ldr	r2, [pc, #36]	; (24d4 <serial3_set_cts+0x38>)
    24ae:	f240 3102 	movw	r1, #770	; 0x302
    24b2:	6011      	str	r1, [r2, #0]
    24b4:	7b5a      	ldrb	r2, [r3, #13]
    24b6:	f042 0201 	orr.w	r2, r2, #1
    24ba:	735a      	strb	r2, [r3, #13]
    24bc:	2001      	movs	r0, #1
    24be:	4770      	bx	lr
    24c0:	7b5a      	ldrb	r2, [r3, #13]
    24c2:	f002 02fe 	and.w	r2, r2, #254	; 0xfe
    24c6:	735a      	strb	r2, [r3, #13]
    24c8:	2000      	movs	r0, #0
    24ca:	4770      	bx	lr
    24cc:	40048034 	.word	0x40048034
    24d0:	4006c000 	.word	0x4006c000
    24d4:	4004c004 	.word	0x4004c004

000024d8 <serial3_putchar>:
    24d8:	b5f8      	push	{r3, r4, r5, r6, r7, lr}
    24da:	4b1b      	ldr	r3, [pc, #108]	; (2548 <serial3_putchar+0x70>)
    24dc:	681b      	ldr	r3, [r3, #0]
    24de:	04da      	lsls	r2, r3, #19
    24e0:	4607      	mov	r7, r0
    24e2:	d530      	bpl.n	2546 <serial3_putchar+0x6e>
    24e4:	4e19      	ldr	r6, [pc, #100]	; (254c <serial3_putchar+0x74>)
    24e6:	68f3      	ldr	r3, [r6, #12]
    24e8:	b10b      	cbz	r3, 24ee <serial3_putchar+0x16>
    24ea:	2201      	movs	r2, #1
    24ec:	701a      	strb	r2, [r3, #0]
    24ee:	78b4      	ldrb	r4, [r6, #2]
    24f0:	3401      	adds	r4, #1
    24f2:	2c28      	cmp	r4, #40	; 0x28
    24f4:	bf28      	it	cs
    24f6:	2400      	movcs	r4, #0
    24f8:	78f3      	ldrb	r3, [r6, #3]
    24fa:	4d14      	ldr	r5, [pc, #80]	; (254c <serial3_putchar+0x74>)
    24fc:	42a3      	cmp	r3, r4
    24fe:	d118      	bne.n	2532 <serial3_putchar+0x5a>
    2500:	f7fe fa56 	bl	9b0 <nvic_execution_priority>
    2504:	2840      	cmp	r0, #64	; 0x40
    2506:	dc0f      	bgt.n	2528 <serial3_putchar+0x50>
    2508:	4a11      	ldr	r2, [pc, #68]	; (2550 <serial3_putchar+0x78>)
    250a:	7913      	ldrb	r3, [r2, #4]
    250c:	061b      	lsls	r3, r3, #24
    250e:	d5f3      	bpl.n	24f8 <serial3_putchar+0x20>
    2510:	78eb      	ldrb	r3, [r5, #3]
    2512:	3301      	adds	r3, #1
    2514:	2b28      	cmp	r3, #40	; 0x28
    2516:	bf28      	it	cs
    2518:	2300      	movcs	r3, #0
    251a:	18f1      	adds	r1, r6, r3
    251c:	b2db      	uxtb	r3, r3
    251e:	7c09      	ldrb	r1, [r1, #16]
    2520:	b2c9      	uxtb	r1, r1
    2522:	71d1      	strb	r1, [r2, #7]
    2524:	70f3      	strb	r3, [r6, #3]
    2526:	e7e7      	b.n	24f8 <serial3_putchar+0x20>
    2528:	28ff      	cmp	r0, #255	; 0xff
    252a:	dde5      	ble.n	24f8 <serial3_putchar+0x20>
    252c:	f003 f840 	bl	55b0 <yield>
    2530:	e7e2      	b.n	24f8 <serial3_putchar+0x20>
    2532:	192b      	adds	r3, r5, r4
    2534:	b2ff      	uxtb	r7, r7
    2536:	741f      	strb	r7, [r3, #16]
    2538:	2301      	movs	r3, #1
    253a:	712b      	strb	r3, [r5, #4]
    253c:	4b04      	ldr	r3, [pc, #16]	; (2550 <serial3_putchar+0x78>)
    253e:	b2e4      	uxtb	r4, r4
    2540:	22ac      	movs	r2, #172	; 0xac
    2542:	70ac      	strb	r4, [r5, #2]
    2544:	70da      	strb	r2, [r3, #3]
    2546:	bdf8      	pop	{r3, r4, r5, r6, r7, pc}
    2548:	40048034 	.word	0x40048034
    254c:	1fff0c88 	.word	0x1fff0c88
    2550:	4006c000 	.word	0x4006c000

00002554 <serial3_write>:
    2554:	b538      	push	{r3, r4, r5, lr}
    2556:	4604      	mov	r4, r0
    2558:	1845      	adds	r5, r0, r1
    255a:	42ac      	cmp	r4, r5
    255c:	d004      	beq.n	2568 <serial3_write+0x14>
    255e:	f814 0b01 	ldrb.w	r0, [r4], #1
    2562:	f7ff ffb9 	bl	24d8 <serial3_putchar>
    2566:	e7f8      	b.n	255a <serial3_write+0x6>
    2568:	bd38      	pop	{r3, r4, r5, pc}

0000256a <serial3_flush>:
    256a:	b508      	push	{r3, lr}
    256c:	4b03      	ldr	r3, [pc, #12]	; (257c <serial3_flush+0x12>)
    256e:	791b      	ldrb	r3, [r3, #4]
    2570:	b113      	cbz	r3, 2578 <serial3_flush+0xe>
    2572:	f003 f81d 	bl	55b0 <yield>
    2576:	e7f9      	b.n	256c <serial3_flush+0x2>
    2578:	bd08      	pop	{r3, pc}
    257a:	bf00      	nop
    257c:	1fff0c88 	.word	0x1fff0c88

00002580 <serial3_write_buffer_free>:
    2580:	4a05      	ldr	r2, [pc, #20]	; (2598 <serial3_write_buffer_free+0x18>)
    2582:	7893      	ldrb	r3, [r2, #2]
    2584:	78d0      	ldrb	r0, [r2, #3]
    2586:	b2db      	uxtb	r3, r3
    2588:	b2c0      	uxtb	r0, r0
    258a:	4283      	cmp	r3, r0
    258c:	bf2c      	ite	cs
    258e:	3027      	addcs	r0, #39	; 0x27
    2590:	f100 30ff 	addcc.w	r0, r0, #4294967295
    2594:	1ac0      	subs	r0, r0, r3
    2596:	4770      	bx	lr
    2598:	1fff0c88 	.word	0x1fff0c88

0000259c <serial3_available>:
    259c:	4a04      	ldr	r2, [pc, #16]	; (25b0 <serial3_available+0x14>)
    259e:	7810      	ldrb	r0, [r2, #0]
    25a0:	7853      	ldrb	r3, [r2, #1]
    25a2:	b2c0      	uxtb	r0, r0
    25a4:	b2db      	uxtb	r3, r3
    25a6:	4298      	cmp	r0, r3
    25a8:	bf38      	it	cc
    25aa:	3040      	addcc	r0, #64	; 0x40
    25ac:	1ac0      	subs	r0, r0, r3
    25ae:	4770      	bx	lr
    25b0:	1fff0c88 	.word	0x1fff0c88

000025b4 <serial3_getchar>:
    25b4:	b510      	push	{r4, lr}
    25b6:	4a0f      	ldr	r2, [pc, #60]	; (25f4 <serial3_getchar+0x40>)
    25b8:	7811      	ldrb	r1, [r2, #0]
    25ba:	7853      	ldrb	r3, [r2, #1]
    25bc:	b2c9      	uxtb	r1, r1
    25be:	b2db      	uxtb	r3, r3
    25c0:	4299      	cmp	r1, r3
    25c2:	d014      	beq.n	25ee <serial3_getchar+0x3a>
    25c4:	3301      	adds	r3, #1
    25c6:	2b40      	cmp	r3, #64	; 0x40
    25c8:	bf28      	it	cs
    25ca:	2300      	movcs	r3, #0
    25cc:	18d0      	adds	r0, r2, r3
    25ce:	b2dc      	uxtb	r4, r3
    25d0:	f890 0038 	ldrb.w	r0, [r0, #56]	; 0x38
    25d4:	7054      	strb	r4, [r2, #1]
    25d6:	6892      	ldr	r2, [r2, #8]
    25d8:	b2c0      	uxtb	r0, r0
    25da:	b152      	cbz	r2, 25f2 <serial3_getchar+0x3e>
    25dc:	4299      	cmp	r1, r3
    25de:	bf38      	it	cc
    25e0:	3140      	addcc	r1, #64	; 0x40
    25e2:	1acb      	subs	r3, r1, r3
    25e4:	2b1a      	cmp	r3, #26
    25e6:	dc04      	bgt.n	25f2 <serial3_getchar+0x3e>
    25e8:	2300      	movs	r3, #0
    25ea:	7013      	strb	r3, [r2, #0]
    25ec:	bd10      	pop	{r4, pc}
    25ee:	f04f 30ff 	mov.w	r0, #4294967295
    25f2:	bd10      	pop	{r4, pc}
    25f4:	1fff0c88 	.word	0x1fff0c88

000025f8 <serial3_peek>:
    25f8:	4a08      	ldr	r2, [pc, #32]	; (261c <serial3_peek+0x24>)
    25fa:	7811      	ldrb	r1, [r2, #0]
    25fc:	7853      	ldrb	r3, [r2, #1]
    25fe:	b2db      	uxtb	r3, r3
    2600:	4299      	cmp	r1, r3
    2602:	d008      	beq.n	2616 <serial3_peek+0x1e>
    2604:	3301      	adds	r3, #1
    2606:	2b40      	cmp	r3, #64	; 0x40
    2608:	bf28      	it	cs
    260a:	2300      	movcs	r3, #0
    260c:	4413      	add	r3, r2
    260e:	f893 0038 	ldrb.w	r0, [r3, #56]	; 0x38
    2612:	b2c0      	uxtb	r0, r0
    2614:	4770      	bx	lr
    2616:	f04f 30ff 	mov.w	r0, #4294967295
    261a:	4770      	bx	lr
    261c:	1fff0c88 	.word	0x1fff0c88

00002620 <serial3_clear>:
    2620:	4b04      	ldr	r3, [pc, #16]	; (2634 <serial3_clear+0x14>)
    2622:	785a      	ldrb	r2, [r3, #1]
    2624:	b2d2      	uxtb	r2, r2
    2626:	701a      	strb	r2, [r3, #0]
    2628:	689b      	ldr	r3, [r3, #8]
    262a:	b10b      	cbz	r3, 2630 <serial3_clear+0x10>
    262c:	2200      	movs	r2, #0
    262e:	701a      	strb	r2, [r3, #0]
    2630:	4770      	bx	lr
    2632:	bf00      	nop
    2634:	1fff0c88 	.word	0x1fff0c88

00002638 <uart2_status_isr>:
    2638:	b510      	push	{r4, lr}
    263a:	4b28      	ldr	r3, [pc, #160]	; (26dc <uart2_status_isr+0xa4>)
    263c:	791a      	ldrb	r2, [r3, #4]
    263e:	0692      	lsls	r2, r2, #26
    2640:	d51f      	bpl.n	2682 <uart2_status_isr+0x4a>
    2642:	4a27      	ldr	r2, [pc, #156]	; (26e0 <uart2_status_isr+0xa8>)
    2644:	79d8      	ldrb	r0, [r3, #7]
    2646:	7813      	ldrb	r3, [r2, #0]
    2648:	7851      	ldrb	r1, [r2, #1]
    264a:	3301      	adds	r3, #1
    264c:	2b40      	cmp	r3, #64	; 0x40
    264e:	bf28      	it	cs
    2650:	2300      	movcs	r3, #0
    2652:	428b      	cmp	r3, r1
    2654:	b2c0      	uxtb	r0, r0
    2656:	d004      	beq.n	2662 <uart2_status_isr+0x2a>
    2658:	18d1      	adds	r1, r2, r3
    265a:	f881 0038 	strb.w	r0, [r1, #56]	; 0x38
    265e:	b2d9      	uxtb	r1, r3
    2660:	7011      	strb	r1, [r2, #0]
    2662:	6891      	ldr	r1, [r2, #8]
    2664:	b169      	cbz	r1, 2682 <uart2_status_isr+0x4a>
    2666:	4a1e      	ldr	r2, [pc, #120]	; (26e0 <uart2_status_isr+0xa8>)
    2668:	78d2      	ldrb	r2, [r2, #3]
    266a:	b2d2      	uxtb	r2, r2
    266c:	4293      	cmp	r3, r2
    266e:	bf36      	itet	cc
    2670:	f1c2 0240 	rsbcc	r2, r2, #64	; 0x40
    2674:	ebc2 0303 	rsbcs	r3, r2, r3
    2678:	189b      	addcc	r3, r3, r2
    267a:	2b27      	cmp	r3, #39	; 0x27
    267c:	bfc4      	itt	gt
    267e:	2301      	movgt	r3, #1
    2680:	700b      	strbgt	r3, [r1, #0]
    2682:	4916      	ldr	r1, [pc, #88]	; (26dc <uart2_status_isr+0xa4>)
    2684:	78c8      	ldrb	r0, [r1, #3]
    2686:	b2c0      	uxtb	r0, r0
    2688:	0604      	lsls	r4, r0, #24
    268a:	d515      	bpl.n	26b8 <uart2_status_isr+0x80>
    268c:	790b      	ldrb	r3, [r1, #4]
    268e:	061a      	lsls	r2, r3, #24
    2690:	d512      	bpl.n	26b8 <uart2_status_isr+0x80>
    2692:	4a13      	ldr	r2, [pc, #76]	; (26e0 <uart2_status_isr+0xa8>)
    2694:	7894      	ldrb	r4, [r2, #2]
    2696:	78d3      	ldrb	r3, [r2, #3]
    2698:	b2db      	uxtb	r3, r3
    269a:	429c      	cmp	r4, r3
    269c:	d102      	bne.n	26a4 <uart2_status_isr+0x6c>
    269e:	236c      	movs	r3, #108	; 0x6c
    26a0:	70cb      	strb	r3, [r1, #3]
    26a2:	e009      	b.n	26b8 <uart2_status_isr+0x80>
    26a4:	3301      	adds	r3, #1
    26a6:	2b28      	cmp	r3, #40	; 0x28
    26a8:	bf28      	it	cs
    26aa:	2300      	movcs	r3, #0
    26ac:	18d4      	adds	r4, r2, r3
    26ae:	b2db      	uxtb	r3, r3
    26b0:	7c24      	ldrb	r4, [r4, #16]
    26b2:	b2e4      	uxtb	r4, r4
    26b4:	71cc      	strb	r4, [r1, #7]
    26b6:	70d3      	strb	r3, [r2, #3]
    26b8:	0643      	lsls	r3, r0, #25
    26ba:	d50d      	bpl.n	26d8 <uart2_status_isr+0xa0>
    26bc:	4b07      	ldr	r3, [pc, #28]	; (26dc <uart2_status_isr+0xa4>)
    26be:	791a      	ldrb	r2, [r3, #4]
    26c0:	f012 0f40 	tst.w	r2, #64	; 0x40
    26c4:	4619      	mov	r1, r3
    26c6:	d007      	beq.n	26d8 <uart2_status_isr+0xa0>
    26c8:	4b05      	ldr	r3, [pc, #20]	; (26e0 <uart2_status_isr+0xa8>)
    26ca:	2200      	movs	r2, #0
    26cc:	711a      	strb	r2, [r3, #4]
    26ce:	68db      	ldr	r3, [r3, #12]
    26d0:	b103      	cbz	r3, 26d4 <uart2_status_isr+0x9c>
    26d2:	701a      	strb	r2, [r3, #0]
    26d4:	232c      	movs	r3, #44	; 0x2c
    26d6:	70cb      	strb	r3, [r1, #3]
    26d8:	bd10      	pop	{r4, pc}
    26da:	bf00      	nop
    26dc:	4006c000 	.word	0x4006c000
    26e0:	1fff0c88 	.word	0x1fff0c88

000026e4 <serial4_begin>:
    26e4:	4b1f      	ldr	r3, [pc, #124]	; (2764 <serial4_begin+0x80>)
    26e6:	681a      	ldr	r2, [r3, #0]
    26e8:	f442 5200 	orr.w	r2, r2, #8192	; 0x2000
    26ec:	601a      	str	r2, [r3, #0]
    26ee:	4b1e      	ldr	r3, [pc, #120]	; (2768 <serial4_begin+0x84>)
    26f0:	2200      	movs	r2, #0
    26f2:	701a      	strb	r2, [r3, #0]
    26f4:	705a      	strb	r2, [r3, #1]
    26f6:	709a      	strb	r2, [r3, #2]
    26f8:	70da      	strb	r2, [r3, #3]
    26fa:	711a      	strb	r2, [r3, #4]
    26fc:	4a1b      	ldr	r2, [pc, #108]	; (276c <serial4_begin+0x88>)
    26fe:	7813      	ldrb	r3, [r2, #0]
    2700:	2b1f      	cmp	r3, #31
    2702:	d005      	beq.n	2710 <serial4_begin+0x2c>
    2704:	2b3f      	cmp	r3, #63	; 0x3f
    2706:	d107      	bne.n	2718 <serial4_begin+0x34>
    2708:	f240 3113 	movw	r1, #787	; 0x313
    270c:	4b18      	ldr	r3, [pc, #96]	; (2770 <serial4_begin+0x8c>)
    270e:	e002      	b.n	2716 <serial4_begin+0x32>
    2710:	4b18      	ldr	r3, [pc, #96]	; (2774 <serial4_begin+0x90>)
    2712:	f240 3113 	movw	r1, #787	; 0x313
    2716:	6019      	str	r1, [r3, #0]
    2718:	7853      	ldrb	r3, [r2, #1]
    271a:	2b20      	cmp	r3, #32
    271c:	d005      	beq.n	272a <serial4_begin+0x46>
    271e:	2b3e      	cmp	r3, #62	; 0x3e
    2720:	d107      	bne.n	2732 <serial4_begin+0x4e>
    2722:	f44f 7251 	mov.w	r2, #836	; 0x344
    2726:	4b14      	ldr	r3, [pc, #80]	; (2778 <serial4_begin+0x94>)
    2728:	e002      	b.n	2730 <serial4_begin+0x4c>
    272a:	4b14      	ldr	r3, [pc, #80]	; (277c <serial4_begin+0x98>)
    272c:	f44f 7251 	mov.w	r2, #836	; 0x344
    2730:	601a      	str	r2, [r3, #0]
    2732:	4b13      	ldr	r3, [pc, #76]	; (2780 <serial4_begin+0x9c>)
    2734:	f3c0 3244 	ubfx	r2, r0, #13, #5
    2738:	701a      	strb	r2, [r3, #0]
    273a:	f3c0 1247 	ubfx	r2, r0, #5, #8
    273e:	705a      	strb	r2, [r3, #1]
    2740:	f000 001f 	and.w	r0, r0, #31
    2744:	2200      	movs	r2, #0
    2746:	7298      	strb	r0, [r3, #10]
    2748:	709a      	strb	r2, [r3, #2]
    274a:	741a      	strb	r2, [r3, #16]
    274c:	222c      	movs	r2, #44	; 0x2c
    274e:	70da      	strb	r2, [r3, #3]
    2750:	4b0c      	ldr	r3, [pc, #48]	; (2784 <serial4_begin+0xa0>)
    2752:	2240      	movs	r2, #64	; 0x40
    2754:	f46f 7148 	mvn.w	r1, #800	; 0x320
    2758:	701a      	strb	r2, [r3, #0]
    275a:	440b      	add	r3, r1
    275c:	2220      	movs	r2, #32
    275e:	601a      	str	r2, [r3, #0]
    2760:	4770      	bx	lr
    2762:	bf00      	nop
    2764:	40048034 	.word	0x40048034
    2768:	1fff0d00 	.word	0x1fff0d00
    276c:	1fff0a0c 	.word	0x1fff0a0c
    2770:	4004d014 	.word	0x4004d014
    2774:	4004a028 	.word	0x4004a028
    2778:	4004d010 	.word	0x4004d010
    277c:	4004a02c 	.word	0x4004a02c
    2780:	4006d000 	.word	0x4006d000
    2784:	e000e425 	.word	0xe000e425

00002788 <serial4_format>:
    2788:	4a19      	ldr	r2, [pc, #100]	; (27f0 <serial4_format+0x68>)
    278a:	7893      	ldrb	r3, [r2, #2]
    278c:	f000 0103 	and.w	r1, r0, #3
    2790:	f003 03ec 	and.w	r3, r3, #236	; 0xec
    2794:	430b      	orrs	r3, r1
    2796:	0741      	lsls	r1, r0, #29
    2798:	bf48      	it	mi
    279a:	f043 0310 	orrmi.w	r3, r3, #16
    279e:	7093      	strb	r3, [r2, #2]
    27a0:	f000 030f 	and.w	r3, r0, #15
    27a4:	2b04      	cmp	r3, #4
    27a6:	4912      	ldr	r1, [pc, #72]	; (27f0 <serial4_format+0x68>)
    27a8:	d103      	bne.n	27b2 <serial4_format+0x2a>
    27aa:	798b      	ldrb	r3, [r1, #6]
    27ac:	f043 0340 	orr.w	r3, r3, #64	; 0x40
    27b0:	718b      	strb	r3, [r1, #6]
    27b2:	7952      	ldrb	r2, [r2, #5]
    27b4:	4b0e      	ldr	r3, [pc, #56]	; (27f0 <serial4_format+0x68>)
    27b6:	f002 02ef 	and.w	r2, r2, #239	; 0xef
    27ba:	06c1      	lsls	r1, r0, #27
    27bc:	bf48      	it	mi
    27be:	f042 0210 	orrmi.w	r2, r2, #16
    27c2:	715a      	strb	r2, [r3, #5]
    27c4:	799a      	ldrb	r2, [r3, #6]
    27c6:	f010 0f20 	tst.w	r0, #32
    27ca:	f002 02ef 	and.w	r2, r2, #239	; 0xef
    27ce:	4619      	mov	r1, r3
    27d0:	bf18      	it	ne
    27d2:	f042 0210 	orrne.w	r2, r2, #16
    27d6:	718a      	strb	r2, [r1, #6]
    27d8:	05c2      	lsls	r2, r0, #23
    27da:	4b05      	ldr	r3, [pc, #20]	; (27f0 <serial4_format+0x68>)
    27dc:	d506      	bpl.n	27ec <serial4_format+0x64>
    27de:	785a      	ldrb	r2, [r3, #1]
    27e0:	7819      	ldrb	r1, [r3, #0]
    27e2:	b2d2      	uxtb	r2, r2
    27e4:	f041 0120 	orr.w	r1, r1, #32
    27e8:	7019      	strb	r1, [r3, #0]
    27ea:	705a      	strb	r2, [r3, #1]
    27ec:	4770      	bx	lr
    27ee:	bf00      	nop
    27f0:	4006d000 	.word	0x4006d000

000027f4 <serial4_end>:
    27f4:	4b1c      	ldr	r3, [pc, #112]	; (2868 <serial4_end+0x74>)
    27f6:	681b      	ldr	r3, [r3, #0]
    27f8:	049b      	lsls	r3, r3, #18
    27fa:	b570      	push	{r4, r5, r6, lr}
    27fc:	d400      	bmi.n	2800 <serial4_end+0xc>
    27fe:	bd70      	pop	{r4, r5, r6, pc}
    2800:	4b1a      	ldr	r3, [pc, #104]	; (286c <serial4_end+0x78>)
    2802:	791a      	ldrb	r2, [r3, #4]
    2804:	f002 01ff 	and.w	r1, r2, #255	; 0xff
    2808:	b112      	cbz	r2, 2810 <serial4_end+0x1c>
    280a:	f002 fed1 	bl	55b0 <yield>
    280e:	e7f7      	b.n	2800 <serial4_end+0xc>
    2810:	4a17      	ldr	r2, [pc, #92]	; (2870 <serial4_end+0x7c>)
    2812:	4e18      	ldr	r6, [pc, #96]	; (2874 <serial4_end+0x80>)
    2814:	4d18      	ldr	r5, [pc, #96]	; (2878 <serial4_end+0x84>)
    2816:	2020      	movs	r0, #32
    2818:	6010      	str	r0, [r2, #0]
    281a:	4a18      	ldr	r2, [pc, #96]	; (287c <serial4_end+0x88>)
    281c:	4818      	ldr	r0, [pc, #96]	; (2880 <serial4_end+0x8c>)
    281e:	70d1      	strb	r1, [r2, #3]
    2820:	f240 1203 	movw	r2, #259	; 0x103
    2824:	6002      	str	r2, [r0, #0]
    2826:	6032      	str	r2, [r6, #0]
    2828:	782c      	ldrb	r4, [r5, #0]
    282a:	2c1f      	cmp	r4, #31
    282c:	d004      	beq.n	2838 <serial4_end+0x44>
    282e:	2c3f      	cmp	r4, #63	; 0x3f
    2830:	d103      	bne.n	283a <serial4_end+0x46>
    2832:	4a14      	ldr	r2, [pc, #80]	; (2884 <serial4_end+0x90>)
    2834:	6011      	str	r1, [r2, #0]
    2836:	e000      	b.n	283a <serial4_end+0x46>
    2838:	6002      	str	r2, [r0, #0]
    283a:	786a      	ldrb	r2, [r5, #1]
    283c:	f002 027f 	and.w	r2, r2, #127	; 0x7f
    2840:	2a20      	cmp	r2, #32
    2842:	d005      	beq.n	2850 <serial4_end+0x5c>
    2844:	2a3e      	cmp	r2, #62	; 0x3e
    2846:	d106      	bne.n	2856 <serial4_end+0x62>
    2848:	4a0f      	ldr	r2, [pc, #60]	; (2888 <serial4_end+0x94>)
    284a:	2100      	movs	r1, #0
    284c:	6011      	str	r1, [r2, #0]
    284e:	e002      	b.n	2856 <serial4_end+0x62>
    2850:	f240 1203 	movw	r2, #259	; 0x103
    2854:	6032      	str	r2, [r6, #0]
    2856:	2200      	movs	r2, #0
    2858:	701a      	strb	r2, [r3, #0]
    285a:	705a      	strb	r2, [r3, #1]
    285c:	689b      	ldr	r3, [r3, #8]
    285e:	b10b      	cbz	r3, 2864 <serial4_end+0x70>
    2860:	2201      	movs	r2, #1
    2862:	701a      	strb	r2, [r3, #0]
    2864:	bd70      	pop	{r4, r5, r6, pc}
    2866:	bf00      	nop
    2868:	40048034 	.word	0x40048034
    286c:	1fff0d00 	.word	0x1fff0d00
    2870:	e000e184 	.word	0xe000e184
    2874:	4004a02c 	.word	0x4004a02c
    2878:	1fff0a0c 	.word	0x1fff0a0c
    287c:	4006d000 	.word	0x4006d000
    2880:	4004a028 	.word	0x4004a028
    2884:	4004d014 	.word	0x4004d014
    2888:	4004d010 	.word	0x4004d010

0000288c <serial4_set_transmit_pin>:
    288c:	b570      	push	{r4, r5, r6, lr}
    288e:	4604      	mov	r4, r0
    2890:	4d09      	ldr	r5, [pc, #36]	; (28b8 <serial4_set_transmit_pin+0x2c>)
    2892:	792b      	ldrb	r3, [r5, #4]
    2894:	f003 06ff 	and.w	r6, r3, #255	; 0xff
    2898:	2b00      	cmp	r3, #0
    289a:	d1f9      	bne.n	2890 <serial4_set_transmit_pin+0x4>
    289c:	4620      	mov	r0, r4
    289e:	2101      	movs	r1, #1
    28a0:	f7fe fb56 	bl	f50 <pinMode>
    28a4:	4620      	mov	r0, r4
    28a6:	4631      	mov	r1, r6
    28a8:	f7fe fb24 	bl	ef4 <digitalWrite>
    28ac:	4b03      	ldr	r3, [pc, #12]	; (28bc <serial4_set_transmit_pin+0x30>)
    28ae:	f853 3034 	ldr.w	r3, [r3, r4, lsl #3]
    28b2:	60eb      	str	r3, [r5, #12]
    28b4:	bd70      	pop	{r4, r5, r6, pc}
    28b6:	bf00      	nop
    28b8:	1fff0d00 	.word	0x1fff0d00
    28bc:	00009ec4 	.word	0x00009ec4

000028c0 <serial4_set_tx>:
    28c0:	b510      	push	{r4, lr}
    28c2:	b109      	cbz	r1, 28c8 <serial4_set_tx+0x8>
    28c4:	f040 0080 	orr.w	r0, r0, #128	; 0x80
    28c8:	4a14      	ldr	r2, [pc, #80]	; (291c <serial4_set_tx+0x5c>)
    28ca:	7853      	ldrb	r3, [r2, #1]
    28cc:	4298      	cmp	r0, r3
    28ce:	4614      	mov	r4, r2
    28d0:	d022      	beq.n	2918 <serial4_set_tx+0x58>
    28d2:	4a13      	ldr	r2, [pc, #76]	; (2920 <serial4_set_tx+0x60>)
    28d4:	6812      	ldr	r2, [r2, #0]
    28d6:	0492      	lsls	r2, r2, #18
    28d8:	d51d      	bpl.n	2916 <serial4_set_tx+0x56>
    28da:	f003 037f 	and.w	r3, r3, #127	; 0x7f
    28de:	2b20      	cmp	r3, #32
    28e0:	d004      	beq.n	28ec <serial4_set_tx+0x2c>
    28e2:	2b3e      	cmp	r3, #62	; 0x3e
    28e4:	d105      	bne.n	28f2 <serial4_set_tx+0x32>
    28e6:	2200      	movs	r2, #0
    28e8:	4b0e      	ldr	r3, [pc, #56]	; (2924 <serial4_set_tx+0x64>)
    28ea:	e001      	b.n	28f0 <serial4_set_tx+0x30>
    28ec:	4b0e      	ldr	r3, [pc, #56]	; (2928 <serial4_set_tx+0x68>)
    28ee:	2200      	movs	r2, #0
    28f0:	601a      	str	r2, [r3, #0]
    28f2:	2900      	cmp	r1, #0
    28f4:	f000 027f 	and.w	r2, r0, #127	; 0x7f
    28f8:	bf0c      	ite	eq
    28fa:	2344      	moveq	r3, #68	; 0x44
    28fc:	2360      	movne	r3, #96	; 0x60
    28fe:	2a20      	cmp	r2, #32
    2900:	d005      	beq.n	290e <serial4_set_tx+0x4e>
    2902:	2a3e      	cmp	r2, #62	; 0x3e
    2904:	d107      	bne.n	2916 <serial4_set_tx+0x56>
    2906:	f443 7340 	orr.w	r3, r3, #768	; 0x300
    290a:	4a06      	ldr	r2, [pc, #24]	; (2924 <serial4_set_tx+0x64>)
    290c:	e002      	b.n	2914 <serial4_set_tx+0x54>
    290e:	4a06      	ldr	r2, [pc, #24]	; (2928 <serial4_set_tx+0x68>)
    2910:	f443 7340 	orr.w	r3, r3, #768	; 0x300
    2914:	6013      	str	r3, [r2, #0]
    2916:	7060      	strb	r0, [r4, #1]
    2918:	bd10      	pop	{r4, pc}
    291a:	bf00      	nop
    291c:	1fff0a0c 	.word	0x1fff0a0c
    2920:	40048034 	.word	0x40048034
    2924:	4004d010 	.word	0x4004d010
    2928:	4004a02c 	.word	0x4004a02c

0000292c <serial4_set_rx>:
    292c:	4a0f      	ldr	r2, [pc, #60]	; (296c <serial4_set_rx+0x40>)
    292e:	7813      	ldrb	r3, [r2, #0]
    2930:	4298      	cmp	r0, r3
    2932:	d01a      	beq.n	296a <serial4_set_rx+0x3e>
    2934:	490e      	ldr	r1, [pc, #56]	; (2970 <serial4_set_rx+0x44>)
    2936:	6809      	ldr	r1, [r1, #0]
    2938:	0489      	lsls	r1, r1, #18
    293a:	d515      	bpl.n	2968 <serial4_set_rx+0x3c>
    293c:	2b1f      	cmp	r3, #31
    293e:	d004      	beq.n	294a <serial4_set_rx+0x1e>
    2940:	2b3f      	cmp	r3, #63	; 0x3f
    2942:	d105      	bne.n	2950 <serial4_set_rx+0x24>
    2944:	2100      	movs	r1, #0
    2946:	4b0b      	ldr	r3, [pc, #44]	; (2974 <serial4_set_rx+0x48>)
    2948:	e001      	b.n	294e <serial4_set_rx+0x22>
    294a:	4b0b      	ldr	r3, [pc, #44]	; (2978 <serial4_set_rx+0x4c>)
    294c:	2100      	movs	r1, #0
    294e:	6019      	str	r1, [r3, #0]
    2950:	281f      	cmp	r0, #31
    2952:	d005      	beq.n	2960 <serial4_set_rx+0x34>
    2954:	283f      	cmp	r0, #63	; 0x3f
    2956:	d107      	bne.n	2968 <serial4_set_rx+0x3c>
    2958:	f240 3113 	movw	r1, #787	; 0x313
    295c:	4b05      	ldr	r3, [pc, #20]	; (2974 <serial4_set_rx+0x48>)
    295e:	e002      	b.n	2966 <serial4_set_rx+0x3a>
    2960:	4b05      	ldr	r3, [pc, #20]	; (2978 <serial4_set_rx+0x4c>)
    2962:	f240 3113 	movw	r1, #787	; 0x313
    2966:	6019      	str	r1, [r3, #0]
    2968:	7010      	strb	r0, [r2, #0]
    296a:	4770      	bx	lr
    296c:	1fff0a0c 	.word	0x1fff0a0c
    2970:	40048034 	.word	0x40048034
    2974:	4004d014 	.word	0x4004d014
    2978:	4004a028 	.word	0x4004a028

0000297c <serial4_set_rts>:
    297c:	4a0d      	ldr	r2, [pc, #52]	; (29b4 <serial4_set_rts+0x38>)
    297e:	b538      	push	{r3, r4, r5, lr}
    2980:	6814      	ldr	r4, [r2, #0]
    2982:	f414 5200 	ands.w	r2, r4, #8192	; 0x2000
    2986:	f04f 0400 	mov.w	r4, #0
    298a:	d010      	beq.n	29ae <serial4_set_rts+0x32>
    298c:	283f      	cmp	r0, #63	; 0x3f
    298e:	4d0a      	ldr	r5, [pc, #40]	; (29b8 <serial4_set_rts+0x3c>)
    2990:	d80a      	bhi.n	29a8 <serial4_set_rts+0x2c>
    2992:	4a0a      	ldr	r2, [pc, #40]	; (29bc <serial4_set_rts+0x40>)
    2994:	2101      	movs	r1, #1
    2996:	f852 3030 	ldr.w	r3, [r2, r0, lsl #3]
    299a:	60ab      	str	r3, [r5, #8]
    299c:	f7fe fad8 	bl	f50 <pinMode>
    29a0:	68ab      	ldr	r3, [r5, #8]
    29a2:	701c      	strb	r4, [r3, #0]
    29a4:	2001      	movs	r0, #1
    29a6:	bd38      	pop	{r3, r4, r5, pc}
    29a8:	60ac      	str	r4, [r5, #8]
    29aa:	4620      	mov	r0, r4
    29ac:	bd38      	pop	{r3, r4, r5, pc}
    29ae:	4610      	mov	r0, r2
    29b0:	bd38      	pop	{r3, r4, r5, pc}
    29b2:	bf00      	nop
    29b4:	40048034 	.word	0x40048034
    29b8:	1fff0d00 	.word	0x1fff0d00
    29bc:	00009ec4 	.word	0x00009ec4

000029c0 <serial4_set_cts>:
    29c0:	2000      	movs	r0, #0
    29c2:	4770      	bx	lr

000029c4 <serial4_putchar>:
    29c4:	b5f8      	push	{r3, r4, r5, r6, r7, lr}
    29c6:	4b1b      	ldr	r3, [pc, #108]	; (2a34 <serial4_putchar+0x70>)
    29c8:	681b      	ldr	r3, [r3, #0]
    29ca:	049a      	lsls	r2, r3, #18
    29cc:	4607      	mov	r7, r0
    29ce:	d530      	bpl.n	2a32 <serial4_putchar+0x6e>
    29d0:	4e19      	ldr	r6, [pc, #100]	; (2a38 <serial4_putchar+0x74>)
    29d2:	68f3      	ldr	r3, [r6, #12]
    29d4:	b10b      	cbz	r3, 29da <serial4_putchar+0x16>
    29d6:	2201      	movs	r2, #1
    29d8:	701a      	strb	r2, [r3, #0]
    29da:	78b4      	ldrb	r4, [r6, #2]
    29dc:	3401      	adds	r4, #1
    29de:	2c28      	cmp	r4, #40	; 0x28
    29e0:	bf28      	it	cs
    29e2:	2400      	movcs	r4, #0
    29e4:	78f3      	ldrb	r3, [r6, #3]
    29e6:	4d14      	ldr	r5, [pc, #80]	; (2a38 <serial4_putchar+0x74>)
    29e8:	42a3      	cmp	r3, r4
    29ea:	d118      	bne.n	2a1e <serial4_putchar+0x5a>
    29ec:	f7fd ffe0 	bl	9b0 <nvic_execution_priority>
    29f0:	2840      	cmp	r0, #64	; 0x40
    29f2:	dc0f      	bgt.n	2a14 <serial4_putchar+0x50>
    29f4:	4a11      	ldr	r2, [pc, #68]	; (2a3c <serial4_putchar+0x78>)
    29f6:	7913      	ldrb	r3, [r2, #4]
    29f8:	061b      	lsls	r3, r3, #24
    29fa:	d5f3      	bpl.n	29e4 <serial4_putchar+0x20>
    29fc:	78eb      	ldrb	r3, [r5, #3]
    29fe:	3301      	adds	r3, #1
    2a00:	2b28      	cmp	r3, #40	; 0x28
    2a02:	bf28      	it	cs
    2a04:	2300      	movcs	r3, #0
    2a06:	18f1      	adds	r1, r6, r3
    2a08:	b2db      	uxtb	r3, r3
    2a0a:	7c09      	ldrb	r1, [r1, #16]
    2a0c:	b2c9      	uxtb	r1, r1
    2a0e:	71d1      	strb	r1, [r2, #7]
    2a10:	70f3      	strb	r3, [r6, #3]
    2a12:	e7e7      	b.n	29e4 <serial4_putchar+0x20>
    2a14:	28ff      	cmp	r0, #255	; 0xff
    2a16:	dde5      	ble.n	29e4 <serial4_putchar+0x20>
    2a18:	f002 fdca 	bl	55b0 <yield>
    2a1c:	e7e2      	b.n	29e4 <serial4_putchar+0x20>
    2a1e:	192b      	adds	r3, r5, r4
    2a20:	b2ff      	uxtb	r7, r7
    2a22:	741f      	strb	r7, [r3, #16]
    2a24:	2301      	movs	r3, #1
    2a26:	712b      	strb	r3, [r5, #4]
    2a28:	4b04      	ldr	r3, [pc, #16]	; (2a3c <serial4_putchar+0x78>)
    2a2a:	b2e4      	uxtb	r4, r4
    2a2c:	22ac      	movs	r2, #172	; 0xac
    2a2e:	70ac      	strb	r4, [r5, #2]
    2a30:	70da      	strb	r2, [r3, #3]
    2a32:	bdf8      	pop	{r3, r4, r5, r6, r7, pc}
    2a34:	40048034 	.word	0x40048034
    2a38:	1fff0d00 	.word	0x1fff0d00
    2a3c:	4006d000 	.word	0x4006d000

00002a40 <serial4_write>:
    2a40:	b538      	push	{r3, r4, r5, lr}
    2a42:	4604      	mov	r4, r0
    2a44:	1845      	adds	r5, r0, r1
    2a46:	42ac      	cmp	r4, r5
    2a48:	d004      	beq.n	2a54 <serial4_write+0x14>
    2a4a:	f814 0b01 	ldrb.w	r0, [r4], #1
    2a4e:	f7ff ffb9 	bl	29c4 <serial4_putchar>
    2a52:	e7f8      	b.n	2a46 <serial4_write+0x6>
    2a54:	bd38      	pop	{r3, r4, r5, pc}

00002a56 <serial4_flush>:
    2a56:	b508      	push	{r3, lr}
    2a58:	4b03      	ldr	r3, [pc, #12]	; (2a68 <serial4_flush+0x12>)
    2a5a:	791b      	ldrb	r3, [r3, #4]
    2a5c:	b113      	cbz	r3, 2a64 <serial4_flush+0xe>
    2a5e:	f002 fda7 	bl	55b0 <yield>
    2a62:	e7f9      	b.n	2a58 <serial4_flush+0x2>
    2a64:	bd08      	pop	{r3, pc}
    2a66:	bf00      	nop
    2a68:	1fff0d00 	.word	0x1fff0d00

00002a6c <serial4_write_buffer_free>:
    2a6c:	4a05      	ldr	r2, [pc, #20]	; (2a84 <serial4_write_buffer_free+0x18>)
    2a6e:	7893      	ldrb	r3, [r2, #2]
    2a70:	78d0      	ldrb	r0, [r2, #3]
    2a72:	b2db      	uxtb	r3, r3
    2a74:	b2c0      	uxtb	r0, r0
    2a76:	4283      	cmp	r3, r0
    2a78:	bf2c      	ite	cs
    2a7a:	3027      	addcs	r0, #39	; 0x27
    2a7c:	f100 30ff 	addcc.w	r0, r0, #4294967295
    2a80:	1ac0      	subs	r0, r0, r3
    2a82:	4770      	bx	lr
    2a84:	1fff0d00 	.word	0x1fff0d00

00002a88 <serial4_available>:
    2a88:	4a04      	ldr	r2, [pc, #16]	; (2a9c <serial4_available+0x14>)
    2a8a:	7810      	ldrb	r0, [r2, #0]
    2a8c:	7853      	ldrb	r3, [r2, #1]
    2a8e:	b2c0      	uxtb	r0, r0
    2a90:	b2db      	uxtb	r3, r3
    2a92:	4298      	cmp	r0, r3
    2a94:	bf38      	it	cc
    2a96:	3040      	addcc	r0, #64	; 0x40
    2a98:	1ac0      	subs	r0, r0, r3
    2a9a:	4770      	bx	lr
    2a9c:	1fff0d00 	.word	0x1fff0d00

00002aa0 <serial4_getchar>:
    2aa0:	b510      	push	{r4, lr}
    2aa2:	4a0f      	ldr	r2, [pc, #60]	; (2ae0 <serial4_getchar+0x40>)
    2aa4:	7811      	ldrb	r1, [r2, #0]
    2aa6:	7853      	ldrb	r3, [r2, #1]
    2aa8:	b2c9      	uxtb	r1, r1
    2aaa:	b2db      	uxtb	r3, r3
    2aac:	4299      	cmp	r1, r3
    2aae:	d014      	beq.n	2ada <serial4_getchar+0x3a>
    2ab0:	3301      	adds	r3, #1
    2ab2:	2b40      	cmp	r3, #64	; 0x40
    2ab4:	bf28      	it	cs
    2ab6:	2300      	movcs	r3, #0
    2ab8:	18d0      	adds	r0, r2, r3
    2aba:	b2dc      	uxtb	r4, r3
    2abc:	f890 0038 	ldrb.w	r0, [r0, #56]	; 0x38
    2ac0:	7054      	strb	r4, [r2, #1]
    2ac2:	6892      	ldr	r2, [r2, #8]
    2ac4:	b2c0      	uxtb	r0, r0
    2ac6:	b152      	cbz	r2, 2ade <serial4_getchar+0x3e>
    2ac8:	4299      	cmp	r1, r3
    2aca:	bf38      	it	cc
    2acc:	3140      	addcc	r1, #64	; 0x40
    2ace:	1acb      	subs	r3, r1, r3
    2ad0:	2b1a      	cmp	r3, #26
    2ad2:	dc04      	bgt.n	2ade <serial4_getchar+0x3e>
    2ad4:	2300      	movs	r3, #0
    2ad6:	7013      	strb	r3, [r2, #0]
    2ad8:	bd10      	pop	{r4, pc}
    2ada:	f04f 30ff 	mov.w	r0, #4294967295
    2ade:	bd10      	pop	{r4, pc}
    2ae0:	1fff0d00 	.word	0x1fff0d00

00002ae4 <serial4_peek>:
    2ae4:	4a08      	ldr	r2, [pc, #32]	; (2b08 <serial4_peek+0x24>)
    2ae6:	7811      	ldrb	r1, [r2, #0]
    2ae8:	7853      	ldrb	r3, [r2, #1]
    2aea:	b2db      	uxtb	r3, r3
    2aec:	4299      	cmp	r1, r3
    2aee:	d008      	beq.n	2b02 <serial4_peek+0x1e>
    2af0:	3301      	adds	r3, #1
    2af2:	2b40      	cmp	r3, #64	; 0x40
    2af4:	bf28      	it	cs
    2af6:	2300      	movcs	r3, #0
    2af8:	4413      	add	r3, r2
    2afa:	f893 0038 	ldrb.w	r0, [r3, #56]	; 0x38
    2afe:	b2c0      	uxtb	r0, r0
    2b00:	4770      	bx	lr
    2b02:	f04f 30ff 	mov.w	r0, #4294967295
    2b06:	4770      	bx	lr
    2b08:	1fff0d00 	.word	0x1fff0d00

00002b0c <serial4_clear>:
    2b0c:	4b04      	ldr	r3, [pc, #16]	; (2b20 <serial4_clear+0x14>)
    2b0e:	785a      	ldrb	r2, [r3, #1]
    2b10:	b2d2      	uxtb	r2, r2
    2b12:	701a      	strb	r2, [r3, #0]
    2b14:	689b      	ldr	r3, [r3, #8]
    2b16:	b10b      	cbz	r3, 2b1c <serial4_clear+0x10>
    2b18:	2200      	movs	r2, #0
    2b1a:	701a      	strb	r2, [r3, #0]
    2b1c:	4770      	bx	lr
    2b1e:	bf00      	nop
    2b20:	1fff0d00 	.word	0x1fff0d00

00002b24 <uart3_status_isr>:
    2b24:	b510      	push	{r4, lr}
    2b26:	4b28      	ldr	r3, [pc, #160]	; (2bc8 <uart3_status_isr+0xa4>)
    2b28:	791a      	ldrb	r2, [r3, #4]
    2b2a:	0692      	lsls	r2, r2, #26
    2b2c:	d51f      	bpl.n	2b6e <uart3_status_isr+0x4a>
    2b2e:	4a27      	ldr	r2, [pc, #156]	; (2bcc <uart3_status_isr+0xa8>)
    2b30:	79d8      	ldrb	r0, [r3, #7]
    2b32:	7813      	ldrb	r3, [r2, #0]
    2b34:	7851      	ldrb	r1, [r2, #1]
    2b36:	3301      	adds	r3, #1
    2b38:	2b40      	cmp	r3, #64	; 0x40
    2b3a:	bf28      	it	cs
    2b3c:	2300      	movcs	r3, #0
    2b3e:	428b      	cmp	r3, r1
    2b40:	b2c0      	uxtb	r0, r0
    2b42:	d004      	beq.n	2b4e <uart3_status_isr+0x2a>
    2b44:	18d1      	adds	r1, r2, r3
    2b46:	f881 0038 	strb.w	r0, [r1, #56]	; 0x38
    2b4a:	b2d9      	uxtb	r1, r3
    2b4c:	7011      	strb	r1, [r2, #0]
    2b4e:	6891      	ldr	r1, [r2, #8]
    2b50:	b169      	cbz	r1, 2b6e <uart3_status_isr+0x4a>
    2b52:	4a1e      	ldr	r2, [pc, #120]	; (2bcc <uart3_status_isr+0xa8>)
    2b54:	78d2      	ldrb	r2, [r2, #3]
    2b56:	b2d2      	uxtb	r2, r2
    2b58:	4293      	cmp	r3, r2
    2b5a:	bf36      	itet	cc
    2b5c:	f1c2 0240 	rsbcc	r2, r2, #64	; 0x40
    2b60:	ebc2 0303 	rsbcs	r3, r2, r3
    2b64:	189b      	addcc	r3, r3, r2
    2b66:	2b27      	cmp	r3, #39	; 0x27
    2b68:	bfc4      	itt	gt
    2b6a:	2301      	movgt	r3, #1
    2b6c:	700b      	strbgt	r3, [r1, #0]
    2b6e:	4916      	ldr	r1, [pc, #88]	; (2bc8 <uart3_status_isr+0xa4>)
    2b70:	78c8      	ldrb	r0, [r1, #3]
    2b72:	b2c0      	uxtb	r0, r0
    2b74:	0604      	lsls	r4, r0, #24
    2b76:	d515      	bpl.n	2ba4 <uart3_status_isr+0x80>
    2b78:	790b      	ldrb	r3, [r1, #4]
    2b7a:	061a      	lsls	r2, r3, #24
    2b7c:	d512      	bpl.n	2ba4 <uart3_status_isr+0x80>
    2b7e:	4a13      	ldr	r2, [pc, #76]	; (2bcc <uart3_status_isr+0xa8>)
    2b80:	7894      	ldrb	r4, [r2, #2]
    2b82:	78d3      	ldrb	r3, [r2, #3]
    2b84:	b2db      	uxtb	r3, r3
    2b86:	429c      	cmp	r4, r3
    2b88:	d102      	bne.n	2b90 <uart3_status_isr+0x6c>
    2b8a:	236c      	movs	r3, #108	; 0x6c
    2b8c:	70cb      	strb	r3, [r1, #3]
    2b8e:	e009      	b.n	2ba4 <uart3_status_isr+0x80>
    2b90:	3301      	adds	r3, #1
    2b92:	2b28      	cmp	r3, #40	; 0x28
    2b94:	bf28      	it	cs
    2b96:	2300      	movcs	r3, #0
    2b98:	18d4      	adds	r4, r2, r3
    2b9a:	b2db      	uxtb	r3, r3
    2b9c:	7c24      	ldrb	r4, [r4, #16]
    2b9e:	b2e4      	uxtb	r4, r4
    2ba0:	71cc      	strb	r4, [r1, #7]
    2ba2:	70d3      	strb	r3, [r2, #3]
    2ba4:	0643      	lsls	r3, r0, #25
    2ba6:	d50d      	bpl.n	2bc4 <uart3_status_isr+0xa0>
    2ba8:	4b07      	ldr	r3, [pc, #28]	; (2bc8 <uart3_status_isr+0xa4>)
    2baa:	791a      	ldrb	r2, [r3, #4]
    2bac:	f012 0f40 	tst.w	r2, #64	; 0x40
    2bb0:	4619      	mov	r1, r3
    2bb2:	d007      	beq.n	2bc4 <uart3_status_isr+0xa0>
    2bb4:	4b05      	ldr	r3, [pc, #20]	; (2bcc <uart3_status_isr+0xa8>)
    2bb6:	2200      	movs	r2, #0
    2bb8:	711a      	strb	r2, [r3, #4]
    2bba:	68db      	ldr	r3, [r3, #12]
    2bbc:	b103      	cbz	r3, 2bc0 <uart3_status_isr+0x9c>
    2bbe:	701a      	strb	r2, [r3, #0]
    2bc0:	232c      	movs	r3, #44	; 0x2c
    2bc2:	70cb      	strb	r3, [r1, #3]
    2bc4:	bd10      	pop	{r4, pc}
    2bc6:	bf00      	nop
    2bc8:	4006d000 	.word	0x4006d000
    2bcc:	1fff0d00 	.word	0x1fff0d00

00002bd0 <serial5_begin>:
    2bd0:	4b14      	ldr	r3, [pc, #80]	; (2c24 <serial5_begin+0x54>)
    2bd2:	681a      	ldr	r2, [r3, #0]
    2bd4:	f442 6280 	orr.w	r2, r2, #1024	; 0x400
    2bd8:	601a      	str	r2, [r3, #0]
    2bda:	4a13      	ldr	r2, [pc, #76]	; (2c28 <serial5_begin+0x58>)
    2bdc:	2300      	movs	r3, #0
    2bde:	7013      	strb	r3, [r2, #0]
    2be0:	7053      	strb	r3, [r2, #1]
    2be2:	7093      	strb	r3, [r2, #2]
    2be4:	70d3      	strb	r3, [r2, #3]
    2be6:	7113      	strb	r3, [r2, #4]
    2be8:	4a10      	ldr	r2, [pc, #64]	; (2c2c <serial5_begin+0x5c>)
    2bea:	f240 3113 	movw	r1, #787	; 0x313
    2bee:	6011      	str	r1, [r2, #0]
    2bf0:	f44f 7151 	mov.w	r1, #836	; 0x344
    2bf4:	f842 1c04 	str.w	r1, [r2, #-4]
    2bf8:	4a0d      	ldr	r2, [pc, #52]	; (2c30 <serial5_begin+0x60>)
    2bfa:	f3c0 3144 	ubfx	r1, r0, #13, #5
    2bfe:	7011      	strb	r1, [r2, #0]
    2c00:	f3c0 1147 	ubfx	r1, r0, #5, #8
    2c04:	f000 001f 	and.w	r0, r0, #31
    2c08:	7051      	strb	r1, [r2, #1]
    2c0a:	7290      	strb	r0, [r2, #10]
    2c0c:	7093      	strb	r3, [r2, #2]
    2c0e:	7413      	strb	r3, [r2, #16]
    2c10:	232c      	movs	r3, #44	; 0x2c
    2c12:	70d3      	strb	r3, [r2, #3]
    2c14:	4b07      	ldr	r3, [pc, #28]	; (2c34 <serial5_begin+0x64>)
    2c16:	2240      	movs	r2, #64	; 0x40
    2c18:	701a      	strb	r2, [r3, #0]
    2c1a:	f2a3 333a 	subw	r3, r3, #826	; 0x33a
    2c1e:	2204      	movs	r2, #4
    2c20:	601a      	str	r2, [r3, #0]
    2c22:	4770      	bx	lr
    2c24:	40048028 	.word	0x40048028
    2c28:	1fff0d78 	.word	0x1fff0d78
    2c2c:	4004d064 	.word	0x4004d064
    2c30:	400ea000 	.word	0x400ea000
    2c34:	e000e442 	.word	0xe000e442

00002c38 <serial5_format>:
    2c38:	4a19      	ldr	r2, [pc, #100]	; (2ca0 <serial5_format+0x68>)
    2c3a:	7893      	ldrb	r3, [r2, #2]
    2c3c:	f000 0103 	and.w	r1, r0, #3
    2c40:	f003 03ec 	and.w	r3, r3, #236	; 0xec
    2c44:	430b      	orrs	r3, r1
    2c46:	0741      	lsls	r1, r0, #29
    2c48:	bf48      	it	mi
    2c4a:	f043 0310 	orrmi.w	r3, r3, #16
    2c4e:	7093      	strb	r3, [r2, #2]
    2c50:	f000 030f 	and.w	r3, r0, #15
    2c54:	2b04      	cmp	r3, #4
    2c56:	4912      	ldr	r1, [pc, #72]	; (2ca0 <serial5_format+0x68>)
    2c58:	d103      	bne.n	2c62 <serial5_format+0x2a>
    2c5a:	798b      	ldrb	r3, [r1, #6]
    2c5c:	f043 0340 	orr.w	r3, r3, #64	; 0x40
    2c60:	718b      	strb	r3, [r1, #6]
    2c62:	7952      	ldrb	r2, [r2, #5]
    2c64:	4b0e      	ldr	r3, [pc, #56]	; (2ca0 <serial5_format+0x68>)
    2c66:	f002 02ef 	and.w	r2, r2, #239	; 0xef
    2c6a:	06c1      	lsls	r1, r0, #27
    2c6c:	bf48      	it	mi
    2c6e:	f042 0210 	orrmi.w	r2, r2, #16
    2c72:	715a      	strb	r2, [r3, #5]
    2c74:	799a      	ldrb	r2, [r3, #6]
    2c76:	f010 0f20 	tst.w	r0, #32
    2c7a:	f002 02ef 	and.w	r2, r2, #239	; 0xef
    2c7e:	4619      	mov	r1, r3
    2c80:	bf18      	it	ne
    2c82:	f042 0210 	orrne.w	r2, r2, #16
    2c86:	718a      	strb	r2, [r1, #6]
    2c88:	05c2      	lsls	r2, r0, #23
    2c8a:	4b05      	ldr	r3, [pc, #20]	; (2ca0 <serial5_format+0x68>)
    2c8c:	d506      	bpl.n	2c9c <serial5_format+0x64>
    2c8e:	785a      	ldrb	r2, [r3, #1]
    2c90:	7819      	ldrb	r1, [r3, #0]
    2c92:	b2d2      	uxtb	r2, r2
    2c94:	f041 0120 	orr.w	r1, r1, #32
    2c98:	7019      	strb	r1, [r3, #0]
    2c9a:	705a      	strb	r2, [r3, #1]
    2c9c:	4770      	bx	lr
    2c9e:	bf00      	nop
    2ca0:	400ea000 	.word	0x400ea000

00002ca4 <serial5_end>:
    2ca4:	b508      	push	{r3, lr}
    2ca6:	4b0f      	ldr	r3, [pc, #60]	; (2ce4 <serial5_end+0x40>)
    2ca8:	681b      	ldr	r3, [r3, #0]
    2caa:	055b      	lsls	r3, r3, #21
    2cac:	d400      	bmi.n	2cb0 <serial5_end+0xc>
    2cae:	bd08      	pop	{r3, pc}
    2cb0:	4b0d      	ldr	r3, [pc, #52]	; (2ce8 <serial5_end+0x44>)
    2cb2:	7919      	ldrb	r1, [r3, #4]
    2cb4:	f001 02ff 	and.w	r2, r1, #255	; 0xff
    2cb8:	b111      	cbz	r1, 2cc0 <serial5_end+0x1c>
    2cba:	f002 fc79 	bl	55b0 <yield>
    2cbe:	e7f7      	b.n	2cb0 <serial5_end+0xc>
    2cc0:	490a      	ldr	r1, [pc, #40]	; (2cec <serial5_end+0x48>)
    2cc2:	2004      	movs	r0, #4
    2cc4:	6008      	str	r0, [r1, #0]
    2cc6:	490a      	ldr	r1, [pc, #40]	; (2cf0 <serial5_end+0x4c>)
    2cc8:	480a      	ldr	r0, [pc, #40]	; (2cf4 <serial5_end+0x50>)
    2cca:	70ca      	strb	r2, [r1, #3]
    2ccc:	f240 1103 	movw	r1, #259	; 0x103
    2cd0:	6001      	str	r1, [r0, #0]
    2cd2:	f840 1c04 	str.w	r1, [r0, #-4]
    2cd6:	701a      	strb	r2, [r3, #0]
    2cd8:	705a      	strb	r2, [r3, #1]
    2cda:	689b      	ldr	r3, [r3, #8]
    2cdc:	b10b      	cbz	r3, 2ce2 <serial5_end+0x3e>
    2cde:	2201      	movs	r2, #1
    2ce0:	701a      	strb	r2, [r3, #0]
    2ce2:	bd08      	pop	{r3, pc}
    2ce4:	40048028 	.word	0x40048028
    2ce8:	1fff0d78 	.word	0x1fff0d78
    2cec:	e000e188 	.word	0xe000e188
    2cf0:	400ea000 	.word	0x400ea000
    2cf4:	4004d064 	.word	0x4004d064

00002cf8 <serial5_set_transmit_pin>:
    2cf8:	b570      	push	{r4, r5, r6, lr}
    2cfa:	4604      	mov	r4, r0
    2cfc:	4d09      	ldr	r5, [pc, #36]	; (2d24 <serial5_set_transmit_pin+0x2c>)
    2cfe:	792b      	ldrb	r3, [r5, #4]
    2d00:	f003 06ff 	and.w	r6, r3, #255	; 0xff
    2d04:	2b00      	cmp	r3, #0
    2d06:	d1f9      	bne.n	2cfc <serial5_set_transmit_pin+0x4>
    2d08:	4620      	mov	r0, r4
    2d0a:	2101      	movs	r1, #1
    2d0c:	f7fe f920 	bl	f50 <pinMode>
    2d10:	4620      	mov	r0, r4
    2d12:	4631      	mov	r1, r6
    2d14:	f7fe f8ee 	bl	ef4 <digitalWrite>
    2d18:	4b03      	ldr	r3, [pc, #12]	; (2d28 <serial5_set_transmit_pin+0x30>)
    2d1a:	f853 3034 	ldr.w	r3, [r3, r4, lsl #3]
    2d1e:	60eb      	str	r3, [r5, #12]
    2d20:	bd70      	pop	{r4, r5, r6, pc}
    2d22:	bf00      	nop
    2d24:	1fff0d78 	.word	0x1fff0d78
    2d28:	00009ec4 	.word	0x00009ec4

00002d2c <serial5_set_tx>:
    2d2c:	b510      	push	{r4, lr}
    2d2e:	b109      	cbz	r1, 2d34 <serial5_set_tx+0x8>
    2d30:	f040 0080 	orr.w	r0, r0, #128	; 0x80
    2d34:	4a0e      	ldr	r2, [pc, #56]	; (2d70 <serial5_set_tx+0x44>)
    2d36:	7813      	ldrb	r3, [r2, #0]
    2d38:	4298      	cmp	r0, r3
    2d3a:	d017      	beq.n	2d6c <serial5_set_tx+0x40>
    2d3c:	4c0d      	ldr	r4, [pc, #52]	; (2d74 <serial5_set_tx+0x48>)
    2d3e:	6824      	ldr	r4, [r4, #0]
    2d40:	0564      	lsls	r4, r4, #21
    2d42:	d512      	bpl.n	2d6a <serial5_set_tx+0x3e>
    2d44:	f003 037f 	and.w	r3, r3, #127	; 0x7f
    2d48:	2b21      	cmp	r3, #33	; 0x21
    2d4a:	d102      	bne.n	2d52 <serial5_set_tx+0x26>
    2d4c:	4b0a      	ldr	r3, [pc, #40]	; (2d78 <serial5_set_tx+0x4c>)
    2d4e:	2400      	movs	r4, #0
    2d50:	601c      	str	r4, [r3, #0]
    2d52:	2900      	cmp	r1, #0
    2d54:	f000 037f 	and.w	r3, r0, #127	; 0x7f
    2d58:	bf0c      	ite	eq
    2d5a:	2144      	moveq	r1, #68	; 0x44
    2d5c:	2160      	movne	r1, #96	; 0x60
    2d5e:	2b21      	cmp	r3, #33	; 0x21
    2d60:	d103      	bne.n	2d6a <serial5_set_tx+0x3e>
    2d62:	4b05      	ldr	r3, [pc, #20]	; (2d78 <serial5_set_tx+0x4c>)
    2d64:	f441 7140 	orr.w	r1, r1, #768	; 0x300
    2d68:	6019      	str	r1, [r3, #0]
    2d6a:	7010      	strb	r0, [r2, #0]
    2d6c:	bd10      	pop	{r4, pc}
    2d6e:	bf00      	nop
    2d70:	1fff0a0e 	.word	0x1fff0a0e
    2d74:	40048028 	.word	0x40048028
    2d78:	4004d060 	.word	0x4004d060

00002d7c <serial5_set_rx>:
    2d7c:	4770      	bx	lr

00002d7e <serial5_set_rts>:
    2d7e:	4a0d      	ldr	r2, [pc, #52]	; (2db4 <serial5_set_rts+0x36>)
    2d80:	b538      	push	{r3, r4, r5, lr}
    2d82:	6814      	ldr	r4, [r2, #0]
    2d84:	f414 6280 	ands.w	r2, r4, #1024	; 0x400
    2d88:	f04f 0400 	mov.w	r4, #0
    2d8c:	d010      	beq.n	2db0 <serial5_set_rts+0x32>
    2d8e:	283f      	cmp	r0, #63	; 0x3f
    2d90:	4d09      	ldr	r5, [pc, #36]	; (2db8 <serial5_set_rts+0x3a>)
    2d92:	d80a      	bhi.n	2daa <serial5_set_rts+0x2c>
    2d94:	4a09      	ldr	r2, [pc, #36]	; (2dbc <serial5_set_rts+0x3e>)
    2d96:	2101      	movs	r1, #1
    2d98:	f852 3030 	ldr.w	r3, [r2, r0, lsl #3]
    2d9c:	60ab      	str	r3, [r5, #8]
    2d9e:	f7fe f8d7 	bl	f50 <pinMode>
    2da2:	68ab      	ldr	r3, [r5, #8]
    2da4:	701c      	strb	r4, [r3, #0]
    2da6:	2001      	movs	r0, #1
    2da8:	bd38      	pop	{r3, r4, r5, pc}
    2daa:	60ac      	str	r4, [r5, #8]
    2dac:	4620      	mov	r0, r4
    2dae:	bd38      	pop	{r3, r4, r5, pc}
    2db0:	4610      	mov	r0, r2
    2db2:	bd38      	pop	{r3, r4, r5, pc}
    2db4:	40048028 	.word	0x40048028
    2db8:	1fff0d78 	.word	0x1fff0d78
    2dbc:	00009ec4 	.word	0x00009ec4

00002dc0 <serial5_set_cts>:
    2dc0:	4b0b      	ldr	r3, [pc, #44]	; (2df0 <serial5_set_cts+0x30>)
    2dc2:	681b      	ldr	r3, [r3, #0]
    2dc4:	f413 6380 	ands.w	r3, r3, #1024	; 0x400
    2dc8:	d010      	beq.n	2dec <serial5_set_cts+0x2c>
    2dca:	2818      	cmp	r0, #24
    2dcc:	4b09      	ldr	r3, [pc, #36]	; (2df4 <serial5_set_cts+0x34>)
    2dce:	d109      	bne.n	2de4 <serial5_set_cts+0x24>
    2dd0:	4a09      	ldr	r2, [pc, #36]	; (2df8 <serial5_set_cts+0x38>)
    2dd2:	f240 3102 	movw	r1, #770	; 0x302
    2dd6:	6011      	str	r1, [r2, #0]
    2dd8:	7b5a      	ldrb	r2, [r3, #13]
    2dda:	f042 0201 	orr.w	r2, r2, #1
    2dde:	735a      	strb	r2, [r3, #13]
    2de0:	2001      	movs	r0, #1
    2de2:	4770      	bx	lr
    2de4:	7b5a      	ldrb	r2, [r3, #13]
    2de6:	f002 02fe 	and.w	r2, r2, #254	; 0xfe
    2dea:	735a      	strb	r2, [r3, #13]
    2dec:	2000      	movs	r0, #0
    2dee:	4770      	bx	lr
    2df0:	40048028 	.word	0x40048028
    2df4:	400ea000 	.word	0x400ea000
    2df8:	4004d068 	.word	0x4004d068

00002dfc <serial5_putchar>:
    2dfc:	b5f8      	push	{r3, r4, r5, r6, r7, lr}
    2dfe:	4b1b      	ldr	r3, [pc, #108]	; (2e6c <serial5_putchar+0x70>)
    2e00:	681b      	ldr	r3, [r3, #0]
    2e02:	055a      	lsls	r2, r3, #21
    2e04:	4607      	mov	r7, r0
    2e06:	d530      	bpl.n	2e6a <serial5_putchar+0x6e>
    2e08:	4e19      	ldr	r6, [pc, #100]	; (2e70 <serial5_putchar+0x74>)
    2e0a:	68f3      	ldr	r3, [r6, #12]
    2e0c:	b10b      	cbz	r3, 2e12 <serial5_putchar+0x16>
    2e0e:	2201      	movs	r2, #1
    2e10:	701a      	strb	r2, [r3, #0]
    2e12:	78b4      	ldrb	r4, [r6, #2]
    2e14:	3401      	adds	r4, #1
    2e16:	2c28      	cmp	r4, #40	; 0x28
    2e18:	bf28      	it	cs
    2e1a:	2400      	movcs	r4, #0
    2e1c:	78f3      	ldrb	r3, [r6, #3]
    2e1e:	4d14      	ldr	r5, [pc, #80]	; (2e70 <serial5_putchar+0x74>)
    2e20:	42a3      	cmp	r3, r4
    2e22:	d118      	bne.n	2e56 <serial5_putchar+0x5a>
    2e24:	f7fd fdc4 	bl	9b0 <nvic_execution_priority>
    2e28:	2840      	cmp	r0, #64	; 0x40
    2e2a:	dc0f      	bgt.n	2e4c <serial5_putchar+0x50>
    2e2c:	4a11      	ldr	r2, [pc, #68]	; (2e74 <serial5_putchar+0x78>)
    2e2e:	7913      	ldrb	r3, [r2, #4]
    2e30:	061b      	lsls	r3, r3, #24
    2e32:	d5f3      	bpl.n	2e1c <serial5_putchar+0x20>
    2e34:	78eb      	ldrb	r3, [r5, #3]
    2e36:	3301      	adds	r3, #1
    2e38:	2b28      	cmp	r3, #40	; 0x28
    2e3a:	bf28      	it	cs
    2e3c:	2300      	movcs	r3, #0
    2e3e:	18f1      	adds	r1, r6, r3
    2e40:	b2db      	uxtb	r3, r3
    2e42:	7c09      	ldrb	r1, [r1, #16]
    2e44:	b2c9      	uxtb	r1, r1
    2e46:	71d1      	strb	r1, [r2, #7]
    2e48:	70f3      	strb	r3, [r6, #3]
    2e4a:	e7e7      	b.n	2e1c <serial5_putchar+0x20>
    2e4c:	28ff      	cmp	r0, #255	; 0xff
    2e4e:	dde5      	ble.n	2e1c <serial5_putchar+0x20>
    2e50:	f002 fbae 	bl	55b0 <yield>
    2e54:	e7e2      	b.n	2e1c <serial5_putchar+0x20>
    2e56:	192b      	adds	r3, r5, r4
    2e58:	b2ff      	uxtb	r7, r7
    2e5a:	741f      	strb	r7, [r3, #16]
    2e5c:	2301      	movs	r3, #1
    2e5e:	712b      	strb	r3, [r5, #4]
    2e60:	4b04      	ldr	r3, [pc, #16]	; (2e74 <serial5_putchar+0x78>)
    2e62:	b2e4      	uxtb	r4, r4
    2e64:	22ac      	movs	r2, #172	; 0xac
    2e66:	70ac      	strb	r4, [r5, #2]
    2e68:	70da      	strb	r2, [r3, #3]
    2e6a:	bdf8      	pop	{r3, r4, r5, r6, r7, pc}
    2e6c:	40048028 	.word	0x40048028
    2e70:	1fff0d78 	.word	0x1fff0d78
    2e74:	400ea000 	.word	0x400ea000

00002e78 <serial5_write>:
    2e78:	b538      	push	{r3, r4, r5, lr}
    2e7a:	4604      	mov	r4, r0
    2e7c:	1845      	adds	r5, r0, r1
    2e7e:	42ac      	cmp	r4, r5
    2e80:	d004      	beq.n	2e8c <serial5_write+0x14>
    2e82:	f814 0b01 	ldrb.w	r0, [r4], #1
    2e86:	f7ff ffb9 	bl	2dfc <serial5_putchar>
    2e8a:	e7f8      	b.n	2e7e <serial5_write+0x6>
    2e8c:	bd38      	pop	{r3, r4, r5, pc}

00002e8e <serial5_flush>:
    2e8e:	b508      	push	{r3, lr}
    2e90:	4b03      	ldr	r3, [pc, #12]	; (2ea0 <serial5_flush+0x12>)
    2e92:	791b      	ldrb	r3, [r3, #4]
    2e94:	b113      	cbz	r3, 2e9c <serial5_flush+0xe>
    2e96:	f002 fb8b 	bl	55b0 <yield>
    2e9a:	e7f9      	b.n	2e90 <serial5_flush+0x2>
    2e9c:	bd08      	pop	{r3, pc}
    2e9e:	bf00      	nop
    2ea0:	1fff0d78 	.word	0x1fff0d78

00002ea4 <serial5_write_buffer_free>:
    2ea4:	4a05      	ldr	r2, [pc, #20]	; (2ebc <serial5_write_buffer_free+0x18>)
    2ea6:	7893      	ldrb	r3, [r2, #2]
    2ea8:	78d0      	ldrb	r0, [r2, #3]
    2eaa:	b2db      	uxtb	r3, r3
    2eac:	b2c0      	uxtb	r0, r0
    2eae:	4283      	cmp	r3, r0
    2eb0:	bf2c      	ite	cs
    2eb2:	3027      	addcs	r0, #39	; 0x27
    2eb4:	f100 30ff 	addcc.w	r0, r0, #4294967295
    2eb8:	1ac0      	subs	r0, r0, r3
    2eba:	4770      	bx	lr
    2ebc:	1fff0d78 	.word	0x1fff0d78

00002ec0 <serial5_available>:
    2ec0:	4a04      	ldr	r2, [pc, #16]	; (2ed4 <serial5_available+0x14>)
    2ec2:	7810      	ldrb	r0, [r2, #0]
    2ec4:	7853      	ldrb	r3, [r2, #1]
    2ec6:	b2c0      	uxtb	r0, r0
    2ec8:	b2db      	uxtb	r3, r3
    2eca:	4298      	cmp	r0, r3
    2ecc:	bf38      	it	cc
    2ece:	3040      	addcc	r0, #64	; 0x40
    2ed0:	1ac0      	subs	r0, r0, r3
    2ed2:	4770      	bx	lr
    2ed4:	1fff0d78 	.word	0x1fff0d78

00002ed8 <serial5_getchar>:
    2ed8:	b510      	push	{r4, lr}
    2eda:	4a0f      	ldr	r2, [pc, #60]	; (2f18 <serial5_getchar+0x40>)
    2edc:	7811      	ldrb	r1, [r2, #0]
    2ede:	7853      	ldrb	r3, [r2, #1]
    2ee0:	b2c9      	uxtb	r1, r1
    2ee2:	b2db      	uxtb	r3, r3
    2ee4:	4299      	cmp	r1, r3
    2ee6:	d014      	beq.n	2f12 <serial5_getchar+0x3a>
    2ee8:	3301      	adds	r3, #1
    2eea:	2b40      	cmp	r3, #64	; 0x40
    2eec:	bf28      	it	cs
    2eee:	2300      	movcs	r3, #0
    2ef0:	18d0      	adds	r0, r2, r3
    2ef2:	b2dc      	uxtb	r4, r3
    2ef4:	f890 0038 	ldrb.w	r0, [r0, #56]	; 0x38
    2ef8:	7054      	strb	r4, [r2, #1]
    2efa:	6892      	ldr	r2, [r2, #8]
    2efc:	b2c0      	uxtb	r0, r0
    2efe:	b152      	cbz	r2, 2f16 <serial5_getchar+0x3e>
    2f00:	4299      	cmp	r1, r3
    2f02:	bf38      	it	cc
    2f04:	3140      	addcc	r1, #64	; 0x40
    2f06:	1acb      	subs	r3, r1, r3
    2f08:	2b1a      	cmp	r3, #26
    2f0a:	dc04      	bgt.n	2f16 <serial5_getchar+0x3e>
    2f0c:	2300      	movs	r3, #0
    2f0e:	7013      	strb	r3, [r2, #0]
    2f10:	bd10      	pop	{r4, pc}
    2f12:	f04f 30ff 	mov.w	r0, #4294967295
    2f16:	bd10      	pop	{r4, pc}
    2f18:	1fff0d78 	.word	0x1fff0d78

00002f1c <serial5_peek>:
    2f1c:	4a08      	ldr	r2, [pc, #32]	; (2f40 <serial5_peek+0x24>)
    2f1e:	7811      	ldrb	r1, [r2, #0]
    2f20:	7853      	ldrb	r3, [r2, #1]
    2f22:	b2db      	uxtb	r3, r3
    2f24:	4299      	cmp	r1, r3
    2f26:	d008      	beq.n	2f3a <serial5_peek+0x1e>
    2f28:	3301      	adds	r3, #1
    2f2a:	2b40      	cmp	r3, #64	; 0x40
    2f2c:	bf28      	it	cs
    2f2e:	2300      	movcs	r3, #0
    2f30:	4413      	add	r3, r2
    2f32:	f893 0038 	ldrb.w	r0, [r3, #56]	; 0x38
    2f36:	b2c0      	uxtb	r0, r0
    2f38:	4770      	bx	lr
    2f3a:	f04f 30ff 	mov.w	r0, #4294967295
    2f3e:	4770      	bx	lr
    2f40:	1fff0d78 	.word	0x1fff0d78

00002f44 <serial5_clear>:
    2f44:	4b04      	ldr	r3, [pc, #16]	; (2f58 <serial5_clear+0x14>)
    2f46:	785a      	ldrb	r2, [r3, #1]
    2f48:	b2d2      	uxtb	r2, r2
    2f4a:	701a      	strb	r2, [r3, #0]
    2f4c:	689b      	ldr	r3, [r3, #8]
    2f4e:	b10b      	cbz	r3, 2f54 <serial5_clear+0x10>
    2f50:	2200      	movs	r2, #0
    2f52:	701a      	strb	r2, [r3, #0]
    2f54:	4770      	bx	lr
    2f56:	bf00      	nop
    2f58:	1fff0d78 	.word	0x1fff0d78

00002f5c <uart4_status_isr>:
    2f5c:	b510      	push	{r4, lr}
    2f5e:	4b28      	ldr	r3, [pc, #160]	; (3000 <uart4_status_isr+0xa4>)
    2f60:	791a      	ldrb	r2, [r3, #4]
    2f62:	0692      	lsls	r2, r2, #26
    2f64:	d51f      	bpl.n	2fa6 <uart4_status_isr+0x4a>
    2f66:	4a27      	ldr	r2, [pc, #156]	; (3004 <uart4_status_isr+0xa8>)
    2f68:	79d8      	ldrb	r0, [r3, #7]
    2f6a:	7813      	ldrb	r3, [r2, #0]
    2f6c:	7851      	ldrb	r1, [r2, #1]
    2f6e:	3301      	adds	r3, #1
    2f70:	2b40      	cmp	r3, #64	; 0x40
    2f72:	bf28      	it	cs
    2f74:	2300      	movcs	r3, #0
    2f76:	428b      	cmp	r3, r1
    2f78:	b2c0      	uxtb	r0, r0
    2f7a:	d004      	beq.n	2f86 <uart4_status_isr+0x2a>
    2f7c:	18d1      	adds	r1, r2, r3
    2f7e:	f881 0038 	strb.w	r0, [r1, #56]	; 0x38
    2f82:	b2d9      	uxtb	r1, r3
    2f84:	7011      	strb	r1, [r2, #0]
    2f86:	6891      	ldr	r1, [r2, #8]
    2f88:	b169      	cbz	r1, 2fa6 <uart4_status_isr+0x4a>
    2f8a:	4a1e      	ldr	r2, [pc, #120]	; (3004 <uart4_status_isr+0xa8>)
    2f8c:	78d2      	ldrb	r2, [r2, #3]
    2f8e:	b2d2      	uxtb	r2, r2
    2f90:	4293      	cmp	r3, r2
    2f92:	bf36      	itet	cc
    2f94:	f1c2 0240 	rsbcc	r2, r2, #64	; 0x40
    2f98:	ebc2 0303 	rsbcs	r3, r2, r3
    2f9c:	189b      	addcc	r3, r3, r2
    2f9e:	2b27      	cmp	r3, #39	; 0x27
    2fa0:	bfc4      	itt	gt
    2fa2:	2301      	movgt	r3, #1
    2fa4:	700b      	strbgt	r3, [r1, #0]
    2fa6:	4916      	ldr	r1, [pc, #88]	; (3000 <uart4_status_isr+0xa4>)
    2fa8:	78c8      	ldrb	r0, [r1, #3]
    2faa:	b2c0      	uxtb	r0, r0
    2fac:	0604      	lsls	r4, r0, #24
    2fae:	d515      	bpl.n	2fdc <uart4_status_isr+0x80>
    2fb0:	790b      	ldrb	r3, [r1, #4]
    2fb2:	061a      	lsls	r2, r3, #24
    2fb4:	d512      	bpl.n	2fdc <uart4_status_isr+0x80>
    2fb6:	4a13      	ldr	r2, [pc, #76]	; (3004 <uart4_status_isr+0xa8>)
    2fb8:	7894      	ldrb	r4, [r2, #2]
    2fba:	78d3      	ldrb	r3, [r2, #3]
    2fbc:	b2db      	uxtb	r3, r3
    2fbe:	429c      	cmp	r4, r3
    2fc0:	d102      	bne.n	2fc8 <uart4_status_isr+0x6c>
    2fc2:	236c      	movs	r3, #108	; 0x6c
    2fc4:	70cb      	strb	r3, [r1, #3]
    2fc6:	e009      	b.n	2fdc <uart4_status_isr+0x80>
    2fc8:	3301      	adds	r3, #1
    2fca:	2b28      	cmp	r3, #40	; 0x28
    2fcc:	bf28      	it	cs
    2fce:	2300      	movcs	r3, #0
    2fd0:	18d4      	adds	r4, r2, r3
    2fd2:	b2db      	uxtb	r3, r3
    2fd4:	7c24      	ldrb	r4, [r4, #16]
    2fd6:	b2e4      	uxtb	r4, r4
    2fd8:	71cc      	strb	r4, [r1, #7]
    2fda:	70d3      	strb	r3, [r2, #3]
    2fdc:	0643      	lsls	r3, r0, #25
    2fde:	d50d      	bpl.n	2ffc <uart4_status_isr+0xa0>
    2fe0:	4b07      	ldr	r3, [pc, #28]	; (3000 <uart4_status_isr+0xa4>)
    2fe2:	791a      	ldrb	r2, [r3, #4]
    2fe4:	f012 0f40 	tst.w	r2, #64	; 0x40
    2fe8:	4619      	mov	r1, r3
    2fea:	d007      	beq.n	2ffc <uart4_status_isr+0xa0>
    2fec:	4b05      	ldr	r3, [pc, #20]	; (3004 <uart4_status_isr+0xa8>)
    2fee:	2200      	movs	r2, #0
    2ff0:	711a      	strb	r2, [r3, #4]
    2ff2:	68db      	ldr	r3, [r3, #12]
    2ff4:	b103      	cbz	r3, 2ff8 <uart4_status_isr+0x9c>
    2ff6:	701a      	strb	r2, [r3, #0]
    2ff8:	232c      	movs	r3, #44	; 0x2c
    2ffa:	70cb      	strb	r3, [r1, #3]
    2ffc:	bd10      	pop	{r4, pc}
    2ffe:	bf00      	nop
    3000:	400ea000 	.word	0x400ea000
    3004:	1fff0d78 	.word	0x1fff0d78

00003008 <serial6_begin>:
    3008:	4b42      	ldr	r3, [pc, #264]	; (3114 <serial6_begin+0x10c>)
    300a:	681a      	ldr	r2, [r3, #0]
    300c:	f042 0210 	orr.w	r2, r2, #16
    3010:	e92d 41f0 	stmdb	sp!, {r4, r5, r6, r7, r8, lr}
    3014:	601a      	str	r2, [r3, #0]
    3016:	4a40      	ldr	r2, [pc, #256]	; (3118 <serial6_begin+0x110>)
    3018:	6813      	ldr	r3, [r2, #0]
    301a:	f403 3340 	and.w	r3, r3, #196608	; 0x30000
    301e:	f5b3 3f40 	cmp.w	r3, #196608	; 0x30000
    3022:	4690      	mov	r8, r2
    3024:	d006      	beq.n	3034 <serial6_begin+0x2c>
    3026:	4a3d      	ldr	r2, [pc, #244]	; (311c <serial6_begin+0x114>)
    3028:	4e3d      	ldr	r6, [pc, #244]	; (3120 <serial6_begin+0x118>)
    302a:	f5b3 3f80 	cmp.w	r3, #65536	; 0x10000
    302e:	bf08      	it	eq
    3030:	4616      	moveq	r6, r2
    3032:	e000      	b.n	3036 <serial6_begin+0x2e>
    3034:	4e3b      	ldr	r6, [pc, #236]	; (3124 <serial6_begin+0x11c>)
    3036:	ea4f 0c80 	mov.w	ip, r0, lsl #2
    303a:	fbb6 f2fc 	udiv	r2, r6, ip
    303e:	b292      	uxth	r2, r2
    3040:	2a00      	cmp	r2, #0
    3042:	d064      	beq.n	310e <serial6_begin+0x106>
    3044:	0091      	lsls	r1, r2, #2
    3046:	fbb6 f1f1 	udiv	r1, r6, r1
    304a:	1a09      	subs	r1, r1, r0
    304c:	d008      	beq.n	3060 <serial6_begin+0x58>
    304e:	1c54      	adds	r4, r2, #1
    3050:	00a3      	lsls	r3, r4, #2
    3052:	fbb6 f3f3 	udiv	r3, r6, r3
    3056:	1ac3      	subs	r3, r0, r3
    3058:	428b      	cmp	r3, r1
    305a:	bf3c      	itt	cc
    305c:	b2a2      	uxthcc	r2, r4
    305e:	4619      	movcc	r1, r3
    3060:	4484      	add	ip, r0
    3062:	2505      	movs	r5, #5
    3064:	2704      	movs	r7, #4
    3066:	fbb6 f3fc 	udiv	r3, r6, ip
    306a:	b29b      	uxth	r3, r3
    306c:	b1f3      	cbz	r3, 30ac <serial6_begin+0xa4>
    306e:	fb03 f405 	mul.w	r4, r3, r5
    3072:	fbb6 f4f4 	udiv	r4, r6, r4
    3076:	1a24      	subs	r4, r4, r0
    3078:	428c      	cmp	r4, r1
    307a:	d803      	bhi.n	3084 <serial6_begin+0x7c>
    307c:	b174      	cbz	r4, 309c <serial6_begin+0x94>
    307e:	4621      	mov	r1, r4
    3080:	462f      	mov	r7, r5
    3082:	461a      	mov	r2, r3
    3084:	3301      	adds	r3, #1
    3086:	b29b      	uxth	r3, r3
    3088:	fb03 f405 	mul.w	r4, r3, r5
    308c:	fbb6 f4f4 	udiv	r4, r6, r4
    3090:	1b04      	subs	r4, r0, r4
    3092:	428c      	cmp	r4, r1
    3094:	d902      	bls.n	309c <serial6_begin+0x94>
    3096:	460c      	mov	r4, r1
    3098:	4613      	mov	r3, r2
    309a:	e000      	b.n	309e <serial6_begin+0x96>
    309c:	462f      	mov	r7, r5
    309e:	3501      	adds	r5, #1
    30a0:	2d21      	cmp	r5, #33	; 0x21
    30a2:	4484      	add	ip, r0
    30a4:	d003      	beq.n	30ae <serial6_begin+0xa6>
    30a6:	4621      	mov	r1, r4
    30a8:	461a      	mov	r2, r3
    30aa:	e7dc      	b.n	3066 <serial6_begin+0x5e>
    30ac:	4613      	mov	r3, r2
    30ae:	1e7a      	subs	r2, r7, #1
    30b0:	f002 021f 	and.w	r2, r2, #31
    30b4:	f3c3 030c 	ubfx	r3, r3, #0, #13
    30b8:	ea43 6302 	orr.w	r3, r3, r2, lsl #24
    30bc:	2f07      	cmp	r7, #7
    30be:	4a1a      	ldr	r2, [pc, #104]	; (3128 <serial6_begin+0x120>)
    30c0:	491a      	ldr	r1, [pc, #104]	; (312c <serial6_begin+0x124>)
    30c2:	bf98      	it	ls
    30c4:	f443 3300 	orrls.w	r3, r3, #131072	; 0x20000
    30c8:	6013      	str	r3, [r2, #0]
    30ca:	f8d8 3000 	ldr.w	r3, [r8]
    30ce:	f043 6380 	orr.w	r3, r3, #67108864	; 0x4000000
    30d2:	f8c8 3000 	str.w	r3, [r8]
    30d6:	2300      	movs	r3, #0
    30d8:	700b      	strb	r3, [r1, #0]
    30da:	704b      	strb	r3, [r1, #1]
    30dc:	708b      	strb	r3, [r1, #2]
    30de:	70cb      	strb	r3, [r1, #3]
    30e0:	710b      	strb	r3, [r1, #4]
    30e2:	4913      	ldr	r1, [pc, #76]	; (3130 <serial6_begin+0x128>)
    30e4:	f240 5013 	movw	r0, #1299	; 0x513
    30e8:	6008      	str	r0, [r1, #0]
    30ea:	f240 5044 	movw	r0, #1348	; 0x544
    30ee:	6048      	str	r0, [r1, #4]
    30f0:	6093      	str	r3, [r2, #8]
    30f2:	6113      	str	r3, [r2, #16]
    30f4:	6053      	str	r3, [r2, #4]
    30f6:	6893      	ldr	r3, [r2, #8]
    30f8:	f443 1330 	orr.w	r3, r3, #2883584	; 0x2c0000
    30fc:	6093      	str	r3, [r2, #8]
    30fe:	4b0d      	ldr	r3, [pc, #52]	; (3134 <serial6_begin+0x12c>)
    3100:	2240      	movs	r2, #64	; 0x40
    3102:	701a      	strb	r2, [r3, #0]
    3104:	f2a3 334e 	subw	r3, r3, #846	; 0x34e
    3108:	f44f 0280 	mov.w	r2, #4194304	; 0x400000
    310c:	601a      	str	r2, [r3, #0]
    310e:	e8bd 81f0 	ldmia.w	sp!, {r4, r5, r6, r7, r8, pc}
    3112:	bf00      	nop
    3114:	4004802c 	.word	0x4004802c
    3118:	40048004 	.word	0x40048004
    311c:	07270e00 	.word	0x07270e00
    3120:	01c9c380 	.word	0x01c9c380
    3124:	02dc6c00 	.word	0x02dc6c00
    3128:	400c4000 	.word	0x400c4000
    312c:	1fff0df0 	.word	0x1fff0df0
    3130:	4004c020 	.word	0x4004c020
    3134:	e000e456 	.word	0xe000e456

00003138 <serial6_format>:
    3138:	4a1b      	ldr	r2, [pc, #108]	; (31a8 <serial6_format+0x70>)
    313a:	6893      	ldr	r3, [r2, #8]
    313c:	f000 0103 	and.w	r1, r0, #3
    3140:	f023 0313 	bic.w	r3, r3, #19
    3144:	430b      	orrs	r3, r1
    3146:	f010 0f04 	tst.w	r0, #4
    314a:	4611      	mov	r1, r2
    314c:	bf18      	it	ne
    314e:	f043 0310 	orrne.w	r3, r3, #16
    3152:	608b      	str	r3, [r1, #8]
    3154:	f000 030f 	and.w	r3, r0, #15
    3158:	2b04      	cmp	r3, #4
    315a:	4a13      	ldr	r2, [pc, #76]	; (31a8 <serial6_format+0x70>)
    315c:	d103      	bne.n	3166 <serial6_format+0x2e>
    315e:	6893      	ldr	r3, [r2, #8]
    3160:	f043 4380 	orr.w	r3, r3, #1073741824	; 0x40000000
    3164:	6093      	str	r3, [r2, #8]
    3166:	f010 0f08 	tst.w	r0, #8
    316a:	4b0f      	ldr	r3, [pc, #60]	; (31a8 <serial6_format+0x70>)
    316c:	d003      	beq.n	3176 <serial6_format+0x3e>
    316e:	681a      	ldr	r2, [r3, #0]
    3170:	f042 5200 	orr.w	r2, r2, #536870912	; 0x20000000
    3174:	601a      	str	r2, [r3, #0]
    3176:	685b      	ldr	r3, [r3, #4]
    3178:	06c2      	lsls	r2, r0, #27
    317a:	f023 5380 	bic.w	r3, r3, #268435456	; 0x10000000
    317e:	4a0a      	ldr	r2, [pc, #40]	; (31a8 <serial6_format+0x70>)
    3180:	bf48      	it	mi
    3182:	f043 5380 	orrmi.w	r3, r3, #268435456	; 0x10000000
    3186:	6053      	str	r3, [r2, #4]
    3188:	6893      	ldr	r3, [r2, #8]
    318a:	0681      	lsls	r1, r0, #26
    318c:	f023 5380 	bic.w	r3, r3, #268435456	; 0x10000000
    3190:	bf48      	it	mi
    3192:	f043 5380 	orrmi.w	r3, r3, #268435456	; 0x10000000
    3196:	6093      	str	r3, [r2, #8]
    3198:	05c3      	lsls	r3, r0, #23
    319a:	4903      	ldr	r1, [pc, #12]	; (31a8 <serial6_format+0x70>)
    319c:	d503      	bpl.n	31a6 <serial6_format+0x6e>
    319e:	680b      	ldr	r3, [r1, #0]
    31a0:	f443 5300 	orr.w	r3, r3, #8192	; 0x2000
    31a4:	600b      	str	r3, [r1, #0]
    31a6:	4770      	bx	lr
    31a8:	400c4000 	.word	0x400c4000

000031ac <serial6_end>:
    31ac:	b508      	push	{r3, lr}
    31ae:	4b0f      	ldr	r3, [pc, #60]	; (31ec <serial6_end+0x40>)
    31b0:	681b      	ldr	r3, [r3, #0]
    31b2:	06db      	lsls	r3, r3, #27
    31b4:	d400      	bmi.n	31b8 <serial6_end+0xc>
    31b6:	bd08      	pop	{r3, pc}
    31b8:	4b0d      	ldr	r3, [pc, #52]	; (31f0 <serial6_end+0x44>)
    31ba:	7919      	ldrb	r1, [r3, #4]
    31bc:	f001 02ff 	and.w	r2, r1, #255	; 0xff
    31c0:	b111      	cbz	r1, 31c8 <serial6_end+0x1c>
    31c2:	f002 f9f5 	bl	55b0 <yield>
    31c6:	e7f7      	b.n	31b8 <serial6_end+0xc>
    31c8:	490a      	ldr	r1, [pc, #40]	; (31f4 <serial6_end+0x48>)
    31ca:	f44f 0080 	mov.w	r0, #4194304	; 0x400000
    31ce:	6008      	str	r0, [r1, #0]
    31d0:	4909      	ldr	r1, [pc, #36]	; (31f8 <serial6_end+0x4c>)
    31d2:	480a      	ldr	r0, [pc, #40]	; (31fc <serial6_end+0x50>)
    31d4:	608a      	str	r2, [r1, #8]
    31d6:	f240 1103 	movw	r1, #259	; 0x103
    31da:	6001      	str	r1, [r0, #0]
    31dc:	6041      	str	r1, [r0, #4]
    31de:	701a      	strb	r2, [r3, #0]
    31e0:	705a      	strb	r2, [r3, #1]
    31e2:	689b      	ldr	r3, [r3, #8]
    31e4:	b10b      	cbz	r3, 31ea <serial6_end+0x3e>
    31e6:	2201      	movs	r2, #1
    31e8:	701a      	strb	r2, [r3, #0]
    31ea:	bd08      	pop	{r3, pc}
    31ec:	4004802c 	.word	0x4004802c
    31f0:	1fff0df0 	.word	0x1fff0df0
    31f4:	e000e188 	.word	0xe000e188
    31f8:	400c4000 	.word	0x400c4000
    31fc:	4004c020 	.word	0x4004c020

00003200 <serial6_set_transmit_pin>:
    3200:	b570      	push	{r4, r5, r6, lr}
    3202:	4604      	mov	r4, r0
    3204:	4d09      	ldr	r5, [pc, #36]	; (322c <serial6_set_transmit_pin+0x2c>)
    3206:	792b      	ldrb	r3, [r5, #4]
    3208:	f003 06ff 	and.w	r6, r3, #255	; 0xff
    320c:	2b00      	cmp	r3, #0
    320e:	d1f9      	bne.n	3204 <serial6_set_transmit_pin+0x4>
    3210:	4620      	mov	r0, r4
    3212:	2101      	movs	r1, #1
    3214:	f7fd fe9c 	bl	f50 <pinMode>
    3218:	4620      	mov	r0, r4
    321a:	4631      	mov	r1, r6
    321c:	f7fd fe6a 	bl	ef4 <digitalWrite>
    3220:	4b03      	ldr	r3, [pc, #12]	; (3230 <serial6_set_transmit_pin+0x30>)
    3222:	f853 3034 	ldr.w	r3, [r3, r4, lsl #3]
    3226:	60eb      	str	r3, [r5, #12]
    3228:	bd70      	pop	{r4, r5, r6, pc}
    322a:	bf00      	nop
    322c:	1fff0df0 	.word	0x1fff0df0
    3230:	00009ec4 	.word	0x00009ec4

00003234 <serial6_set_tx>:
    3234:	b510      	push	{r4, lr}
    3236:	b109      	cbz	r1, 323c <serial6_set_tx+0x8>
    3238:	f040 0080 	orr.w	r0, r0, #128	; 0x80
    323c:	4a0e      	ldr	r2, [pc, #56]	; (3278 <serial6_set_tx+0x44>)
    323e:	7813      	ldrb	r3, [r2, #0]
    3240:	4298      	cmp	r0, r3
    3242:	d017      	beq.n	3274 <serial6_set_tx+0x40>
    3244:	4c0d      	ldr	r4, [pc, #52]	; (327c <serial6_set_tx+0x48>)
    3246:	6824      	ldr	r4, [r4, #0]
    3248:	06e4      	lsls	r4, r4, #27
    324a:	d512      	bpl.n	3272 <serial6_set_tx+0x3e>
    324c:	f003 037f 	and.w	r3, r3, #127	; 0x7f
    3250:	2b30      	cmp	r3, #48	; 0x30
    3252:	d102      	bne.n	325a <serial6_set_tx+0x26>
    3254:	4b0a      	ldr	r3, [pc, #40]	; (3280 <serial6_set_tx+0x4c>)
    3256:	2400      	movs	r4, #0
    3258:	601c      	str	r4, [r3, #0]
    325a:	2900      	cmp	r1, #0
    325c:	f000 037f 	and.w	r3, r0, #127	; 0x7f
    3260:	bf0c      	ite	eq
    3262:	2144      	moveq	r1, #68	; 0x44
    3264:	2160      	movne	r1, #96	; 0x60
    3266:	2b30      	cmp	r3, #48	; 0x30
    3268:	d103      	bne.n	3272 <serial6_set_tx+0x3e>
    326a:	4b05      	ldr	r3, [pc, #20]	; (3280 <serial6_set_tx+0x4c>)
    326c:	f441 61a0 	orr.w	r1, r1, #1280	; 0x500
    3270:	6019      	str	r1, [r3, #0]
    3272:	7010      	strb	r0, [r2, #0]
    3274:	bd10      	pop	{r4, pc}
    3276:	bf00      	nop
    3278:	1fff0a0f 	.word	0x1fff0a0f
    327c:	4004802c 	.word	0x4004802c
    3280:	4004c024 	.word	0x4004c024

00003284 <serial6_set_rx>:
    3284:	4770      	bx	lr

00003286 <serial6_set_rts>:
    3286:	4a0d      	ldr	r2, [pc, #52]	; (32bc <serial6_set_rts+0x36>)
    3288:	b538      	push	{r3, r4, r5, lr}
    328a:	6814      	ldr	r4, [r2, #0]
    328c:	f014 0210 	ands.w	r2, r4, #16
    3290:	f04f 0400 	mov.w	r4, #0
    3294:	d010      	beq.n	32b8 <serial6_set_rts+0x32>
    3296:	283f      	cmp	r0, #63	; 0x3f
    3298:	4d09      	ldr	r5, [pc, #36]	; (32c0 <serial6_set_rts+0x3a>)
    329a:	d80a      	bhi.n	32b2 <serial6_set_rts+0x2c>
    329c:	4a09      	ldr	r2, [pc, #36]	; (32c4 <serial6_set_rts+0x3e>)
    329e:	2101      	movs	r1, #1
    32a0:	f852 3030 	ldr.w	r3, [r2, r0, lsl #3]
    32a4:	60ab      	str	r3, [r5, #8]
    32a6:	f7fd fe53 	bl	f50 <pinMode>
    32aa:	68ab      	ldr	r3, [r5, #8]
    32ac:	701c      	strb	r4, [r3, #0]
    32ae:	2001      	movs	r0, #1
    32b0:	bd38      	pop	{r3, r4, r5, pc}
    32b2:	60ac      	str	r4, [r5, #8]
    32b4:	4620      	mov	r0, r4
    32b6:	bd38      	pop	{r3, r4, r5, pc}
    32b8:	4610      	mov	r0, r2
    32ba:	bd38      	pop	{r3, r4, r5, pc}
    32bc:	4004802c 	.word	0x4004802c
    32c0:	1fff0df0 	.word	0x1fff0df0
    32c4:	00009ec4 	.word	0x00009ec4

000032c8 <serial6_set_cts>:
    32c8:	4b0b      	ldr	r3, [pc, #44]	; (32f8 <serial6_set_cts+0x30>)
    32ca:	681b      	ldr	r3, [r3, #0]
    32cc:	f013 0310 	ands.w	r3, r3, #16
    32d0:	d010      	beq.n	32f4 <serial6_set_cts+0x2c>
    32d2:	2838      	cmp	r0, #56	; 0x38
    32d4:	4b09      	ldr	r3, [pc, #36]	; (32fc <serial6_set_cts+0x34>)
    32d6:	d109      	bne.n	32ec <serial6_set_cts+0x24>
    32d8:	4a09      	ldr	r2, [pc, #36]	; (3300 <serial6_set_cts+0x38>)
    32da:	f240 5102 	movw	r1, #1282	; 0x502
    32de:	6011      	str	r1, [r2, #0]
    32e0:	7b5a      	ldrb	r2, [r3, #13]
    32e2:	f042 0201 	orr.w	r2, r2, #1
    32e6:	735a      	strb	r2, [r3, #13]
    32e8:	2001      	movs	r0, #1
    32ea:	4770      	bx	lr
    32ec:	7b5a      	ldrb	r2, [r3, #13]
    32ee:	f002 02fe 	and.w	r2, r2, #254	; 0xfe
    32f2:	735a      	strb	r2, [r3, #13]
    32f4:	2000      	movs	r0, #0
    32f6:	4770      	bx	lr
    32f8:	4004802c 	.word	0x4004802c
    32fc:	400eb000 	.word	0x400eb000
    3300:	4004d028 	.word	0x4004d028

00003304 <serial6_putchar>:
    3304:	b5f8      	push	{r3, r4, r5, r6, r7, lr}
    3306:	4b1b      	ldr	r3, [pc, #108]	; (3374 <serial6_putchar+0x70>)
    3308:	681b      	ldr	r3, [r3, #0]
    330a:	06da      	lsls	r2, r3, #27
    330c:	4607      	mov	r7, r0
    330e:	d52f      	bpl.n	3370 <serial6_putchar+0x6c>
    3310:	4e19      	ldr	r6, [pc, #100]	; (3378 <serial6_putchar+0x74>)
    3312:	68f3      	ldr	r3, [r6, #12]
    3314:	b10b      	cbz	r3, 331a <serial6_putchar+0x16>
    3316:	2201      	movs	r2, #1
    3318:	701a      	strb	r2, [r3, #0]
    331a:	78b4      	ldrb	r4, [r6, #2]
    331c:	3401      	adds	r4, #1
    331e:	2c28      	cmp	r4, #40	; 0x28
    3320:	bf28      	it	cs
    3322:	2400      	movcs	r4, #0
    3324:	78f3      	ldrb	r3, [r6, #3]
    3326:	4d14      	ldr	r5, [pc, #80]	; (3378 <serial6_putchar+0x74>)
    3328:	42a3      	cmp	r3, r4
    332a:	d118      	bne.n	335e <serial6_putchar+0x5a>
    332c:	f7fd fb40 	bl	9b0 <nvic_execution_priority>
    3330:	2840      	cmp	r0, #64	; 0x40
    3332:	dc0f      	bgt.n	3354 <serial6_putchar+0x50>
    3334:	4a11      	ldr	r2, [pc, #68]	; (337c <serial6_putchar+0x78>)
    3336:	6853      	ldr	r3, [r2, #4]
    3338:	021b      	lsls	r3, r3, #8
    333a:	d5f3      	bpl.n	3324 <serial6_putchar+0x20>
    333c:	78eb      	ldrb	r3, [r5, #3]
    333e:	3301      	adds	r3, #1
    3340:	2b28      	cmp	r3, #40	; 0x28
    3342:	bf28      	it	cs
    3344:	2300      	movcs	r3, #0
    3346:	18f1      	adds	r1, r6, r3
    3348:	b2db      	uxtb	r3, r3
    334a:	7c09      	ldrb	r1, [r1, #16]
    334c:	b2c9      	uxtb	r1, r1
    334e:	60d1      	str	r1, [r2, #12]
    3350:	70f3      	strb	r3, [r6, #3]
    3352:	e7e7      	b.n	3324 <serial6_putchar+0x20>
    3354:	28ff      	cmp	r0, #255	; 0xff
    3356:	dde5      	ble.n	3324 <serial6_putchar+0x20>
    3358:	f002 f92a 	bl	55b0 <yield>
    335c:	e7e2      	b.n	3324 <serial6_putchar+0x20>
    335e:	192b      	adds	r3, r5, r4
    3360:	b2ff      	uxtb	r7, r7
    3362:	4a07      	ldr	r2, [pc, #28]	; (3380 <serial6_putchar+0x7c>)
    3364:	741f      	strb	r7, [r3, #16]
    3366:	b2e4      	uxtb	r4, r4
    3368:	2301      	movs	r3, #1
    336a:	712b      	strb	r3, [r5, #4]
    336c:	70ac      	strb	r4, [r5, #2]
    336e:	6013      	str	r3, [r2, #0]
    3370:	bdf8      	pop	{r3, r4, r5, r6, r7, pc}
    3372:	bf00      	nop
    3374:	4004802c 	.word	0x4004802c
    3378:	1fff0df0 	.word	0x1fff0df0
    337c:	400c4000 	.word	0x400c4000
    3380:	4388015c 	.word	0x4388015c

00003384 <serial6_write>:
    3384:	b538      	push	{r3, r4, r5, lr}
    3386:	4604      	mov	r4, r0
    3388:	1845      	adds	r5, r0, r1
    338a:	42ac      	cmp	r4, r5
    338c:	d004      	beq.n	3398 <serial6_write+0x14>
    338e:	f814 0b01 	ldrb.w	r0, [r4], #1
    3392:	f7ff ffb7 	bl	3304 <serial6_putchar>
    3396:	e7f8      	b.n	338a <serial6_write+0x6>
    3398:	bd38      	pop	{r3, r4, r5, pc}

0000339a <serial6_flush>:
    339a:	b508      	push	{r3, lr}
    339c:	4b03      	ldr	r3, [pc, #12]	; (33ac <serial6_flush+0x12>)
    339e:	791b      	ldrb	r3, [r3, #4]
    33a0:	b113      	cbz	r3, 33a8 <serial6_flush+0xe>
    33a2:	f002 f905 	bl	55b0 <yield>
    33a6:	e7f9      	b.n	339c <serial6_flush+0x2>
    33a8:	bd08      	pop	{r3, pc}
    33aa:	bf00      	nop
    33ac:	1fff0df0 	.word	0x1fff0df0

000033b0 <serial6_write_buffer_free>:
    33b0:	4a05      	ldr	r2, [pc, #20]	; (33c8 <serial6_write_buffer_free+0x18>)
    33b2:	7893      	ldrb	r3, [r2, #2]
    33b4:	78d0      	ldrb	r0, [r2, #3]
    33b6:	b2db      	uxtb	r3, r3
    33b8:	b2c0      	uxtb	r0, r0
    33ba:	4283      	cmp	r3, r0
    33bc:	bf2c      	ite	cs
    33be:	3027      	addcs	r0, #39	; 0x27
    33c0:	f100 30ff 	addcc.w	r0, r0, #4294967295
    33c4:	1ac0      	subs	r0, r0, r3
    33c6:	4770      	bx	lr
    33c8:	1fff0df0 	.word	0x1fff0df0

000033cc <serial6_available>:
    33cc:	4a04      	ldr	r2, [pc, #16]	; (33e0 <serial6_available+0x14>)
    33ce:	7810      	ldrb	r0, [r2, #0]
    33d0:	7853      	ldrb	r3, [r2, #1]
    33d2:	b2c0      	uxtb	r0, r0
    33d4:	b2db      	uxtb	r3, r3
    33d6:	4298      	cmp	r0, r3
    33d8:	bf38      	it	cc
    33da:	3040      	addcc	r0, #64	; 0x40
    33dc:	1ac0      	subs	r0, r0, r3
    33de:	4770      	bx	lr
    33e0:	1fff0df0 	.word	0x1fff0df0

000033e4 <serial6_getchar>:
    33e4:	b510      	push	{r4, lr}
    33e6:	4a0f      	ldr	r2, [pc, #60]	; (3424 <serial6_getchar+0x40>)
    33e8:	7811      	ldrb	r1, [r2, #0]
    33ea:	7853      	ldrb	r3, [r2, #1]
    33ec:	b2c9      	uxtb	r1, r1
    33ee:	b2db      	uxtb	r3, r3
    33f0:	4299      	cmp	r1, r3
    33f2:	d014      	beq.n	341e <serial6_getchar+0x3a>
    33f4:	3301      	adds	r3, #1
    33f6:	2b40      	cmp	r3, #64	; 0x40
    33f8:	bf28      	it	cs
    33fa:	2300      	movcs	r3, #0
    33fc:	18d0      	adds	r0, r2, r3
    33fe:	b2dc      	uxtb	r4, r3
    3400:	f890 0038 	ldrb.w	r0, [r0, #56]	; 0x38
    3404:	7054      	strb	r4, [r2, #1]
    3406:	6892      	ldr	r2, [r2, #8]
    3408:	b2c0      	uxtb	r0, r0
    340a:	b152      	cbz	r2, 3422 <serial6_getchar+0x3e>
    340c:	4299      	cmp	r1, r3
    340e:	bf38      	it	cc
    3410:	3140      	addcc	r1, #64	; 0x40
    3412:	1acb      	subs	r3, r1, r3
    3414:	2b1a      	cmp	r3, #26
    3416:	dc04      	bgt.n	3422 <serial6_getchar+0x3e>
    3418:	2300      	movs	r3, #0
    341a:	7013      	strb	r3, [r2, #0]
    341c:	bd10      	pop	{r4, pc}
    341e:	f04f 30ff 	mov.w	r0, #4294967295
    3422:	bd10      	pop	{r4, pc}
    3424:	1fff0df0 	.word	0x1fff0df0

00003428 <serial6_peek>:
    3428:	4a08      	ldr	r2, [pc, #32]	; (344c <serial6_peek+0x24>)
    342a:	7811      	ldrb	r1, [r2, #0]
    342c:	7853      	ldrb	r3, [r2, #1]
    342e:	b2db      	uxtb	r3, r3
    3430:	4299      	cmp	r1, r3
    3432:	d008      	beq.n	3446 <serial6_peek+0x1e>
    3434:	3301      	adds	r3, #1
    3436:	2b40      	cmp	r3, #64	; 0x40
    3438:	bf28      	it	cs
    343a:	2300      	movcs	r3, #0
    343c:	4413      	add	r3, r2
    343e:	f893 0038 	ldrb.w	r0, [r3, #56]	; 0x38
    3442:	b2c0      	uxtb	r0, r0
    3444:	4770      	bx	lr
    3446:	f04f 30ff 	mov.w	r0, #4294967295
    344a:	4770      	bx	lr
    344c:	1fff0df0 	.word	0x1fff0df0

00003450 <serial6_clear>:
    3450:	4b04      	ldr	r3, [pc, #16]	; (3464 <serial6_clear+0x14>)
    3452:	785a      	ldrb	r2, [r3, #1]
    3454:	b2d2      	uxtb	r2, r2
    3456:	701a      	strb	r2, [r3, #0]
    3458:	689b      	ldr	r3, [r3, #8]
    345a:	b10b      	cbz	r3, 3460 <serial6_clear+0x10>
    345c:	2200      	movs	r2, #0
    345e:	701a      	strb	r2, [r3, #0]
    3460:	4770      	bx	lr
    3462:	bf00      	nop
    3464:	1fff0df0 	.word	0x1fff0df0

00003468 <lpuart0_status_isr>:
    3468:	b510      	push	{r4, lr}
    346a:	4b28      	ldr	r3, [pc, #160]	; (350c <lpuart0_status_isr+0xa4>)
    346c:	685a      	ldr	r2, [r3, #4]
    346e:	0292      	lsls	r2, r2, #10
    3470:	d51f      	bpl.n	34b2 <lpuart0_status_isr+0x4a>
    3472:	4a27      	ldr	r2, [pc, #156]	; (3510 <lpuart0_status_isr+0xa8>)
    3474:	68d8      	ldr	r0, [r3, #12]
    3476:	7813      	ldrb	r3, [r2, #0]
    3478:	7851      	ldrb	r1, [r2, #1]
    347a:	3301      	adds	r3, #1
    347c:	2b40      	cmp	r3, #64	; 0x40
    347e:	bf28      	it	cs
    3480:	2300      	movcs	r3, #0
    3482:	428b      	cmp	r3, r1
    3484:	d005      	beq.n	3492 <lpuart0_status_isr+0x2a>
    3486:	18d1      	adds	r1, r2, r3
    3488:	b2c0      	uxtb	r0, r0
    348a:	f881 0038 	strb.w	r0, [r1, #56]	; 0x38
    348e:	b2d9      	uxtb	r1, r3
    3490:	7011      	strb	r1, [r2, #0]
    3492:	6891      	ldr	r1, [r2, #8]
    3494:	b169      	cbz	r1, 34b2 <lpuart0_status_isr+0x4a>
    3496:	4a1e      	ldr	r2, [pc, #120]	; (3510 <lpuart0_status_isr+0xa8>)
    3498:	78d2      	ldrb	r2, [r2, #3]
    349a:	b2d2      	uxtb	r2, r2
    349c:	4293      	cmp	r3, r2
    349e:	bf36      	itet	cc
    34a0:	f1c2 0240 	rsbcc	r2, r2, #64	; 0x40
    34a4:	ebc2 0303 	rsbcs	r3, r2, r3
    34a8:	189b      	addcc	r3, r3, r2
    34aa:	2b27      	cmp	r3, #39	; 0x27
    34ac:	bfc4      	itt	gt
    34ae:	2301      	movgt	r3, #1
    34b0:	700b      	strbgt	r3, [r1, #0]
    34b2:	4916      	ldr	r1, [pc, #88]	; (350c <lpuart0_status_isr+0xa4>)
    34b4:	6888      	ldr	r0, [r1, #8]
    34b6:	0203      	lsls	r3, r0, #8
    34b8:	d519      	bpl.n	34ee <lpuart0_status_isr+0x86>
    34ba:	684b      	ldr	r3, [r1, #4]
    34bc:	021c      	lsls	r4, r3, #8
    34be:	d516      	bpl.n	34ee <lpuart0_status_isr+0x86>
    34c0:	4a13      	ldr	r2, [pc, #76]	; (3510 <lpuart0_status_isr+0xa8>)
    34c2:	7894      	ldrb	r4, [r2, #2]
    34c4:	78d3      	ldrb	r3, [r2, #3]
    34c6:	b2db      	uxtb	r3, r3
    34c8:	429c      	cmp	r4, r3
    34ca:	d106      	bne.n	34da <lpuart0_status_isr+0x72>
    34cc:	4b11      	ldr	r3, [pc, #68]	; (3514 <lpuart0_status_isr+0xac>)
    34ce:	2200      	movs	r2, #0
    34d0:	601a      	str	r2, [r3, #0]
    34d2:	2201      	movs	r2, #1
    34d4:	f843 2c04 	str.w	r2, [r3, #-4]
    34d8:	e009      	b.n	34ee <lpuart0_status_isr+0x86>
    34da:	3301      	adds	r3, #1
    34dc:	2b28      	cmp	r3, #40	; 0x28
    34de:	bf28      	it	cs
    34e0:	2300      	movcs	r3, #0
    34e2:	18d4      	adds	r4, r2, r3
    34e4:	b2db      	uxtb	r3, r3
    34e6:	7c24      	ldrb	r4, [r4, #16]
    34e8:	b2e4      	uxtb	r4, r4
    34ea:	60cc      	str	r4, [r1, #12]
    34ec:	70d3      	strb	r3, [r2, #3]
    34ee:	0242      	lsls	r2, r0, #9
    34f0:	d50b      	bpl.n	350a <lpuart0_status_isr+0xa2>
    34f2:	4b06      	ldr	r3, [pc, #24]	; (350c <lpuart0_status_isr+0xa4>)
    34f4:	685b      	ldr	r3, [r3, #4]
    34f6:	025b      	lsls	r3, r3, #9
    34f8:	d507      	bpl.n	350a <lpuart0_status_isr+0xa2>
    34fa:	4a05      	ldr	r2, [pc, #20]	; (3510 <lpuart0_status_isr+0xa8>)
    34fc:	2300      	movs	r3, #0
    34fe:	7113      	strb	r3, [r2, #4]
    3500:	68d2      	ldr	r2, [r2, #12]
    3502:	b102      	cbz	r2, 3506 <lpuart0_status_isr+0x9e>
    3504:	7013      	strb	r3, [r2, #0]
    3506:	4a04      	ldr	r2, [pc, #16]	; (3518 <lpuart0_status_isr+0xb0>)
    3508:	6013      	str	r3, [r2, #0]
    350a:	bd10      	pop	{r4, pc}
    350c:	400c4000 	.word	0x400c4000
    3510:	1fff0df0 	.word	0x1fff0df0
    3514:	4388015c 	.word	0x4388015c
    3518:	43880158 	.word	0x43880158

0000351c <usb_init_serialnumber>:
    351c:	b51f      	push	{r0, r1, r2, r3, r4, lr}
    351e:	b672      	cpsid	i
    3520:	4b13      	ldr	r3, [pc, #76]	; (3570 <usb_init_serialnumber+0x54>)
    3522:	4914      	ldr	r1, [pc, #80]	; (3574 <usb_init_serialnumber+0x58>)
    3524:	2270      	movs	r2, #112	; 0x70
    3526:	701a      	strb	r2, [r3, #0]
    3528:	4a13      	ldr	r2, [pc, #76]	; (3578 <usb_init_serialnumber+0x5c>)
    352a:	6011      	str	r1, [r2, #0]
    352c:	2280      	movs	r2, #128	; 0x80
    352e:	701a      	strb	r2, [r3, #0]
    3530:	781a      	ldrb	r2, [r3, #0]
    3532:	0612      	lsls	r2, r2, #24
    3534:	d5fc      	bpl.n	3530 <usb_init_serialnumber+0x14>
    3536:	4b11      	ldr	r3, [pc, #68]	; (357c <usb_init_serialnumber+0x60>)
    3538:	6818      	ldr	r0, [r3, #0]
    353a:	b662      	cpsie	i
    353c:	4b10      	ldr	r3, [pc, #64]	; (3580 <usb_init_serialnumber+0x64>)
    353e:	4298      	cmp	r0, r3
    3540:	bf98      	it	ls
    3542:	230a      	movls	r3, #10
    3544:	ac01      	add	r4, sp, #4
    3546:	bf98      	it	ls
    3548:	4358      	mulls	r0, r3
    354a:	4621      	mov	r1, r4
    354c:	220a      	movs	r2, #10
    354e:	f7fd fa4d 	bl	9ec <ultoa>
    3552:	2300      	movs	r3, #0
    3554:	5ce1      	ldrb	r1, [r4, r3]
    3556:	4a0b      	ldr	r2, [pc, #44]	; (3584 <usb_init_serialnumber+0x68>)
    3558:	b129      	cbz	r1, 3566 <usb_init_serialnumber+0x4a>
    355a:	eb02 0043 	add.w	r0, r2, r3, lsl #1
    355e:	3301      	adds	r3, #1
    3560:	2b0a      	cmp	r3, #10
    3562:	8041      	strh	r1, [r0, #2]
    3564:	d1f6      	bne.n	3554 <usb_init_serialnumber+0x38>
    3566:	3301      	adds	r3, #1
    3568:	005b      	lsls	r3, r3, #1
    356a:	7013      	strb	r3, [r2, #0]
    356c:	b004      	add	sp, #16
    356e:	bd10      	pop	{r4, pc}
    3570:	40020000 	.word	0x40020000
    3574:	41070000 	.word	0x41070000
    3578:	40020004 	.word	0x40020004
    357c:	4002000c 	.word	0x4002000c
    3580:	0098967f 	.word	0x0098967f
    3584:	1fff0a10 	.word	0x1fff0a10

00003588 <endpoint0_transmit>:
    3588:	b570      	push	{r4, r5, r6, lr}
    358a:	4b0c      	ldr	r3, [pc, #48]	; (35bc <endpoint0_transmit+0x34>)
    358c:	4c0c      	ldr	r4, [pc, #48]	; (35c0 <endpoint0_transmit+0x38>)
    358e:	781a      	ldrb	r2, [r3, #0]
    3590:	f042 0502 	orr.w	r5, r2, #2
    3594:	eb04 06c5 	add.w	r6, r4, r5, lsl #3
    3598:	f082 0201 	eor.w	r2, r2, #1
    359c:	6070      	str	r0, [r6, #4]
    359e:	7858      	ldrb	r0, [r3, #1]
    35a0:	701a      	strb	r2, [r3, #0]
    35a2:	2800      	cmp	r0, #0
    35a4:	bf0c      	ite	eq
    35a6:	2688      	moveq	r6, #136	; 0x88
    35a8:	26c8      	movne	r6, #200	; 0xc8
    35aa:	f080 0001 	eor.w	r0, r0, #1
    35ae:	ea46 4101 	orr.w	r1, r6, r1, lsl #16
    35b2:	7058      	strb	r0, [r3, #1]
    35b4:	f844 1035 	str.w	r1, [r4, r5, lsl #3]
    35b8:	bd70      	pop	{r4, r5, r6, pc}
    35ba:	bf00      	nop
    35bc:	1fff0e68 	.word	0x1fff0e68
    35c0:	1fff0000 	.word	0x1fff0000

000035c4 <usb_rx>:
    35c4:	1e43      	subs	r3, r0, #1
    35c6:	2b03      	cmp	r3, #3
    35c8:	b510      	push	{r4, lr}
    35ca:	d810      	bhi.n	35ee <usb_rx+0x2a>
    35cc:	b672      	cpsid	i
    35ce:	4a09      	ldr	r2, [pc, #36]	; (35f4 <usb_rx+0x30>)
    35d0:	eb02 0283 	add.w	r2, r2, r3, lsl #2
    35d4:	6850      	ldr	r0, [r2, #4]
    35d6:	b140      	cbz	r0, 35ea <usb_rx+0x26>
    35d8:	6841      	ldr	r1, [r0, #4]
    35da:	6051      	str	r1, [r2, #4]
    35dc:	4a06      	ldr	r2, [pc, #24]	; (35f8 <usb_rx+0x34>)
    35de:	8801      	ldrh	r1, [r0, #0]
    35e0:	f832 4013 	ldrh.w	r4, [r2, r3, lsl #1]
    35e4:	1a61      	subs	r1, r4, r1
    35e6:	f822 1013 	strh.w	r1, [r2, r3, lsl #1]
    35ea:	b662      	cpsie	i
    35ec:	bd10      	pop	{r4, pc}
    35ee:	2000      	movs	r0, #0
    35f0:	bd10      	pop	{r4, pc}
    35f2:	bf00      	nop
    35f4:	1fff0e68 	.word	0x1fff0e68
    35f8:	1fff10dc 	.word	0x1fff10dc

000035fc <usb_tx_byte_count>:
    35fc:	3801      	subs	r0, #1
    35fe:	2803      	cmp	r0, #3
    3600:	d80c      	bhi.n	361c <usb_tx_byte_count+0x20>
    3602:	4b07      	ldr	r3, [pc, #28]	; (3620 <usb_tx_byte_count+0x24>)
    3604:	eb03 0080 	add.w	r0, r3, r0, lsl #2
    3608:	6943      	ldr	r3, [r0, #20]
    360a:	b672      	cpsid	i
    360c:	2000      	movs	r0, #0
    360e:	b11b      	cbz	r3, 3618 <usb_tx_byte_count+0x1c>
    3610:	881a      	ldrh	r2, [r3, #0]
    3612:	685b      	ldr	r3, [r3, #4]
    3614:	4410      	add	r0, r2
    3616:	e7fa      	b.n	360e <usb_tx_byte_count+0x12>
    3618:	b662      	cpsie	i
    361a:	4770      	bx	lr
    361c:	2000      	movs	r0, #0
    361e:	4770      	bx	lr
    3620:	1fff0e68 	.word	0x1fff0e68

00003624 <usb_tx_packet_count>:
    3624:	3801      	subs	r0, #1
    3626:	2803      	cmp	r0, #3
    3628:	d80b      	bhi.n	3642 <usb_tx_packet_count+0x1e>
    362a:	b672      	cpsid	i
    362c:	4b06      	ldr	r3, [pc, #24]	; (3648 <usb_tx_packet_count+0x24>)
    362e:	eb03 0080 	add.w	r0, r3, r0, lsl #2
    3632:	6943      	ldr	r3, [r0, #20]
    3634:	2000      	movs	r0, #0
    3636:	b113      	cbz	r3, 363e <usb_tx_packet_count+0x1a>
    3638:	3001      	adds	r0, #1
    363a:	685b      	ldr	r3, [r3, #4]
    363c:	e7fb      	b.n	3636 <usb_tx_packet_count+0x12>
    363e:	b662      	cpsie	i
    3640:	4770      	bx	lr
    3642:	2000      	movs	r0, #0
    3644:	4770      	bx	lr
    3646:	bf00      	nop
    3648:	1fff0e68 	.word	0x1fff0e68

0000364c <usb_rx_memory>:
    364c:	b510      	push	{r4, lr}
    364e:	b672      	cpsid	i
    3650:	2301      	movs	r3, #1
    3652:	4a18      	ldr	r2, [pc, #96]	; (36b4 <usb_rx_memory+0x68>)
    3654:	441a      	add	r2, r3
    3656:	f812 2c01 	ldrb.w	r2, [r2, #-1]
    365a:	0712      	lsls	r2, r2, #28
    365c:	d51e      	bpl.n	369c <usb_rx_memory+0x50>
    365e:	0099      	lsls	r1, r3, #2
    3660:	4a15      	ldr	r2, [pc, #84]	; (36b8 <usb_rx_memory+0x6c>)
    3662:	f852 4031 	ldr.w	r4, [r2, r1, lsl #3]
    3666:	b92c      	cbnz	r4, 3674 <usb_rx_memory+0x28>
    3668:	eb02 1343 	add.w	r3, r2, r3, lsl #5
    366c:	3008      	adds	r0, #8
    366e:	6058      	str	r0, [r3, #4]
    3670:	4b12      	ldr	r3, [pc, #72]	; (36bc <usb_rx_memory+0x70>)
    3672:	e009      	b.n	3688 <usb_rx_memory+0x3c>
    3674:	f041 0101 	orr.w	r1, r1, #1
    3678:	f852 4031 	ldr.w	r4, [r2, r1, lsl #3]
    367c:	b974      	cbnz	r4, 369c <usb_rx_memory+0x50>
    367e:	eb02 03c1 	add.w	r3, r2, r1, lsl #3
    3682:	3008      	adds	r0, #8
    3684:	6058      	str	r0, [r3, #4]
    3686:	4b0e      	ldr	r3, [pc, #56]	; (36c0 <usb_rx_memory+0x74>)
    3688:	f842 3031 	str.w	r3, [r2, r1, lsl #3]
    368c:	4b0d      	ldr	r3, [pc, #52]	; (36c4 <usb_rx_memory+0x78>)
    368e:	f893 2024 	ldrb.w	r2, [r3, #36]	; 0x24
    3692:	3a01      	subs	r2, #1
    3694:	f883 2024 	strb.w	r2, [r3, #36]	; 0x24
    3698:	b662      	cpsie	i
    369a:	bd10      	pop	{r4, pc}
    369c:	3301      	adds	r3, #1
    369e:	2b05      	cmp	r3, #5
    36a0:	d1d7      	bne.n	3652 <usb_rx_memory+0x6>
    36a2:	b662      	cpsie	i
    36a4:	4b07      	ldr	r3, [pc, #28]	; (36c4 <usb_rx_memory+0x78>)
    36a6:	2200      	movs	r2, #0
    36a8:	f883 2024 	strb.w	r2, [r3, #36]	; 0x24
    36ac:	e8bd 4010 	ldmia.w	sp!, {r4, lr}
    36b0:	f000 bbfc 	b.w	3eac <usb_free>
    36b4:	0000a0c4 	.word	0x0000a0c4
    36b8:	1fff0000 	.word	0x1fff0000
    36bc:	00400088 	.word	0x00400088
    36c0:	004000c8 	.word	0x004000c8
    36c4:	1fff0e68 	.word	0x1fff0e68

000036c8 <usb_tx>:
    36c8:	1e42      	subs	r2, r0, #1
    36ca:	2a03      	cmp	r2, #3
    36cc:	b530      	push	{r4, r5, lr}
    36ce:	d833      	bhi.n	3738 <usb_tx+0x70>
    36d0:	4b1a      	ldr	r3, [pc, #104]	; (373c <usb_tx+0x74>)
    36d2:	0140      	lsls	r0, r0, #5
    36d4:	f040 0010 	orr.w	r0, r0, #16
    36d8:	4418      	add	r0, r3
    36da:	b672      	cpsid	i
    36dc:	4c18      	ldr	r4, [pc, #96]	; (3740 <usb_tx+0x78>)
    36de:	18a3      	adds	r3, r4, r2
    36e0:	f893 3025 	ldrb.w	r3, [r3, #37]	; 0x25
    36e4:	2b03      	cmp	r3, #3
    36e6:	d809      	bhi.n	36fc <usb_tx+0x34>
    36e8:	e8df f003 	tbb	[pc, r3]
    36ec:	05150213 	.word	0x05150213
    36f0:	3008      	adds	r0, #8
    36f2:	2302      	movs	r3, #2
    36f4:	e010      	b.n	3718 <usb_tx+0x50>
    36f6:	3008      	adds	r0, #8
    36f8:	2304      	movs	r3, #4
    36fa:	e00d      	b.n	3718 <usb_tx+0x50>
    36fc:	0092      	lsls	r2, r2, #2
    36fe:	18a3      	adds	r3, r4, r2
    3700:	6958      	ldr	r0, [r3, #20]
    3702:	b908      	cbnz	r0, 3708 <usb_tx+0x40>
    3704:	6159      	str	r1, [r3, #20]
    3706:	e001      	b.n	370c <usb_tx+0x44>
    3708:	6adb      	ldr	r3, [r3, #44]	; 0x2c
    370a:	6059      	str	r1, [r3, #4]
    370c:	4422      	add	r2, r4
    370e:	62d1      	str	r1, [r2, #44]	; 0x2c
    3710:	e011      	b.n	3736 <usb_tx+0x6e>
    3712:	2303      	movs	r3, #3
    3714:	e000      	b.n	3718 <usb_tx+0x50>
    3716:	2305      	movs	r3, #5
    3718:	4422      	add	r2, r4
    371a:	f010 0f08 	tst.w	r0, #8
    371e:	f882 3025 	strb.w	r3, [r2, #37]	; 0x25
    3722:	f101 0308 	add.w	r3, r1, #8
    3726:	880a      	ldrh	r2, [r1, #0]
    3728:	6043      	str	r3, [r0, #4]
    372a:	bf0c      	ite	eq
    372c:	2388      	moveq	r3, #136	; 0x88
    372e:	23c8      	movne	r3, #200	; 0xc8
    3730:	ea43 4302 	orr.w	r3, r3, r2, lsl #16
    3734:	6003      	str	r3, [r0, #0]
    3736:	b662      	cpsie	i
    3738:	bd30      	pop	{r4, r5, pc}
    373a:	bf00      	nop
    373c:	1fff0000 	.word	0x1fff0000
    3740:	1fff0e68 	.word	0x1fff0e68

00003744 <usb_tx_isochronous>:
    3744:	1e43      	subs	r3, r0, #1
    3746:	2b03      	cmp	r3, #3
    3748:	b570      	push	{r4, r5, r6, lr}
    374a:	d818      	bhi.n	377e <usb_tx_isochronous+0x3a>
    374c:	4c0c      	ldr	r4, [pc, #48]	; (3780 <usb_tx_isochronous+0x3c>)
    374e:	0140      	lsls	r0, r0, #5
    3750:	f040 0010 	orr.w	r0, r0, #16
    3754:	4420      	add	r0, r4
    3756:	b672      	cpsid	i
    3758:	4c0a      	ldr	r4, [pc, #40]	; (3784 <usb_tx_isochronous+0x40>)
    375a:	18e5      	adds	r5, r4, r3
    375c:	f895 6025 	ldrb.w	r6, [r5, #37]	; 0x25
    3760:	4625      	mov	r5, r4
    3762:	b116      	cbz	r6, 376a <usb_tx_isochronous+0x26>
    3764:	3008      	adds	r0, #8
    3766:	2400      	movs	r4, #0
    3768:	e000      	b.n	376c <usb_tx_isochronous+0x28>
    376a:	2401      	movs	r4, #1
    376c:	442b      	add	r3, r5
    376e:	0412      	lsls	r2, r2, #16
    3770:	f042 0280 	orr.w	r2, r2, #128	; 0x80
    3774:	f883 4025 	strb.w	r4, [r3, #37]	; 0x25
    3778:	6041      	str	r1, [r0, #4]
    377a:	6002      	str	r2, [r0, #0]
    377c:	b662      	cpsie	i
    377e:	bd70      	pop	{r4, r5, r6, pc}
    3780:	1fff0000 	.word	0x1fff0000
    3784:	1fff0e68 	.word	0x1fff0e68

00003788 <_reboot_Teensyduino_>:
    3788:	be00      	bkpt	0x0000
    378a:	4770      	bx	lr

0000378c <usb_isr>:
    378c:	e92d 4ff7 	stmdb	sp!, {r0, r1, r2, r4, r5, r6, r7, r8, r9, sl, fp, lr}
    3790:	f01e 0f04 	tst.w	lr, #4
    3794:	bf0c      	ite	eq
    3796:	f3ef 8008 	mrseq	r0, MSP
    379a:	f3ef 8009 	mrsne	r0, PSP
    379e:	f7fd f889 	bl	8b4 <StackAccess>
    37a2:	2600      	movs	r6, #0
    37a4:	4fb4      	ldr	r7, [pc, #720]	; (3a78 <usb_isr+0x2ec>)
    37a6:	783c      	ldrb	r4, [r7, #0]
    37a8:	b2e4      	uxtb	r4, r4
    37aa:	f014 0f04 	tst.w	r4, #4
    37ae:	463d      	mov	r5, r7
    37b0:	d01b      	beq.n	37ea <usb_isr+0x5e>
    37b2:	4bb2      	ldr	r3, [pc, #712]	; (3a7c <usb_isr+0x2f0>)
    37b4:	f893 2044 	ldrb.w	r2, [r3, #68]	; 0x44
    37b8:	b1aa      	cbz	r2, 37e6 <usb_isr+0x5a>
    37ba:	f893 1045 	ldrb.w	r1, [r3, #69]	; 0x45
    37be:	f001 02ff 	and.w	r2, r1, #255	; 0xff
    37c2:	b129      	cbz	r1, 37d0 <usb_isr+0x44>
    37c4:	3a01      	subs	r2, #1
    37c6:	b2d2      	uxtb	r2, r2
    37c8:	f883 2045 	strb.w	r2, [r3, #69]	; 0x45
    37cc:	b902      	cbnz	r2, 37d0 <usb_isr+0x44>
    37ce:	be00      	bkpt	0x0000
    37d0:	4aab      	ldr	r2, [pc, #684]	; (3a80 <usb_isr+0x2f4>)
    37d2:	7811      	ldrb	r1, [r2, #0]
    37d4:	f001 03ff 	and.w	r3, r1, #255	; 0xff
    37d8:	b129      	cbz	r1, 37e6 <usb_isr+0x5a>
    37da:	3b01      	subs	r3, #1
    37dc:	b2db      	uxtb	r3, r3
    37de:	7013      	strb	r3, [r2, #0]
    37e0:	b90b      	cbnz	r3, 37e6 <usb_isr+0x5a>
    37e2:	f000 fcd7 	bl	4194 <usb_serial_flush_callback>
    37e6:	2304      	movs	r3, #4
    37e8:	703b      	strb	r3, [r7, #0]
    37ea:	f004 0308 	and.w	r3, r4, #8
    37ee:	f003 02ff 	and.w	r2, r3, #255	; 0xff
    37f2:	2b00      	cmp	r3, #0
    37f4:	f000 8294 	beq.w	3d20 <usb_isr+0x594>
    37f8:	4ba2      	ldr	r3, [pc, #648]	; (3a84 <usb_isr+0x2f8>)
    37fa:	4da3      	ldr	r5, [pc, #652]	; (3a88 <usb_isr+0x2fc>)
    37fc:	781a      	ldrb	r2, [r3, #0]
    37fe:	b2d2      	uxtb	r2, r2
    3800:	0914      	lsrs	r4, r2, #4
    3802:	ea4f 0992 	mov.w	r9, r2, lsr #2
    3806:	f040 81f9 	bne.w	3bfc <usb_isr+0x470>
    380a:	eb05 03c9 	add.w	r3, r5, r9, lsl #3
    380e:	6859      	ldr	r1, [r3, #4]
    3810:	f855 3039 	ldr.w	r3, [r5, r9, lsl #3]
    3814:	f3c3 0383 	ubfx	r3, r3, #2, #4
    3818:	3b01      	subs	r3, #1
    381a:	2b0c      	cmp	r3, #12
    381c:	f200 81ea 	bhi.w	3bf4 <usb_isr+0x468>
    3820:	e8df f013 	tbh	[pc, r3, lsl #1]
    3824:	01a201a2 	.word	0x01a201a2
    3828:	01e801e8 	.word	0x01e801e8
    382c:	01e801e8 	.word	0x01e801e8
    3830:	01e801e8 	.word	0x01e801e8
    3834:	01e801bf 	.word	0x01e801bf
    3838:	01e801e8 	.word	0x01e801e8
    383c:	000d      	.short	0x000d
    383e:	680a      	ldr	r2, [r1, #0]
    3840:	4c8e      	ldr	r4, [pc, #568]	; (3a7c <usb_isr+0x2f0>)
    3842:	684b      	ldr	r3, [r1, #4]
    3844:	64a2      	str	r2, [r4, #72]	; 0x48
    3846:	64e3      	str	r3, [r4, #76]	; 0x4c
    3848:	b292      	uxth	r2, r2
    384a:	4b90      	ldr	r3, [pc, #576]	; (3a8c <usb_isr+0x300>)
    384c:	f845 3039 	str.w	r3, [r5, r9, lsl #3]
    3850:	f240 6081 	movw	r0, #1665	; 0x681
    3854:	2300      	movs	r3, #0
    3856:	2101      	movs	r1, #1
    3858:	4282      	cmp	r2, r0
    385a:	6523      	str	r3, [r4, #80]	; 0x50
    385c:	612b      	str	r3, [r5, #16]
    385e:	61ab      	str	r3, [r5, #24]
    3860:	7061      	strb	r1, [r4, #1]
    3862:	46a1      	mov	r9, r4
    3864:	d817      	bhi.n	3896 <usb_isr+0x10a>
    3866:	f5b2 6fd0 	cmp.w	r2, #1664	; 0x680
    386a:	f080 8121 	bcs.w	3ab0 <usb_isr+0x324>
    386e:	f5b2 7f81 	cmp.w	r2, #258	; 0x102
    3872:	f000 80df 	beq.w	3a34 <usb_isr+0x2a8>
    3876:	d806      	bhi.n	3886 <usb_isr+0xfa>
    3878:	2a80      	cmp	r2, #128	; 0x80
    387a:	f000 80c6 	beq.w	3a0a <usb_isr+0x27e>
    387e:	2a82      	cmp	r2, #130	; 0x82
    3880:	f000 80c8 	beq.w	3a14 <usb_isr+0x288>
    3884:	e137      	b.n	3af6 <usb_isr+0x36a>
    3886:	f240 3302 	movw	r3, #770	; 0x302
    388a:	429a      	cmp	r2, r3
    388c:	f000 80e3 	beq.w	3a56 <usb_isr+0x2ca>
    3890:	f5b2 6fa0 	cmp.w	r2, #1280	; 0x500
    3894:	e01e      	b.n	38d4 <usb_isr+0x148>
    3896:	f242 0021 	movw	r0, #8225	; 0x2021
    389a:	4282      	cmp	r2, r0
    389c:	f000 8161 	beq.w	3b62 <usb_isr+0x3d6>
    38a0:	d810      	bhi.n	38c4 <usb_isr+0x138>
    38a2:	f5b2 6f08 	cmp.w	r2, #2176	; 0x880
    38a6:	f000 80aa 	beq.w	39fe <usb_isr+0x272>
    38aa:	f5b2 6f10 	cmp.w	r2, #2304	; 0x900
    38ae:	f040 8122 	bne.w	3af6 <usb_isr+0x36a>
    38b2:	f8df 81d4 	ldr.w	r8, [pc, #468]	; 3a88 <usb_isr+0x2fc>
    38b6:	f894 304a 	ldrb.w	r3, [r4, #74]	; 0x4a
    38ba:	f884 3044 	strb.w	r3, [r4, #68]	; 0x44
    38be:	f108 0a80 	add.w	sl, r8, #128	; 0x80
    38c2:	e00a      	b.n	38da <usb_isr+0x14e>
    38c4:	f242 2121 	movw	r1, #8737	; 0x2221
    38c8:	428a      	cmp	r2, r1
    38ca:	f000 810b 	beq.w	3ae4 <usb_isr+0x358>
    38ce:	f242 3321 	movw	r3, #8993	; 0x2321
    38d2:	429a      	cmp	r2, r3
    38d4:	f000 8113 	beq.w	3afe <usb_isr+0x372>
    38d8:	e10d      	b.n	3af6 <usb_isr+0x36a>
    38da:	f8d8 3020 	ldr.w	r3, [r8, #32]
    38de:	061b      	lsls	r3, r3, #24
    38e0:	d504      	bpl.n	38ec <usb_isr+0x160>
    38e2:	f8d8 0024 	ldr.w	r0, [r8, #36]	; 0x24
    38e6:	3808      	subs	r0, #8
    38e8:	f000 fae0 	bl	3eac <usb_free>
    38ec:	f108 0808 	add.w	r8, r8, #8
    38f0:	45d0      	cmp	r8, sl
    38f2:	d1f2      	bne.n	38da <usb_isr+0x14e>
    38f4:	f04f 0800 	mov.w	r8, #0
    38f8:	46c2      	mov	sl, r8
    38fa:	f8df b1b0 	ldr.w	fp, [pc, #432]	; 3aac <usb_isr+0x320>
    38fe:	f858 000b 	ldr.w	r0, [r8, fp]
    3902:	b130      	cbz	r0, 3912 <usb_isr+0x186>
    3904:	6843      	ldr	r3, [r0, #4]
    3906:	9301      	str	r3, [sp, #4]
    3908:	f000 fad0 	bl	3eac <usb_free>
    390c:	9b01      	ldr	r3, [sp, #4]
    390e:	4618      	mov	r0, r3
    3910:	e7f7      	b.n	3902 <usb_isr+0x176>
    3912:	4b5f      	ldr	r3, [pc, #380]	; (3a90 <usb_isr+0x304>)
    3914:	f84b 0008 	str.w	r0, [fp, r8]
    3918:	f1a3 0b40 	sub.w	fp, r3, #64	; 0x40
    391c:	f848 0003 	str.w	r0, [r8, r3]
    3920:	f858 000b 	ldr.w	r0, [r8, fp]
    3924:	b130      	cbz	r0, 3934 <usb_isr+0x1a8>
    3926:	6843      	ldr	r3, [r0, #4]
    3928:	9301      	str	r3, [sp, #4]
    392a:	f000 fabf 	bl	3eac <usb_free>
    392e:	9b01      	ldr	r3, [sp, #4]
    3930:	4618      	mov	r0, r3
    3932:	e7f7      	b.n	3924 <usb_isr+0x198>
    3934:	4b57      	ldr	r3, [pc, #348]	; (3a94 <usb_isr+0x308>)
    3936:	4a58      	ldr	r2, [pc, #352]	; (3a98 <usb_isr+0x30c>)
    3938:	f848 0003 	str.w	r0, [r8, r3]
    393c:	3b07      	subs	r3, #7
    393e:	f822 001a 	strh.w	r0, [r2, sl, lsl #1]
    3942:	f81a 2003 	ldrb.w	r2, [sl, r3]
    3946:	f84b 0008 	str.w	r0, [fp, r8]
    394a:	3a02      	subs	r2, #2
    394c:	2a03      	cmp	r2, #3
    394e:	d808      	bhi.n	3962 <usb_isr+0x1d6>
    3950:	e8df f002 	tbb	[pc, r2]
    3954:	04020402 	.word	0x04020402
    3958:	2200      	movs	r2, #0
    395a:	e000      	b.n	395e <usb_isr+0x1d2>
    395c:	2201      	movs	r2, #1
    395e:	f803 200a 	strb.w	r2, [r3, sl]
    3962:	f10a 0a01 	add.w	sl, sl, #1
    3966:	f1ba 0f04 	cmp.w	sl, #4
    396a:	f108 0804 	add.w	r8, r8, #4
    396e:	d1c4      	bne.n	38fa <usb_isr+0x16e>
    3970:	2300      	movs	r3, #0
    3972:	f884 3024 	strb.w	r3, [r4, #36]	; 0x24
    3976:	f04f 0801 	mov.w	r8, #1
    397a:	4a48      	ldr	r2, [pc, #288]	; (3a9c <usb_isr+0x310>)
    397c:	4b48      	ldr	r3, [pc, #288]	; (3aa0 <usb_isr+0x314>)
    397e:	4442      	add	r2, r8
    3980:	4443      	add	r3, r8
    3982:	f812 2c01 	ldrb.w	r2, [r2, #-1]
    3986:	009b      	lsls	r3, r3, #2
    3988:	f012 0f08 	tst.w	r2, #8
    398c:	701a      	strb	r2, [r3, #0]
    398e:	ea4f 0a88 	mov.w	sl, r8, lsl #2
    3992:	d025      	beq.n	39e0 <usb_isr+0x254>
    3994:	f000 fa6c 	bl	3e70 <usb_malloc>
    3998:	b138      	cbz	r0, 39aa <usb_isr+0x21e>
    399a:	eb05 1348 	add.w	r3, r5, r8, lsl #5
    399e:	3008      	adds	r0, #8
    39a0:	6058      	str	r0, [r3, #4]
    39a2:	4b40      	ldr	r3, [pc, #256]	; (3aa4 <usb_isr+0x318>)
    39a4:	f845 303a 	str.w	r3, [r5, sl, lsl #3]
    39a8:	e006      	b.n	39b8 <usb_isr+0x22c>
    39aa:	f899 3024 	ldrb.w	r3, [r9, #36]	; 0x24
    39ae:	f845 003a 	str.w	r0, [r5, sl, lsl #3]
    39b2:	3301      	adds	r3, #1
    39b4:	f889 3024 	strb.w	r3, [r9, #36]	; 0x24
    39b8:	f000 fa5a 	bl	3e70 <usb_malloc>
    39bc:	f04a 0301 	orr.w	r3, sl, #1
    39c0:	b138      	cbz	r0, 39d2 <usb_isr+0x246>
    39c2:	eb05 02c3 	add.w	r2, r5, r3, lsl #3
    39c6:	3008      	adds	r0, #8
    39c8:	6050      	str	r0, [r2, #4]
    39ca:	4a30      	ldr	r2, [pc, #192]	; (3a8c <usb_isr+0x300>)
    39cc:	f845 2033 	str.w	r2, [r5, r3, lsl #3]
    39d0:	e006      	b.n	39e0 <usb_isr+0x254>
    39d2:	f845 0033 	str.w	r0, [r5, r3, lsl #3]
    39d6:	f899 3024 	ldrb.w	r3, [r9, #36]	; 0x24
    39da:	3301      	adds	r3, #1
    39dc:	f889 3024 	strb.w	r3, [r9, #36]	; 0x24
    39e0:	f04a 0202 	orr.w	r2, sl, #2
    39e4:	f108 0801 	add.w	r8, r8, #1
    39e8:	f04a 0a03 	orr.w	sl, sl, #3
    39ec:	2300      	movs	r3, #0
    39ee:	f1b8 0f05 	cmp.w	r8, #5
    39f2:	f845 3032 	str.w	r3, [r5, r2, lsl #3]
    39f6:	f845 303a 	str.w	r3, [r5, sl, lsl #3]
    39fa:	d1be      	bne.n	397a <usb_isr+0x1ee>
    39fc:	e080      	b.n	3b00 <usb_isr+0x374>
    39fe:	f894 3044 	ldrb.w	r3, [r4, #68]	; 0x44
    3a02:	f884 303c 	strb.w	r3, [r4, #60]	; 0x3c
    3a06:	460b      	mov	r3, r1
    3a08:	e07d      	b.n	3b06 <usb_isr+0x37a>
    3a0a:	f884 303c 	strb.w	r3, [r4, #60]	; 0x3c
    3a0e:	f884 303d 	strb.w	r3, [r4, #61]	; 0x3d
    3a12:	e077      	b.n	3b04 <usb_isr+0x378>
    3a14:	f8b4 204c 	ldrh.w	r2, [r4, #76]	; 0x4c
    3a18:	2a04      	cmp	r2, #4
    3a1a:	d86c      	bhi.n	3af6 <usb_isr+0x36a>
    3a1c:	f884 303c 	strb.w	r3, [r4, #60]	; 0x3c
    3a20:	f884 303d 	strb.w	r3, [r4, #61]	; 0x3d
    3a24:	0092      	lsls	r2, r2, #2
    3a26:	4b20      	ldr	r3, [pc, #128]	; (3aa8 <usb_isr+0x31c>)
    3a28:	5c9b      	ldrb	r3, [r3, r2]
    3a2a:	079d      	lsls	r5, r3, #30
    3a2c:	d56a      	bpl.n	3b04 <usb_isr+0x378>
    3a2e:	f884 103c 	strb.w	r1, [r4, #60]	; 0x3c
    3a32:	e067      	b.n	3b04 <usb_isr+0x378>
    3a34:	f8b4 204c 	ldrh.w	r2, [r4, #76]	; 0x4c
    3a38:	f002 027f 	and.w	r2, r2, #127	; 0x7f
    3a3c:	2a04      	cmp	r2, #4
    3a3e:	dc5a      	bgt.n	3af6 <usb_isr+0x36a>
    3a40:	f8b4 304a 	ldrh.w	r3, [r4, #74]	; 0x4a
    3a44:	2b00      	cmp	r3, #0
    3a46:	d156      	bne.n	3af6 <usb_isr+0x36a>
    3a48:	0091      	lsls	r1, r2, #2
    3a4a:	4a17      	ldr	r2, [pc, #92]	; (3aa8 <usb_isr+0x31c>)
    3a4c:	440a      	add	r2, r1
    3a4e:	7811      	ldrb	r1, [r2, #0]
    3a50:	f021 0102 	bic.w	r1, r1, #2
    3a54:	e04d      	b.n	3af2 <usb_isr+0x366>
    3a56:	f8b4 204c 	ldrh.w	r2, [r4, #76]	; 0x4c
    3a5a:	f002 027f 	and.w	r2, r2, #127	; 0x7f
    3a5e:	2a04      	cmp	r2, #4
    3a60:	dc49      	bgt.n	3af6 <usb_isr+0x36a>
    3a62:	f8b4 304a 	ldrh.w	r3, [r4, #74]	; 0x4a
    3a66:	2b00      	cmp	r3, #0
    3a68:	d145      	bne.n	3af6 <usb_isr+0x36a>
    3a6a:	0091      	lsls	r1, r2, #2
    3a6c:	4a0e      	ldr	r2, [pc, #56]	; (3aa8 <usb_isr+0x31c>)
    3a6e:	440a      	add	r2, r1
    3a70:	7811      	ldrb	r1, [r2, #0]
    3a72:	f041 0102 	orr.w	r1, r1, #2
    3a76:	e03c      	b.n	3af2 <usb_isr+0x366>
    3a78:	40072080 	.word	0x40072080
    3a7c:	1fff0e68 	.word	0x1fff0e68
    3a80:	1fff0f5d 	.word	0x1fff0f5d
    3a84:	40072090 	.word	0x40072090
    3a88:	1fff0000 	.word	0x1fff0000
    3a8c:	004000c8 	.word	0x004000c8
    3a90:	1fff0ebc 	.word	0x1fff0ebc
    3a94:	1fff0e94 	.word	0x1fff0e94
    3a98:	1fff10dc 	.word	0x1fff10dc
    3a9c:	0000a0c4 	.word	0x0000a0c4
    3aa0:	1001c830 	.word	0x1001c830
    3aa4:	00400088 	.word	0x00400088
    3aa8:	400720c0 	.word	0x400720c0
    3aac:	1fff0e6c 	.word	0x1fff0e6c
    3ab0:	f8b4 204a 	ldrh.w	r2, [r4, #74]	; 0x4a
    3ab4:	f8b4 104c 	ldrh.w	r1, [r4, #76]	; 0x4c
    3ab8:	4baa      	ldr	r3, [pc, #680]	; (3d64 <usb_isr+0x5d8>)
    3aba:	f853 5c08 	ldr.w	r5, [r3, #-8]
    3abe:	f1a3 000c 	sub.w	r0, r3, #12
    3ac2:	b1c5      	cbz	r5, 3af6 <usb_isr+0x36a>
    3ac4:	f833 cc0c 	ldrh.w	ip, [r3, #-12]
    3ac8:	4594      	cmp	ip, r2
    3aca:	d109      	bne.n	3ae0 <usb_isr+0x354>
    3acc:	f833 cc0a 	ldrh.w	ip, [r3, #-10]
    3ad0:	458c      	cmp	ip, r1
    3ad2:	d105      	bne.n	3ae0 <usb_isr+0x354>
    3ad4:	0a12      	lsrs	r2, r2, #8
    3ad6:	2a03      	cmp	r2, #3
    3ad8:	bf0c      	ite	eq
    3ada:	782b      	ldrbeq	r3, [r5, #0]
    3adc:	8903      	ldrhne	r3, [r0, #8]
    3ade:	e014      	b.n	3b0a <usb_isr+0x37e>
    3ae0:	330c      	adds	r3, #12
    3ae2:	e7ea      	b.n	3aba <usb_isr+0x32e>
    3ae4:	4aa0      	ldr	r2, [pc, #640]	; (3d68 <usb_isr+0x5dc>)
    3ae6:	6811      	ldr	r1, [r2, #0]
    3ae8:	4aa0      	ldr	r2, [pc, #640]	; (3d6c <usb_isr+0x5e0>)
    3aea:	6011      	str	r1, [r2, #0]
    3aec:	f894 104a 	ldrb.w	r1, [r4, #74]	; 0x4a
    3af0:	4a9f      	ldr	r2, [pc, #636]	; (3d70 <usb_isr+0x5e4>)
    3af2:	7011      	strb	r1, [r2, #0]
    3af4:	e004      	b.n	3b00 <usb_isr+0x374>
    3af6:	4b9f      	ldr	r3, [pc, #636]	; (3d74 <usb_isr+0x5e8>)
    3af8:	220f      	movs	r2, #15
    3afa:	701a      	strb	r2, [r3, #0]
    3afc:	e031      	b.n	3b62 <usb_isr+0x3d6>
    3afe:	2300      	movs	r3, #0
    3b00:	461d      	mov	r5, r3
    3b02:	e002      	b.n	3b0a <usb_isr+0x37e>
    3b04:	2302      	movs	r3, #2
    3b06:	f109 053c 	add.w	r5, r9, #60	; 0x3c
    3b0a:	f8b4 904e 	ldrh.w	r9, [r4, #78]	; 0x4e
    3b0e:	454b      	cmp	r3, r9
    3b10:	bf38      	it	cc
    3b12:	4699      	movcc	r9, r3
    3b14:	f1b9 0f40 	cmp.w	r9, #64	; 0x40
    3b18:	bf34      	ite	cc
    3b1a:	46c8      	movcc	r8, r9
    3b1c:	f04f 0840 	movcs.w	r8, #64	; 0x40
    3b20:	4628      	mov	r0, r5
    3b22:	4641      	mov	r1, r8
    3b24:	f7ff fd30 	bl	3588 <endpoint0_transmit>
    3b28:	ebb9 0908 	subs.w	r9, r9, r8
    3b2c:	4445      	add	r5, r8
    3b2e:	d104      	bne.n	3b3a <usb_isr+0x3ae>
    3b30:	f1b8 0f40 	cmp.w	r8, #64	; 0x40
    3b34:	d115      	bne.n	3b62 <usb_isr+0x3d6>
    3b36:	46c8      	mov	r8, r9
    3b38:	e005      	b.n	3b46 <usb_isr+0x3ba>
    3b3a:	f1b9 0f40 	cmp.w	r9, #64	; 0x40
    3b3e:	bf34      	ite	cc
    3b40:	46c8      	movcc	r8, r9
    3b42:	f04f 0840 	movcs.w	r8, #64	; 0x40
    3b46:	4628      	mov	r0, r5
    3b48:	4641      	mov	r1, r8
    3b4a:	f7ff fd1d 	bl	3588 <endpoint0_transmit>
    3b4e:	ebb9 0908 	subs.w	r9, r9, r8
    3b52:	4445      	add	r5, r8
    3b54:	d102      	bne.n	3b5c <usb_isr+0x3d0>
    3b56:	f1b8 0f40 	cmp.w	r8, #64	; 0x40
    3b5a:	d102      	bne.n	3b62 <usb_isr+0x3d6>
    3b5c:	6525      	str	r5, [r4, #80]	; 0x50
    3b5e:	f8a4 9064 	strh.w	r9, [r4, #100]	; 0x64
    3b62:	2201      	movs	r2, #1
    3b64:	4b84      	ldr	r3, [pc, #528]	; (3d78 <usb_isr+0x5ec>)
    3b66:	e044      	b.n	3bf2 <usb_isr+0x466>
    3b68:	4a84      	ldr	r2, [pc, #528]	; (3d7c <usb_isr+0x5f0>)
    3b6a:	f8b2 0048 	ldrh.w	r0, [r2, #72]	; 0x48
    3b6e:	f242 0321 	movw	r3, #8225	; 0x2021
    3b72:	4298      	cmp	r0, r3
    3b74:	d111      	bne.n	3b9a <usb_isr+0x40e>
    3b76:	2300      	movs	r3, #0
    3b78:	4881      	ldr	r0, [pc, #516]	; (3d80 <usb_isr+0x5f4>)
    3b7a:	5ccc      	ldrb	r4, [r1, r3]
    3b7c:	541c      	strb	r4, [r3, r0]
    3b7e:	3301      	adds	r3, #1
    3b80:	2b07      	cmp	r3, #7
    3b82:	d1f9      	bne.n	3b78 <usb_isr+0x3ec>
    3b84:	6803      	ldr	r3, [r0, #0]
    3b86:	2000      	movs	r0, #0
    3b88:	2b86      	cmp	r3, #134	; 0x86
    3b8a:	bf08      	it	eq
    3b8c:	230f      	moveq	r3, #15
    3b8e:	4601      	mov	r1, r0
    3b90:	bf08      	it	eq
    3b92:	f882 3045 	strbeq.w	r3, [r2, #69]	; 0x45
    3b96:	f7ff fcf7 	bl	3588 <endpoint0_transmit>
    3b9a:	4b7a      	ldr	r3, [pc, #488]	; (3d84 <usb_isr+0x5f8>)
    3b9c:	f845 3039 	str.w	r3, [r5, r9, lsl #3]
    3ba0:	e028      	b.n	3bf4 <usb_isr+0x468>
    3ba2:	4c76      	ldr	r4, [pc, #472]	; (3d7c <usb_isr+0x5f0>)
    3ba4:	f8d4 8050 	ldr.w	r8, [r4, #80]	; 0x50
    3ba8:	f1b8 0f00 	cmp.w	r8, #0
    3bac:	d015      	beq.n	3bda <usb_isr+0x44e>
    3bae:	f8b4 9064 	ldrh.w	r9, [r4, #100]	; 0x64
    3bb2:	f1b9 0f40 	cmp.w	r9, #64	; 0x40
    3bb6:	bf34      	ite	cc
    3bb8:	464d      	movcc	r5, r9
    3bba:	2540      	movcs	r5, #64	; 0x40
    3bbc:	4640      	mov	r0, r8
    3bbe:	4629      	mov	r1, r5
    3bc0:	f7ff fce2 	bl	3588 <endpoint0_transmit>
    3bc4:	ebc5 0309 	rsb	r3, r5, r9
    3bc8:	b29b      	uxth	r3, r3
    3bca:	f8a4 3064 	strh.w	r3, [r4, #100]	; 0x64
    3bce:	b90b      	cbnz	r3, 3bd4 <usb_isr+0x448>
    3bd0:	2d40      	cmp	r5, #64	; 0x40
    3bd2:	d101      	bne.n	3bd8 <usb_isr+0x44c>
    3bd4:	eb08 0305 	add.w	r3, r8, r5
    3bd8:	6523      	str	r3, [r4, #80]	; 0x50
    3bda:	f8b4 2048 	ldrh.w	r2, [r4, #72]	; 0x48
    3bde:	4b67      	ldr	r3, [pc, #412]	; (3d7c <usb_isr+0x5f0>)
    3be0:	f5b2 6fa0 	cmp.w	r2, #1280	; 0x500
    3be4:	d106      	bne.n	3bf4 <usb_isr+0x468>
    3be6:	2200      	movs	r2, #0
    3be8:	f883 2049 	strb.w	r2, [r3, #73]	; 0x49
    3bec:	f893 204a 	ldrb.w	r2, [r3, #74]	; 0x4a
    3bf0:	4b65      	ldr	r3, [pc, #404]	; (3d88 <usb_isr+0x5fc>)
    3bf2:	701a      	strb	r2, [r3, #0]
    3bf4:	4b60      	ldr	r3, [pc, #384]	; (3d78 <usb_isr+0x5ec>)
    3bf6:	2201      	movs	r2, #1
    3bf8:	701a      	strb	r2, [r3, #0]
    3bfa:	e08e      	b.n	3d1a <usb_isr+0x58e>
    3bfc:	eb05 08c9 	add.w	r8, r5, r9, lsl #3
    3c00:	3c01      	subs	r4, #1
    3c02:	f8d8 3004 	ldr.w	r3, [r8, #4]
    3c06:	f002 0208 	and.w	r2, r2, #8
    3c0a:	f1a3 0008 	sub.w	r0, r3, #8
    3c0e:	b2e4      	uxtb	r4, r4
    3c10:	f002 01ff 	and.w	r1, r2, #255	; 0xff
    3c14:	2a00      	cmp	r2, #0
    3c16:	d048      	beq.n	3caa <usb_isr+0x51e>
    3c18:	f000 f948 	bl	3eac <usb_free>
    3c1c:	4b57      	ldr	r3, [pc, #348]	; (3d7c <usb_isr+0x5f0>)
    3c1e:	eb03 0c84 	add.w	ip, r3, r4, lsl #2
    3c22:	1918      	adds	r0, r3, r4
    3c24:	f8dc 1014 	ldr.w	r1, [ip, #20]
    3c28:	b331      	cbz	r1, 3c78 <usb_isr+0x4ec>
    3c2a:	684a      	ldr	r2, [r1, #4]
    3c2c:	f8cc 2014 	str.w	r2, [ip, #20]
    3c30:	f101 0208 	add.w	r2, r1, #8
    3c34:	f8c8 2004 	str.w	r2, [r8, #4]
    3c38:	f890 2025 	ldrb.w	r2, [r0, #37]	; 0x25
    3c3c:	2a03      	cmp	r2, #3
    3c3e:	d810      	bhi.n	3c62 <usb_isr+0x4d6>
    3c40:	e8df f002 	tbb	[pc, r2]
    3c44:	0b080502 	.word	0x0b080502
    3c48:	441c      	add	r4, r3
    3c4a:	2303      	movs	r3, #3
    3c4c:	e007      	b.n	3c5e <usb_isr+0x4d2>
    3c4e:	441c      	add	r4, r3
    3c50:	2302      	movs	r3, #2
    3c52:	e004      	b.n	3c5e <usb_isr+0x4d2>
    3c54:	441c      	add	r4, r3
    3c56:	2305      	movs	r3, #5
    3c58:	e001      	b.n	3c5e <usb_isr+0x4d2>
    3c5a:	441c      	add	r4, r3
    3c5c:	2304      	movs	r3, #4
    3c5e:	f884 3025 	strb.w	r3, [r4, #37]	; 0x25
    3c62:	880a      	ldrh	r2, [r1, #0]
    3c64:	f018 0f08 	tst.w	r8, #8
    3c68:	bf0c      	ite	eq
    3c6a:	2388      	moveq	r3, #136	; 0x88
    3c6c:	23c8      	movne	r3, #200	; 0xc8
    3c6e:	ea43 4302 	orr.w	r3, r3, r2, lsl #16
    3c72:	f845 3039 	str.w	r3, [r5, r9, lsl #3]
    3c76:	e050      	b.n	3d1a <usb_isr+0x58e>
    3c78:	f890 2025 	ldrb.w	r2, [r0, #37]	; 0x25
    3c7c:	2a03      	cmp	r2, #3
    3c7e:	d80b      	bhi.n	3c98 <usb_isr+0x50c>
    3c80:	e8df f002 	tbb	[pc, r2]
    3c84:	05024b4b 	.word	0x05024b4b
    3c88:	441c      	add	r4, r3
    3c8a:	2300      	movs	r3, #0
    3c8c:	e001      	b.n	3c92 <usb_isr+0x506>
    3c8e:	441c      	add	r4, r3
    3c90:	2301      	movs	r3, #1
    3c92:	f884 3025 	strb.w	r3, [r4, #37]	; 0x25
    3c96:	e040      	b.n	3d1a <usb_isr+0x58e>
    3c98:	f018 0f08 	tst.w	r8, #8
    3c9c:	441c      	add	r4, r3
    3c9e:	bf0c      	ite	eq
    3ca0:	2202      	moveq	r2, #2
    3ca2:	2203      	movne	r2, #3
    3ca4:	f884 2025 	strb.w	r2, [r4, #37]	; 0x25
    3ca8:	e037      	b.n	3d1a <usb_isr+0x58e>
    3caa:	f855 2039 	ldr.w	r2, [r5, r9, lsl #3]
    3cae:	0c12      	lsrs	r2, r2, #16
    3cb0:	f823 2c08 	strh.w	r2, [r3, #-8]
    3cb4:	b342      	cbz	r2, 3d08 <usb_isr+0x57c>
    3cb6:	4e31      	ldr	r6, [pc, #196]	; (3d7c <usb_isr+0x5f0>)
    3cb8:	f823 1c06 	strh.w	r1, [r3, #-6]
    3cbc:	ea4f 0e84 	mov.w	lr, r4, lsl #2
    3cc0:	f843 1c04 	str.w	r1, [r3, #-4]
    3cc4:	eb06 010e 	add.w	r1, r6, lr
    3cc8:	46b4      	mov	ip, r6
    3cca:	684b      	ldr	r3, [r1, #4]
    3ccc:	b90b      	cbnz	r3, 3cd2 <usb_isr+0x546>
    3cce:	6048      	str	r0, [r1, #4]
    3cd0:	e001      	b.n	3cd6 <usb_isr+0x54a>
    3cd2:	6d4b      	ldr	r3, [r1, #84]	; 0x54
    3cd4:	6058      	str	r0, [r3, #4]
    3cd6:	eb0c 030e 	add.w	r3, ip, lr
    3cda:	4e28      	ldr	r6, [pc, #160]	; (3d7c <usb_isr+0x5f0>)
    3cdc:	6558      	str	r0, [r3, #84]	; 0x54
    3cde:	4b2b      	ldr	r3, [pc, #172]	; (3d8c <usb_isr+0x600>)
    3ce0:	f833 1014 	ldrh.w	r1, [r3, r4, lsl #1]
    3ce4:	440a      	add	r2, r1
    3ce6:	f823 2014 	strh.w	r2, [r3, r4, lsl #1]
    3cea:	f000 f8c1 	bl	3e70 <usb_malloc>
    3cee:	b118      	cbz	r0, 3cf8 <usb_isr+0x56c>
    3cf0:	3008      	adds	r0, #8
    3cf2:	f8c8 0004 	str.w	r0, [r8, #4]
    3cf6:	e007      	b.n	3d08 <usb_isr+0x57c>
    3cf8:	f896 3024 	ldrb.w	r3, [r6, #36]	; 0x24
    3cfc:	f845 0039 	str.w	r0, [r5, r9, lsl #3]
    3d00:	3301      	adds	r3, #1
    3d02:	f886 3024 	strb.w	r3, [r6, #36]	; 0x24
    3d06:	e007      	b.n	3d18 <usb_isr+0x58c>
    3d08:	4b1e      	ldr	r3, [pc, #120]	; (3d84 <usb_isr+0x5f8>)
    3d0a:	4a21      	ldr	r2, [pc, #132]	; (3d90 <usb_isr+0x604>)
    3d0c:	f018 0f08 	tst.w	r8, #8
    3d10:	bf08      	it	eq
    3d12:	4613      	moveq	r3, r2
    3d14:	f845 3039 	str.w	r3, [r5, r9, lsl #3]
    3d18:	2601      	movs	r6, #1
    3d1a:	2308      	movs	r3, #8
    3d1c:	703b      	strb	r3, [r7, #0]
    3d1e:	e541      	b.n	37a4 <usb_isr+0x18>
    3d20:	07e0      	lsls	r0, r4, #31
    3d22:	d53f      	bpl.n	3da4 <usb_isr+0x618>
    3d24:	4c15      	ldr	r4, [pc, #84]	; (3d7c <usb_isr+0x5f0>)
    3d26:	4814      	ldr	r0, [pc, #80]	; (3d78 <usb_isr+0x5ec>)
    3d28:	4e19      	ldr	r6, [pc, #100]	; (3d90 <usb_isr+0x604>)
    3d2a:	4621      	mov	r1, r4
    3d2c:	2302      	movs	r3, #2
    3d2e:	7003      	strb	r3, [r0, #0]
    3d30:	f801 2b68 	strb.w	r2, [r1], #104
    3d34:	4b17      	ldr	r3, [pc, #92]	; (3d94 <usb_isr+0x608>)
    3d36:	34a8      	adds	r4, #168	; 0xa8
    3d38:	601e      	str	r6, [r3, #0]
    3d3a:	6059      	str	r1, [r3, #4]
    3d3c:	611a      	str	r2, [r3, #16]
    3d3e:	619a      	str	r2, [r3, #24]
    3d40:	609e      	str	r6, [r3, #8]
    3d42:	60dc      	str	r4, [r3, #12]
    3d44:	4b0b      	ldr	r3, [pc, #44]	; (3d74 <usb_isr+0x5e8>)
    3d46:	210d      	movs	r1, #13
    3d48:	7019      	strb	r1, [r3, #0]
    3d4a:	4913      	ldr	r1, [pc, #76]	; (3d98 <usb_isr+0x60c>)
    3d4c:	23ff      	movs	r3, #255	; 0xff
    3d4e:	700b      	strb	r3, [r1, #0]
    3d50:	702b      	strb	r3, [r5, #0]
    3d52:	740a      	strb	r2, [r1, #16]
    3d54:	4a11      	ldr	r2, [pc, #68]	; (3d9c <usb_isr+0x610>)
    3d56:	7013      	strb	r3, [r2, #0]
    3d58:	4b11      	ldr	r3, [pc, #68]	; (3da0 <usb_isr+0x614>)
    3d5a:	229f      	movs	r2, #159	; 0x9f
    3d5c:	701a      	strb	r2, [r3, #0]
    3d5e:	2301      	movs	r3, #1
    3d60:	7003      	strb	r3, [r0, #0]
    3d62:	e038      	b.n	3dd6 <usb_isr+0x64a>
    3d64:	0000a0d4 	.word	0x0000a0d4
    3d68:	1fff0b7c 	.word	0x1fff0b7c
    3d6c:	1fff10ec 	.word	0x1fff10ec
    3d70:	1fff0f5e 	.word	0x1fff0f5e
    3d74:	400720c0 	.word	0x400720c0
    3d78:	40072094 	.word	0x40072094
    3d7c:	1fff0e68 	.word	0x1fff0e68
    3d80:	1fff10e4 	.word	0x1fff10e4
    3d84:	004000c8 	.word	0x004000c8
    3d88:	40072098 	.word	0x40072098
    3d8c:	1fff10dc 	.word	0x1fff10dc
    3d90:	00400088 	.word	0x00400088
    3d94:	1fff0000 	.word	0x1fff0000
    3d98:	40072088 	.word	0x40072088
    3d9c:	4007208c 	.word	0x4007208c
    3da0:	40072084 	.word	0x40072084
    3da4:	0621      	lsls	r1, r4, #24
    3da6:	d504      	bpl.n	3db2 <usb_isr+0x626>
    3da8:	4b0c      	ldr	r3, [pc, #48]	; (3ddc <usb_isr+0x650>)
    3daa:	220d      	movs	r2, #13
    3dac:	701a      	strb	r2, [r3, #0]
    3dae:	2380      	movs	r3, #128	; 0x80
    3db0:	702b      	strb	r3, [r5, #0]
    3db2:	07a2      	lsls	r2, r4, #30
    3db4:	d505      	bpl.n	3dc2 <usb_isr+0x636>
    3db6:	4b0a      	ldr	r3, [pc, #40]	; (3de0 <usb_isr+0x654>)
    3db8:	781a      	ldrb	r2, [r3, #0]
    3dba:	b2d2      	uxtb	r2, r2
    3dbc:	701a      	strb	r2, [r3, #0]
    3dbe:	2302      	movs	r3, #2
    3dc0:	702b      	strb	r3, [r5, #0]
    3dc2:	06e3      	lsls	r3, r4, #27
    3dc4:	bf44      	itt	mi
    3dc6:	2310      	movmi	r3, #16
    3dc8:	702b      	strbmi	r3, [r5, #0]
    3dca:	b126      	cbz	r6, 3dd6 <usb_isr+0x64a>
    3dcc:	b003      	add	sp, #12
    3dce:	e8bd 4ff0 	ldmia.w	sp!, {r4, r5, r6, r7, r8, r9, sl, fp, lr}
    3dd2:	f7fc bd83 	b.w	8dc <SendData>
    3dd6:	b003      	add	sp, #12
    3dd8:	e8bd 8ff0 	ldmia.w	sp!, {r4, r5, r6, r7, r8, r9, sl, fp, pc}
    3ddc:	400720c0 	.word	0x400720c0
    3de0:	40072088 	.word	0x40072088

00003de4 <usb_init>:
    3de4:	b508      	push	{r3, lr}
    3de6:	f7ff fb99 	bl	351c <usb_init_serialnumber>
    3dea:	2200      	movs	r2, #0
    3dec:	4b1b      	ldr	r3, [pc, #108]	; (3e5c <usb_init+0x78>)
    3dee:	2100      	movs	r1, #0
    3df0:	50d1      	str	r1, [r2, r3]
    3df2:	1898      	adds	r0, r3, r2
    3df4:	3208      	adds	r2, #8
    3df6:	2a88      	cmp	r2, #136	; 0x88
    3df8:	6041      	str	r1, [r0, #4]
    3dfa:	d1f7      	bne.n	3dec <usb_init+0x8>
    3dfc:	4a18      	ldr	r2, [pc, #96]	; (3e60 <usb_init+0x7c>)
    3dfe:	6810      	ldr	r0, [r2, #0]
    3e00:	f440 2080 	orr.w	r0, r0, #262144	; 0x40000
    3e04:	6010      	str	r0, [r2, #0]
    3e06:	4a17      	ldr	r2, [pc, #92]	; (3e64 <usb_init+0x80>)
    3e08:	6810      	ldr	r0, [r2, #0]
    3e0a:	f040 7040 	orr.w	r0, r0, #50331648	; 0x3000000
    3e0e:	6010      	str	r0, [r2, #0]
    3e10:	f502 22c9 	add.w	r2, r2, #411648	; 0x64800
    3e14:	329c      	adds	r2, #156	; 0x9c
    3e16:	f3c3 2007 	ubfx	r0, r3, #8, #8
    3e1a:	7010      	strb	r0, [r2, #0]
    3e1c:	f3c3 4007 	ubfx	r0, r3, #16, #8
    3e20:	0e1b      	lsrs	r3, r3, #24
    3e22:	7510      	strb	r0, [r2, #20]
    3e24:	7613      	strb	r3, [r2, #24]
    3e26:	23ff      	movs	r3, #255	; 0xff
    3e28:	f802 3c1c 	strb.w	r3, [r2, #-28]
    3e2c:	f802 3c14 	strb.w	r3, [r2, #-20]
    3e30:	f802 3c8c 	strb.w	r3, [r2, #-140]
    3e34:	2301      	movs	r3, #1
    3e36:	f802 3c08 	strb.w	r3, [r2, #-8]
    3e3a:	f882 1064 	strb.w	r1, [r2, #100]	; 0x64
    3e3e:	f802 3c18 	strb.w	r3, [r2, #-24]
    3e42:	4b09      	ldr	r3, [pc, #36]	; (3e68 <usb_init+0x84>)
    3e44:	2270      	movs	r2, #112	; 0x70
    3e46:	f46f 714c 	mvn.w	r1, #816	; 0x330
    3e4a:	701a      	strb	r2, [r3, #0]
    3e4c:	440b      	add	r3, r1
    3e4e:	f44f 1200 	mov.w	r2, #2097152	; 0x200000
    3e52:	601a      	str	r2, [r3, #0]
    3e54:	4b05      	ldr	r3, [pc, #20]	; (3e6c <usb_init+0x88>)
    3e56:	2210      	movs	r2, #16
    3e58:	701a      	strb	r2, [r3, #0]
    3e5a:	bd08      	pop	{r3, pc}
    3e5c:	1fff0000 	.word	0x1fff0000
    3e60:	40048034 	.word	0x40048034
    3e64:	4000d800 	.word	0x4000d800
    3e68:	e000e435 	.word	0xe000e435
    3e6c:	40072108 	.word	0x40072108

00003e70 <usb_malloc>:
    3e70:	b672      	cpsid	i
    3e72:	4a0c      	ldr	r2, [pc, #48]	; (3ea4 <usb_malloc+0x34>)
    3e74:	6811      	ldr	r1, [r2, #0]
    3e76:	fab1 f381 	clz	r3, r1
    3e7a:	2b0b      	cmp	r3, #11
    3e7c:	d902      	bls.n	3e84 <usb_malloc+0x14>
    3e7e:	b662      	cpsie	i
    3e80:	2000      	movs	r0, #0
    3e82:	4770      	bx	lr
    3e84:	f04f 4000 	mov.w	r0, #2147483648	; 0x80000000
    3e88:	40d8      	lsrs	r0, r3
    3e8a:	ea21 0100 	bic.w	r1, r1, r0
    3e8e:	6011      	str	r1, [r2, #0]
    3e90:	b662      	cpsie	i
    3e92:	4905      	ldr	r1, [pc, #20]	; (3ea8 <usb_malloc+0x38>)
    3e94:	2248      	movs	r2, #72	; 0x48
    3e96:	4353      	muls	r3, r2
    3e98:	18c8      	adds	r0, r1, r3
    3e9a:	2200      	movs	r2, #0
    3e9c:	50ca      	str	r2, [r1, r3]
    3e9e:	6042      	str	r2, [r0, #4]
    3ea0:	4770      	bx	lr
    3ea2:	bf00      	nop
    3ea4:	1fff0ab0 	.word	0x1fff0ab0
    3ea8:	1fff0400 	.word	0x1fff0400

00003eac <usb_free>:
    3eac:	4b0c      	ldr	r3, [pc, #48]	; (3ee0 <usb_free+0x34>)
    3eae:	2248      	movs	r2, #72	; 0x48
    3eb0:	1ac3      	subs	r3, r0, r3
    3eb2:	fbb3 f3f2 	udiv	r3, r3, r2
    3eb6:	2b0b      	cmp	r3, #11
    3eb8:	d811      	bhi.n	3ede <usb_free+0x32>
    3eba:	4a0a      	ldr	r2, [pc, #40]	; (3ee4 <usb_free+0x38>)
    3ebc:	7812      	ldrb	r2, [r2, #0]
    3ebe:	b122      	cbz	r2, 3eca <usb_free+0x1e>
    3ec0:	4a09      	ldr	r2, [pc, #36]	; (3ee8 <usb_free+0x3c>)
    3ec2:	7812      	ldrb	r2, [r2, #0]
    3ec4:	b10a      	cbz	r2, 3eca <usb_free+0x1e>
    3ec6:	f7ff bbc1 	b.w	364c <usb_rx_memory>
    3eca:	b672      	cpsid	i
    3ecc:	4a07      	ldr	r2, [pc, #28]	; (3eec <usb_free+0x40>)
    3ece:	f04f 4100 	mov.w	r1, #2147483648	; 0x80000000
    3ed2:	fa21 f303 	lsr.w	r3, r1, r3
    3ed6:	6811      	ldr	r1, [r2, #0]
    3ed8:	4319      	orrs	r1, r3
    3eda:	6011      	str	r1, [r2, #0]
    3edc:	b662      	cpsie	i
    3ede:	4770      	bx	lr
    3ee0:	1fff0400 	.word	0x1fff0400
    3ee4:	1fff0e8c 	.word	0x1fff0e8c
    3ee8:	1fff0eac 	.word	0x1fff0eac
    3eec:	1fff0ab0 	.word	0x1fff0ab0

00003ef0 <usb_serial_getchar>:
    3ef0:	b510      	push	{r4, lr}
    3ef2:	4c10      	ldr	r4, [pc, #64]	; (3f34 <usb_serial_getchar+0x44>)
    3ef4:	6823      	ldr	r3, [r4, #0]
    3ef6:	b16b      	cbz	r3, 3f14 <usb_serial_getchar+0x24>
    3ef8:	6820      	ldr	r0, [r4, #0]
    3efa:	8842      	ldrh	r2, [r0, #2]
    3efc:	1c53      	adds	r3, r2, #1
    3efe:	4402      	add	r2, r0
    3f00:	7a14      	ldrb	r4, [r2, #8]
    3f02:	8802      	ldrh	r2, [r0, #0]
    3f04:	4293      	cmp	r3, r2
    3f06:	d312      	bcc.n	3f2e <usb_serial_getchar+0x3e>
    3f08:	f7ff ffd0 	bl	3eac <usb_free>
    3f0c:	4b09      	ldr	r3, [pc, #36]	; (3f34 <usb_serial_getchar+0x44>)
    3f0e:	2200      	movs	r2, #0
    3f10:	601a      	str	r2, [r3, #0]
    3f12:	e00d      	b.n	3f30 <usb_serial_getchar+0x40>
    3f14:	4b08      	ldr	r3, [pc, #32]	; (3f38 <usb_serial_getchar+0x48>)
    3f16:	781b      	ldrb	r3, [r3, #0]
    3f18:	b913      	cbnz	r3, 3f20 <usb_serial_getchar+0x30>
    3f1a:	f04f 30ff 	mov.w	r0, #4294967295
    3f1e:	bd10      	pop	{r4, pc}
    3f20:	2003      	movs	r0, #3
    3f22:	f7ff fb4f 	bl	35c4 <usb_rx>
    3f26:	6020      	str	r0, [r4, #0]
    3f28:	2800      	cmp	r0, #0
    3f2a:	d1e5      	bne.n	3ef8 <usb_serial_getchar+0x8>
    3f2c:	e7f5      	b.n	3f1a <usb_serial_getchar+0x2a>
    3f2e:	8043      	strh	r3, [r0, #2]
    3f30:	4620      	mov	r0, r4
    3f32:	bd10      	pop	{r4, pc}
    3f34:	1fff0f50 	.word	0x1fff0f50
    3f38:	1fff0eac 	.word	0x1fff0eac

00003f3c <usb_serial_peekchar>:
    3f3c:	b510      	push	{r4, lr}
    3f3e:	4c0b      	ldr	r4, [pc, #44]	; (3f6c <usb_serial_peekchar+0x30>)
    3f40:	6823      	ldr	r3, [r4, #0]
    3f42:	b113      	cbz	r3, 3f4a <usb_serial_peekchar+0xe>
    3f44:	6823      	ldr	r3, [r4, #0]
    3f46:	b96b      	cbnz	r3, 3f64 <usb_serial_peekchar+0x28>
    3f48:	e002      	b.n	3f50 <usb_serial_peekchar+0x14>
    3f4a:	4b09      	ldr	r3, [pc, #36]	; (3f70 <usb_serial_peekchar+0x34>)
    3f4c:	781b      	ldrb	r3, [r3, #0]
    3f4e:	b913      	cbnz	r3, 3f56 <usb_serial_peekchar+0x1a>
    3f50:	f04f 30ff 	mov.w	r0, #4294967295
    3f54:	bd10      	pop	{r4, pc}
    3f56:	2003      	movs	r0, #3
    3f58:	f7ff fb34 	bl	35c4 <usb_rx>
    3f5c:	6020      	str	r0, [r4, #0]
    3f5e:	2800      	cmp	r0, #0
    3f60:	d1f0      	bne.n	3f44 <usb_serial_peekchar+0x8>
    3f62:	e7f5      	b.n	3f50 <usb_serial_peekchar+0x14>
    3f64:	885a      	ldrh	r2, [r3, #2]
    3f66:	4413      	add	r3, r2
    3f68:	7a18      	ldrb	r0, [r3, #8]
    3f6a:	bd10      	pop	{r4, pc}
    3f6c:	1fff0f50 	.word	0x1fff0f50
    3f70:	1fff0eac 	.word	0x1fff0eac

00003f74 <usb_serial_available>:
    3f74:	4b04      	ldr	r3, [pc, #16]	; (3f88 <usb_serial_available+0x14>)
    3f76:	8898      	ldrh	r0, [r3, #4]
    3f78:	4b04      	ldr	r3, [pc, #16]	; (3f8c <usb_serial_available+0x18>)
    3f7a:	681b      	ldr	r3, [r3, #0]
    3f7c:	b11b      	cbz	r3, 3f86 <usb_serial_available+0x12>
    3f7e:	881a      	ldrh	r2, [r3, #0]
    3f80:	885b      	ldrh	r3, [r3, #2]
    3f82:	1ad3      	subs	r3, r2, r3
    3f84:	4418      	add	r0, r3
    3f86:	4770      	bx	lr
    3f88:	1fff10dc 	.word	0x1fff10dc
    3f8c:	1fff0f50 	.word	0x1fff0f50

00003f90 <usb_serial_read>:
    3f90:	e92d 41f0 	stmdb	sp!, {r4, r5, r6, r7, r8, lr}
    3f94:	4680      	mov	r8, r0
    3f96:	460e      	mov	r6, r1
    3f98:	2700      	movs	r7, #0
    3f9a:	2e00      	cmp	r6, #0
    3f9c:	d02e      	beq.n	3ffc <usb_serial_read+0x6c>
    3f9e:	4b19      	ldr	r3, [pc, #100]	; (4004 <usb_serial_read+0x74>)
    3fa0:	781b      	ldrb	r3, [r3, #0]
    3fa2:	b35b      	cbz	r3, 3ffc <usb_serial_read+0x6c>
    3fa4:	4c18      	ldr	r4, [pc, #96]	; (4008 <usb_serial_read+0x78>)
    3fa6:	6823      	ldr	r3, [r4, #0]
    3fa8:	4625      	mov	r5, r4
    3faa:	b94b      	cbnz	r3, 3fc0 <usb_serial_read+0x30>
    3fac:	2003      	movs	r0, #3
    3fae:	f7ff fb09 	bl	35c4 <usb_rx>
    3fb2:	6028      	str	r0, [r5, #0]
    3fb4:	b310      	cbz	r0, 3ffc <usb_serial_read+0x6c>
    3fb6:	8803      	ldrh	r3, [r0, #0]
    3fb8:	b913      	cbnz	r3, 3fc0 <usb_serial_read+0x30>
    3fba:	f7ff ff77 	bl	3eac <usb_free>
    3fbe:	e7f5      	b.n	3fac <usb_serial_read+0x1c>
    3fc0:	6824      	ldr	r4, [r4, #0]
    3fc2:	8861      	ldrh	r1, [r4, #2]
    3fc4:	8825      	ldrh	r5, [r4, #0]
    3fc6:	1a6d      	subs	r5, r5, r1
    3fc8:	42ae      	cmp	r6, r5
    3fca:	bf38      	it	cc
    3fcc:	4635      	movcc	r5, r6
    3fce:	3108      	adds	r1, #8
    3fd0:	4640      	mov	r0, r8
    3fd2:	462a      	mov	r2, r5
    3fd4:	4421      	add	r1, r4
    3fd6:	f002 fb8f 	bl	66f8 <memcpy>
    3fda:	8863      	ldrh	r3, [r4, #2]
    3fdc:	44a8      	add	r8, r5
    3fde:	442f      	add	r7, r5
    3fe0:	1b76      	subs	r6, r6, r5
    3fe2:	441d      	add	r5, r3
    3fe4:	8823      	ldrh	r3, [r4, #0]
    3fe6:	b2ad      	uxth	r5, r5
    3fe8:	42ab      	cmp	r3, r5
    3fea:	8065      	strh	r5, [r4, #2]
    3fec:	d8d5      	bhi.n	3f9a <usb_serial_read+0xa>
    3fee:	4620      	mov	r0, r4
    3ff0:	f7ff ff5c 	bl	3eac <usb_free>
    3ff4:	4b04      	ldr	r3, [pc, #16]	; (4008 <usb_serial_read+0x78>)
    3ff6:	2200      	movs	r2, #0
    3ff8:	601a      	str	r2, [r3, #0]
    3ffa:	e7ce      	b.n	3f9a <usb_serial_read+0xa>
    3ffc:	4638      	mov	r0, r7
    3ffe:	e8bd 81f0 	ldmia.w	sp!, {r4, r5, r6, r7, r8, pc}
    4002:	bf00      	nop
    4004:	1fff0eac 	.word	0x1fff0eac
    4008:	1fff0f50 	.word	0x1fff0f50

0000400c <usb_serial_flush_input>:
    400c:	b510      	push	{r4, lr}
    400e:	4b09      	ldr	r3, [pc, #36]	; (4034 <usb_serial_flush_input+0x28>)
    4010:	781b      	ldrb	r3, [r3, #0]
    4012:	b16b      	cbz	r3, 4030 <usb_serial_flush_input+0x24>
    4014:	4c08      	ldr	r4, [pc, #32]	; (4038 <usb_serial_flush_input+0x2c>)
    4016:	6820      	ldr	r0, [r4, #0]
    4018:	b118      	cbz	r0, 4022 <usb_serial_flush_input+0x16>
    401a:	f7ff ff47 	bl	3eac <usb_free>
    401e:	2300      	movs	r3, #0
    4020:	6023      	str	r3, [r4, #0]
    4022:	2003      	movs	r0, #3
    4024:	f7ff face 	bl	35c4 <usb_rx>
    4028:	b110      	cbz	r0, 4030 <usb_serial_flush_input+0x24>
    402a:	f7ff ff3f 	bl	3eac <usb_free>
    402e:	e7f8      	b.n	4022 <usb_serial_flush_input+0x16>
    4030:	bd10      	pop	{r4, pc}
    4032:	bf00      	nop
    4034:	1fff0eac 	.word	0x1fff0eac
    4038:	1fff0f50 	.word	0x1fff0f50

0000403c <usb_serial_write>:
    403c:	e92d 41f0 	stmdb	sp!, {r4, r5, r6, r7, r8, lr}
    4040:	4c2a      	ldr	r4, [pc, #168]	; (40ec <usb_serial_write+0xb0>)
    4042:	2301      	movs	r3, #1
    4044:	4606      	mov	r6, r0
    4046:	4688      	mov	r8, r1
    4048:	7123      	strb	r3, [r4, #4]
    404a:	460d      	mov	r5, r1
    404c:	2d00      	cmp	r5, #0
    404e:	d048      	beq.n	40e2 <usb_serial_write+0xa6>
    4050:	68a3      	ldr	r3, [r4, #8]
    4052:	bb13      	cbnz	r3, 409a <usb_serial_write+0x5e>
    4054:	f24d 07e9 	movw	r7, #53481	; 0xd0e9
    4058:	4b25      	ldr	r3, [pc, #148]	; (40f0 <usb_serial_write+0xb4>)
    405a:	781b      	ldrb	r3, [r3, #0]
    405c:	f003 02ff 	and.w	r2, r3, #255	; 0xff
    4060:	b90b      	cbnz	r3, 4066 <usb_serial_write+0x2a>
    4062:	7122      	strb	r2, [r4, #4]
    4064:	e012      	b.n	408c <usb_serial_write+0x50>
    4066:	2004      	movs	r0, #4
    4068:	f7ff fadc 	bl	3624 <usb_tx_packet_count>
    406c:	2807      	cmp	r0, #7
    406e:	d807      	bhi.n	4080 <usb_serial_write+0x44>
    4070:	2301      	movs	r3, #1
    4072:	7123      	strb	r3, [r4, #4]
    4074:	f7ff fefc 	bl	3e70 <usb_malloc>
    4078:	60a0      	str	r0, [r4, #8]
    407a:	b970      	cbnz	r0, 409a <usb_serial_write+0x5e>
    407c:	4b1b      	ldr	r3, [pc, #108]	; (40ec <usb_serial_write+0xb0>)
    407e:	7118      	strb	r0, [r3, #4]
    4080:	3f01      	subs	r7, #1
    4082:	d001      	beq.n	4088 <usb_serial_write+0x4c>
    4084:	7b23      	ldrb	r3, [r4, #12]
    4086:	b12b      	cbz	r3, 4094 <usb_serial_write+0x58>
    4088:	2301      	movs	r3, #1
    408a:	7323      	strb	r3, [r4, #12]
    408c:	f04f 30ff 	mov.w	r0, #4294967295
    4090:	e8bd 81f0 	ldmia.w	sp!, {r4, r5, r6, r7, r8, pc}
    4094:	f001 fa8c 	bl	55b0 <yield>
    4098:	e7de      	b.n	4058 <usb_serial_write+0x1c>
    409a:	68a3      	ldr	r3, [r4, #8]
    409c:	8859      	ldrh	r1, [r3, #2]
    409e:	f1c1 0740 	rsb	r7, r1, #64	; 0x40
    40a2:	42bd      	cmp	r5, r7
    40a4:	bf38      	it	cc
    40a6:	462f      	movcc	r7, r5
    40a8:	f101 0008 	add.w	r0, r1, #8
    40ac:	2200      	movs	r2, #0
    40ae:	4439      	add	r1, r7
    40b0:	7322      	strb	r2, [r4, #12]
    40b2:	4418      	add	r0, r3
    40b4:	8059      	strh	r1, [r3, #2]
    40b6:	1bed      	subs	r5, r5, r7
    40b8:	42ba      	cmp	r2, r7
    40ba:	d003      	beq.n	40c4 <usb_serial_write+0x88>
    40bc:	5cb1      	ldrb	r1, [r6, r2]
    40be:	5481      	strb	r1, [r0, r2]
    40c0:	3201      	adds	r2, #1
    40c2:	e7f9      	b.n	40b8 <usb_serial_write+0x7c>
    40c4:	4416      	add	r6, r2
    40c6:	885a      	ldrh	r2, [r3, #2]
    40c8:	2a3f      	cmp	r2, #63	; 0x3f
    40ca:	d907      	bls.n	40dc <usb_serial_write+0xa0>
    40cc:	2240      	movs	r2, #64	; 0x40
    40ce:	801a      	strh	r2, [r3, #0]
    40d0:	4619      	mov	r1, r3
    40d2:	2004      	movs	r0, #4
    40d4:	f7ff faf8 	bl	36c8 <usb_tx>
    40d8:	2300      	movs	r3, #0
    40da:	60a3      	str	r3, [r4, #8]
    40dc:	2305      	movs	r3, #5
    40de:	7363      	strb	r3, [r4, #13]
    40e0:	e7b4      	b.n	404c <usb_serial_write+0x10>
    40e2:	7125      	strb	r5, [r4, #4]
    40e4:	4640      	mov	r0, r8
    40e6:	e8bd 81f0 	ldmia.w	sp!, {r4, r5, r6, r7, r8, pc}
    40ea:	bf00      	nop
    40ec:	1fff0f50 	.word	0x1fff0f50
    40f0:	1fff0eac 	.word	0x1fff0eac

000040f4 <usb_serial_putchar>:
    40f4:	b507      	push	{r0, r1, r2, lr}
    40f6:	ab02      	add	r3, sp, #8
    40f8:	2101      	movs	r1, #1
    40fa:	f803 0d01 	strb.w	r0, [r3, #-1]!
    40fe:	4618      	mov	r0, r3
    4100:	f7ff ff9c 	bl	403c <usb_serial_write>
    4104:	b003      	add	sp, #12
    4106:	f85d fb04 	ldr.w	pc, [sp], #4

0000410a <usb_serial_write_buffer_free>:
    410a:	b510      	push	{r4, lr}
    410c:	4c0d      	ldr	r4, [pc, #52]	; (4144 <usb_serial_write_buffer_free+0x3a>)
    410e:	2301      	movs	r3, #1
    4110:	7123      	strb	r3, [r4, #4]
    4112:	68a3      	ldr	r3, [r4, #8]
    4114:	b97b      	cbnz	r3, 4136 <usb_serial_write_buffer_free+0x2c>
    4116:	4b0c      	ldr	r3, [pc, #48]	; (4148 <usb_serial_write_buffer_free+0x3e>)
    4118:	781b      	ldrb	r3, [r3, #0]
    411a:	b913      	cbnz	r3, 4122 <usb_serial_write_buffer_free+0x18>
    411c:	2000      	movs	r0, #0
    411e:	7120      	strb	r0, [r4, #4]
    4120:	bd10      	pop	{r4, pc}
    4122:	2004      	movs	r0, #4
    4124:	f7ff fa7e 	bl	3624 <usb_tx_packet_count>
    4128:	2807      	cmp	r0, #7
    412a:	d8f7      	bhi.n	411c <usb_serial_write_buffer_free+0x12>
    412c:	f7ff fea0 	bl	3e70 <usb_malloc>
    4130:	60a0      	str	r0, [r4, #8]
    4132:	2800      	cmp	r0, #0
    4134:	d0f2      	beq.n	411c <usb_serial_write_buffer_free+0x12>
    4136:	68a3      	ldr	r3, [r4, #8]
    4138:	8858      	ldrh	r0, [r3, #2]
    413a:	2300      	movs	r3, #0
    413c:	7123      	strb	r3, [r4, #4]
    413e:	f1c0 0040 	rsb	r0, r0, #64	; 0x40
    4142:	bd10      	pop	{r4, pc}
    4144:	1fff0f50 	.word	0x1fff0f50
    4148:	1fff0eac 	.word	0x1fff0eac

0000414c <usb_serial_flush_output>:
    414c:	b570      	push	{r4, r5, r6, lr}
    414e:	4b0f      	ldr	r3, [pc, #60]	; (418c <usb_serial_flush_output+0x40>)
    4150:	781b      	ldrb	r3, [r3, #0]
    4152:	b1d3      	cbz	r3, 418a <usb_serial_flush_output+0x3e>
    4154:	4c0e      	ldr	r4, [pc, #56]	; (4190 <usb_serial_flush_output+0x44>)
    4156:	68a5      	ldr	r5, [r4, #8]
    4158:	2601      	movs	r6, #1
    415a:	7126      	strb	r6, [r4, #4]
    415c:	b14d      	cbz	r5, 4172 <usb_serial_flush_output+0x26>
    415e:	2600      	movs	r6, #0
    4160:	886b      	ldrh	r3, [r5, #2]
    4162:	7366      	strb	r6, [r4, #13]
    4164:	2004      	movs	r0, #4
    4166:	802b      	strh	r3, [r5, #0]
    4168:	4629      	mov	r1, r5
    416a:	f7ff faad 	bl	36c8 <usb_tx>
    416e:	60a6      	str	r6, [r4, #8]
    4170:	e009      	b.n	4186 <usb_serial_flush_output+0x3a>
    4172:	f7ff fe7d 	bl	3e70 <usb_malloc>
    4176:	4601      	mov	r1, r0
    4178:	b120      	cbz	r0, 4184 <usb_serial_flush_output+0x38>
    417a:	2004      	movs	r0, #4
    417c:	7365      	strb	r5, [r4, #13]
    417e:	f7ff faa3 	bl	36c8 <usb_tx>
    4182:	e000      	b.n	4186 <usb_serial_flush_output+0x3a>
    4184:	7366      	strb	r6, [r4, #13]
    4186:	2300      	movs	r3, #0
    4188:	7123      	strb	r3, [r4, #4]
    418a:	bd70      	pop	{r4, r5, r6, pc}
    418c:	1fff0eac 	.word	0x1fff0eac
    4190:	1fff0f50 	.word	0x1fff0f50

00004194 <usb_serial_flush_callback>:
    4194:	b538      	push	{r3, r4, r5, lr}
    4196:	4c0d      	ldr	r4, [pc, #52]	; (41cc <usb_serial_flush_callback+0x38>)
    4198:	7923      	ldrb	r3, [r4, #4]
    419a:	f003 05ff 	and.w	r5, r3, #255	; 0xff
    419e:	b99b      	cbnz	r3, 41c8 <usb_serial_flush_callback+0x34>
    41a0:	68a1      	ldr	r1, [r4, #8]
    41a2:	b131      	cbz	r1, 41b2 <usb_serial_flush_callback+0x1e>
    41a4:	884b      	ldrh	r3, [r1, #2]
    41a6:	800b      	strh	r3, [r1, #0]
    41a8:	2004      	movs	r0, #4
    41aa:	f7ff fa8d 	bl	36c8 <usb_tx>
    41ae:	60a5      	str	r5, [r4, #8]
    41b0:	bd38      	pop	{r3, r4, r5, pc}
    41b2:	f7ff fe5d 	bl	3e70 <usb_malloc>
    41b6:	4601      	mov	r1, r0
    41b8:	b120      	cbz	r0, 41c4 <usb_serial_flush_callback+0x30>
    41ba:	2004      	movs	r0, #4
    41bc:	e8bd 4038 	ldmia.w	sp!, {r3, r4, r5, lr}
    41c0:	f7ff ba82 	b.w	36c8 <usb_tx>
    41c4:	2301      	movs	r3, #1
    41c6:	7363      	strb	r3, [r4, #13]
    41c8:	bd38      	pop	{r3, r4, r5, pc}
    41ca:	bf00      	nop
    41cc:	1fff0f50 	.word	0x1fff0f50

000041d0 <_ZN5Print5writeEPKc>:
    41d0:	b538      	push	{r3, r4, r5, lr}
    41d2:	4604      	mov	r4, r0
    41d4:	4608      	mov	r0, r1
    41d6:	460d      	mov	r5, r1
    41d8:	f002 fb8b 	bl	68f2 <strlen>
    41dc:	6823      	ldr	r3, [r4, #0]
    41de:	4602      	mov	r2, r0
    41e0:	685b      	ldr	r3, [r3, #4]
    41e2:	4620      	mov	r0, r4
    41e4:	4629      	mov	r1, r5
    41e6:	4798      	blx	r3
    41e8:	bd38      	pop	{r3, r4, r5, pc}

000041ea <_Z12serialEvent1v>:
    41ea:	4770      	bx	lr

000041ec <_ZN14HardwareSerial5writeEm>:
    41ec:	b508      	push	{r3, lr}
    41ee:	6803      	ldr	r3, [r0, #0]
    41f0:	b2c9      	uxtb	r1, r1
    41f2:	681b      	ldr	r3, [r3, #0]
    41f4:	4798      	blx	r3
    41f6:	bd08      	pop	{r3, pc}

000041f8 <_ZN14HardwareSerial5writeEl>:
    41f8:	b508      	push	{r3, lr}
    41fa:	6803      	ldr	r3, [r0, #0]
    41fc:	b2c9      	uxtb	r1, r1
    41fe:	681b      	ldr	r3, [r3, #0]
    4200:	4798      	blx	r3
    4202:	bd08      	pop	{r3, pc}

00004204 <_ZN14HardwareSerial5writeEj>:
    4204:	b508      	push	{r3, lr}
    4206:	6803      	ldr	r3, [r0, #0]
    4208:	b2c9      	uxtb	r1, r1
    420a:	681b      	ldr	r3, [r3, #0]
    420c:	4798      	blx	r3
    420e:	bd08      	pop	{r3, pc}

00004210 <_ZN14HardwareSerial5writeEi>:
    4210:	b508      	push	{r3, lr}
    4212:	6803      	ldr	r3, [r0, #0]
    4214:	b2c9      	uxtb	r1, r1
    4216:	681b      	ldr	r3, [r3, #0]
    4218:	4798      	blx	r3
    421a:	bd08      	pop	{r3, pc}

0000421c <_ZN14HardwareSerial5beginEm>:
    421c:	4803      	ldr	r0, [pc, #12]	; (422c <_ZN14HardwareSerial5beginEm+0x10>)
    421e:	eb00 0051 	add.w	r0, r0, r1, lsr #1
    4222:	fbb0 f0f1 	udiv	r0, r0, r1
    4226:	f7fd b9eb 	b.w	1600 <serial_begin>
    422a:	bf00      	nop
    422c:	0e4e1c00 	.word	0x0e4e1c00

00004230 <_ZN14HardwareSerial5beginEmm>:
    4230:	b510      	push	{r4, lr}
    4232:	4806      	ldr	r0, [pc, #24]	; (424c <_ZN14HardwareSerial5beginEmm+0x1c>)
    4234:	eb00 0051 	add.w	r0, r0, r1, lsr #1
    4238:	4614      	mov	r4, r2
    423a:	fbb0 f0f1 	udiv	r0, r0, r1
    423e:	f7fd f9df 	bl	1600 <serial_begin>
    4242:	4620      	mov	r0, r4
    4244:	e8bd 4010 	ldmia.w	sp!, {r4, lr}
    4248:	f7fd ba3e 	b.w	16c8 <serial_format>
    424c:	0e4e1c00 	.word	0x0e4e1c00

00004250 <_ZN14HardwareSerial3endEv>:
    4250:	f7fd ba70 	b.w	1734 <serial_end>

00004254 <_ZN14HardwareSerial17transmitterEnableEh>:
    4254:	4608      	mov	r0, r1
    4256:	f7fd ba97 	b.w	1788 <serial_set_transmit_pin>

0000425a <_ZN14HardwareSerial5setRXEh>:
    425a:	4608      	mov	r0, r1
    425c:	f7fd baf0 	b.w	1840 <serial_set_rx>

00004260 <_ZN14HardwareSerial5setTXEhb>:
    4260:	4608      	mov	r0, r1
    4262:	4611      	mov	r1, r2
    4264:	f7fd baaa 	b.w	17bc <serial_set_tx>

00004268 <_ZN14HardwareSerial9attachRtsEh>:
    4268:	b508      	push	{r3, lr}
    426a:	4608      	mov	r0, r1
    426c:	f7fd fb1c 	bl	18a8 <serial_set_rts>
    4270:	3000      	adds	r0, #0
    4272:	bf18      	it	ne
    4274:	2001      	movne	r0, #1
    4276:	bd08      	pop	{r3, pc}

00004278 <_ZN14HardwareSerial9attachCtsEh>:
    4278:	b508      	push	{r3, lr}
    427a:	4608      	mov	r0, r1
    427c:	f7fd fb36 	bl	18ec <serial_set_cts>
    4280:	3000      	adds	r0, #0
    4282:	bf18      	it	ne
    4284:	2001      	movne	r0, #1
    4286:	bd08      	pop	{r3, pc}

00004288 <_ZN14HardwareSerial9availableEv>:
    4288:	f7fd bc04 	b.w	1a94 <serial_available>

0000428c <_ZN14HardwareSerial4peekEv>:
    428c:	f7fd bc30 	b.w	1af0 <serial_peek>

00004290 <_ZN14HardwareSerial4readEv>:
    4290:	f7fd bc0c 	b.w	1aac <serial_getchar>

00004294 <_ZN14HardwareSerial5flushEv>:
    4294:	f7fd bbe6 	b.w	1a64 <serial_flush>

00004298 <_ZN14HardwareSerial5clearEv>:
    4298:	f7fd bc3e 	b.w	1b18 <serial_clear>

0000429c <_ZN14HardwareSerial17availableForWriteEv>:
    429c:	f7fd bbec 	b.w	1a78 <serial_write_buffer_free>

000042a0 <_ZN14HardwareSerial5writeEh>:
    42a0:	b508      	push	{r3, lr}
    42a2:	4608      	mov	r0, r1
    42a4:	f7fd fb48 	bl	1938 <serial_putchar>
    42a8:	2001      	movs	r0, #1
    42aa:	bd08      	pop	{r3, pc}

000042ac <_ZN14HardwareSerial9write9bitEm>:
    42ac:	b508      	push	{r3, lr}
    42ae:	4608      	mov	r0, r1
    42b0:	f7fd fb42 	bl	1938 <serial_putchar>
    42b4:	2001      	movs	r0, #1
    42b6:	bd08      	pop	{r3, pc}

000042b8 <_ZN14HardwareSerial5writeEPKhj>:
    42b8:	b510      	push	{r4, lr}
    42ba:	4608      	mov	r0, r1
    42bc:	4614      	mov	r4, r2
    42be:	4611      	mov	r1, r2
    42c0:	f7fd fb80 	bl	19c4 <serial_write>
    42c4:	4620      	mov	r0, r4
    42c6:	bd10      	pop	{r4, pc}

000042c8 <_ZN14HardwareSerial5writeEPKc>:
    42c8:	b538      	push	{r3, r4, r5, lr}
    42ca:	4608      	mov	r0, r1
    42cc:	460d      	mov	r5, r1
    42ce:	f002 fb10 	bl	68f2 <strlen>
    42d2:	4604      	mov	r4, r0
    42d4:	4621      	mov	r1, r4
    42d6:	4628      	mov	r0, r5
    42d8:	f7fd fb74 	bl	19c4 <serial_write>
    42dc:	4620      	mov	r0, r4
    42de:	bd38      	pop	{r3, r4, r5, pc}

000042e0 <_GLOBAL__sub_I_Serial1>:
    42e0:	4b04      	ldr	r3, [pc, #16]	; (42f4 <_GLOBAL__sub_I_Serial1+0x14>)
    42e2:	2200      	movs	r2, #0
    42e4:	711a      	strb	r2, [r3, #4]
    42e6:	f44f 717a 	mov.w	r1, #1000	; 0x3e8
    42ea:	731a      	strb	r2, [r3, #12]
    42ec:	4a02      	ldr	r2, [pc, #8]	; (42f8 <_GLOBAL__sub_I_Serial1+0x18>)
    42ee:	6099      	str	r1, [r3, #8]
    42f0:	601a      	str	r2, [r3, #0]
    42f2:	4770      	bx	lr
    42f4:	1fff0f60 	.word	0x1fff0f60
    42f8:	0000a128 	.word	0x0000a128

000042fc <_Z12serialEvent2v>:
    42fc:	4770      	bx	lr

000042fe <_ZN15HardwareSerial25writeEm>:
    42fe:	b508      	push	{r3, lr}
    4300:	6803      	ldr	r3, [r0, #0]
    4302:	b2c9      	uxtb	r1, r1
    4304:	681b      	ldr	r3, [r3, #0]
    4306:	4798      	blx	r3
    4308:	bd08      	pop	{r3, pc}

0000430a <_ZN15HardwareSerial25writeEl>:
    430a:	b508      	push	{r3, lr}
    430c:	6803      	ldr	r3, [r0, #0]
    430e:	b2c9      	uxtb	r1, r1
    4310:	681b      	ldr	r3, [r3, #0]
    4312:	4798      	blx	r3
    4314:	bd08      	pop	{r3, pc}

00004316 <_ZN15HardwareSerial25writeEj>:
    4316:	b508      	push	{r3, lr}
    4318:	6803      	ldr	r3, [r0, #0]
    431a:	b2c9      	uxtb	r1, r1
    431c:	681b      	ldr	r3, [r3, #0]
    431e:	4798      	blx	r3
    4320:	bd08      	pop	{r3, pc}

00004322 <_ZN15HardwareSerial25writeEi>:
    4322:	b508      	push	{r3, lr}
    4324:	6803      	ldr	r3, [r0, #0]
    4326:	b2c9      	uxtb	r1, r1
    4328:	681b      	ldr	r3, [r3, #0]
    432a:	4798      	blx	r3
    432c:	bd08      	pop	{r3, pc}
    432e:	ffff 4803 	vtbl.8	d20, {d15}, d3

00004330 <_ZN15HardwareSerial25beginEm>:
    4330:	4803      	ldr	r0, [pc, #12]	; (4340 <_ZN15HardwareSerial25beginEm+0x10>)
    4332:	eb00 0051 	add.w	r0, r0, r1, lsr #1
    4336:	fbb0 f0f1 	udiv	r0, r0, r1
    433a:	f7fd bcaf 	b.w	1c9c <serial2_begin>
    433e:	bf00      	nop
    4340:	0e4e1c00 	.word	0x0e4e1c00

00004344 <_ZN15HardwareSerial25beginEmm>:
    4344:	b510      	push	{r4, lr}
    4346:	4806      	ldr	r0, [pc, #24]	; (4360 <_ZN15HardwareSerial25beginEmm+0x1c>)
    4348:	eb00 0051 	add.w	r0, r0, r1, lsr #1
    434c:	4614      	mov	r4, r2
    434e:	fbb0 f0f1 	udiv	r0, r0, r1
    4352:	f7fd fca3 	bl	1c9c <serial2_begin>
    4356:	4620      	mov	r0, r4
    4358:	e8bd 4010 	ldmia.w	sp!, {r4, lr}
    435c:	f7fd bcf2 	b.w	1d44 <serial2_format>
    4360:	0e4e1c00 	.word	0x0e4e1c00

00004364 <_ZN15HardwareSerial23endEv>:
    4364:	f7fd bd24 	b.w	1db0 <serial2_end>

00004368 <_ZN15HardwareSerial217transmitterEnableEh>:
    4368:	4608      	mov	r0, r1
    436a:	f7fd bd69 	b.w	1e40 <serial2_set_transmit_pin>

0000436e <_ZN15HardwareSerial25setRXEh>:
    436e:	4608      	mov	r0, r1
    4370:	f7fd bdb6 	b.w	1ee0 <serial2_set_rx>

00004374 <_ZN15HardwareSerial25setTXEhb>:
    4374:	4608      	mov	r0, r1
    4376:	4611      	mov	r1, r2
    4378:	f7fd bd7c 	b.w	1e74 <serial2_set_tx>

0000437c <_ZN15HardwareSerial29attachRtsEh>:
    437c:	b508      	push	{r3, lr}
    437e:	4608      	mov	r0, r1
    4380:	f7fd fdd6 	bl	1f30 <serial2_set_rts>
    4384:	3000      	adds	r0, #0
    4386:	bf18      	it	ne
    4388:	2001      	movne	r0, #1
    438a:	bd08      	pop	{r3, pc}

0000438c <_ZN15HardwareSerial29attachCtsEh>:
    438c:	b508      	push	{r3, lr}
    438e:	4608      	mov	r0, r1
    4390:	f7fd fdf0 	bl	1f74 <serial2_set_cts>
    4394:	3000      	adds	r0, #0
    4396:	bf18      	it	ne
    4398:	2001      	movne	r0, #1
    439a:	bd08      	pop	{r3, pc}

0000439c <_ZN15HardwareSerial29availableEv>:
    439c:	f7fd beb6 	b.w	210c <serial2_available>

000043a0 <_ZN15HardwareSerial24peekEv>:
    43a0:	f7fd bee2 	b.w	2168 <serial2_peek>

000043a4 <_ZN15HardwareSerial24readEv>:
    43a4:	f7fd bebe 	b.w	2124 <serial2_getchar>

000043a8 <_ZN15HardwareSerial25flushEv>:
    43a8:	f7fd be98 	b.w	20dc <serial2_flush>

000043ac <_ZN15HardwareSerial25clearEv>:
    43ac:	f7fd bef0 	b.w	2190 <serial2_clear>

000043b0 <_ZN15HardwareSerial217availableForWriteEv>:
    43b0:	f7fd be9e 	b.w	20f0 <serial2_write_buffer_free>

000043b4 <_ZN15HardwareSerial25writeEh>:
    43b4:	b508      	push	{r3, lr}
    43b6:	4608      	mov	r0, r1
    43b8:	f7fd fe02 	bl	1fc0 <serial2_putchar>
    43bc:	2001      	movs	r0, #1
    43be:	bd08      	pop	{r3, pc}

000043c0 <_ZN15HardwareSerial29write9bitEm>:
    43c0:	b508      	push	{r3, lr}
    43c2:	4608      	mov	r0, r1
    43c4:	f7fd fdfc 	bl	1fc0 <serial2_putchar>
    43c8:	2001      	movs	r0, #1
    43ca:	bd08      	pop	{r3, pc}

000043cc <_ZN15HardwareSerial25writeEPKhj>:
    43cc:	b510      	push	{r4, lr}
    43ce:	4608      	mov	r0, r1
    43d0:	4614      	mov	r4, r2
    43d2:	4611      	mov	r1, r2
    43d4:	f7fd fe32 	bl	203c <serial2_write>
    43d8:	4620      	mov	r0, r4
    43da:	bd10      	pop	{r4, pc}

000043dc <_ZN15HardwareSerial25writeEPKc>:
    43dc:	b538      	push	{r3, r4, r5, lr}
    43de:	4608      	mov	r0, r1
    43e0:	460d      	mov	r5, r1
    43e2:	f002 fa86 	bl	68f2 <strlen>
    43e6:	4604      	mov	r4, r0
    43e8:	4621      	mov	r1, r4
    43ea:	4628      	mov	r0, r5
    43ec:	f7fd fe26 	bl	203c <serial2_write>
    43f0:	4620      	mov	r0, r4
    43f2:	bd38      	pop	{r3, r4, r5, pc}

000043f4 <_GLOBAL__sub_I_Serial2>:
    43f4:	4b04      	ldr	r3, [pc, #16]	; (4408 <_GLOBAL__sub_I_Serial2+0x14>)
    43f6:	2200      	movs	r2, #0
    43f8:	711a      	strb	r2, [r3, #4]
    43fa:	f44f 717a 	mov.w	r1, #1000	; 0x3e8
    43fe:	731a      	strb	r2, [r3, #12]
    4400:	4a02      	ldr	r2, [pc, #8]	; (440c <_GLOBAL__sub_I_Serial2+0x18>)
    4402:	6099      	str	r1, [r3, #8]
    4404:	601a      	str	r2, [r3, #0]
    4406:	4770      	bx	lr
    4408:	1fff0f70 	.word	0x1fff0f70
    440c:	0000a188 	.word	0x0000a188

00004410 <_Z12serialEvent3v>:
    4410:	4770      	bx	lr

00004412 <_ZN15HardwareSerial35writeEm>:
    4412:	b508      	push	{r3, lr}
    4414:	6803      	ldr	r3, [r0, #0]
    4416:	b2c9      	uxtb	r1, r1
    4418:	681b      	ldr	r3, [r3, #0]
    441a:	4798      	blx	r3
    441c:	bd08      	pop	{r3, pc}

0000441e <_ZN15HardwareSerial35writeEl>:
    441e:	b508      	push	{r3, lr}
    4420:	6803      	ldr	r3, [r0, #0]
    4422:	b2c9      	uxtb	r1, r1
    4424:	681b      	ldr	r3, [r3, #0]
    4426:	4798      	blx	r3
    4428:	bd08      	pop	{r3, pc}

0000442a <_ZN15HardwareSerial35writeEj>:
    442a:	b508      	push	{r3, lr}
    442c:	6803      	ldr	r3, [r0, #0]
    442e:	b2c9      	uxtb	r1, r1
    4430:	681b      	ldr	r3, [r3, #0]
    4432:	4798      	blx	r3
    4434:	bd08      	pop	{r3, pc}

00004436 <_ZN15HardwareSerial35writeEi>:
    4436:	b508      	push	{r3, lr}
    4438:	6803      	ldr	r3, [r0, #0]
    443a:	b2c9      	uxtb	r1, r1
    443c:	681b      	ldr	r3, [r3, #0]
    443e:	4798      	blx	r3
    4440:	bd08      	pop	{r3, pc}
    4442:	ffff 4803 	vtbl.8	d20, {d15}, d3

00004444 <_ZN15HardwareSerial35beginEm>:
    4444:	4803      	ldr	r0, [pc, #12]	; (4454 <_ZN15HardwareSerial35beginEm+0x10>)
    4446:	eb00 0051 	add.w	r0, r0, r1, lsr #1
    444a:	fbb0 f0f1 	udiv	r0, r0, r1
    444e:	f7fd bf2d 	b.w	22ac <serial3_begin>
    4452:	bf00      	nop
    4454:	07270e00 	.word	0x07270e00

00004458 <_ZN15HardwareSerial35beginEmm>:
    4458:	b510      	push	{r4, lr}
    445a:	4806      	ldr	r0, [pc, #24]	; (4474 <_ZN15HardwareSerial35beginEmm+0x1c>)
    445c:	eb00 0051 	add.w	r0, r0, r1, lsr #1
    4460:	4614      	mov	r4, r2
    4462:	fbb0 f0f1 	udiv	r0, r0, r1
    4466:	f7fd ff21 	bl	22ac <serial3_begin>
    446a:	4620      	mov	r0, r4
    446c:	e8bd 4010 	ldmia.w	sp!, {r4, lr}
    4470:	f7fd bf50 	b.w	2314 <serial3_format>
    4474:	07270e00 	.word	0x07270e00

00004478 <_ZN15HardwareSerial33endEv>:
    4478:	f7fd bf82 	b.w	2380 <serial3_end>

0000447c <_ZN15HardwareSerial317transmitterEnableEh>:
    447c:	4608      	mov	r0, r1
    447e:	f7fd bfa9 	b.w	23d4 <serial3_set_transmit_pin>

00004482 <_ZN15HardwareSerial35setRXEh>:
    4482:	4608      	mov	r0, r1
    4484:	f7fd bfe8 	b.w	2458 <serial3_set_rx>

00004488 <_ZN15HardwareSerial35setTXEhb>:
    4488:	4608      	mov	r0, r1
    448a:	4611      	mov	r1, r2
    448c:	f7fd bfbc 	b.w	2408 <serial3_set_tx>

00004490 <_ZN15HardwareSerial39attachRtsEh>:
    4490:	b508      	push	{r3, lr}
    4492:	4608      	mov	r0, r1
    4494:	f7fd ffe1 	bl	245a <serial3_set_rts>
    4498:	3000      	adds	r0, #0
    449a:	bf18      	it	ne
    449c:	2001      	movne	r0, #1
    449e:	bd08      	pop	{r3, pc}

000044a0 <_ZN15HardwareSerial39attachCtsEh>:
    44a0:	b508      	push	{r3, lr}
    44a2:	4608      	mov	r0, r1
    44a4:	f7fd fffa 	bl	249c <serial3_set_cts>
    44a8:	3000      	adds	r0, #0
    44aa:	bf18      	it	ne
    44ac:	2001      	movne	r0, #1
    44ae:	bd08      	pop	{r3, pc}

000044b0 <_ZN15HardwareSerial39availableEv>:
    44b0:	f7fe b874 	b.w	259c <serial3_available>

000044b4 <_ZN15HardwareSerial34peekEv>:
    44b4:	f7fe b8a0 	b.w	25f8 <serial3_peek>

000044b8 <_ZN15HardwareSerial34readEv>:
    44b8:	f7fe b87c 	b.w	25b4 <serial3_getchar>

000044bc <_ZN15HardwareSerial35flushEv>:
    44bc:	f7fe b855 	b.w	256a <serial3_flush>

000044c0 <_ZN15HardwareSerial35clearEv>:
    44c0:	f7fe b8ae 	b.w	2620 <serial3_clear>

000044c4 <_ZN15HardwareSerial317availableForWriteEv>:
    44c4:	f7fe b85c 	b.w	2580 <serial3_write_buffer_free>

000044c8 <_ZN15HardwareSerial35writeEh>:
    44c8:	b508      	push	{r3, lr}
    44ca:	4608      	mov	r0, r1
    44cc:	f7fe f804 	bl	24d8 <serial3_putchar>
    44d0:	2001      	movs	r0, #1
    44d2:	bd08      	pop	{r3, pc}

000044d4 <_ZN15HardwareSerial39write9bitEm>:
    44d4:	b508      	push	{r3, lr}
    44d6:	4608      	mov	r0, r1
    44d8:	f7fd fffe 	bl	24d8 <serial3_putchar>
    44dc:	2001      	movs	r0, #1
    44de:	bd08      	pop	{r3, pc}

000044e0 <_ZN15HardwareSerial35writeEPKhj>:
    44e0:	b510      	push	{r4, lr}
    44e2:	4608      	mov	r0, r1
    44e4:	4614      	mov	r4, r2
    44e6:	4611      	mov	r1, r2
    44e8:	f7fe f834 	bl	2554 <serial3_write>
    44ec:	4620      	mov	r0, r4
    44ee:	bd10      	pop	{r4, pc}

000044f0 <_ZN15HardwareSerial35writeEPKc>:
    44f0:	b538      	push	{r3, r4, r5, lr}
    44f2:	4608      	mov	r0, r1
    44f4:	460d      	mov	r5, r1
    44f6:	f002 f9fc 	bl	68f2 <strlen>
    44fa:	4604      	mov	r4, r0
    44fc:	4621      	mov	r1, r4
    44fe:	4628      	mov	r0, r5
    4500:	f7fe f828 	bl	2554 <serial3_write>
    4504:	4620      	mov	r0, r4
    4506:	bd38      	pop	{r3, r4, r5, pc}

00004508 <_GLOBAL__sub_I_Serial3>:
    4508:	4b04      	ldr	r3, [pc, #16]	; (451c <_GLOBAL__sub_I_Serial3+0x14>)
    450a:	2200      	movs	r2, #0
    450c:	711a      	strb	r2, [r3, #4]
    450e:	f44f 717a 	mov.w	r1, #1000	; 0x3e8
    4512:	731a      	strb	r2, [r3, #12]
    4514:	4a02      	ldr	r2, [pc, #8]	; (4520 <_GLOBAL__sub_I_Serial3+0x18>)
    4516:	6099      	str	r1, [r3, #8]
    4518:	601a      	str	r2, [r3, #0]
    451a:	4770      	bx	lr
    451c:	1fff0f80 	.word	0x1fff0f80
    4520:	0000a1e8 	.word	0x0000a1e8

00004524 <_Z12serialEvent4v>:
    4524:	4770      	bx	lr

00004526 <_ZN15HardwareSerial45writeEm>:
    4526:	b508      	push	{r3, lr}
    4528:	6803      	ldr	r3, [r0, #0]
    452a:	b2c9      	uxtb	r1, r1
    452c:	681b      	ldr	r3, [r3, #0]
    452e:	4798      	blx	r3
    4530:	bd08      	pop	{r3, pc}

00004532 <_ZN15HardwareSerial45writeEl>:
    4532:	b508      	push	{r3, lr}
    4534:	6803      	ldr	r3, [r0, #0]
    4536:	b2c9      	uxtb	r1, r1
    4538:	681b      	ldr	r3, [r3, #0]
    453a:	4798      	blx	r3
    453c:	bd08      	pop	{r3, pc}

0000453e <_ZN15HardwareSerial45writeEj>:
    453e:	b508      	push	{r3, lr}
    4540:	6803      	ldr	r3, [r0, #0]
    4542:	b2c9      	uxtb	r1, r1
    4544:	681b      	ldr	r3, [r3, #0]
    4546:	4798      	blx	r3
    4548:	bd08      	pop	{r3, pc}

0000454a <_ZN15HardwareSerial45writeEi>:
    454a:	b508      	push	{r3, lr}
    454c:	6803      	ldr	r3, [r0, #0]
    454e:	b2c9      	uxtb	r1, r1
    4550:	681b      	ldr	r3, [r3, #0]
    4552:	4798      	blx	r3
    4554:	bd08      	pop	{r3, pc}
    4556:	ffff 4803 	vtbl.8	d20, {d15}, d3

00004558 <_ZN15HardwareSerial45beginEm>:
    4558:	4803      	ldr	r0, [pc, #12]	; (4568 <_ZN15HardwareSerial45beginEm+0x10>)
    455a:	eb00 0051 	add.w	r0, r0, r1, lsr #1
    455e:	fbb0 f0f1 	udiv	r0, r0, r1
    4562:	f7fe b8bf 	b.w	26e4 <serial4_begin>
    4566:	bf00      	nop
    4568:	07270e00 	.word	0x07270e00

0000456c <_ZN15HardwareSerial45beginEmm>:
    456c:	b510      	push	{r4, lr}
    456e:	4806      	ldr	r0, [pc, #24]	; (4588 <_ZN15HardwareSerial45beginEmm+0x1c>)
    4570:	eb00 0051 	add.w	r0, r0, r1, lsr #1
    4574:	4614      	mov	r4, r2
    4576:	fbb0 f0f1 	udiv	r0, r0, r1
    457a:	f7fe f8b3 	bl	26e4 <serial4_begin>
    457e:	4620      	mov	r0, r4
    4580:	e8bd 4010 	ldmia.w	sp!, {r4, lr}
    4584:	f7fe b900 	b.w	2788 <serial4_format>
    4588:	07270e00 	.word	0x07270e00

0000458c <_ZN15HardwareSerial43endEv>:
    458c:	f7fe b932 	b.w	27f4 <serial4_end>

00004590 <_ZN15HardwareSerial417transmitterEnableEh>:
    4590:	4608      	mov	r0, r1
    4592:	f7fe b97b 	b.w	288c <serial4_set_transmit_pin>

00004596 <_ZN15HardwareSerial45setRXEh>:
    4596:	4608      	mov	r0, r1
    4598:	f7fe b9c8 	b.w	292c <serial4_set_rx>

0000459c <_ZN15HardwareSerial45setTXEhb>:
    459c:	4608      	mov	r0, r1
    459e:	4611      	mov	r1, r2
    45a0:	f7fe b98e 	b.w	28c0 <serial4_set_tx>

000045a4 <_ZN15HardwareSerial49attachRtsEh>:
    45a4:	b508      	push	{r3, lr}
    45a6:	4608      	mov	r0, r1
    45a8:	f7fe f9e8 	bl	297c <serial4_set_rts>
    45ac:	3000      	adds	r0, #0
    45ae:	bf18      	it	ne
    45b0:	2001      	movne	r0, #1
    45b2:	bd08      	pop	{r3, pc}

000045b4 <_ZN15HardwareSerial49attachCtsEh>:
    45b4:	b508      	push	{r3, lr}
    45b6:	4608      	mov	r0, r1
    45b8:	f7fe fa02 	bl	29c0 <serial4_set_cts>
    45bc:	3000      	adds	r0, #0
    45be:	bf18      	it	ne
    45c0:	2001      	movne	r0, #1
    45c2:	bd08      	pop	{r3, pc}

000045c4 <_ZN15HardwareSerial49availableEv>:
    45c4:	f7fe ba60 	b.w	2a88 <serial4_available>

000045c8 <_ZN15HardwareSerial44peekEv>:
    45c8:	f7fe ba8c 	b.w	2ae4 <serial4_peek>

000045cc <_ZN15HardwareSerial44readEv>:
    45cc:	f7fe ba68 	b.w	2aa0 <serial4_getchar>

000045d0 <_ZN15HardwareSerial45flushEv>:
    45d0:	f7fe ba41 	b.w	2a56 <serial4_flush>

000045d4 <_ZN15HardwareSerial45clearEv>:
    45d4:	f7fe ba9a 	b.w	2b0c <serial4_clear>

000045d8 <_ZN15HardwareSerial417availableForWriteEv>:
    45d8:	f7fe ba48 	b.w	2a6c <serial4_write_buffer_free>

000045dc <_ZN15HardwareSerial45writeEh>:
    45dc:	b508      	push	{r3, lr}
    45de:	4608      	mov	r0, r1
    45e0:	f7fe f9f0 	bl	29c4 <serial4_putchar>
    45e4:	2001      	movs	r0, #1
    45e6:	bd08      	pop	{r3, pc}

000045e8 <_ZN15HardwareSerial49write9bitEm>:
    45e8:	b508      	push	{r3, lr}
    45ea:	4608      	mov	r0, r1
    45ec:	f7fe f9ea 	bl	29c4 <serial4_putchar>
    45f0:	2001      	movs	r0, #1
    45f2:	bd08      	pop	{r3, pc}

000045f4 <_ZN15HardwareSerial45writeEPKhj>:
    45f4:	b510      	push	{r4, lr}
    45f6:	4608      	mov	r0, r1
    45f8:	4614      	mov	r4, r2
    45fa:	4611      	mov	r1, r2
    45fc:	f7fe fa20 	bl	2a40 <serial4_write>
    4600:	4620      	mov	r0, r4
    4602:	bd10      	pop	{r4, pc}

00004604 <_ZN15HardwareSerial45writeEPKc>:
    4604:	b538      	push	{r3, r4, r5, lr}
    4606:	4608      	mov	r0, r1
    4608:	460d      	mov	r5, r1
    460a:	f002 f972 	bl	68f2 <strlen>
    460e:	4604      	mov	r4, r0
    4610:	4621      	mov	r1, r4
    4612:	4628      	mov	r0, r5
    4614:	f7fe fa14 	bl	2a40 <serial4_write>
    4618:	4620      	mov	r0, r4
    461a:	bd38      	pop	{r3, r4, r5, pc}

0000461c <_GLOBAL__sub_I_Serial4>:
    461c:	4b04      	ldr	r3, [pc, #16]	; (4630 <_GLOBAL__sub_I_Serial4+0x14>)
    461e:	2200      	movs	r2, #0
    4620:	711a      	strb	r2, [r3, #4]
    4622:	f44f 717a 	mov.w	r1, #1000	; 0x3e8
    4626:	731a      	strb	r2, [r3, #12]
    4628:	4a02      	ldr	r2, [pc, #8]	; (4634 <_GLOBAL__sub_I_Serial4+0x18>)
    462a:	6099      	str	r1, [r3, #8]
    462c:	601a      	str	r2, [r3, #0]
    462e:	4770      	bx	lr
    4630:	1fff0f90 	.word	0x1fff0f90
    4634:	0000a248 	.word	0x0000a248

00004638 <_Z12serialEvent5v>:
    4638:	4770      	bx	lr

0000463a <_ZN15HardwareSerial55writeEm>:
    463a:	b508      	push	{r3, lr}
    463c:	6803      	ldr	r3, [r0, #0]
    463e:	b2c9      	uxtb	r1, r1
    4640:	681b      	ldr	r3, [r3, #0]
    4642:	4798      	blx	r3
    4644:	bd08      	pop	{r3, pc}

00004646 <_ZN15HardwareSerial55writeEl>:
    4646:	b508      	push	{r3, lr}
    4648:	6803      	ldr	r3, [r0, #0]
    464a:	b2c9      	uxtb	r1, r1
    464c:	681b      	ldr	r3, [r3, #0]
    464e:	4798      	blx	r3
    4650:	bd08      	pop	{r3, pc}

00004652 <_ZN15HardwareSerial55writeEj>:
    4652:	b508      	push	{r3, lr}
    4654:	6803      	ldr	r3, [r0, #0]
    4656:	b2c9      	uxtb	r1, r1
    4658:	681b      	ldr	r3, [r3, #0]
    465a:	4798      	blx	r3
    465c:	bd08      	pop	{r3, pc}

0000465e <_ZN15HardwareSerial55writeEi>:
    465e:	b508      	push	{r3, lr}
    4660:	6803      	ldr	r3, [r0, #0]
    4662:	b2c9      	uxtb	r1, r1
    4664:	681b      	ldr	r3, [r3, #0]
    4666:	4798      	blx	r3
    4668:	bd08      	pop	{r3, pc}
    466a:	ffff 4803 	vtbl.8	d20, {d15}, d3

0000466c <_ZN15HardwareSerial55beginEm>:
    466c:	4803      	ldr	r0, [pc, #12]	; (467c <_ZN15HardwareSerial55beginEm+0x10>)
    466e:	eb00 0051 	add.w	r0, r0, r1, lsr #1
    4672:	fbb0 f0f1 	udiv	r0, r0, r1
    4676:	f7fe baab 	b.w	2bd0 <serial5_begin>
    467a:	bf00      	nop
    467c:	07270e00 	.word	0x07270e00

00004680 <_ZN15HardwareSerial55beginEmm>:
    4680:	b510      	push	{r4, lr}
    4682:	4806      	ldr	r0, [pc, #24]	; (469c <_ZN15HardwareSerial55beginEmm+0x1c>)
    4684:	eb00 0051 	add.w	r0, r0, r1, lsr #1
    4688:	4614      	mov	r4, r2
    468a:	fbb0 f0f1 	udiv	r0, r0, r1
    468e:	f7fe fa9f 	bl	2bd0 <serial5_begin>
    4692:	4620      	mov	r0, r4
    4694:	e8bd 4010 	ldmia.w	sp!, {r4, lr}
    4698:	f7fe bace 	b.w	2c38 <serial5_format>
    469c:	07270e00 	.word	0x07270e00

000046a0 <_ZN15HardwareSerial53endEv>:
    46a0:	f7fe bb00 	b.w	2ca4 <serial5_end>

000046a4 <_ZN15HardwareSerial517transmitterEnableEh>:
    46a4:	4608      	mov	r0, r1
    46a6:	f7fe bb27 	b.w	2cf8 <serial5_set_transmit_pin>

000046aa <_ZN15HardwareSerial55setRXEh>:
    46aa:	4608      	mov	r0, r1
    46ac:	f7fe bb66 	b.w	2d7c <serial5_set_rx>

000046b0 <_ZN15HardwareSerial55setTXEhb>:
    46b0:	4608      	mov	r0, r1
    46b2:	4611      	mov	r1, r2
    46b4:	f7fe bb3a 	b.w	2d2c <serial5_set_tx>

000046b8 <_ZN15HardwareSerial59attachRtsEh>:
    46b8:	b508      	push	{r3, lr}
    46ba:	4608      	mov	r0, r1
    46bc:	f7fe fb5f 	bl	2d7e <serial5_set_rts>
    46c0:	3000      	adds	r0, #0
    46c2:	bf18      	it	ne
    46c4:	2001      	movne	r0, #1
    46c6:	bd08      	pop	{r3, pc}

000046c8 <_ZN15HardwareSerial59attachCtsEh>:
    46c8:	b508      	push	{r3, lr}
    46ca:	4608      	mov	r0, r1
    46cc:	f7fe fb78 	bl	2dc0 <serial5_set_cts>
    46d0:	3000      	adds	r0, #0
    46d2:	bf18      	it	ne
    46d4:	2001      	movne	r0, #1
    46d6:	bd08      	pop	{r3, pc}

000046d8 <_ZN15HardwareSerial59availableEv>:
    46d8:	f7fe bbf2 	b.w	2ec0 <serial5_available>

000046dc <_ZN15HardwareSerial54peekEv>:
    46dc:	f7fe bc1e 	b.w	2f1c <serial5_peek>

000046e0 <_ZN15HardwareSerial54readEv>:
    46e0:	f7fe bbfa 	b.w	2ed8 <serial5_getchar>

000046e4 <_ZN15HardwareSerial55flushEv>:
    46e4:	f7fe bbd3 	b.w	2e8e <serial5_flush>

000046e8 <_ZN15HardwareSerial55clearEv>:
    46e8:	f7fe bc2c 	b.w	2f44 <serial5_clear>

000046ec <_ZN15HardwareSerial517availableForWriteEv>:
    46ec:	f7fe bbda 	b.w	2ea4 <serial5_write_buffer_free>

000046f0 <_ZN15HardwareSerial55writeEh>:
    46f0:	b508      	push	{r3, lr}
    46f2:	4608      	mov	r0, r1
    46f4:	f7fe fb82 	bl	2dfc <serial5_putchar>
    46f8:	2001      	movs	r0, #1
    46fa:	bd08      	pop	{r3, pc}

000046fc <_ZN15HardwareSerial59write9bitEm>:
    46fc:	b508      	push	{r3, lr}
    46fe:	4608      	mov	r0, r1
    4700:	f7fe fb7c 	bl	2dfc <serial5_putchar>
    4704:	2001      	movs	r0, #1
    4706:	bd08      	pop	{r3, pc}

00004708 <_ZN15HardwareSerial55writeEPKhj>:
    4708:	b510      	push	{r4, lr}
    470a:	4608      	mov	r0, r1
    470c:	4614      	mov	r4, r2
    470e:	4611      	mov	r1, r2
    4710:	f7fe fbb2 	bl	2e78 <serial5_write>
    4714:	4620      	mov	r0, r4
    4716:	bd10      	pop	{r4, pc}

00004718 <_ZN15HardwareSerial55writeEPKc>:
    4718:	b538      	push	{r3, r4, r5, lr}
    471a:	4608      	mov	r0, r1
    471c:	460d      	mov	r5, r1
    471e:	f002 f8e8 	bl	68f2 <strlen>
    4722:	4604      	mov	r4, r0
    4724:	4621      	mov	r1, r4
    4726:	4628      	mov	r0, r5
    4728:	f7fe fba6 	bl	2e78 <serial5_write>
    472c:	4620      	mov	r0, r4
    472e:	bd38      	pop	{r3, r4, r5, pc}

00004730 <_GLOBAL__sub_I_Serial5>:
    4730:	4b04      	ldr	r3, [pc, #16]	; (4744 <_GLOBAL__sub_I_Serial5+0x14>)
    4732:	2200      	movs	r2, #0
    4734:	711a      	strb	r2, [r3, #4]
    4736:	f44f 717a 	mov.w	r1, #1000	; 0x3e8
    473a:	731a      	strb	r2, [r3, #12]
    473c:	4a02      	ldr	r2, [pc, #8]	; (4748 <_GLOBAL__sub_I_Serial5+0x18>)
    473e:	6099      	str	r1, [r3, #8]
    4740:	601a      	str	r2, [r3, #0]
    4742:	4770      	bx	lr
    4744:	1fff0fa0 	.word	0x1fff0fa0
    4748:	0000a2a8 	.word	0x0000a2a8

0000474c <_Z12serialEvent6v>:
    474c:	4770      	bx	lr

0000474e <_ZN15HardwareSerial65writeEm>:
    474e:	b508      	push	{r3, lr}
    4750:	6803      	ldr	r3, [r0, #0]
    4752:	b2c9      	uxtb	r1, r1
    4754:	681b      	ldr	r3, [r3, #0]
    4756:	4798      	blx	r3
    4758:	bd08      	pop	{r3, pc}

0000475a <_ZN15HardwareSerial65writeEl>:
    475a:	b508      	push	{r3, lr}
    475c:	6803      	ldr	r3, [r0, #0]
    475e:	b2c9      	uxtb	r1, r1
    4760:	681b      	ldr	r3, [r3, #0]
    4762:	4798      	blx	r3
    4764:	bd08      	pop	{r3, pc}

00004766 <_ZN15HardwareSerial65writeEj>:
    4766:	b508      	push	{r3, lr}
    4768:	6803      	ldr	r3, [r0, #0]
    476a:	b2c9      	uxtb	r1, r1
    476c:	681b      	ldr	r3, [r3, #0]
    476e:	4798      	blx	r3
    4770:	bd08      	pop	{r3, pc}

00004772 <_ZN15HardwareSerial65writeEi>:
    4772:	b508      	push	{r3, lr}
    4774:	6803      	ldr	r3, [r0, #0]
    4776:	b2c9      	uxtb	r1, r1
    4778:	681b      	ldr	r3, [r3, #0]
    477a:	4798      	blx	r3
    477c:	bd08      	pop	{r3, pc}

0000477e <_ZN15HardwareSerial65beginEm>:
    477e:	4608      	mov	r0, r1
    4780:	f7fe bc42 	b.w	3008 <serial6_begin>

00004784 <_ZN15HardwareSerial65beginEmm>:
    4784:	b510      	push	{r4, lr}
    4786:	4608      	mov	r0, r1
    4788:	4614      	mov	r4, r2
    478a:	f7fe fc3d 	bl	3008 <serial6_begin>
    478e:	4620      	mov	r0, r4
    4790:	e8bd 4010 	ldmia.w	sp!, {r4, lr}
    4794:	f7fe bcd0 	b.w	3138 <serial6_format>

00004798 <_ZN15HardwareSerial63endEv>:
    4798:	f7fe bd08 	b.w	31ac <serial6_end>

0000479c <_ZN15HardwareSerial617transmitterEnableEh>:
    479c:	4608      	mov	r0, r1
    479e:	f7fe bd2f 	b.w	3200 <serial6_set_transmit_pin>

000047a2 <_ZN15HardwareSerial65setRXEh>:
    47a2:	4608      	mov	r0, r1
    47a4:	f7fe bd6e 	b.w	3284 <serial6_set_rx>

000047a8 <_ZN15HardwareSerial65setTXEhb>:
    47a8:	4608      	mov	r0, r1
    47aa:	4611      	mov	r1, r2
    47ac:	f7fe bd42 	b.w	3234 <serial6_set_tx>

000047b0 <_ZN15HardwareSerial69attachRtsEh>:
    47b0:	b508      	push	{r3, lr}
    47b2:	4608      	mov	r0, r1
    47b4:	f7fe fd67 	bl	3286 <serial6_set_rts>
    47b8:	3000      	adds	r0, #0
    47ba:	bf18      	it	ne
    47bc:	2001      	movne	r0, #1
    47be:	bd08      	pop	{r3, pc}

000047c0 <_ZN15HardwareSerial69attachCtsEh>:
    47c0:	b508      	push	{r3, lr}
    47c2:	4608      	mov	r0, r1
    47c4:	f7fe fd80 	bl	32c8 <serial6_set_cts>
    47c8:	3000      	adds	r0, #0
    47ca:	bf18      	it	ne
    47cc:	2001      	movne	r0, #1
    47ce:	bd08      	pop	{r3, pc}

000047d0 <_ZN15HardwareSerial69availableEv>:
    47d0:	f7fe bdfc 	b.w	33cc <serial6_available>

000047d4 <_ZN15HardwareSerial64peekEv>:
    47d4:	f7fe be28 	b.w	3428 <serial6_peek>

000047d8 <_ZN15HardwareSerial64readEv>:
    47d8:	f7fe be04 	b.w	33e4 <serial6_getchar>

000047dc <_ZN15HardwareSerial65flushEv>:
    47dc:	f7fe bddd 	b.w	339a <serial6_flush>

000047e0 <_ZN15HardwareSerial65clearEv>:
    47e0:	f7fe be36 	b.w	3450 <serial6_clear>

000047e4 <_ZN15HardwareSerial617availableForWriteEv>:
    47e4:	f7fe bde4 	b.w	33b0 <serial6_write_buffer_free>

000047e8 <_ZN15HardwareSerial65writeEh>:
    47e8:	b508      	push	{r3, lr}
    47ea:	4608      	mov	r0, r1
    47ec:	f7fe fd8a 	bl	3304 <serial6_putchar>
    47f0:	2001      	movs	r0, #1
    47f2:	bd08      	pop	{r3, pc}

000047f4 <_ZN15HardwareSerial69write9bitEm>:
    47f4:	b508      	push	{r3, lr}
    47f6:	4608      	mov	r0, r1
    47f8:	f7fe fd84 	bl	3304 <serial6_putchar>
    47fc:	2001      	movs	r0, #1
    47fe:	bd08      	pop	{r3, pc}

00004800 <_ZN15HardwareSerial65writeEPKhj>:
    4800:	b510      	push	{r4, lr}
    4802:	4608      	mov	r0, r1
    4804:	4614      	mov	r4, r2
    4806:	4611      	mov	r1, r2
    4808:	f7fe fdbc 	bl	3384 <serial6_write>
    480c:	4620      	mov	r0, r4
    480e:	bd10      	pop	{r4, pc}

00004810 <_ZN15HardwareSerial65writeEPKc>:
    4810:	b538      	push	{r3, r4, r5, lr}
    4812:	4608      	mov	r0, r1
    4814:	460d      	mov	r5, r1
    4816:	f002 f86c 	bl	68f2 <strlen>
    481a:	4604      	mov	r4, r0
    481c:	4621      	mov	r1, r4
    481e:	4628      	mov	r0, r5
    4820:	f7fe fdb0 	bl	3384 <serial6_write>
    4824:	4620      	mov	r0, r4
    4826:	bd38      	pop	{r3, r4, r5, pc}

00004828 <_GLOBAL__sub_I_Serial6>:
    4828:	4b04      	ldr	r3, [pc, #16]	; (483c <_GLOBAL__sub_I_Serial6+0x14>)
    482a:	2200      	movs	r2, #0
    482c:	711a      	strb	r2, [r3, #4]
    482e:	f44f 717a 	mov.w	r1, #1000	; 0x3e8
    4832:	731a      	strb	r2, [r3, #12]
    4834:	4a02      	ldr	r2, [pc, #8]	; (4840 <_GLOBAL__sub_I_Serial6+0x18>)
    4836:	6099      	str	r1, [r3, #8]
    4838:	601a      	str	r2, [r3, #0]
    483a:	4770      	bx	lr
    483c:	1fff0fb0 	.word	0x1fff0fb0
    4840:	0000a308 	.word	0x0000a308

00004844 <main>:
    4844:	b538      	push	{r3, r4, r5, lr}
    4846:	201d      	movs	r0, #29
    4848:	2101      	movs	r1, #1
    484a:	f7fc fb81 	bl	f50 <pinMode>
    484e:	2100      	movs	r1, #0
    4850:	201e      	movs	r0, #30
    4852:	f7fc fb7d 	bl	f50 <pinMode>
    4856:	4b21      	ldr	r3, [pc, #132]	; (48dc <main+0x98>)
    4858:	2201      	movs	r2, #1
    485a:	701a      	strb	r2, [r3, #0]
    485c:	4a20      	ldr	r2, [pc, #128]	; (48e0 <main+0x9c>)
    485e:	f44f 73a2 	mov.w	r3, #324	; 0x144
    4862:	6013      	str	r3, [r2, #0]
    4864:	f8c2 3fcc 	str.w	r3, [r2, #4044]	; 0xfcc
    4868:	f7ff fc70 	bl	414c <usb_serial_flush_output>
    486c:	f44f 707a 	mov.w	r0, #1000	; 0x3e8
    4870:	f7fc fde8 	bl	1444 <delay>
    4874:	481b      	ldr	r0, [pc, #108]	; (48e4 <main+0xa0>)
    4876:	491c      	ldr	r1, [pc, #112]	; (48e8 <main+0xa4>)
    4878:	f000 f889 	bl	498e <_ZN5Print6printfEPKcz>
    487c:	2500      	movs	r5, #0
    487e:	f44f 70fa 	mov.w	r0, #500	; 0x1f4
    4882:	f7fc fddf 	bl	1444 <delay>
    4886:	4817      	ldr	r0, [pc, #92]	; (48e4 <main+0xa0>)
    4888:	4918      	ldr	r1, [pc, #96]	; (48ec <main+0xa8>)
    488a:	f000 f880 	bl	498e <_ZN5Print6printfEPKcz>
    488e:	4b18      	ldr	r3, [pc, #96]	; (48f0 <main+0xac>)
    4890:	f8d3 30f0 	ldr.w	r3, [r3, #240]	; 0xf0
    4894:	f893 2200 	ldrb.w	r2, [r3, #512]	; 0x200
    4898:	4b16      	ldr	r3, [pc, #88]	; (48f4 <main+0xb0>)
    489a:	b11a      	cbz	r2, 48a4 <main+0x60>
    489c:	681a      	ldr	r2, [r3, #0]
    489e:	f442 2280 	orr.w	r2, r2, #262144	; 0x40000
    48a2:	e002      	b.n	48aa <main+0x66>
    48a4:	681a      	ldr	r2, [r3, #0]
    48a6:	f422 2280 	bic.w	r2, r2, #262144	; 0x40000
    48aa:	4c13      	ldr	r4, [pc, #76]	; (48f8 <main+0xb4>)
    48ac:	601a      	str	r2, [r3, #0]
    48ae:	6823      	ldr	r3, [r4, #0]
    48b0:	f043 0320 	orr.w	r3, r3, #32
    48b4:	6023      	str	r3, [r4, #0]
    48b6:	f44f 70fa 	mov.w	r0, #500	; 0x1f4
    48ba:	f7fc fdc3 	bl	1444 <delay>
    48be:	490b      	ldr	r1, [pc, #44]	; (48ec <main+0xa8>)
    48c0:	4808      	ldr	r0, [pc, #32]	; (48e4 <main+0xa0>)
    48c2:	f000 f864 	bl	498e <_ZN5Print6printfEPKcz>
    48c6:	6823      	ldr	r3, [r4, #0]
    48c8:	4806      	ldr	r0, [pc, #24]	; (48e4 <main+0xa0>)
    48ca:	490c      	ldr	r1, [pc, #48]	; (48fc <main+0xb8>)
    48cc:	f023 0320 	bic.w	r3, r3, #32
    48d0:	462a      	mov	r2, r5
    48d2:	6023      	str	r3, [r4, #0]
    48d4:	f000 f85b 	bl	498e <_ZN5Print6printfEPKcz>
    48d8:	3501      	adds	r5, #1
    48da:	e7d0      	b.n	487e <main+0x3a>
    48dc:	43fe1294 	.word	0x43fe1294
    48e0:	4004a048 	.word	0x4004a048
    48e4:	1fff0fc0 	.word	0x1fff0fc0
    48e8:	0000a360 	.word	0x0000a360
    48ec:	0000a36f 	.word	0x0000a36f
    48f0:	00009ec4 	.word	0x00009ec4
    48f4:	400ff040 	.word	0x400ff040
    48f8:	400ff080 	.word	0x400ff080
    48fc:	0000a386 	.word	0x0000a386

00004900 <_ZN5Print5writeEPKhj>:
    4900:	b5f8      	push	{r3, r4, r5, r6, r7, lr}
    4902:	4606      	mov	r6, r0
    4904:	460c      	mov	r4, r1
    4906:	188f      	adds	r7, r1, r2
    4908:	2500      	movs	r5, #0
    490a:	42bc      	cmp	r4, r7
    490c:	d007      	beq.n	491e <_ZN5Print5writeEPKhj+0x1e>
    490e:	6833      	ldr	r3, [r6, #0]
    4910:	f814 1b01 	ldrb.w	r1, [r4], #1
    4914:	681b      	ldr	r3, [r3, #0]
    4916:	4630      	mov	r0, r6
    4918:	4798      	blx	r3
    491a:	4405      	add	r5, r0
    491c:	e7f5      	b.n	490a <_ZN5Print5writeEPKhj+0xa>
    491e:	4628      	mov	r0, r5
    4920:	bdf8      	pop	{r3, r4, r5, r6, r7, pc}

00004922 <_ZN5Print5printERK6String>:
    4922:	e92d 41f0 	stmdb	sp!, {r4, r5, r6, r7, r8, lr}
    4926:	2500      	movs	r5, #0
    4928:	688c      	ldr	r4, [r1, #8]
    492a:	b08a      	sub	sp, #40	; 0x28
    492c:	4607      	mov	r7, r0
    492e:	4688      	mov	r8, r1
    4930:	462e      	mov	r6, r5
    4932:	b194      	cbz	r4, 495a <_ZN5Print5printERK6String+0x38>
    4934:	462b      	mov	r3, r5
    4936:	4640      	mov	r0, r8
    4938:	a901      	add	r1, sp, #4
    493a:	2221      	movs	r2, #33	; 0x21
    493c:	f000 fc7f 	bl	523e <_ZNK6String8getBytesEPhjj>
    4940:	683b      	ldr	r3, [r7, #0]
    4942:	2c20      	cmp	r4, #32
    4944:	bf34      	ite	cc
    4946:	4622      	movcc	r2, r4
    4948:	2220      	movcs	r2, #32
    494a:	685b      	ldr	r3, [r3, #4]
    494c:	4638      	mov	r0, r7
    494e:	a901      	add	r1, sp, #4
    4950:	4415      	add	r5, r2
    4952:	1aa4      	subs	r4, r4, r2
    4954:	4798      	blx	r3
    4956:	4406      	add	r6, r0
    4958:	e7eb      	b.n	4932 <_ZN5Print5printERK6String+0x10>
    495a:	4630      	mov	r0, r6
    495c:	b00a      	add	sp, #40	; 0x28
    495e:	e8bd 81f0 	ldmia.w	sp!, {r4, r5, r6, r7, r8, pc}

00004962 <_ZN5Print7printlnEv>:
    4962:	b507      	push	{r0, r1, r2, lr}
    4964:	4b05      	ldr	r3, [pc, #20]	; (497c <_ZN5Print7printlnEv+0x1a>)
    4966:	881b      	ldrh	r3, [r3, #0]
    4968:	f8ad 3004 	strh.w	r3, [sp, #4]
    496c:	6803      	ldr	r3, [r0, #0]
    496e:	a901      	add	r1, sp, #4
    4970:	685b      	ldr	r3, [r3, #4]
    4972:	2202      	movs	r2, #2
    4974:	4798      	blx	r3
    4976:	b003      	add	sp, #12
    4978:	f85d fb04 	ldr.w	pc, [sp], #4
    497c:	0000a390 	.word	0x0000a390

00004980 <_write>:
    4980:	b510      	push	{r4, lr}
    4982:	6803      	ldr	r3, [r0, #0]
    4984:	4614      	mov	r4, r2
    4986:	685b      	ldr	r3, [r3, #4]
    4988:	4798      	blx	r3
    498a:	4620      	mov	r0, r4
    498c:	bd10      	pop	{r4, pc}

0000498e <_ZN5Print6printfEPKcz>:
    498e:	b40e      	push	{r1, r2, r3}
    4990:	b503      	push	{r0, r1, lr}
    4992:	aa03      	add	r2, sp, #12
    4994:	f852 1b04 	ldr.w	r1, [r2], #4
    4998:	9201      	str	r2, [sp, #4]
    499a:	f002 ff49 	bl	7830 <vdiprintf>
    499e:	b002      	add	sp, #8
    49a0:	f85d eb04 	ldr.w	lr, [sp], #4
    49a4:	b003      	add	sp, #12
    49a6:	4770      	bx	lr

000049a8 <_ZN5Print6printfEPK19__FlashStringHelperz>:
    49a8:	b40e      	push	{r1, r2, r3}
    49aa:	b503      	push	{r0, r1, lr}
    49ac:	aa03      	add	r2, sp, #12
    49ae:	f852 1b04 	ldr.w	r1, [r2], #4
    49b2:	9201      	str	r2, [sp, #4]
    49b4:	f002 ff3c 	bl	7830 <vdiprintf>
    49b8:	b002      	add	sp, #8
    49ba:	f85d eb04 	ldr.w	lr, [sp], #4
    49be:	b003      	add	sp, #12
    49c0:	4770      	bx	lr

000049c2 <_ZN5Print11printNumberEmhh>:
    49c2:	b570      	push	{r4, r5, r6, lr}
    49c4:	4605      	mov	r5, r0
    49c6:	b08a      	sub	sp, #40	; 0x28
    49c8:	b922      	cbnz	r2, 49d4 <_ZN5Print11printNumberEmhh+0x12>
    49ca:	6803      	ldr	r3, [r0, #0]
    49cc:	b2c9      	uxtb	r1, r1
    49ce:	681b      	ldr	r3, [r3, #0]
    49d0:	4798      	blx	r3
    49d2:	e02c      	b.n	4a2e <_ZN5Print11printNumberEmhh+0x6c>
    49d4:	2a01      	cmp	r2, #1
    49d6:	bf08      	it	eq
    49d8:	220a      	moveq	r2, #10
    49da:	b921      	cbnz	r1, 49e6 <_ZN5Print11printNumberEmhh+0x24>
    49dc:	2230      	movs	r2, #48	; 0x30
    49de:	f88d 2025 	strb.w	r2, [sp, #37]	; 0x25
    49e2:	2421      	movs	r4, #33	; 0x21
    49e4:	e013      	b.n	4a0e <_ZN5Print11printNumberEmhh+0x4c>
    49e6:	2421      	movs	r4, #33	; 0x21
    49e8:	fbb1 f0f2 	udiv	r0, r1, r2
    49ec:	fb02 1110 	mls	r1, r2, r0, r1
    49f0:	b2c9      	uxtb	r1, r1
    49f2:	2909      	cmp	r1, #9
    49f4:	ae0a      	add	r6, sp, #40	; 0x28
    49f6:	bf94      	ite	ls
    49f8:	3130      	addls	r1, #48	; 0x30
    49fa:	3137      	addhi	r1, #55	; 0x37
    49fc:	4426      	add	r6, r4
    49fe:	b2c9      	uxtb	r1, r1
    4a00:	f806 1c24 	strb.w	r1, [r6, #-36]
    4a04:	4601      	mov	r1, r0
    4a06:	b110      	cbz	r0, 4a0e <_ZN5Print11printNumberEmhh+0x4c>
    4a08:	3c01      	subs	r4, #1
    4a0a:	b2e4      	uxtb	r4, r4
    4a0c:	e7ec      	b.n	49e8 <_ZN5Print11printNumberEmhh+0x26>
    4a0e:	b133      	cbz	r3, 4a1e <_ZN5Print11printNumberEmhh+0x5c>
    4a10:	3c01      	subs	r4, #1
    4a12:	b2e4      	uxtb	r4, r4
    4a14:	ab0a      	add	r3, sp, #40	; 0x28
    4a16:	4423      	add	r3, r4
    4a18:	222d      	movs	r2, #45	; 0x2d
    4a1a:	f803 2c24 	strb.w	r2, [r3, #-36]
    4a1e:	682b      	ldr	r3, [r5, #0]
    4a20:	a901      	add	r1, sp, #4
    4a22:	685b      	ldr	r3, [r3, #4]
    4a24:	4628      	mov	r0, r5
    4a26:	4421      	add	r1, r4
    4a28:	f1c4 0222 	rsb	r2, r4, #34	; 0x22
    4a2c:	4798      	blx	r3
    4a2e:	b00a      	add	sp, #40	; 0x28
    4a30:	bd70      	pop	{r4, r5, r6, pc}

00004a32 <_ZN5Print5printEl>:
    4a32:	2900      	cmp	r1, #0
    4a34:	bfba      	itte	lt
    4a36:	4249      	neglt	r1, r1
    4a38:	232d      	movlt	r3, #45	; 0x2d
    4a3a:	2300      	movge	r3, #0
    4a3c:	220a      	movs	r2, #10
    4a3e:	f7ff bfc0 	b.w	49c2 <_ZN5Print11printNumberEmhh>

00004a42 <_ZN5Print10printFloatEdh>:
    4a42:	e92d 47ff 	stmdb	sp!, {r0, r1, r2, r3, r4, r5, r6, r7, r8, r9, sl, lr}
    4a46:	4680      	mov	r8, r0
    4a48:	4619      	mov	r1, r3
    4a4a:	4610      	mov	r0, r2
    4a4c:	4614      	mov	r4, r2
    4a4e:	461d      	mov	r5, r3
    4a50:	f89d 9030 	ldrb.w	r9, [sp, #48]	; 0x30
    4a54:	f000 fdda 	bl	560c <__fpclassifyd>
    4a58:	b910      	cbnz	r0, 4a60 <_ZN5Print10printFloatEdh+0x1e>
    4a5a:	4640      	mov	r0, r8
    4a5c:	494c      	ldr	r1, [pc, #304]	; (4b90 <_ZN5Print10printFloatEdh+0x14e>)
    4a5e:	e007      	b.n	4a70 <_ZN5Print10printFloatEdh+0x2e>
    4a60:	4620      	mov	r0, r4
    4a62:	4629      	mov	r1, r5
    4a64:	f000 fdd2 	bl	560c <__fpclassifyd>
    4a68:	2801      	cmp	r0, #1
    4a6a:	d105      	bne.n	4a78 <_ZN5Print10printFloatEdh+0x36>
    4a6c:	4949      	ldr	r1, [pc, #292]	; (4b94 <_ZN5Print10printFloatEdh+0x152>)
    4a6e:	4640      	mov	r0, r8
    4a70:	f7ff fbae 	bl	41d0 <_ZN5Print5writeEPKc>
    4a74:	4606      	mov	r6, r0
    4a76:	e080      	b.n	4b7a <_ZN5Print10printFloatEdh+0x138>
    4a78:	4620      	mov	r0, r4
    4a7a:	4629      	mov	r1, r5
    4a7c:	f04f 4260 	mov.w	r2, #3758096384	; 0xe0000000
    4a80:	4b45      	ldr	r3, [pc, #276]	; (4b98 <_ZN5Print10printFloatEdh+0x156>)
    4a82:	f001 fa33 	bl	5eec <__aeabi_dcmpgt>
    4a86:	b110      	cbz	r0, 4a8e <_ZN5Print10printFloatEdh+0x4c>
    4a88:	4640      	mov	r0, r8
    4a8a:	4944      	ldr	r1, [pc, #272]	; (4b9c <_ZN5Print10printFloatEdh+0x15a>)
    4a8c:	e7f0      	b.n	4a70 <_ZN5Print10printFloatEdh+0x2e>
    4a8e:	4620      	mov	r0, r4
    4a90:	4629      	mov	r1, r5
    4a92:	f04f 4260 	mov.w	r2, #3758096384	; 0xe0000000
    4a96:	4b42      	ldr	r3, [pc, #264]	; (4ba0 <_ZN5Print10printFloatEdh+0x15e>)
    4a98:	f001 fa0a 	bl	5eb0 <__aeabi_dcmplt>
    4a9c:	2800      	cmp	r0, #0
    4a9e:	d1f3      	bne.n	4a88 <_ZN5Print10printFloatEdh+0x46>
    4aa0:	4620      	mov	r0, r4
    4aa2:	4629      	mov	r1, r5
    4aa4:	2200      	movs	r2, #0
    4aa6:	2300      	movs	r3, #0
    4aa8:	f001 fa02 	bl	5eb0 <__aeabi_dcmplt>
    4aac:	b120      	cbz	r0, 4ab8 <_ZN5Print10printFloatEdh+0x76>
    4aae:	f105 4700 	add.w	r7, r5, #2147483648	; 0x80000000
    4ab2:	463d      	mov	r5, r7
    4ab4:	2601      	movs	r6, #1
    4ab6:	e000      	b.n	4aba <_ZN5Print10printFloatEdh+0x78>
    4ab8:	4606      	mov	r6, r0
    4aba:	4b3a      	ldr	r3, [pc, #232]	; (4ba4 <_ZN5Print10printFloatEdh+0x162>)
    4abc:	2700      	movs	r7, #0
    4abe:	2200      	movs	r2, #0
    4ac0:	b2f9      	uxtb	r1, r7
    4ac2:	4549      	cmp	r1, r9
    4ac4:	d20a      	bcs.n	4adc <_ZN5Print10printFloatEdh+0x9a>
    4ac6:	4610      	mov	r0, r2
    4ac8:	4619      	mov	r1, r3
    4aca:	a32f      	add	r3, pc, #188	; (adr r3, 4b88 <_ZN5Print10printFloatEdh+0x146>)
    4acc:	e9d3 2300 	ldrd	r2, r3, [r3]
    4ad0:	f000 ff7c 	bl	59cc <__aeabi_dmul>
    4ad4:	3701      	adds	r7, #1
    4ad6:	4602      	mov	r2, r0
    4ad8:	460b      	mov	r3, r1
    4ada:	e7f1      	b.n	4ac0 <_ZN5Print10printFloatEdh+0x7e>
    4adc:	4620      	mov	r0, r4
    4ade:	4629      	mov	r1, r5
    4ae0:	f000 fdc2 	bl	5668 <__adddf3>
    4ae4:	460d      	mov	r5, r1
    4ae6:	4604      	mov	r4, r0
    4ae8:	f001 fa32 	bl	5f50 <__aeabi_d2uiz>
    4aec:	4607      	mov	r7, r0
    4aee:	4633      	mov	r3, r6
    4af0:	4640      	mov	r0, r8
    4af2:	4639      	mov	r1, r7
    4af4:	220a      	movs	r2, #10
    4af6:	f7ff ff64 	bl	49c2 <_ZN5Print11printNumberEmhh>
    4afa:	4606      	mov	r6, r0
    4afc:	f1b9 0f00 	cmp.w	r9, #0
    4b00:	d03b      	beq.n	4b7a <_ZN5Print10printFloatEdh+0x138>
    4b02:	4638      	mov	r0, r7
    4b04:	f000 feec 	bl	58e0 <__aeabi_ui2d>
    4b08:	f1b9 0f0f 	cmp.w	r9, #15
    4b0c:	bf28      	it	cs
    4b0e:	f04f 090f 	movcs.w	r9, #15
    4b12:	460b      	mov	r3, r1
    4b14:	4602      	mov	r2, r0
    4b16:	4629      	mov	r1, r5
    4b18:	4620      	mov	r0, r4
    4b1a:	f000 fda3 	bl	5664 <__aeabi_dsub>
    4b1e:	f109 0901 	add.w	r9, r9, #1
    4b22:	232e      	movs	r3, #46	; 0x2e
    4b24:	f88d 3000 	strb.w	r3, [sp]
    4b28:	fa5f f989 	uxtb.w	r9, r9
    4b2c:	f04f 0a01 	mov.w	sl, #1
    4b30:	2200      	movs	r2, #0
    4b32:	4b1d      	ldr	r3, [pc, #116]	; (4ba8 <_ZN5Print10printFloatEdh+0x166>)
    4b34:	f000 ff4a 	bl	59cc <__aeabi_dmul>
    4b38:	460d      	mov	r5, r1
    4b3a:	4604      	mov	r4, r0
    4b3c:	f001 fa08 	bl	5f50 <__aeabi_d2uiz>
    4b40:	ab04      	add	r3, sp, #16
    4b42:	4453      	add	r3, sl
    4b44:	b2c0      	uxtb	r0, r0
    4b46:	f100 0230 	add.w	r2, r0, #48	; 0x30
    4b4a:	f803 2c10 	strb.w	r2, [r3, #-16]
    4b4e:	f000 fed7 	bl	5900 <__aeabi_i2d>
    4b52:	f10a 0701 	add.w	r7, sl, #1
    4b56:	4602      	mov	r2, r0
    4b58:	460b      	mov	r3, r1
    4b5a:	b2ff      	uxtb	r7, r7
    4b5c:	4620      	mov	r0, r4
    4b5e:	4629      	mov	r1, r5
    4b60:	f000 fd80 	bl	5664 <__aeabi_dsub>
    4b64:	454f      	cmp	r7, r9
    4b66:	d001      	beq.n	4b6c <_ZN5Print10printFloatEdh+0x12a>
    4b68:	46ba      	mov	sl, r7
    4b6a:	e7e1      	b.n	4b30 <_ZN5Print10printFloatEdh+0xee>
    4b6c:	f8d8 3000 	ldr.w	r3, [r8]
    4b70:	4640      	mov	r0, r8
    4b72:	685b      	ldr	r3, [r3, #4]
    4b74:	4669      	mov	r1, sp
    4b76:	464a      	mov	r2, r9
    4b78:	4798      	blx	r3
    4b7a:	4630      	mov	r0, r6
    4b7c:	b004      	add	sp, #16
    4b7e:	e8bd 87f0 	ldmia.w	sp!, {r4, r5, r6, r7, r8, r9, sl, pc}
    4b82:	bf00      	nop
    4b84:	f3af 8000 	nop.w
    4b88:	9999999a 	.word	0x9999999a
    4b8c:	3fb99999 	.word	0x3fb99999
    4b90:	0000a3a8 	.word	0x0000a3a8
    4b94:	0000a3ac 	.word	0x0000a3ac
    4b98:	41efffff 	.word	0x41efffff
    4b9c:	0000a3b0 	.word	0x0000a3b0
    4ba0:	c1efffff 	.word	0xc1efffff
    4ba4:	3fe00000 	.word	0x3fe00000
    4ba8:	40240000 	.word	0x40240000
    4bac:	f3af 8000 	nop.w

00004bb0 <_Z11serialEventv>:
    4bb0:	4770      	bx	lr

00004bb2 <_ZN16usb_serial_class9availableEv>:
    4bb2:	f7ff b9df 	b.w	3f74 <usb_serial_available>

00004bb6 <_ZN16usb_serial_class4readEv>:
    4bb6:	f7ff b99b 	b.w	3ef0 <usb_serial_getchar>

00004bba <_ZN16usb_serial_class4peekEv>:
    4bba:	f7ff b9bf 	b.w	3f3c <usb_serial_peekchar>

00004bbe <_ZN16usb_serial_class5flushEv>:
    4bbe:	f7ff bac5 	b.w	414c <usb_serial_flush_output>

00004bc2 <_ZN16usb_serial_class5clearEv>:
    4bc2:	f7ff ba23 	b.w	400c <usb_serial_flush_input>

00004bc6 <_ZN16usb_serial_class5writeEh>:
    4bc6:	4608      	mov	r0, r1
    4bc8:	f7ff ba94 	b.w	40f4 <usb_serial_putchar>

00004bcc <_ZN16usb_serial_class5writeEPKhj>:
    4bcc:	4608      	mov	r0, r1
    4bce:	4611      	mov	r1, r2
    4bd0:	f7ff ba34 	b.w	403c <usb_serial_write>

00004bd4 <_GLOBAL__sub_I_Serial>:
    4bd4:	4b04      	ldr	r3, [pc, #16]	; (4be8 <_GLOBAL__sub_I_Serial+0x14>)
    4bd6:	2200      	movs	r2, #0
    4bd8:	711a      	strb	r2, [r3, #4]
    4bda:	f44f 717a 	mov.w	r1, #1000	; 0x3e8
    4bde:	731a      	strb	r2, [r3, #12]
    4be0:	4a02      	ldr	r2, [pc, #8]	; (4bec <_GLOBAL__sub_I_Serial+0x18>)
    4be2:	6099      	str	r1, [r3, #8]
    4be4:	601a      	str	r2, [r3, #0]
    4be6:	4770      	bx	lr
    4be8:	1fff0fc0 	.word	0x1fff0fc0
    4bec:	0000a3c0 	.word	0x0000a3c0

00004bf0 <_ZN6StringC1EOS_>:
    4bf0:	2200      	movs	r2, #0
    4bf2:	b510      	push	{r4, lr}
    4bf4:	6002      	str	r2, [r0, #0]
    4bf6:	6042      	str	r2, [r0, #4]
    4bf8:	680c      	ldr	r4, [r1, #0]
    4bfa:	6082      	str	r2, [r0, #8]
    4bfc:	6004      	str	r4, [r0, #0]
    4bfe:	684c      	ldr	r4, [r1, #4]
    4c00:	6044      	str	r4, [r0, #4]
    4c02:	688c      	ldr	r4, [r1, #8]
    4c04:	7302      	strb	r2, [r0, #12]
    4c06:	6084      	str	r4, [r0, #8]
    4c08:	600a      	str	r2, [r1, #0]
    4c0a:	604a      	str	r2, [r1, #4]
    4c0c:	608a      	str	r2, [r1, #8]
    4c0e:	bd10      	pop	{r4, pc}

00004c10 <_ZN6StringC1EO15StringSumHelper>:
    4c10:	2200      	movs	r2, #0
    4c12:	b510      	push	{r4, lr}
    4c14:	6002      	str	r2, [r0, #0]
    4c16:	6042      	str	r2, [r0, #4]
    4c18:	680c      	ldr	r4, [r1, #0]
    4c1a:	6082      	str	r2, [r0, #8]
    4c1c:	6004      	str	r4, [r0, #0]
    4c1e:	684c      	ldr	r4, [r1, #4]
    4c20:	6044      	str	r4, [r0, #4]
    4c22:	688c      	ldr	r4, [r1, #8]
    4c24:	7302      	strb	r2, [r0, #12]
    4c26:	6084      	str	r4, [r0, #8]
    4c28:	600a      	str	r2, [r1, #0]
    4c2a:	604a      	str	r2, [r1, #4]
    4c2c:	608a      	str	r2, [r1, #8]
    4c2e:	bd10      	pop	{r4, pc}

00004c30 <_ZN6StringD1Ev>:
    4c30:	b510      	push	{r4, lr}
    4c32:	4604      	mov	r4, r0
    4c34:	6800      	ldr	r0, [r0, #0]
    4c36:	f001 fd57 	bl	66e8 <free>
    4c3a:	4620      	mov	r0, r4
    4c3c:	bd10      	pop	{r4, pc}

00004c3e <_ZN6String12changeBufferEj>:
    4c3e:	b538      	push	{r3, r4, r5, lr}
    4c40:	4604      	mov	r4, r0
    4c42:	460d      	mov	r5, r1
    4c44:	6800      	ldr	r0, [r0, #0]
    4c46:	3101      	adds	r1, #1
    4c48:	f001 fe1a 	bl	6880 <realloc>
    4c4c:	b110      	cbz	r0, 4c54 <_ZN6String12changeBufferEj+0x16>
    4c4e:	e884 0021 	stmia.w	r4, {r0, r5}
    4c52:	2001      	movs	r0, #1
    4c54:	bd38      	pop	{r3, r4, r5, pc}

00004c56 <_ZN6String7reserveEj>:
    4c56:	6843      	ldr	r3, [r0, #4]
    4c58:	428b      	cmp	r3, r1
    4c5a:	b510      	push	{r4, lr}
    4c5c:	4604      	mov	r4, r0
    4c5e:	d206      	bcs.n	4c6e <_ZN6String7reserveEj+0x18>
    4c60:	f7ff ffed 	bl	4c3e <_ZN6String12changeBufferEj>
    4c64:	b120      	cbz	r0, 4c70 <_ZN6String7reserveEj+0x1a>
    4c66:	68a3      	ldr	r3, [r4, #8]
    4c68:	b90b      	cbnz	r3, 4c6e <_ZN6String7reserveEj+0x18>
    4c6a:	6822      	ldr	r2, [r4, #0]
    4c6c:	7013      	strb	r3, [r2, #0]
    4c6e:	2001      	movs	r0, #1
    4c70:	bd10      	pop	{r4, pc}

00004c72 <_ZN6String4copyEPKcj>:
    4c72:	b5f8      	push	{r3, r4, r5, r6, r7, lr}
    4c74:	4604      	mov	r4, r0
    4c76:	460f      	mov	r7, r1
    4c78:	4615      	mov	r5, r2
    4c7a:	b922      	cbnz	r2, 4c86 <_ZN6String4copyEPKcj+0x14>
    4c7c:	6803      	ldr	r3, [r0, #0]
    4c7e:	b103      	cbz	r3, 4c82 <_ZN6String4copyEPKcj+0x10>
    4c80:	701a      	strb	r2, [r3, #0]
    4c82:	2300      	movs	r3, #0
    4c84:	e00b      	b.n	4c9e <_ZN6String4copyEPKcj+0x2c>
    4c86:	4611      	mov	r1, r2
    4c88:	f7ff ffe5 	bl	4c56 <_ZN6String7reserveEj>
    4c8c:	4606      	mov	r6, r0
    4c8e:	b940      	cbnz	r0, 4ca2 <_ZN6String4copyEPKcj+0x30>
    4c90:	6820      	ldr	r0, [r4, #0]
    4c92:	b110      	cbz	r0, 4c9a <_ZN6String4copyEPKcj+0x28>
    4c94:	f001 fd28 	bl	66e8 <free>
    4c98:	6026      	str	r6, [r4, #0]
    4c9a:	2300      	movs	r3, #0
    4c9c:	6063      	str	r3, [r4, #4]
    4c9e:	60a3      	str	r3, [r4, #8]
    4ca0:	e004      	b.n	4cac <_ZN6String4copyEPKcj+0x3a>
    4ca2:	60a5      	str	r5, [r4, #8]
    4ca4:	6820      	ldr	r0, [r4, #0]
    4ca6:	4639      	mov	r1, r7
    4ca8:	f001 fe1b 	bl	68e2 <strcpy>
    4cac:	4620      	mov	r0, r4
    4cae:	bdf8      	pop	{r3, r4, r5, r6, r7, pc}

00004cb0 <_ZN6StringC1EPKc>:
    4cb0:	b538      	push	{r3, r4, r5, lr}
    4cb2:	2300      	movs	r3, #0
    4cb4:	4604      	mov	r4, r0
    4cb6:	6003      	str	r3, [r0, #0]
    4cb8:	6043      	str	r3, [r0, #4]
    4cba:	6083      	str	r3, [r0, #8]
    4cbc:	7303      	strb	r3, [r0, #12]
    4cbe:	460d      	mov	r5, r1
    4cc0:	b139      	cbz	r1, 4cd2 <_ZN6StringC1EPKc+0x22>
    4cc2:	4608      	mov	r0, r1
    4cc4:	f001 fe15 	bl	68f2 <strlen>
    4cc8:	4629      	mov	r1, r5
    4cca:	4602      	mov	r2, r0
    4ccc:	4620      	mov	r0, r4
    4cce:	f7ff ffd0 	bl	4c72 <_ZN6String4copyEPKcj>
    4cd2:	4620      	mov	r0, r4
    4cd4:	bd38      	pop	{r3, r4, r5, pc}

00004cd6 <_ZN6StringC1EPK19__FlashStringHelper>:
    4cd6:	b510      	push	{r4, lr}
    4cd8:	2300      	movs	r3, #0
    4cda:	4604      	mov	r4, r0
    4cdc:	6003      	str	r3, [r0, #0]
    4cde:	6043      	str	r3, [r0, #4]
    4ce0:	6083      	str	r3, [r0, #8]
    4ce2:	7303      	strb	r3, [r0, #12]
    4ce4:	f000 fc56 	bl	5594 <_ZN6String4copyEPK19__FlashStringHelper>
    4ce8:	4620      	mov	r0, r4
    4cea:	bd10      	pop	{r4, pc}

00004cec <_ZN6String4moveERS_>:
    4cec:	b538      	push	{r3, r4, r5, lr}
    4cee:	4605      	mov	r5, r0
    4cf0:	6800      	ldr	r0, [r0, #0]
    4cf2:	460c      	mov	r4, r1
    4cf4:	b160      	cbz	r0, 4d10 <_ZN6String4moveERS_+0x24>
    4cf6:	686a      	ldr	r2, [r5, #4]
    4cf8:	688b      	ldr	r3, [r1, #8]
    4cfa:	429a      	cmp	r2, r3
    4cfc:	d306      	bcc.n	4d0c <_ZN6String4moveERS_+0x20>
    4cfe:	6809      	ldr	r1, [r1, #0]
    4d00:	f001 fdef 	bl	68e2 <strcpy>
    4d04:	68a3      	ldr	r3, [r4, #8]
    4d06:	60ab      	str	r3, [r5, #8]
    4d08:	2300      	movs	r3, #0
    4d0a:	e00a      	b.n	4d22 <_ZN6String4moveERS_+0x36>
    4d0c:	f001 fcec 	bl	66e8 <free>
    4d10:	6823      	ldr	r3, [r4, #0]
    4d12:	602b      	str	r3, [r5, #0]
    4d14:	6863      	ldr	r3, [r4, #4]
    4d16:	606b      	str	r3, [r5, #4]
    4d18:	68a3      	ldr	r3, [r4, #8]
    4d1a:	60ab      	str	r3, [r5, #8]
    4d1c:	2300      	movs	r3, #0
    4d1e:	6023      	str	r3, [r4, #0]
    4d20:	6063      	str	r3, [r4, #4]
    4d22:	60a3      	str	r3, [r4, #8]
    4d24:	bd38      	pop	{r3, r4, r5, pc}

00004d26 <_ZN6StringaSERKS_>:
    4d26:	4281      	cmp	r1, r0
    4d28:	460b      	mov	r3, r1
    4d2a:	d003      	beq.n	4d34 <_ZN6StringaSERKS_+0xe>
    4d2c:	6809      	ldr	r1, [r1, #0]
    4d2e:	689a      	ldr	r2, [r3, #8]
    4d30:	f7ff bf9f 	b.w	4c72 <_ZN6String4copyEPKcj>
    4d34:	4770      	bx	lr

00004d36 <_ZN6StringC1ERKS_>:
    4d36:	b510      	push	{r4, lr}
    4d38:	2300      	movs	r3, #0
    4d3a:	4604      	mov	r4, r0
    4d3c:	6003      	str	r3, [r0, #0]
    4d3e:	6043      	str	r3, [r0, #4]
    4d40:	6083      	str	r3, [r0, #8]
    4d42:	7303      	strb	r3, [r0, #12]
    4d44:	f7ff ffef 	bl	4d26 <_ZN6StringaSERKS_>
    4d48:	4620      	mov	r0, r4
    4d4a:	bd10      	pop	{r4, pc}

00004d4c <_ZN6StringaSEOS_>:
    4d4c:	4288      	cmp	r0, r1
    4d4e:	b510      	push	{r4, lr}
    4d50:	4604      	mov	r4, r0
    4d52:	d001      	beq.n	4d58 <_ZN6StringaSEOS_+0xc>
    4d54:	f7ff ffca 	bl	4cec <_ZN6String4moveERS_>
    4d58:	4620      	mov	r0, r4
    4d5a:	bd10      	pop	{r4, pc}

00004d5c <_ZN6StringaSEO15StringSumHelper>:
    4d5c:	4288      	cmp	r0, r1
    4d5e:	b510      	push	{r4, lr}
    4d60:	4604      	mov	r4, r0
    4d62:	d001      	beq.n	4d68 <_ZN6StringaSEO15StringSumHelper+0xc>
    4d64:	f7ff ffc2 	bl	4cec <_ZN6String4moveERS_>
    4d68:	4620      	mov	r0, r4
    4d6a:	bd10      	pop	{r4, pc}

00004d6c <_ZN6StringaSEPKc>:
    4d6c:	b538      	push	{r3, r4, r5, lr}
    4d6e:	4605      	mov	r5, r0
    4d70:	460c      	mov	r4, r1
    4d72:	b141      	cbz	r1, 4d86 <_ZN6StringaSEPKc+0x1a>
    4d74:	4608      	mov	r0, r1
    4d76:	f001 fdbc 	bl	68f2 <strlen>
    4d7a:	4621      	mov	r1, r4
    4d7c:	4602      	mov	r2, r0
    4d7e:	4628      	mov	r0, r5
    4d80:	f7ff ff77 	bl	4c72 <_ZN6String4copyEPKcj>
    4d84:	e000      	b.n	4d88 <_ZN6StringaSEPKc+0x1c>
    4d86:	60a9      	str	r1, [r5, #8]
    4d88:	4628      	mov	r0, r5
    4d8a:	bd38      	pop	{r3, r4, r5, pc}

00004d8c <_ZN6StringC1Eh>:
    4d8c:	b513      	push	{r0, r1, r4, lr}
    4d8e:	2300      	movs	r3, #0
    4d90:	4604      	mov	r4, r0
    4d92:	6003      	str	r3, [r0, #0]
    4d94:	6043      	str	r3, [r0, #4]
    4d96:	6083      	str	r3, [r0, #8]
    4d98:	7303      	strb	r3, [r0, #12]
    4d9a:	220a      	movs	r2, #10
    4d9c:	4608      	mov	r0, r1
    4d9e:	a901      	add	r1, sp, #4
    4da0:	f7fb fe24 	bl	9ec <ultoa>
    4da4:	4620      	mov	r0, r4
    4da6:	a901      	add	r1, sp, #4
    4da8:	f7ff ffe0 	bl	4d6c <_ZN6StringaSEPKc>
    4dac:	4620      	mov	r0, r4
    4dae:	b002      	add	sp, #8
    4db0:	bd10      	pop	{r4, pc}

00004db2 <_ZN6StringC1Eih>:
    4db2:	b510      	push	{r4, lr}
    4db4:	2300      	movs	r3, #0
    4db6:	b086      	sub	sp, #24
    4db8:	4604      	mov	r4, r0
    4dba:	6003      	str	r3, [r0, #0]
    4dbc:	6043      	str	r3, [r0, #4]
    4dbe:	6083      	str	r3, [r0, #8]
    4dc0:	7303      	strb	r3, [r0, #12]
    4dc2:	4608      	mov	r0, r1
    4dc4:	a901      	add	r1, sp, #4
    4dc6:	f7fb fe2f 	bl	a28 <ltoa>
    4dca:	4620      	mov	r0, r4
    4dcc:	a901      	add	r1, sp, #4
    4dce:	f7ff ffcd 	bl	4d6c <_ZN6StringaSEPKc>
    4dd2:	4620      	mov	r0, r4
    4dd4:	b006      	add	sp, #24
    4dd6:	bd10      	pop	{r4, pc}

00004dd8 <_ZN6StringC1Ejh>:
    4dd8:	b510      	push	{r4, lr}
    4dda:	2300      	movs	r3, #0
    4ddc:	b086      	sub	sp, #24
    4dde:	4604      	mov	r4, r0
    4de0:	6003      	str	r3, [r0, #0]
    4de2:	6043      	str	r3, [r0, #4]
    4de4:	6083      	str	r3, [r0, #8]
    4de6:	7303      	strb	r3, [r0, #12]
    4de8:	4608      	mov	r0, r1
    4dea:	a901      	add	r1, sp, #4
    4dec:	f7fb fdfe 	bl	9ec <ultoa>
    4df0:	4620      	mov	r0, r4
    4df2:	a901      	add	r1, sp, #4
    4df4:	f7ff ffba 	bl	4d6c <_ZN6StringaSEPKc>
    4df8:	4620      	mov	r0, r4
    4dfa:	b006      	add	sp, #24
    4dfc:	bd10      	pop	{r4, pc}

00004dfe <_ZN6StringC1Elh>:
    4dfe:	b510      	push	{r4, lr}
    4e00:	2300      	movs	r3, #0
    4e02:	b08a      	sub	sp, #40	; 0x28
    4e04:	4604      	mov	r4, r0
    4e06:	6003      	str	r3, [r0, #0]
    4e08:	6043      	str	r3, [r0, #4]
    4e0a:	6083      	str	r3, [r0, #8]
    4e0c:	7303      	strb	r3, [r0, #12]
    4e0e:	4608      	mov	r0, r1
    4e10:	a901      	add	r1, sp, #4
    4e12:	f7fb fe09 	bl	a28 <ltoa>
    4e16:	4620      	mov	r0, r4
    4e18:	a901      	add	r1, sp, #4
    4e1a:	f7ff ffa7 	bl	4d6c <_ZN6StringaSEPKc>
    4e1e:	4620      	mov	r0, r4
    4e20:	b00a      	add	sp, #40	; 0x28
    4e22:	bd10      	pop	{r4, pc}

00004e24 <_ZN6StringC1Emh>:
    4e24:	b510      	push	{r4, lr}
    4e26:	2300      	movs	r3, #0
    4e28:	b08a      	sub	sp, #40	; 0x28
    4e2a:	4604      	mov	r4, r0
    4e2c:	6003      	str	r3, [r0, #0]
    4e2e:	6043      	str	r3, [r0, #4]
    4e30:	6083      	str	r3, [r0, #8]
    4e32:	7303      	strb	r3, [r0, #12]
    4e34:	4608      	mov	r0, r1
    4e36:	a901      	add	r1, sp, #4
    4e38:	f7fb fdd8 	bl	9ec <ultoa>
    4e3c:	4620      	mov	r0, r4
    4e3e:	a901      	add	r1, sp, #4
    4e40:	f7ff ff94 	bl	4d6c <_ZN6StringaSEPKc>
    4e44:	4620      	mov	r0, r4
    4e46:	b00a      	add	sp, #40	; 0x28
    4e48:	bd10      	pop	{r4, pc}

00004e4a <_ZN6StringC1Efh>:
    4e4a:	b510      	push	{r4, lr}
    4e4c:	2300      	movs	r3, #0
    4e4e:	b08a      	sub	sp, #40	; 0x28
    4e50:	4604      	mov	r4, r0
    4e52:	6003      	str	r3, [r0, #0]
    4e54:	6043      	str	r3, [r0, #4]
    4e56:	6083      	str	r3, [r0, #8]
    4e58:	7303      	strb	r3, [r0, #12]
    4e5a:	466b      	mov	r3, sp
    4e5c:	4608      	mov	r0, r1
    4e5e:	1c91      	adds	r1, r2, #2
    4e60:	f7fb fdf2 	bl	a48 <dtostrf>
    4e64:	4601      	mov	r1, r0
    4e66:	4620      	mov	r0, r4
    4e68:	f7ff ff80 	bl	4d6c <_ZN6StringaSEPKc>
    4e6c:	4620      	mov	r0, r4
    4e6e:	b00a      	add	sp, #40	; 0x28
    4e70:	bd10      	pop	{r4, pc}

00004e72 <_ZN6StringaSEPK19__FlashStringHelper>:
    4e72:	b510      	push	{r4, lr}
    4e74:	4604      	mov	r4, r0
    4e76:	f000 fb8d 	bl	5594 <_ZN6String4copyEPK19__FlashStringHelper>
    4e7a:	4620      	mov	r0, r4
    4e7c:	bd10      	pop	{r4, pc}

00004e7e <_ZN6StringaSEc>:
    4e7e:	b507      	push	{r0, r1, r2, lr}
    4e80:	2300      	movs	r3, #0
    4e82:	f88d 1004 	strb.w	r1, [sp, #4]
    4e86:	2201      	movs	r2, #1
    4e88:	a901      	add	r1, sp, #4
    4e8a:	f88d 3005 	strb.w	r3, [sp, #5]
    4e8e:	f7ff fef0 	bl	4c72 <_ZN6String4copyEPKcj>
    4e92:	b003      	add	sp, #12
    4e94:	f85d fb04 	ldr.w	pc, [sp], #4

00004e98 <_ZN6StringC1Ec>:
    4e98:	b510      	push	{r4, lr}
    4e9a:	2300      	movs	r3, #0
    4e9c:	4604      	mov	r4, r0
    4e9e:	6003      	str	r3, [r0, #0]
    4ea0:	6043      	str	r3, [r0, #4]
    4ea2:	6083      	str	r3, [r0, #8]
    4ea4:	7303      	strb	r3, [r0, #12]
    4ea6:	f7ff ffea 	bl	4e7e <_ZN6StringaSEc>
    4eaa:	4620      	mov	r0, r4
    4eac:	bd10      	pop	{r4, pc}

00004eae <_ZN6String6appendEPKcj>:
    4eae:	e92d 43f8 	stmdb	sp!, {r3, r4, r5, r6, r7, r8, r9, lr}
    4eb2:	6803      	ldr	r3, [r0, #0]
    4eb4:	6886      	ldr	r6, [r0, #8]
    4eb6:	4299      	cmp	r1, r3
    4eb8:	4604      	mov	r4, r0
    4eba:	460d      	mov	r5, r1
    4ebc:	4690      	mov	r8, r2
    4ebe:	d306      	bcc.n	4ece <_ZN6String6appendEPKcj+0x20>
    4ec0:	199a      	adds	r2, r3, r6
    4ec2:	4291      	cmp	r1, r2
    4ec4:	d203      	bcs.n	4ece <_ZN6String6appendEPKcj+0x20>
    4ec6:	ebc3 0901 	rsb	r9, r3, r1
    4eca:	2701      	movs	r7, #1
    4ecc:	e000      	b.n	4ed0 <_ZN6String6appendEPKcj+0x22>
    4ece:	2700      	movs	r7, #0
    4ed0:	f1b8 0f00 	cmp.w	r8, #0
    4ed4:	d016      	beq.n	4f04 <_ZN6String6appendEPKcj+0x56>
    4ed6:	4446      	add	r6, r8
    4ed8:	4620      	mov	r0, r4
    4eda:	4631      	mov	r1, r6
    4edc:	f7ff febb 	bl	4c56 <_ZN6String7reserveEj>
    4ee0:	b180      	cbz	r0, 4f04 <_ZN6String6appendEPKcj+0x56>
    4ee2:	68a0      	ldr	r0, [r4, #8]
    4ee4:	6821      	ldr	r1, [r4, #0]
    4ee6:	b147      	cbz	r7, 4efa <_ZN6String6appendEPKcj+0x4c>
    4ee8:	4408      	add	r0, r1
    4eea:	4642      	mov	r2, r8
    4eec:	4449      	add	r1, r9
    4eee:	f001 fc03 	bl	66f8 <memcpy>
    4ef2:	6823      	ldr	r3, [r4, #0]
    4ef4:	2200      	movs	r2, #0
    4ef6:	559a      	strb	r2, [r3, r6]
    4ef8:	e003      	b.n	4f02 <_ZN6String6appendEPKcj+0x54>
    4efa:	4408      	add	r0, r1
    4efc:	4629      	mov	r1, r5
    4efe:	f001 fcf0 	bl	68e2 <strcpy>
    4f02:	60a6      	str	r6, [r4, #8]
    4f04:	4620      	mov	r0, r4
    4f06:	e8bd 83f8 	ldmia.w	sp!, {r3, r4, r5, r6, r7, r8, r9, pc}

00004f0a <_ZN6String6appendERKS_>:
    4f0a:	460b      	mov	r3, r1
    4f0c:	6809      	ldr	r1, [r1, #0]
    4f0e:	689a      	ldr	r2, [r3, #8]
    4f10:	f7ff bfcd 	b.w	4eae <_ZN6String6appendEPKcj>

00004f14 <_ZN6String6appendEPKc>:
    4f14:	b538      	push	{r3, r4, r5, lr}
    4f16:	4605      	mov	r5, r0
    4f18:	460c      	mov	r4, r1
    4f1a:	b139      	cbz	r1, 4f2c <_ZN6String6appendEPKc+0x18>
    4f1c:	4608      	mov	r0, r1
    4f1e:	f001 fce8 	bl	68f2 <strlen>
    4f22:	4621      	mov	r1, r4
    4f24:	4602      	mov	r2, r0
    4f26:	4628      	mov	r0, r5
    4f28:	f7ff ffc1 	bl	4eae <_ZN6String6appendEPKcj>
    4f2c:	4628      	mov	r0, r5
    4f2e:	bd38      	pop	{r3, r4, r5, pc}

00004f30 <_ZN6String6appendEc>:
    4f30:	b513      	push	{r0, r1, r4, lr}
    4f32:	2300      	movs	r3, #0
    4f34:	f88d 1004 	strb.w	r1, [sp, #4]
    4f38:	2201      	movs	r2, #1
    4f3a:	a901      	add	r1, sp, #4
    4f3c:	4604      	mov	r4, r0
    4f3e:	f88d 3005 	strb.w	r3, [sp, #5]
    4f42:	f7ff ffb4 	bl	4eae <_ZN6String6appendEPKcj>
    4f46:	4620      	mov	r0, r4
    4f48:	b002      	add	sp, #8
    4f4a:	bd10      	pop	{r4, pc}

00004f4c <_ZN6String6appendEi>:
    4f4c:	b51f      	push	{r0, r1, r2, r3, r4, lr}
    4f4e:	4604      	mov	r4, r0
    4f50:	220a      	movs	r2, #10
    4f52:	4608      	mov	r0, r1
    4f54:	a901      	add	r1, sp, #4
    4f56:	f7fb fd67 	bl	a28 <ltoa>
    4f5a:	a801      	add	r0, sp, #4
    4f5c:	f001 fcc9 	bl	68f2 <strlen>
    4f60:	a901      	add	r1, sp, #4
    4f62:	4602      	mov	r2, r0
    4f64:	4620      	mov	r0, r4
    4f66:	f7ff ffa2 	bl	4eae <_ZN6String6appendEPKcj>
    4f6a:	4620      	mov	r0, r4
    4f6c:	b004      	add	sp, #16
    4f6e:	bd10      	pop	{r4, pc}

00004f70 <_ZN6String6appendEj>:
    4f70:	b51f      	push	{r0, r1, r2, r3, r4, lr}
    4f72:	4604      	mov	r4, r0
    4f74:	220a      	movs	r2, #10
    4f76:	4608      	mov	r0, r1
    4f78:	a901      	add	r1, sp, #4
    4f7a:	f7fb fd37 	bl	9ec <ultoa>
    4f7e:	a801      	add	r0, sp, #4
    4f80:	f001 fcb7 	bl	68f2 <strlen>
    4f84:	a901      	add	r1, sp, #4
    4f86:	4602      	mov	r2, r0
    4f88:	4620      	mov	r0, r4
    4f8a:	f7ff ff90 	bl	4eae <_ZN6String6appendEPKcj>
    4f8e:	4620      	mov	r0, r4
    4f90:	b004      	add	sp, #16
    4f92:	bd10      	pop	{r4, pc}

00004f94 <_ZN6String6appendEl>:
    4f94:	b51f      	push	{r0, r1, r2, r3, r4, lr}
    4f96:	4604      	mov	r4, r0
    4f98:	220a      	movs	r2, #10
    4f9a:	4608      	mov	r0, r1
    4f9c:	a901      	add	r1, sp, #4
    4f9e:	f7fb fd43 	bl	a28 <ltoa>
    4fa2:	a801      	add	r0, sp, #4
    4fa4:	f001 fca5 	bl	68f2 <strlen>
    4fa8:	a901      	add	r1, sp, #4
    4faa:	4602      	mov	r2, r0
    4fac:	4620      	mov	r0, r4
    4fae:	f7ff ff7e 	bl	4eae <_ZN6String6appendEPKcj>
    4fb2:	4620      	mov	r0, r4
    4fb4:	b004      	add	sp, #16
    4fb6:	bd10      	pop	{r4, pc}

00004fb8 <_ZN6String6appendEm>:
    4fb8:	b51f      	push	{r0, r1, r2, r3, r4, lr}
    4fba:	4604      	mov	r4, r0
    4fbc:	220a      	movs	r2, #10
    4fbe:	4608      	mov	r0, r1
    4fc0:	a901      	add	r1, sp, #4
    4fc2:	f7fb fd13 	bl	9ec <ultoa>
    4fc6:	a801      	add	r0, sp, #4
    4fc8:	f001 fc93 	bl	68f2 <strlen>
    4fcc:	a901      	add	r1, sp, #4
    4fce:	4602      	mov	r2, r0
    4fd0:	4620      	mov	r0, r4
    4fd2:	f7ff ff6c 	bl	4eae <_ZN6String6appendEPKcj>
    4fd6:	4620      	mov	r0, r4
    4fd8:	b004      	add	sp, #16
    4fda:	bd10      	pop	{r4, pc}

00004fdc <_ZN6String6appendEf>:
    4fdc:	b510      	push	{r4, lr}
    4fde:	b088      	sub	sp, #32
    4fe0:	4604      	mov	r4, r0
    4fe2:	466b      	mov	r3, sp
    4fe4:	2202      	movs	r2, #2
    4fe6:	4608      	mov	r0, r1
    4fe8:	2104      	movs	r1, #4
    4fea:	f7fb fd2d 	bl	a48 <dtostrf>
    4fee:	4668      	mov	r0, sp
    4ff0:	f001 fc7f 	bl	68f2 <strlen>
    4ff4:	4669      	mov	r1, sp
    4ff6:	4602      	mov	r2, r0
    4ff8:	4620      	mov	r0, r4
    4ffa:	f7ff ff58 	bl	4eae <_ZN6String6appendEPKcj>
    4ffe:	4620      	mov	r0, r4
    5000:	b008      	add	sp, #32
    5002:	bd10      	pop	{r4, pc}

00005004 <_ZplRK15StringSumHelperRK6String>:
    5004:	b510      	push	{r4, lr}
    5006:	460b      	mov	r3, r1
    5008:	4604      	mov	r4, r0
    500a:	6809      	ldr	r1, [r1, #0]
    500c:	689a      	ldr	r2, [r3, #8]
    500e:	f7ff ff4e 	bl	4eae <_ZN6String6appendEPKcj>
    5012:	4620      	mov	r0, r4
    5014:	bd10      	pop	{r4, pc}

00005016 <_ZplRK15StringSumHelperPKc>:
    5016:	b538      	push	{r3, r4, r5, lr}
    5018:	4605      	mov	r5, r0
    501a:	460c      	mov	r4, r1
    501c:	b139      	cbz	r1, 502e <_ZplRK15StringSumHelperPKc+0x18>
    501e:	4608      	mov	r0, r1
    5020:	f001 fc67 	bl	68f2 <strlen>
    5024:	4621      	mov	r1, r4
    5026:	4602      	mov	r2, r0
    5028:	4628      	mov	r0, r5
    502a:	f7ff ff40 	bl	4eae <_ZN6String6appendEPKcj>
    502e:	4628      	mov	r0, r5
    5030:	bd38      	pop	{r3, r4, r5, pc}

00005032 <_ZplRK15StringSumHelperPK19__FlashStringHelper>:
    5032:	b538      	push	{r3, r4, r5, lr}
    5034:	4604      	mov	r4, r0
    5036:	4608      	mov	r0, r1
    5038:	460d      	mov	r5, r1
    503a:	f001 fc5a 	bl	68f2 <strlen>
    503e:	4629      	mov	r1, r5
    5040:	4602      	mov	r2, r0
    5042:	4620      	mov	r0, r4
    5044:	f7ff ff33 	bl	4eae <_ZN6String6appendEPKcj>
    5048:	4620      	mov	r0, r4
    504a:	bd38      	pop	{r3, r4, r5, pc}

0000504c <_ZplRK15StringSumHelperc>:
    504c:	b510      	push	{r4, lr}
    504e:	4604      	mov	r4, r0
    5050:	f7ff ff6e 	bl	4f30 <_ZN6String6appendEc>
    5054:	4620      	mov	r0, r4
    5056:	bd10      	pop	{r4, pc}

00005058 <_ZplRK15StringSumHelperh>:
    5058:	b510      	push	{r4, lr}
    505a:	4604      	mov	r4, r0
    505c:	f7ff ff76 	bl	4f4c <_ZN6String6appendEi>
    5060:	4620      	mov	r0, r4
    5062:	bd10      	pop	{r4, pc}

00005064 <_ZplRK15StringSumHelperi>:
    5064:	b510      	push	{r4, lr}
    5066:	4604      	mov	r4, r0
    5068:	f7ff ff94 	bl	4f94 <_ZN6String6appendEl>
    506c:	4620      	mov	r0, r4
    506e:	bd10      	pop	{r4, pc}

00005070 <_ZplRK15StringSumHelperj>:
    5070:	b510      	push	{r4, lr}
    5072:	4604      	mov	r4, r0
    5074:	f7ff ffa0 	bl	4fb8 <_ZN6String6appendEm>
    5078:	4620      	mov	r0, r4
    507a:	bd10      	pop	{r4, pc}

0000507c <_ZplRK15StringSumHelperl>:
    507c:	b510      	push	{r4, lr}
    507e:	4604      	mov	r4, r0
    5080:	f7ff ff88 	bl	4f94 <_ZN6String6appendEl>
    5084:	4620      	mov	r0, r4
    5086:	bd10      	pop	{r4, pc}

00005088 <_ZplRK15StringSumHelperm>:
    5088:	b510      	push	{r4, lr}
    508a:	4604      	mov	r4, r0
    508c:	f7ff ff94 	bl	4fb8 <_ZN6String6appendEm>
    5090:	4620      	mov	r0, r4
    5092:	bd10      	pop	{r4, pc}

00005094 <_ZplRK15StringSumHelperf>:
    5094:	b510      	push	{r4, lr}
    5096:	4604      	mov	r4, r0
    5098:	f7ff ffa0 	bl	4fdc <_ZN6String6appendEf>
    509c:	4620      	mov	r0, r4
    509e:	bd10      	pop	{r4, pc}

000050a0 <_ZplRK15StringSumHelperd>:
    50a0:	b510      	push	{r4, lr}
    50a2:	4619      	mov	r1, r3
    50a4:	4604      	mov	r4, r0
    50a6:	4610      	mov	r0, r2
    50a8:	f000 ff72 	bl	5f90 <__aeabi_d2f>
    50ac:	4601      	mov	r1, r0
    50ae:	4620      	mov	r0, r4
    50b0:	f7ff ff94 	bl	4fdc <_ZN6String6appendEf>
    50b4:	4620      	mov	r0, r4
    50b6:	bd10      	pop	{r4, pc}

000050b8 <_ZNK6String9compareToERKS_>:
    50b8:	6803      	ldr	r3, [r0, #0]
    50ba:	680a      	ldr	r2, [r1, #0]
    50bc:	b10b      	cbz	r3, 50c2 <_ZNK6String9compareToERKS_+0xa>
    50be:	b95a      	cbnz	r2, 50d8 <_ZNK6String9compareToERKS_+0x20>
    50c0:	e005      	b.n	50ce <_ZNK6String9compareToERKS_+0x16>
    50c2:	b122      	cbz	r2, 50ce <_ZNK6String9compareToERKS_+0x16>
    50c4:	6889      	ldr	r1, [r1, #8]
    50c6:	b111      	cbz	r1, 50ce <_ZNK6String9compareToERKS_+0x16>
    50c8:	7810      	ldrb	r0, [r2, #0]
    50ca:	4240      	negs	r0, r0
    50cc:	4770      	bx	lr
    50ce:	b13b      	cbz	r3, 50e0 <_ZNK6String9compareToERKS_+0x28>
    50d0:	6880      	ldr	r0, [r0, #8]
    50d2:	b130      	cbz	r0, 50e2 <_ZNK6String9compareToERKS_+0x2a>
    50d4:	7818      	ldrb	r0, [r3, #0]
    50d6:	4770      	bx	lr
    50d8:	4618      	mov	r0, r3
    50da:	4611      	mov	r1, r2
    50dc:	f001 bbf7 	b.w	68ce <strcmp>
    50e0:	4618      	mov	r0, r3
    50e2:	4770      	bx	lr

000050e4 <_ZNK6String6equalsERKS_>:
    50e4:	b508      	push	{r3, lr}
    50e6:	6882      	ldr	r2, [r0, #8]
    50e8:	688b      	ldr	r3, [r1, #8]
    50ea:	429a      	cmp	r2, r3
    50ec:	d106      	bne.n	50fc <_ZNK6String6equalsERKS_+0x18>
    50ee:	f7ff ffe3 	bl	50b8 <_ZNK6String9compareToERKS_>
    50f2:	f1d0 0001 	rsbs	r0, r0, #1
    50f6:	bf38      	it	cc
    50f8:	2000      	movcc	r0, #0
    50fa:	bd08      	pop	{r3, pc}
    50fc:	2000      	movs	r0, #0
    50fe:	bd08      	pop	{r3, pc}

00005100 <_ZNK6String6equalsEPKc>:
    5100:	6882      	ldr	r2, [r0, #8]
    5102:	b508      	push	{r3, lr}
    5104:	460b      	mov	r3, r1
    5106:	b912      	cbnz	r2, 510e <_ZNK6String6equalsEPKc+0xe>
    5108:	b919      	cbnz	r1, 5112 <_ZNK6String6equalsEPKc+0x12>
    510a:	2001      	movs	r0, #1
    510c:	bd08      	pop	{r3, pc}
    510e:	b911      	cbnz	r1, 5116 <_ZNK6String6equalsEPKc+0x16>
    5110:	6803      	ldr	r3, [r0, #0]
    5112:	7818      	ldrb	r0, [r3, #0]
    5114:	e002      	b.n	511c <_ZNK6String6equalsEPKc+0x1c>
    5116:	6800      	ldr	r0, [r0, #0]
    5118:	f001 fbd9 	bl	68ce <strcmp>
    511c:	f1d0 0001 	rsbs	r0, r0, #1
    5120:	bf38      	it	cc
    5122:	2000      	movcc	r0, #0
    5124:	bd08      	pop	{r3, pc}

00005126 <_ZNK6StringltERKS_>:
    5126:	b508      	push	{r3, lr}
    5128:	f7ff ffc6 	bl	50b8 <_ZNK6String9compareToERKS_>
    512c:	0fc0      	lsrs	r0, r0, #31
    512e:	bd08      	pop	{r3, pc}

00005130 <_ZNK6StringgtERKS_>:
    5130:	b508      	push	{r3, lr}
    5132:	f7ff ffc1 	bl	50b8 <_ZNK6String9compareToERKS_>
    5136:	2800      	cmp	r0, #0
    5138:	bfd4      	ite	le
    513a:	2000      	movle	r0, #0
    513c:	2001      	movgt	r0, #1
    513e:	bd08      	pop	{r3, pc}

00005140 <_ZNK6StringleERKS_>:
    5140:	b508      	push	{r3, lr}
    5142:	f7ff ffb9 	bl	50b8 <_ZNK6String9compareToERKS_>
    5146:	2800      	cmp	r0, #0
    5148:	bfcc      	ite	gt
    514a:	2000      	movgt	r0, #0
    514c:	2001      	movle	r0, #1
    514e:	bd08      	pop	{r3, pc}

00005150 <_ZNK6StringgeERKS_>:
    5150:	b508      	push	{r3, lr}
    5152:	f7ff ffb1 	bl	50b8 <_ZNK6String9compareToERKS_>
    5156:	43c0      	mvns	r0, r0
    5158:	0fc0      	lsrs	r0, r0, #31
    515a:	bd08      	pop	{r3, pc}

0000515c <_ZNK6String16equalsIgnoreCaseERKS_>:
    515c:	4288      	cmp	r0, r1
    515e:	b5f8      	push	{r3, r4, r5, r6, r7, lr}
    5160:	d014      	beq.n	518c <_ZNK6String16equalsIgnoreCaseERKS_+0x30>
    5162:	6883      	ldr	r3, [r0, #8]
    5164:	688a      	ldr	r2, [r1, #8]
    5166:	4293      	cmp	r3, r2
    5168:	d112      	bne.n	5190 <_ZNK6String16equalsIgnoreCaseERKS_+0x34>
    516a:	b17b      	cbz	r3, 518c <_ZNK6String16equalsIgnoreCaseERKS_+0x30>
    516c:	6806      	ldr	r6, [r0, #0]
    516e:	680d      	ldr	r5, [r1, #0]
    5170:	2400      	movs	r4, #0
    5172:	5d30      	ldrb	r0, [r6, r4]
    5174:	b150      	cbz	r0, 518c <_ZNK6String16equalsIgnoreCaseERKS_+0x30>
    5176:	f002 fb13 	bl	77a0 <tolower>
    517a:	4607      	mov	r7, r0
    517c:	5d28      	ldrb	r0, [r5, r4]
    517e:	f002 fb0f 	bl	77a0 <tolower>
    5182:	4287      	cmp	r7, r0
    5184:	f104 0401 	add.w	r4, r4, #1
    5188:	d0f3      	beq.n	5172 <_ZNK6String16equalsIgnoreCaseERKS_+0x16>
    518a:	e001      	b.n	5190 <_ZNK6String16equalsIgnoreCaseERKS_+0x34>
    518c:	2001      	movs	r0, #1
    518e:	bdf8      	pop	{r3, r4, r5, r6, r7, pc}
    5190:	2000      	movs	r0, #0
    5192:	bdf8      	pop	{r3, r4, r5, r6, r7, pc}

00005194 <_ZNK6String10startsWithERKS_j>:
    5194:	b510      	push	{r4, lr}
    5196:	688b      	ldr	r3, [r1, #8]
    5198:	6884      	ldr	r4, [r0, #8]
    519a:	1ae4      	subs	r4, r4, r3
    519c:	42a2      	cmp	r2, r4
    519e:	d80c      	bhi.n	51ba <_ZNK6String10startsWithERKS_j+0x26>
    51a0:	6800      	ldr	r0, [r0, #0]
    51a2:	b168      	cbz	r0, 51c0 <_ZNK6String10startsWithERKS_j+0x2c>
    51a4:	6809      	ldr	r1, [r1, #0]
    51a6:	b151      	cbz	r1, 51be <_ZNK6String10startsWithERKS_j+0x2a>
    51a8:	4410      	add	r0, r2
    51aa:	461a      	mov	r2, r3
    51ac:	f001 fba9 	bl	6902 <strncmp>
    51b0:	f1d0 0001 	rsbs	r0, r0, #1
    51b4:	bf38      	it	cc
    51b6:	2000      	movcc	r0, #0
    51b8:	bd10      	pop	{r4, pc}
    51ba:	2000      	movs	r0, #0
    51bc:	bd10      	pop	{r4, pc}
    51be:	4608      	mov	r0, r1
    51c0:	bd10      	pop	{r4, pc}

000051c2 <_ZNK6String10startsWithERKS_>:
    51c2:	6882      	ldr	r2, [r0, #8]
    51c4:	688b      	ldr	r3, [r1, #8]
    51c6:	429a      	cmp	r2, r3
    51c8:	d302      	bcc.n	51d0 <_ZNK6String10startsWithERKS_+0xe>
    51ca:	2200      	movs	r2, #0
    51cc:	f7ff bfe2 	b.w	5194 <_ZNK6String10startsWithERKS_j>
    51d0:	2000      	movs	r0, #0
    51d2:	4770      	bx	lr

000051d4 <_ZNK6String8endsWithERKS_>:
    51d4:	b508      	push	{r3, lr}
    51d6:	6882      	ldr	r2, [r0, #8]
    51d8:	688b      	ldr	r3, [r1, #8]
    51da:	429a      	cmp	r2, r3
    51dc:	d30c      	bcc.n	51f8 <_ZNK6String8endsWithERKS_+0x24>
    51de:	6800      	ldr	r0, [r0, #0]
    51e0:	b168      	cbz	r0, 51fe <_ZNK6String8endsWithERKS_+0x2a>
    51e2:	6809      	ldr	r1, [r1, #0]
    51e4:	b151      	cbz	r1, 51fc <_ZNK6String8endsWithERKS_+0x28>
    51e6:	1ad3      	subs	r3, r2, r3
    51e8:	4418      	add	r0, r3
    51ea:	f001 fb70 	bl	68ce <strcmp>
    51ee:	f1d0 0001 	rsbs	r0, r0, #1
    51f2:	bf38      	it	cc
    51f4:	2000      	movcc	r0, #0
    51f6:	bd08      	pop	{r3, pc}
    51f8:	2000      	movs	r0, #0
    51fa:	bd08      	pop	{r3, pc}
    51fc:	4608      	mov	r0, r1
    51fe:	bd08      	pop	{r3, pc}

00005200 <_ZN6String9setCharAtEjc>:
    5200:	6883      	ldr	r3, [r0, #8]
    5202:	4299      	cmp	r1, r3
    5204:	bf3c      	itt	cc
    5206:	6803      	ldrcc	r3, [r0, #0]
    5208:	545a      	strbcc	r2, [r3, r1]
    520a:	4770      	bx	lr

0000520c <_ZN6StringixEj>:
    520c:	6883      	ldr	r3, [r0, #8]
    520e:	4299      	cmp	r1, r3
    5210:	d201      	bcs.n	5216 <_ZN6StringixEj+0xa>
    5212:	6800      	ldr	r0, [r0, #0]
    5214:	b918      	cbnz	r0, 521e <_ZN6StringixEj+0x12>
    5216:	4803      	ldr	r0, [pc, #12]	; (5224 <_ZN6StringixEj+0x18>)
    5218:	2300      	movs	r3, #0
    521a:	7003      	strb	r3, [r0, #0]
    521c:	4770      	bx	lr
    521e:	4408      	add	r0, r1
    5220:	4770      	bx	lr
    5222:	bf00      	nop
    5224:	1fff0fd0 	.word	0x1fff0fd0

00005228 <_ZNK6StringixEj>:
    5228:	6883      	ldr	r3, [r0, #8]
    522a:	4299      	cmp	r1, r3
    522c:	d203      	bcs.n	5236 <_ZNK6StringixEj+0xe>
    522e:	6800      	ldr	r0, [r0, #0]
    5230:	b110      	cbz	r0, 5238 <_ZNK6StringixEj+0x10>
    5232:	5c40      	ldrb	r0, [r0, r1]
    5234:	4770      	bx	lr
    5236:	2000      	movs	r0, #0
    5238:	4770      	bx	lr

0000523a <_ZNK6String6charAtEj>:
    523a:	f7ff bff5 	b.w	5228 <_ZNK6StringixEj>

0000523e <_ZNK6String8getBytesEPhjj>:
    523e:	b538      	push	{r3, r4, r5, lr}
    5240:	460c      	mov	r4, r1
    5242:	b19a      	cbz	r2, 526c <_ZNK6String8getBytesEPhjj+0x2e>
    5244:	b191      	cbz	r1, 526c <_ZNK6String8getBytesEPhjj+0x2e>
    5246:	6881      	ldr	r1, [r0, #8]
    5248:	428b      	cmp	r3, r1
    524a:	d302      	bcc.n	5252 <_ZNK6String8getBytesEPhjj+0x14>
    524c:	2300      	movs	r3, #0
    524e:	7023      	strb	r3, [r4, #0]
    5250:	bd38      	pop	{r3, r4, r5, pc}
    5252:	1ac9      	subs	r1, r1, r3
    5254:	1e55      	subs	r5, r2, #1
    5256:	428d      	cmp	r5, r1
    5258:	bf28      	it	cs
    525a:	460d      	movcs	r5, r1
    525c:	6801      	ldr	r1, [r0, #0]
    525e:	462a      	mov	r2, r5
    5260:	4419      	add	r1, r3
    5262:	4620      	mov	r0, r4
    5264:	f001 fb64 	bl	6930 <strncpy>
    5268:	2300      	movs	r3, #0
    526a:	5563      	strb	r3, [r4, r5]
    526c:	bd38      	pop	{r3, r4, r5, pc}

0000526e <_ZNK6String7indexOfEcj>:
    526e:	6883      	ldr	r3, [r0, #8]
    5270:	429a      	cmp	r2, r3
    5272:	b510      	push	{r4, lr}
    5274:	d206      	bcs.n	5284 <_ZNK6String7indexOfEcj+0x16>
    5276:	6804      	ldr	r4, [r0, #0]
    5278:	18a0      	adds	r0, r4, r2
    527a:	f001 fb1b 	bl	68b4 <strchr>
    527e:	b108      	cbz	r0, 5284 <_ZNK6String7indexOfEcj+0x16>
    5280:	1b00      	subs	r0, r0, r4
    5282:	bd10      	pop	{r4, pc}
    5284:	f04f 30ff 	mov.w	r0, #4294967295
    5288:	bd10      	pop	{r4, pc}

0000528a <_ZNK6String7indexOfEc>:
    528a:	2200      	movs	r2, #0
    528c:	f7ff bfef 	b.w	526e <_ZNK6String7indexOfEcj>

00005290 <_ZNK6String7indexOfERKS_j>:
    5290:	6883      	ldr	r3, [r0, #8]
    5292:	429a      	cmp	r2, r3
    5294:	b510      	push	{r4, lr}
    5296:	d207      	bcs.n	52a8 <_ZNK6String7indexOfERKS_j+0x18>
    5298:	6804      	ldr	r4, [r0, #0]
    529a:	6809      	ldr	r1, [r1, #0]
    529c:	18a0      	adds	r0, r4, r2
    529e:	f001 fb6c 	bl	697a <strstr>
    52a2:	b108      	cbz	r0, 52a8 <_ZNK6String7indexOfERKS_j+0x18>
    52a4:	1b00      	subs	r0, r0, r4
    52a6:	bd10      	pop	{r4, pc}
    52a8:	f04f 30ff 	mov.w	r0, #4294967295
    52ac:	bd10      	pop	{r4, pc}

000052ae <_ZNK6String7indexOfERKS_>:
    52ae:	2200      	movs	r2, #0
    52b0:	f7ff bfee 	b.w	5290 <_ZNK6String7indexOfERKS_j>

000052b4 <_ZNK6String11lastIndexOfEcj>:
    52b4:	b5f8      	push	{r3, r4, r5, r6, r7, lr}
    52b6:	6883      	ldr	r3, [r0, #8]
    52b8:	429a      	cmp	r2, r3
    52ba:	4604      	mov	r4, r0
    52bc:	d302      	bcc.n	52c4 <_ZNK6String11lastIndexOfEcj+0x10>
    52be:	f04f 30ff 	mov.w	r0, #4294967295
    52c2:	bdf8      	pop	{r3, r4, r5, r6, r7, pc}
    52c4:	6803      	ldr	r3, [r0, #0]
    52c6:	1c55      	adds	r5, r2, #1
    52c8:	2200      	movs	r2, #0
    52ca:	5d5f      	ldrb	r7, [r3, r5]
    52cc:	555a      	strb	r2, [r3, r5]
    52ce:	6806      	ldr	r6, [r0, #0]
    52d0:	4630      	mov	r0, r6
    52d2:	f001 fb3f 	bl	6954 <strrchr>
    52d6:	5577      	strb	r7, [r6, r5]
    52d8:	2800      	cmp	r0, #0
    52da:	d0f0      	beq.n	52be <_ZNK6String11lastIndexOfEcj+0xa>
    52dc:	6823      	ldr	r3, [r4, #0]
    52de:	1ac0      	subs	r0, r0, r3
    52e0:	bdf8      	pop	{r3, r4, r5, r6, r7, pc}

000052e2 <_ZNK6String11lastIndexOfEc>:
    52e2:	6882      	ldr	r2, [r0, #8]
    52e4:	3a01      	subs	r2, #1
    52e6:	f7ff bfe5 	b.w	52b4 <_ZNK6String11lastIndexOfEcj>

000052ea <_ZNK6String11lastIndexOfERKS_j>:
    52ea:	b5f8      	push	{r3, r4, r5, r6, r7, lr}
    52ec:	4615      	mov	r5, r2
    52ee:	688a      	ldr	r2, [r1, #8]
    52f0:	460f      	mov	r7, r1
    52f2:	b1c2      	cbz	r2, 5326 <_ZNK6String11lastIndexOfERKS_j+0x3c>
    52f4:	6883      	ldr	r3, [r0, #8]
    52f6:	b1b3      	cbz	r3, 5326 <_ZNK6String11lastIndexOfERKS_j+0x3c>
    52f8:	429a      	cmp	r2, r3
    52fa:	d814      	bhi.n	5326 <_ZNK6String11lastIndexOfERKS_j+0x3c>
    52fc:	6806      	ldr	r6, [r0, #0]
    52fe:	429d      	cmp	r5, r3
    5300:	bf28      	it	cs
    5302:	f103 35ff 	addcs.w	r5, r3, #4294967295
    5306:	4630      	mov	r0, r6
    5308:	f04f 34ff 	mov.w	r4, #4294967295
    530c:	1973      	adds	r3, r6, r5
    530e:	4298      	cmp	r0, r3
    5310:	d80c      	bhi.n	532c <_ZNK6String11lastIndexOfERKS_j+0x42>
    5312:	6839      	ldr	r1, [r7, #0]
    5314:	f001 fb31 	bl	697a <strstr>
    5318:	b140      	cbz	r0, 532c <_ZNK6String11lastIndexOfERKS_j+0x42>
    531a:	1b83      	subs	r3, r0, r6
    531c:	42ab      	cmp	r3, r5
    531e:	bf98      	it	ls
    5320:	461c      	movls	r4, r3
    5322:	3001      	adds	r0, #1
    5324:	e7f2      	b.n	530c <_ZNK6String11lastIndexOfERKS_j+0x22>
    5326:	f04f 30ff 	mov.w	r0, #4294967295
    532a:	bdf8      	pop	{r3, r4, r5, r6, r7, pc}
    532c:	4620      	mov	r0, r4
    532e:	bdf8      	pop	{r3, r4, r5, r6, r7, pc}

00005330 <_ZNK6String11lastIndexOfERKS_>:
    5330:	6882      	ldr	r2, [r0, #8]
    5332:	688b      	ldr	r3, [r1, #8]
    5334:	1ad2      	subs	r2, r2, r3
    5336:	f7ff bfd8 	b.w	52ea <_ZNK6String11lastIndexOfERKS_j>

0000533a <_ZNK6String9substringEjj>:
    533a:	429a      	cmp	r2, r3
    533c:	b5f8      	push	{r3, r4, r5, r6, r7, lr}
    533e:	4604      	mov	r4, r0
    5340:	460d      	mov	r5, r1
    5342:	d902      	bls.n	534a <_ZNK6String9substringEjj+0x10>
    5344:	4611      	mov	r1, r2
    5346:	461a      	mov	r2, r3
    5348:	460b      	mov	r3, r1
    534a:	2000      	movs	r0, #0
    534c:	60a0      	str	r0, [r4, #8]
    534e:	68ae      	ldr	r6, [r5, #8]
    5350:	6020      	str	r0, [r4, #0]
    5352:	42b2      	cmp	r2, r6
    5354:	6060      	str	r0, [r4, #4]
    5356:	7320      	strb	r0, [r4, #12]
    5358:	d80c      	bhi.n	5374 <_ZNK6String9substringEjj+0x3a>
    535a:	42b3      	cmp	r3, r6
    535c:	bf38      	it	cc
    535e:	461e      	movcc	r6, r3
    5360:	682b      	ldr	r3, [r5, #0]
    5362:	5d9f      	ldrb	r7, [r3, r6]
    5364:	5598      	strb	r0, [r3, r6]
    5366:	6829      	ldr	r1, [r5, #0]
    5368:	4620      	mov	r0, r4
    536a:	4411      	add	r1, r2
    536c:	f7ff fcfe 	bl	4d6c <_ZN6StringaSEPKc>
    5370:	682b      	ldr	r3, [r5, #0]
    5372:	559f      	strb	r7, [r3, r6]
    5374:	4620      	mov	r0, r4
    5376:	bdf8      	pop	{r3, r4, r5, r6, r7, pc}

00005378 <_ZNK6String9substringEj>:
    5378:	b510      	push	{r4, lr}
    537a:	688b      	ldr	r3, [r1, #8]
    537c:	4604      	mov	r4, r0
    537e:	f7ff ffdc 	bl	533a <_ZNK6String9substringEjj>
    5382:	4620      	mov	r0, r4
    5384:	bd10      	pop	{r4, pc}

00005386 <_ZN6String7replaceEcc>:
    5386:	6803      	ldr	r3, [r0, #0]
    5388:	b510      	push	{r4, lr}
    538a:	b13b      	cbz	r3, 539c <_ZN6String7replaceEcc+0x16>
    538c:	f813 4b01 	ldrb.w	r4, [r3], #1
    5390:	b124      	cbz	r4, 539c <_ZN6String7replaceEcc+0x16>
    5392:	428c      	cmp	r4, r1
    5394:	bf08      	it	eq
    5396:	f803 2c01 	strbeq.w	r2, [r3, #-1]
    539a:	e7f7      	b.n	538c <_ZN6String7replaceEcc+0x6>
    539c:	bd10      	pop	{r4, pc}

0000539e <_ZN6String7replaceERKS_S1_>:
    539e:	e92d 4ff7 	stmdb	sp!, {r0, r1, r2, r4, r5, r6, r7, r8, r9, sl, fp, lr}
    53a2:	f8d0 a008 	ldr.w	sl, [r0, #8]
    53a6:	4604      	mov	r4, r0
    53a8:	460f      	mov	r7, r1
    53aa:	4616      	mov	r6, r2
    53ac:	f1ba 0f00 	cmp.w	sl, #0
    53b0:	d075      	beq.n	549e <_ZN6String7replaceERKS_S1_+0x100>
    53b2:	f8d1 b008 	ldr.w	fp, [r1, #8]
    53b6:	f1bb 0f00 	cmp.w	fp, #0
    53ba:	d070      	beq.n	549e <_ZN6String7replaceERKS_S1_+0x100>
    53bc:	6893      	ldr	r3, [r2, #8]
    53be:	6805      	ldr	r5, [r0, #0]
    53c0:	ebcb 0803 	rsb	r8, fp, r3
    53c4:	f1b8 0f00 	cmp.w	r8, #0
    53c8:	d10d      	bne.n	53e6 <_ZN6String7replaceERKS_S1_+0x48>
    53ca:	4628      	mov	r0, r5
    53cc:	6839      	ldr	r1, [r7, #0]
    53ce:	f001 fad4 	bl	697a <strstr>
    53d2:	4605      	mov	r5, r0
    53d4:	2800      	cmp	r0, #0
    53d6:	d062      	beq.n	549e <_ZN6String7replaceERKS_S1_+0x100>
    53d8:	6831      	ldr	r1, [r6, #0]
    53da:	68b2      	ldr	r2, [r6, #8]
    53dc:	f001 f98c 	bl	66f8 <memcpy>
    53e0:	68b3      	ldr	r3, [r6, #8]
    53e2:	441d      	add	r5, r3
    53e4:	e7f1      	b.n	53ca <_ZN6String7replaceERKS_S1_+0x2c>
    53e6:	db02      	blt.n	53ee <_ZN6String7replaceERKS_S1_+0x50>
    53e8:	680b      	ldr	r3, [r1, #0]
    53ea:	46d1      	mov	r9, sl
    53ec:	e020      	b.n	5430 <_ZN6String7replaceERKS_S1_+0x92>
    53ee:	46a9      	mov	r9, r5
    53f0:	4628      	mov	r0, r5
    53f2:	6839      	ldr	r1, [r7, #0]
    53f4:	f001 fac1 	bl	697a <strstr>
    53f8:	4682      	mov	sl, r0
    53fa:	b1a0      	cbz	r0, 5426 <_ZN6String7replaceERKS_S1_+0x88>
    53fc:	ebc5 0b0a 	rsb	fp, r5, sl
    5400:	4629      	mov	r1, r5
    5402:	4648      	mov	r0, r9
    5404:	465a      	mov	r2, fp
    5406:	44d9      	add	r9, fp
    5408:	f001 f976 	bl	66f8 <memcpy>
    540c:	4648      	mov	r0, r9
    540e:	6831      	ldr	r1, [r6, #0]
    5410:	68b2      	ldr	r2, [r6, #8]
    5412:	f001 f971 	bl	66f8 <memcpy>
    5416:	68b3      	ldr	r3, [r6, #8]
    5418:	68bd      	ldr	r5, [r7, #8]
    541a:	4499      	add	r9, r3
    541c:	68a3      	ldr	r3, [r4, #8]
    541e:	4443      	add	r3, r8
    5420:	4455      	add	r5, sl
    5422:	60a3      	str	r3, [r4, #8]
    5424:	e7e4      	b.n	53f0 <_ZN6String7replaceERKS_S1_+0x52>
    5426:	4648      	mov	r0, r9
    5428:	4629      	mov	r1, r5
    542a:	f001 fa5a 	bl	68e2 <strcpy>
    542e:	e036      	b.n	549e <_ZN6String7replaceERKS_S1_+0x100>
    5430:	4619      	mov	r1, r3
    5432:	4628      	mov	r0, r5
    5434:	9301      	str	r3, [sp, #4]
    5436:	f001 faa0 	bl	697a <strstr>
    543a:	9b01      	ldr	r3, [sp, #4]
    543c:	b118      	cbz	r0, 5446 <_ZN6String7replaceERKS_S1_+0xa8>
    543e:	eb00 050b 	add.w	r5, r0, fp
    5442:	44c1      	add	r9, r8
    5444:	e7f4      	b.n	5430 <_ZN6String7replaceERKS_S1_+0x92>
    5446:	45d1      	cmp	r9, sl
    5448:	d029      	beq.n	549e <_ZN6String7replaceERKS_S1_+0x100>
    544a:	6863      	ldr	r3, [r4, #4]
    544c:	4599      	cmp	r9, r3
    544e:	d904      	bls.n	545a <_ZN6String7replaceERKS_S1_+0xbc>
    5450:	4620      	mov	r0, r4
    5452:	4649      	mov	r1, r9
    5454:	f7ff fbf3 	bl	4c3e <_ZN6String12changeBufferEj>
    5458:	b308      	cbz	r0, 549e <_ZN6String7replaceERKS_S1_+0x100>
    545a:	68a2      	ldr	r2, [r4, #8]
    545c:	3a01      	subs	r2, #1
    545e:	2a00      	cmp	r2, #0
    5460:	db1d      	blt.n	549e <_ZN6String7replaceERKS_S1_+0x100>
    5462:	4620      	mov	r0, r4
    5464:	4639      	mov	r1, r7
    5466:	f7ff ff40 	bl	52ea <_ZNK6String11lastIndexOfERKS_j>
    546a:	1e05      	subs	r5, r0, #0
    546c:	db17      	blt.n	549e <_ZN6String7replaceERKS_S1_+0x100>
    546e:	68ba      	ldr	r2, [r7, #8]
    5470:	6821      	ldr	r1, [r4, #0]
    5472:	68a3      	ldr	r3, [r4, #8]
    5474:	442a      	add	r2, r5
    5476:	4411      	add	r1, r2
    5478:	eb01 0008 	add.w	r0, r1, r8
    547c:	1a9a      	subs	r2, r3, r2
    547e:	f001 f944 	bl	670a <memmove>
    5482:	68a3      	ldr	r3, [r4, #8]
    5484:	6822      	ldr	r2, [r4, #0]
    5486:	4443      	add	r3, r8
    5488:	2100      	movs	r1, #0
    548a:	60a3      	str	r3, [r4, #8]
    548c:	54d1      	strb	r1, [r2, r3]
    548e:	6820      	ldr	r0, [r4, #0]
    5490:	68b2      	ldr	r2, [r6, #8]
    5492:	6831      	ldr	r1, [r6, #0]
    5494:	4428      	add	r0, r5
    5496:	f001 f92f 	bl	66f8 <memcpy>
    549a:	1e6a      	subs	r2, r5, #1
    549c:	e7df      	b.n	545e <_ZN6String7replaceERKS_S1_+0xc0>
    549e:	4620      	mov	r0, r4
    54a0:	b003      	add	sp, #12
    54a2:	e8bd 8ff0 	ldmia.w	sp!, {r4, r5, r6, r7, r8, r9, sl, fp, pc}

000054a6 <_ZN6String6removeEj>:
    54a6:	6883      	ldr	r3, [r0, #8]
    54a8:	4299      	cmp	r1, r3
    54aa:	d203      	bcs.n	54b4 <_ZN6String6removeEj+0xe>
    54ac:	6803      	ldr	r3, [r0, #0]
    54ae:	6081      	str	r1, [r0, #8]
    54b0:	2200      	movs	r2, #0
    54b2:	545a      	strb	r2, [r3, r1]
    54b4:	4770      	bx	lr

000054b6 <_ZN6String6removeEjj>:
    54b6:	b538      	push	{r3, r4, r5, lr}
    54b8:	460b      	mov	r3, r1
    54ba:	6881      	ldr	r1, [r0, #8]
    54bc:	428b      	cmp	r3, r1
    54be:	4604      	mov	r4, r0
    54c0:	d212      	bcs.n	54e8 <_ZN6String6removeEjj+0x32>
    54c2:	b18a      	cbz	r2, 54e8 <_ZN6String6removeEjj+0x32>
    54c4:	1898      	adds	r0, r3, r2
    54c6:	4288      	cmp	r0, r1
    54c8:	bf88      	it	hi
    54ca:	ebc3 0201 	rsbhi	r2, r3, r1
    54ce:	1a8d      	subs	r5, r1, r2
    54d0:	6821      	ldr	r1, [r4, #0]
    54d2:	60a5      	str	r5, [r4, #8]
    54d4:	441a      	add	r2, r3
    54d6:	18c8      	adds	r0, r1, r3
    54d8:	4411      	add	r1, r2
    54da:	1aea      	subs	r2, r5, r3
    54dc:	f001 f915 	bl	670a <memmove>
    54e0:	6822      	ldr	r2, [r4, #0]
    54e2:	68a3      	ldr	r3, [r4, #8]
    54e4:	2100      	movs	r1, #0
    54e6:	54d1      	strb	r1, [r2, r3]
    54e8:	4620      	mov	r0, r4
    54ea:	bd38      	pop	{r3, r4, r5, pc}

000054ec <_ZN6String11toLowerCaseEv>:
    54ec:	b538      	push	{r3, r4, r5, lr}
    54ee:	6804      	ldr	r4, [r0, #0]
    54f0:	4605      	mov	r5, r0
    54f2:	b13c      	cbz	r4, 5504 <_ZN6String11toLowerCaseEv+0x18>
    54f4:	f814 0b01 	ldrb.w	r0, [r4], #1
    54f8:	b120      	cbz	r0, 5504 <_ZN6String11toLowerCaseEv+0x18>
    54fa:	f002 f951 	bl	77a0 <tolower>
    54fe:	f804 0c01 	strb.w	r0, [r4, #-1]
    5502:	e7f7      	b.n	54f4 <_ZN6String11toLowerCaseEv+0x8>
    5504:	4628      	mov	r0, r5
    5506:	bd38      	pop	{r3, r4, r5, pc}

00005508 <_ZN6String11toUpperCaseEv>:
    5508:	b538      	push	{r3, r4, r5, lr}
    550a:	6804      	ldr	r4, [r0, #0]
    550c:	4605      	mov	r5, r0
    550e:	b13c      	cbz	r4, 5520 <_ZN6String11toUpperCaseEv+0x18>
    5510:	f814 0b01 	ldrb.w	r0, [r4], #1
    5514:	b120      	cbz	r0, 5520 <_ZN6String11toUpperCaseEv+0x18>
    5516:	f002 f94f 	bl	77b8 <toupper>
    551a:	f804 0c01 	strb.w	r0, [r4, #-1]
    551e:	e7f7      	b.n	5510 <_ZN6String11toUpperCaseEv+0x8>
    5520:	4628      	mov	r0, r5
    5522:	bd38      	pop	{r3, r4, r5, pc}

00005524 <_ZN6String4trimEv>:
    5524:	e92d 41f0 	stmdb	sp!, {r4, r5, r6, r7, r8, lr}
    5528:	6806      	ldr	r6, [r0, #0]
    552a:	4604      	mov	r4, r0
    552c:	b316      	cbz	r6, 5574 <_ZN6String4trimEv+0x50>
    552e:	6887      	ldr	r7, [r0, #8]
    5530:	b307      	cbz	r7, 5574 <_ZN6String4trimEv+0x50>
    5532:	46b0      	mov	r8, r6
    5534:	4645      	mov	r5, r8
    5536:	f108 0801 	add.w	r8, r8, #1
    553a:	7828      	ldrb	r0, [r5, #0]
    553c:	f001 f8c2 	bl	66c4 <isspace>
    5540:	2800      	cmp	r0, #0
    5542:	d1f7      	bne.n	5534 <_ZN6String4trimEv+0x10>
    5544:	3f01      	subs	r7, #1
    5546:	4437      	add	r7, r6
    5548:	7838      	ldrb	r0, [r7, #0]
    554a:	f001 f8bb 	bl	66c4 <isspace>
    554e:	b948      	cbnz	r0, 5564 <_ZN6String4trimEv+0x40>
    5550:	3701      	adds	r7, #1
    5552:	1b7a      	subs	r2, r7, r5
    5554:	42b5      	cmp	r5, r6
    5556:	60a2      	str	r2, [r4, #8]
    5558:	d908      	bls.n	556c <_ZN6String4trimEv+0x48>
    555a:	4630      	mov	r0, r6
    555c:	4629      	mov	r1, r5
    555e:	f001 f8cb 	bl	66f8 <memcpy>
    5562:	e003      	b.n	556c <_ZN6String4trimEv+0x48>
    5564:	42af      	cmp	r7, r5
    5566:	d3f3      	bcc.n	5550 <_ZN6String4trimEv+0x2c>
    5568:	3f01      	subs	r7, #1
    556a:	e7ed      	b.n	5548 <_ZN6String4trimEv+0x24>
    556c:	6822      	ldr	r2, [r4, #0]
    556e:	68a3      	ldr	r3, [r4, #8]
    5570:	2100      	movs	r1, #0
    5572:	54d1      	strb	r1, [r2, r3]
    5574:	4620      	mov	r0, r4
    5576:	e8bd 81f0 	ldmia.w	sp!, {r4, r5, r6, r7, r8, pc}

0000557a <_ZNK6String5toIntEv>:
    557a:	6800      	ldr	r0, [r0, #0]
    557c:	b108      	cbz	r0, 5582 <_ZNK6String5toIntEv+0x8>
    557e:	f001 b861 	b.w	6644 <atol>
    5582:	4770      	bx	lr

00005584 <_ZNK6String7toFloatEv>:
    5584:	6800      	ldr	r0, [r0, #0]
    5586:	b110      	cbz	r0, 558e <_ZNK6String7toFloatEv+0xa>
    5588:	2100      	movs	r1, #0
    558a:	f002 b861 	b.w	7650 <strtof>
    558e:	2000      	movs	r0, #0
    5590:	4770      	bx	lr
    5592:	bf00      	nop

00005594 <_ZN6String4copyEPK19__FlashStringHelper>:
    5594:	b538      	push	{r3, r4, r5, lr}
    5596:	4605      	mov	r5, r0
    5598:	4608      	mov	r0, r1
    559a:	460c      	mov	r4, r1
    559c:	f001 f9a9 	bl	68f2 <strlen>
    55a0:	4621      	mov	r1, r4
    55a2:	4602      	mov	r2, r0
    55a4:	4628      	mov	r0, r5
    55a6:	e8bd 4038 	ldmia.w	sp!, {r3, r4, r5, lr}
    55aa:	f7ff bb62 	b.w	4c72 <_ZN6String4copyEPKcj>
    55ae:	ffff b510 	vsli.32	d27, d0, #31

000055b0 <yield>:
    55b0:	b510      	push	{r4, lr}
    55b2:	4c15      	ldr	r4, [pc, #84]	; (5608 <yield+0x58>)
    55b4:	7823      	ldrb	r3, [r4, #0]
    55b6:	bb33      	cbnz	r3, 5606 <yield+0x56>
    55b8:	2301      	movs	r3, #1
    55ba:	7023      	strb	r3, [r4, #0]
    55bc:	f7fe fcda 	bl	3f74 <usb_serial_available>
    55c0:	b108      	cbz	r0, 55c6 <yield+0x16>
    55c2:	f7ff faf5 	bl	4bb0 <_Z11serialEventv>
    55c6:	f7fc fa65 	bl	1a94 <serial_available>
    55ca:	b108      	cbz	r0, 55d0 <yield+0x20>
    55cc:	f7fe fe0d 	bl	41ea <_Z12serialEvent1v>
    55d0:	f7fc fd9c 	bl	210c <serial2_available>
    55d4:	b108      	cbz	r0, 55da <yield+0x2a>
    55d6:	f7fe fe91 	bl	42fc <_Z12serialEvent2v>
    55da:	f7fc ffdf 	bl	259c <serial3_available>
    55de:	b108      	cbz	r0, 55e4 <yield+0x34>
    55e0:	f7fe ff16 	bl	4410 <_Z12serialEvent3v>
    55e4:	f7fd fa50 	bl	2a88 <serial4_available>
    55e8:	b108      	cbz	r0, 55ee <yield+0x3e>
    55ea:	f7fe ff9b 	bl	4524 <_Z12serialEvent4v>
    55ee:	f7fd fc67 	bl	2ec0 <serial5_available>
    55f2:	b108      	cbz	r0, 55f8 <yield+0x48>
    55f4:	f7ff f820 	bl	4638 <_Z12serialEvent5v>
    55f8:	f7fd fee8 	bl	33cc <serial6_available>
    55fc:	b108      	cbz	r0, 5602 <yield+0x52>
    55fe:	f7ff f8a5 	bl	474c <_Z12serialEvent6v>
    5602:	2300      	movs	r3, #0
    5604:	7023      	strb	r3, [r4, #0]
    5606:	bd10      	pop	{r4, pc}
    5608:	1fff0fd1 	.word	0x1fff0fd1

0000560c <__fpclassifyd>:
    560c:	f031 4300 	bics.w	r3, r1, #2147483648	; 0x80000000
    5610:	b410      	push	{r4}
    5612:	d008      	beq.n	5626 <__fpclassifyd+0x1a>
    5614:	4a0f      	ldr	r2, [pc, #60]	; (5654 <__fpclassifyd+0x48>)
    5616:	f5a3 1480 	sub.w	r4, r3, #1048576	; 0x100000
    561a:	4294      	cmp	r4, r2
    561c:	d80a      	bhi.n	5634 <__fpclassifyd+0x28>
    561e:	2004      	movs	r0, #4
    5620:	f85d 4b04 	ldr.w	r4, [sp], #4
    5624:	4770      	bx	lr
    5626:	2800      	cmp	r0, #0
    5628:	bf0c      	ite	eq
    562a:	2002      	moveq	r0, #2
    562c:	2003      	movne	r0, #3
    562e:	f85d 4b04 	ldr.w	r4, [sp], #4
    5632:	4770      	bx	lr
    5634:	f5b3 1f80 	cmp.w	r3, #1048576	; 0x100000
    5638:	d201      	bcs.n	563e <__fpclassifyd+0x32>
    563a:	2003      	movs	r0, #3
    563c:	e7f7      	b.n	562e <__fpclassifyd+0x22>
    563e:	4a06      	ldr	r2, [pc, #24]	; (5658 <__fpclassifyd+0x4c>)
    5640:	4293      	cmp	r3, r2
    5642:	d001      	beq.n	5648 <__fpclassifyd+0x3c>
    5644:	2000      	movs	r0, #0
    5646:	e7f2      	b.n	562e <__fpclassifyd+0x22>
    5648:	f1d0 0001 	rsbs	r0, r0, #1
    564c:	bf38      	it	cc
    564e:	2000      	movcc	r0, #0
    5650:	e7ed      	b.n	562e <__fpclassifyd+0x22>
    5652:	bf00      	nop
    5654:	7fdfffff 	.word	0x7fdfffff
    5658:	7ff00000 	.word	0x7ff00000

0000565c <__aeabi_drsub>:
    565c:	f081 4100 	eor.w	r1, r1, #2147483648	; 0x80000000
    5660:	e002      	b.n	5668 <__adddf3>
    5662:	bf00      	nop

00005664 <__aeabi_dsub>:
    5664:	f083 4300 	eor.w	r3, r3, #2147483648	; 0x80000000

00005668 <__adddf3>:
    5668:	b530      	push	{r4, r5, lr}
    566a:	ea4f 0441 	mov.w	r4, r1, lsl #1
    566e:	ea4f 0543 	mov.w	r5, r3, lsl #1
    5672:	ea94 0f05 	teq	r4, r5
    5676:	bf08      	it	eq
    5678:	ea90 0f02 	teqeq	r0, r2
    567c:	bf1f      	itttt	ne
    567e:	ea54 0c00 	orrsne.w	ip, r4, r0
    5682:	ea55 0c02 	orrsne.w	ip, r5, r2
    5686:	ea7f 5c64 	mvnsne.w	ip, r4, asr #21
    568a:	ea7f 5c65 	mvnsne.w	ip, r5, asr #21
    568e:	f000 80e2 	beq.w	5856 <__adddf3+0x1ee>
    5692:	ea4f 5454 	mov.w	r4, r4, lsr #21
    5696:	ebd4 5555 	rsbs	r5, r4, r5, lsr #21
    569a:	bfb8      	it	lt
    569c:	426d      	neglt	r5, r5
    569e:	dd0c      	ble.n	56ba <__adddf3+0x52>
    56a0:	442c      	add	r4, r5
    56a2:	ea80 0202 	eor.w	r2, r0, r2
    56a6:	ea81 0303 	eor.w	r3, r1, r3
    56aa:	ea82 0000 	eor.w	r0, r2, r0
    56ae:	ea83 0101 	eor.w	r1, r3, r1
    56b2:	ea80 0202 	eor.w	r2, r0, r2
    56b6:	ea81 0303 	eor.w	r3, r1, r3
    56ba:	2d36      	cmp	r5, #54	; 0x36
    56bc:	bf88      	it	hi
    56be:	bd30      	pophi	{r4, r5, pc}
    56c0:	f011 4f00 	tst.w	r1, #2147483648	; 0x80000000
    56c4:	ea4f 3101 	mov.w	r1, r1, lsl #12
    56c8:	f44f 1c80 	mov.w	ip, #1048576	; 0x100000
    56cc:	ea4c 3111 	orr.w	r1, ip, r1, lsr #12
    56d0:	d002      	beq.n	56d8 <__adddf3+0x70>
    56d2:	4240      	negs	r0, r0
    56d4:	eb61 0141 	sbc.w	r1, r1, r1, lsl #1
    56d8:	f013 4f00 	tst.w	r3, #2147483648	; 0x80000000
    56dc:	ea4f 3303 	mov.w	r3, r3, lsl #12
    56e0:	ea4c 3313 	orr.w	r3, ip, r3, lsr #12
    56e4:	d002      	beq.n	56ec <__adddf3+0x84>
    56e6:	4252      	negs	r2, r2
    56e8:	eb63 0343 	sbc.w	r3, r3, r3, lsl #1
    56ec:	ea94 0f05 	teq	r4, r5
    56f0:	f000 80a7 	beq.w	5842 <__adddf3+0x1da>
    56f4:	f1a4 0401 	sub.w	r4, r4, #1
    56f8:	f1d5 0e20 	rsbs	lr, r5, #32
    56fc:	db0d      	blt.n	571a <__adddf3+0xb2>
    56fe:	fa02 fc0e 	lsl.w	ip, r2, lr
    5702:	fa22 f205 	lsr.w	r2, r2, r5
    5706:	1880      	adds	r0, r0, r2
    5708:	f141 0100 	adc.w	r1, r1, #0
    570c:	fa03 f20e 	lsl.w	r2, r3, lr
    5710:	1880      	adds	r0, r0, r2
    5712:	fa43 f305 	asr.w	r3, r3, r5
    5716:	4159      	adcs	r1, r3
    5718:	e00e      	b.n	5738 <__adddf3+0xd0>
    571a:	f1a5 0520 	sub.w	r5, r5, #32
    571e:	f10e 0e20 	add.w	lr, lr, #32
    5722:	2a01      	cmp	r2, #1
    5724:	fa03 fc0e 	lsl.w	ip, r3, lr
    5728:	bf28      	it	cs
    572a:	f04c 0c02 	orrcs.w	ip, ip, #2
    572e:	fa43 f305 	asr.w	r3, r3, r5
    5732:	18c0      	adds	r0, r0, r3
    5734:	eb51 71e3 	adcs.w	r1, r1, r3, asr #31
    5738:	f001 4500 	and.w	r5, r1, #2147483648	; 0x80000000
    573c:	d507      	bpl.n	574e <__adddf3+0xe6>
    573e:	f04f 0e00 	mov.w	lr, #0
    5742:	f1dc 0c00 	rsbs	ip, ip, #0
    5746:	eb7e 0000 	sbcs.w	r0, lr, r0
    574a:	eb6e 0101 	sbc.w	r1, lr, r1
    574e:	f5b1 1f80 	cmp.w	r1, #1048576	; 0x100000
    5752:	d31b      	bcc.n	578c <__adddf3+0x124>
    5754:	f5b1 1f00 	cmp.w	r1, #2097152	; 0x200000
    5758:	d30c      	bcc.n	5774 <__adddf3+0x10c>
    575a:	0849      	lsrs	r1, r1, #1
    575c:	ea5f 0030 	movs.w	r0, r0, rrx
    5760:	ea4f 0c3c 	mov.w	ip, ip, rrx
    5764:	f104 0401 	add.w	r4, r4, #1
    5768:	ea4f 5244 	mov.w	r2, r4, lsl #21
    576c:	f512 0f80 	cmn.w	r2, #4194304	; 0x400000
    5770:	f080 809a 	bcs.w	58a8 <__adddf3+0x240>
    5774:	f1bc 4f00 	cmp.w	ip, #2147483648	; 0x80000000
    5778:	bf08      	it	eq
    577a:	ea5f 0c50 	movseq.w	ip, r0, lsr #1
    577e:	f150 0000 	adcs.w	r0, r0, #0
    5782:	eb41 5104 	adc.w	r1, r1, r4, lsl #20
    5786:	ea41 0105 	orr.w	r1, r1, r5
    578a:	bd30      	pop	{r4, r5, pc}
    578c:	ea5f 0c4c 	movs.w	ip, ip, lsl #1
    5790:	4140      	adcs	r0, r0
    5792:	eb41 0101 	adc.w	r1, r1, r1
    5796:	f411 1f80 	tst.w	r1, #1048576	; 0x100000
    579a:	f1a4 0401 	sub.w	r4, r4, #1
    579e:	d1e9      	bne.n	5774 <__adddf3+0x10c>
    57a0:	f091 0f00 	teq	r1, #0
    57a4:	bf04      	itt	eq
    57a6:	4601      	moveq	r1, r0
    57a8:	2000      	moveq	r0, #0
    57aa:	fab1 f381 	clz	r3, r1
    57ae:	bf08      	it	eq
    57b0:	3320      	addeq	r3, #32
    57b2:	f1a3 030b 	sub.w	r3, r3, #11
    57b6:	f1b3 0220 	subs.w	r2, r3, #32
    57ba:	da0c      	bge.n	57d6 <__adddf3+0x16e>
    57bc:	320c      	adds	r2, #12
    57be:	dd08      	ble.n	57d2 <__adddf3+0x16a>
    57c0:	f102 0c14 	add.w	ip, r2, #20
    57c4:	f1c2 020c 	rsb	r2, r2, #12
    57c8:	fa01 f00c 	lsl.w	r0, r1, ip
    57cc:	fa21 f102 	lsr.w	r1, r1, r2
    57d0:	e00c      	b.n	57ec <__adddf3+0x184>
    57d2:	f102 0214 	add.w	r2, r2, #20
    57d6:	bfd8      	it	le
    57d8:	f1c2 0c20 	rsble	ip, r2, #32
    57dc:	fa01 f102 	lsl.w	r1, r1, r2
    57e0:	fa20 fc0c 	lsr.w	ip, r0, ip
    57e4:	bfdc      	itt	le
    57e6:	ea41 010c 	orrle.w	r1, r1, ip
    57ea:	4090      	lslle	r0, r2
    57ec:	1ae4      	subs	r4, r4, r3
    57ee:	bfa2      	ittt	ge
    57f0:	eb01 5104 	addge.w	r1, r1, r4, lsl #20
    57f4:	4329      	orrge	r1, r5
    57f6:	bd30      	popge	{r4, r5, pc}
    57f8:	ea6f 0404 	mvn.w	r4, r4
    57fc:	3c1f      	subs	r4, #31
    57fe:	da1c      	bge.n	583a <__adddf3+0x1d2>
    5800:	340c      	adds	r4, #12
    5802:	dc0e      	bgt.n	5822 <__adddf3+0x1ba>
    5804:	f104 0414 	add.w	r4, r4, #20
    5808:	f1c4 0220 	rsb	r2, r4, #32
    580c:	fa20 f004 	lsr.w	r0, r0, r4
    5810:	fa01 f302 	lsl.w	r3, r1, r2
    5814:	ea40 0003 	orr.w	r0, r0, r3
    5818:	fa21 f304 	lsr.w	r3, r1, r4
    581c:	ea45 0103 	orr.w	r1, r5, r3
    5820:	bd30      	pop	{r4, r5, pc}
    5822:	f1c4 040c 	rsb	r4, r4, #12
    5826:	f1c4 0220 	rsb	r2, r4, #32
    582a:	fa20 f002 	lsr.w	r0, r0, r2
    582e:	fa01 f304 	lsl.w	r3, r1, r4
    5832:	ea40 0003 	orr.w	r0, r0, r3
    5836:	4629      	mov	r1, r5
    5838:	bd30      	pop	{r4, r5, pc}
    583a:	fa21 f004 	lsr.w	r0, r1, r4
    583e:	4629      	mov	r1, r5
    5840:	bd30      	pop	{r4, r5, pc}
    5842:	f094 0f00 	teq	r4, #0
    5846:	f483 1380 	eor.w	r3, r3, #1048576	; 0x100000
    584a:	bf06      	itte	eq
    584c:	f481 1180 	eoreq.w	r1, r1, #1048576	; 0x100000
    5850:	3401      	addeq	r4, #1
    5852:	3d01      	subne	r5, #1
    5854:	e74e      	b.n	56f4 <__adddf3+0x8c>
    5856:	ea7f 5c64 	mvns.w	ip, r4, asr #21
    585a:	bf18      	it	ne
    585c:	ea7f 5c65 	mvnsne.w	ip, r5, asr #21
    5860:	d029      	beq.n	58b6 <__adddf3+0x24e>
    5862:	ea94 0f05 	teq	r4, r5
    5866:	bf08      	it	eq
    5868:	ea90 0f02 	teqeq	r0, r2
    586c:	d005      	beq.n	587a <__adddf3+0x212>
    586e:	ea54 0c00 	orrs.w	ip, r4, r0
    5872:	bf04      	itt	eq
    5874:	4619      	moveq	r1, r3
    5876:	4610      	moveq	r0, r2
    5878:	bd30      	pop	{r4, r5, pc}
    587a:	ea91 0f03 	teq	r1, r3
    587e:	bf1e      	ittt	ne
    5880:	2100      	movne	r1, #0
    5882:	2000      	movne	r0, #0
    5884:	bd30      	popne	{r4, r5, pc}
    5886:	ea5f 5c54 	movs.w	ip, r4, lsr #21
    588a:	d105      	bne.n	5898 <__adddf3+0x230>
    588c:	0040      	lsls	r0, r0, #1
    588e:	4149      	adcs	r1, r1
    5890:	bf28      	it	cs
    5892:	f041 4100 	orrcs.w	r1, r1, #2147483648	; 0x80000000
    5896:	bd30      	pop	{r4, r5, pc}
    5898:	f514 0480 	adds.w	r4, r4, #4194304	; 0x400000
    589c:	bf3c      	itt	cc
    589e:	f501 1180 	addcc.w	r1, r1, #1048576	; 0x100000
    58a2:	bd30      	popcc	{r4, r5, pc}
    58a4:	f001 4500 	and.w	r5, r1, #2147483648	; 0x80000000
    58a8:	f045 41fe 	orr.w	r1, r5, #2130706432	; 0x7f000000
    58ac:	f441 0170 	orr.w	r1, r1, #15728640	; 0xf00000
    58b0:	f04f 0000 	mov.w	r0, #0
    58b4:	bd30      	pop	{r4, r5, pc}
    58b6:	ea7f 5c64 	mvns.w	ip, r4, asr #21
    58ba:	bf1a      	itte	ne
    58bc:	4619      	movne	r1, r3
    58be:	4610      	movne	r0, r2
    58c0:	ea7f 5c65 	mvnseq.w	ip, r5, asr #21
    58c4:	bf1c      	itt	ne
    58c6:	460b      	movne	r3, r1
    58c8:	4602      	movne	r2, r0
    58ca:	ea50 3401 	orrs.w	r4, r0, r1, lsl #12
    58ce:	bf06      	itte	eq
    58d0:	ea52 3503 	orrseq.w	r5, r2, r3, lsl #12
    58d4:	ea91 0f03 	teqeq	r1, r3
    58d8:	f441 2100 	orrne.w	r1, r1, #524288	; 0x80000
    58dc:	bd30      	pop	{r4, r5, pc}
    58de:	bf00      	nop

000058e0 <__aeabi_ui2d>:
    58e0:	f090 0f00 	teq	r0, #0
    58e4:	bf04      	itt	eq
    58e6:	2100      	moveq	r1, #0
    58e8:	4770      	bxeq	lr
    58ea:	b530      	push	{r4, r5, lr}
    58ec:	f44f 6480 	mov.w	r4, #1024	; 0x400
    58f0:	f104 0432 	add.w	r4, r4, #50	; 0x32
    58f4:	f04f 0500 	mov.w	r5, #0
    58f8:	f04f 0100 	mov.w	r1, #0
    58fc:	e750      	b.n	57a0 <__adddf3+0x138>
    58fe:	bf00      	nop

00005900 <__aeabi_i2d>:
    5900:	f090 0f00 	teq	r0, #0
    5904:	bf04      	itt	eq
    5906:	2100      	moveq	r1, #0
    5908:	4770      	bxeq	lr
    590a:	b530      	push	{r4, r5, lr}
    590c:	f44f 6480 	mov.w	r4, #1024	; 0x400
    5910:	f104 0432 	add.w	r4, r4, #50	; 0x32
    5914:	f010 4500 	ands.w	r5, r0, #2147483648	; 0x80000000
    5918:	bf48      	it	mi
    591a:	4240      	negmi	r0, r0
    591c:	f04f 0100 	mov.w	r1, #0
    5920:	e73e      	b.n	57a0 <__adddf3+0x138>
    5922:	bf00      	nop

00005924 <__aeabi_f2d>:
    5924:	0042      	lsls	r2, r0, #1
    5926:	ea4f 01e2 	mov.w	r1, r2, asr #3
    592a:	ea4f 0131 	mov.w	r1, r1, rrx
    592e:	ea4f 7002 	mov.w	r0, r2, lsl #28
    5932:	bf1f      	itttt	ne
    5934:	f012 437f 	andsne.w	r3, r2, #4278190080	; 0xff000000
    5938:	f093 4f7f 	teqne	r3, #4278190080	; 0xff000000
    593c:	f081 5160 	eorne.w	r1, r1, #939524096	; 0x38000000
    5940:	4770      	bxne	lr
    5942:	f092 0f00 	teq	r2, #0
    5946:	bf14      	ite	ne
    5948:	f093 4f7f 	teqne	r3, #4278190080	; 0xff000000
    594c:	4770      	bxeq	lr
    594e:	b530      	push	{r4, r5, lr}
    5950:	f44f 7460 	mov.w	r4, #896	; 0x380
    5954:	f001 4500 	and.w	r5, r1, #2147483648	; 0x80000000
    5958:	f021 4100 	bic.w	r1, r1, #2147483648	; 0x80000000
    595c:	e720      	b.n	57a0 <__adddf3+0x138>
    595e:	bf00      	nop

00005960 <__aeabi_ul2d>:
    5960:	ea50 0201 	orrs.w	r2, r0, r1
    5964:	bf08      	it	eq
    5966:	4770      	bxeq	lr
    5968:	b530      	push	{r4, r5, lr}
    596a:	f04f 0500 	mov.w	r5, #0
    596e:	e00a      	b.n	5986 <__aeabi_l2d+0x16>

00005970 <__aeabi_l2d>:
    5970:	ea50 0201 	orrs.w	r2, r0, r1
    5974:	bf08      	it	eq
    5976:	4770      	bxeq	lr
    5978:	b530      	push	{r4, r5, lr}
    597a:	f011 4500 	ands.w	r5, r1, #2147483648	; 0x80000000
    597e:	d502      	bpl.n	5986 <__aeabi_l2d+0x16>
    5980:	4240      	negs	r0, r0
    5982:	eb61 0141 	sbc.w	r1, r1, r1, lsl #1
    5986:	f44f 6480 	mov.w	r4, #1024	; 0x400
    598a:	f104 0432 	add.w	r4, r4, #50	; 0x32
    598e:	ea5f 5c91 	movs.w	ip, r1, lsr #22
    5992:	f43f aedc 	beq.w	574e <__adddf3+0xe6>
    5996:	f04f 0203 	mov.w	r2, #3
    599a:	ea5f 0cdc 	movs.w	ip, ip, lsr #3
    599e:	bf18      	it	ne
    59a0:	3203      	addne	r2, #3
    59a2:	ea5f 0cdc 	movs.w	ip, ip, lsr #3
    59a6:	bf18      	it	ne
    59a8:	3203      	addne	r2, #3
    59aa:	eb02 02dc 	add.w	r2, r2, ip, lsr #3
    59ae:	f1c2 0320 	rsb	r3, r2, #32
    59b2:	fa00 fc03 	lsl.w	ip, r0, r3
    59b6:	fa20 f002 	lsr.w	r0, r0, r2
    59ba:	fa01 fe03 	lsl.w	lr, r1, r3
    59be:	ea40 000e 	orr.w	r0, r0, lr
    59c2:	fa21 f102 	lsr.w	r1, r1, r2
    59c6:	4414      	add	r4, r2
    59c8:	e6c1      	b.n	574e <__adddf3+0xe6>
    59ca:	bf00      	nop

000059cc <__aeabi_dmul>:
    59cc:	b570      	push	{r4, r5, r6, lr}
    59ce:	f04f 0cff 	mov.w	ip, #255	; 0xff
    59d2:	f44c 6ce0 	orr.w	ip, ip, #1792	; 0x700
    59d6:	ea1c 5411 	ands.w	r4, ip, r1, lsr #20
    59da:	bf1d      	ittte	ne
    59dc:	ea1c 5513 	andsne.w	r5, ip, r3, lsr #20
    59e0:	ea94 0f0c 	teqne	r4, ip
    59e4:	ea95 0f0c 	teqne	r5, ip
    59e8:	f000 f8de 	bleq	5ba8 <__aeabi_dmul+0x1dc>
    59ec:	442c      	add	r4, r5
    59ee:	ea81 0603 	eor.w	r6, r1, r3
    59f2:	ea21 514c 	bic.w	r1, r1, ip, lsl #21
    59f6:	ea23 534c 	bic.w	r3, r3, ip, lsl #21
    59fa:	ea50 3501 	orrs.w	r5, r0, r1, lsl #12
    59fe:	bf18      	it	ne
    5a00:	ea52 3503 	orrsne.w	r5, r2, r3, lsl #12
    5a04:	f441 1180 	orr.w	r1, r1, #1048576	; 0x100000
    5a08:	f443 1380 	orr.w	r3, r3, #1048576	; 0x100000
    5a0c:	d038      	beq.n	5a80 <__aeabi_dmul+0xb4>
    5a0e:	fba0 ce02 	umull	ip, lr, r0, r2
    5a12:	f04f 0500 	mov.w	r5, #0
    5a16:	fbe1 e502 	umlal	lr, r5, r1, r2
    5a1a:	f006 4200 	and.w	r2, r6, #2147483648	; 0x80000000
    5a1e:	fbe0 e503 	umlal	lr, r5, r0, r3
    5a22:	f04f 0600 	mov.w	r6, #0
    5a26:	fbe1 5603 	umlal	r5, r6, r1, r3
    5a2a:	f09c 0f00 	teq	ip, #0
    5a2e:	bf18      	it	ne
    5a30:	f04e 0e01 	orrne.w	lr, lr, #1
    5a34:	f1a4 04ff 	sub.w	r4, r4, #255	; 0xff
    5a38:	f5b6 7f00 	cmp.w	r6, #512	; 0x200
    5a3c:	f564 7440 	sbc.w	r4, r4, #768	; 0x300
    5a40:	d204      	bcs.n	5a4c <__aeabi_dmul+0x80>
    5a42:	ea5f 0e4e 	movs.w	lr, lr, lsl #1
    5a46:	416d      	adcs	r5, r5
    5a48:	eb46 0606 	adc.w	r6, r6, r6
    5a4c:	ea42 21c6 	orr.w	r1, r2, r6, lsl #11
    5a50:	ea41 5155 	orr.w	r1, r1, r5, lsr #21
    5a54:	ea4f 20c5 	mov.w	r0, r5, lsl #11
    5a58:	ea40 505e 	orr.w	r0, r0, lr, lsr #21
    5a5c:	ea4f 2ece 	mov.w	lr, lr, lsl #11
    5a60:	f1b4 0cfd 	subs.w	ip, r4, #253	; 0xfd
    5a64:	bf88      	it	hi
    5a66:	f5bc 6fe0 	cmphi.w	ip, #1792	; 0x700
    5a6a:	d81e      	bhi.n	5aaa <__aeabi_dmul+0xde>
    5a6c:	f1be 4f00 	cmp.w	lr, #2147483648	; 0x80000000
    5a70:	bf08      	it	eq
    5a72:	ea5f 0e50 	movseq.w	lr, r0, lsr #1
    5a76:	f150 0000 	adcs.w	r0, r0, #0
    5a7a:	eb41 5104 	adc.w	r1, r1, r4, lsl #20
    5a7e:	bd70      	pop	{r4, r5, r6, pc}
    5a80:	f006 4600 	and.w	r6, r6, #2147483648	; 0x80000000
    5a84:	ea46 0101 	orr.w	r1, r6, r1
    5a88:	ea40 0002 	orr.w	r0, r0, r2
    5a8c:	ea81 0103 	eor.w	r1, r1, r3
    5a90:	ebb4 045c 	subs.w	r4, r4, ip, lsr #1
    5a94:	bfc2      	ittt	gt
    5a96:	ebd4 050c 	rsbsgt	r5, r4, ip
    5a9a:	ea41 5104 	orrgt.w	r1, r1, r4, lsl #20
    5a9e:	bd70      	popgt	{r4, r5, r6, pc}
    5aa0:	f441 1180 	orr.w	r1, r1, #1048576	; 0x100000
    5aa4:	f04f 0e00 	mov.w	lr, #0
    5aa8:	3c01      	subs	r4, #1
    5aaa:	f300 80ab 	bgt.w	5c04 <__aeabi_dmul+0x238>
    5aae:	f114 0f36 	cmn.w	r4, #54	; 0x36
    5ab2:	bfde      	ittt	le
    5ab4:	2000      	movle	r0, #0
    5ab6:	f001 4100 	andle.w	r1, r1, #2147483648	; 0x80000000
    5aba:	bd70      	pople	{r4, r5, r6, pc}
    5abc:	f1c4 0400 	rsb	r4, r4, #0
    5ac0:	3c20      	subs	r4, #32
    5ac2:	da35      	bge.n	5b30 <__aeabi_dmul+0x164>
    5ac4:	340c      	adds	r4, #12
    5ac6:	dc1b      	bgt.n	5b00 <__aeabi_dmul+0x134>
    5ac8:	f104 0414 	add.w	r4, r4, #20
    5acc:	f1c4 0520 	rsb	r5, r4, #32
    5ad0:	fa00 f305 	lsl.w	r3, r0, r5
    5ad4:	fa20 f004 	lsr.w	r0, r0, r4
    5ad8:	fa01 f205 	lsl.w	r2, r1, r5
    5adc:	ea40 0002 	orr.w	r0, r0, r2
    5ae0:	f001 4200 	and.w	r2, r1, #2147483648	; 0x80000000
    5ae4:	f021 4100 	bic.w	r1, r1, #2147483648	; 0x80000000
    5ae8:	eb10 70d3 	adds.w	r0, r0, r3, lsr #31
    5aec:	fa21 f604 	lsr.w	r6, r1, r4
    5af0:	eb42 0106 	adc.w	r1, r2, r6
    5af4:	ea5e 0e43 	orrs.w	lr, lr, r3, lsl #1
    5af8:	bf08      	it	eq
    5afa:	ea20 70d3 	biceq.w	r0, r0, r3, lsr #31
    5afe:	bd70      	pop	{r4, r5, r6, pc}
    5b00:	f1c4 040c 	rsb	r4, r4, #12
    5b04:	f1c4 0520 	rsb	r5, r4, #32
    5b08:	fa00 f304 	lsl.w	r3, r0, r4
    5b0c:	fa20 f005 	lsr.w	r0, r0, r5
    5b10:	fa01 f204 	lsl.w	r2, r1, r4
    5b14:	ea40 0002 	orr.w	r0, r0, r2
    5b18:	f001 4100 	and.w	r1, r1, #2147483648	; 0x80000000
    5b1c:	eb10 70d3 	adds.w	r0, r0, r3, lsr #31
    5b20:	f141 0100 	adc.w	r1, r1, #0
    5b24:	ea5e 0e43 	orrs.w	lr, lr, r3, lsl #1
    5b28:	bf08      	it	eq
    5b2a:	ea20 70d3 	biceq.w	r0, r0, r3, lsr #31
    5b2e:	bd70      	pop	{r4, r5, r6, pc}
    5b30:	f1c4 0520 	rsb	r5, r4, #32
    5b34:	fa00 f205 	lsl.w	r2, r0, r5
    5b38:	ea4e 0e02 	orr.w	lr, lr, r2
    5b3c:	fa20 f304 	lsr.w	r3, r0, r4
    5b40:	fa01 f205 	lsl.w	r2, r1, r5
    5b44:	ea43 0302 	orr.w	r3, r3, r2
    5b48:	fa21 f004 	lsr.w	r0, r1, r4
    5b4c:	f001 4100 	and.w	r1, r1, #2147483648	; 0x80000000
    5b50:	fa21 f204 	lsr.w	r2, r1, r4
    5b54:	ea20 0002 	bic.w	r0, r0, r2
    5b58:	eb00 70d3 	add.w	r0, r0, r3, lsr #31
    5b5c:	ea5e 0e43 	orrs.w	lr, lr, r3, lsl #1
    5b60:	bf08      	it	eq
    5b62:	ea20 70d3 	biceq.w	r0, r0, r3, lsr #31
    5b66:	bd70      	pop	{r4, r5, r6, pc}
    5b68:	f094 0f00 	teq	r4, #0
    5b6c:	d10f      	bne.n	5b8e <__aeabi_dmul+0x1c2>
    5b6e:	f001 4600 	and.w	r6, r1, #2147483648	; 0x80000000
    5b72:	0040      	lsls	r0, r0, #1
    5b74:	eb41 0101 	adc.w	r1, r1, r1
    5b78:	f411 1f80 	tst.w	r1, #1048576	; 0x100000
    5b7c:	bf08      	it	eq
    5b7e:	3c01      	subeq	r4, #1
    5b80:	d0f7      	beq.n	5b72 <__aeabi_dmul+0x1a6>
    5b82:	ea41 0106 	orr.w	r1, r1, r6
    5b86:	f095 0f00 	teq	r5, #0
    5b8a:	bf18      	it	ne
    5b8c:	4770      	bxne	lr
    5b8e:	f003 4600 	and.w	r6, r3, #2147483648	; 0x80000000
    5b92:	0052      	lsls	r2, r2, #1
    5b94:	eb43 0303 	adc.w	r3, r3, r3
    5b98:	f413 1f80 	tst.w	r3, #1048576	; 0x100000
    5b9c:	bf08      	it	eq
    5b9e:	3d01      	subeq	r5, #1
    5ba0:	d0f7      	beq.n	5b92 <__aeabi_dmul+0x1c6>
    5ba2:	ea43 0306 	orr.w	r3, r3, r6
    5ba6:	4770      	bx	lr
    5ba8:	ea94 0f0c 	teq	r4, ip
    5bac:	ea0c 5513 	and.w	r5, ip, r3, lsr #20
    5bb0:	bf18      	it	ne
    5bb2:	ea95 0f0c 	teqne	r5, ip
    5bb6:	d00c      	beq.n	5bd2 <__aeabi_dmul+0x206>
    5bb8:	ea50 0641 	orrs.w	r6, r0, r1, lsl #1
    5bbc:	bf18      	it	ne
    5bbe:	ea52 0643 	orrsne.w	r6, r2, r3, lsl #1
    5bc2:	d1d1      	bne.n	5b68 <__aeabi_dmul+0x19c>
    5bc4:	ea81 0103 	eor.w	r1, r1, r3
    5bc8:	f001 4100 	and.w	r1, r1, #2147483648	; 0x80000000
    5bcc:	f04f 0000 	mov.w	r0, #0
    5bd0:	bd70      	pop	{r4, r5, r6, pc}
    5bd2:	ea50 0641 	orrs.w	r6, r0, r1, lsl #1
    5bd6:	bf06      	itte	eq
    5bd8:	4610      	moveq	r0, r2
    5bda:	4619      	moveq	r1, r3
    5bdc:	ea52 0643 	orrsne.w	r6, r2, r3, lsl #1
    5be0:	d019      	beq.n	5c16 <__aeabi_dmul+0x24a>
    5be2:	ea94 0f0c 	teq	r4, ip
    5be6:	d102      	bne.n	5bee <__aeabi_dmul+0x222>
    5be8:	ea50 3601 	orrs.w	r6, r0, r1, lsl #12
    5bec:	d113      	bne.n	5c16 <__aeabi_dmul+0x24a>
    5bee:	ea95 0f0c 	teq	r5, ip
    5bf2:	d105      	bne.n	5c00 <__aeabi_dmul+0x234>
    5bf4:	ea52 3603 	orrs.w	r6, r2, r3, lsl #12
    5bf8:	bf1c      	itt	ne
    5bfa:	4610      	movne	r0, r2
    5bfc:	4619      	movne	r1, r3
    5bfe:	d10a      	bne.n	5c16 <__aeabi_dmul+0x24a>
    5c00:	ea81 0103 	eor.w	r1, r1, r3
    5c04:	f001 4100 	and.w	r1, r1, #2147483648	; 0x80000000
    5c08:	f041 41fe 	orr.w	r1, r1, #2130706432	; 0x7f000000
    5c0c:	f441 0170 	orr.w	r1, r1, #15728640	; 0xf00000
    5c10:	f04f 0000 	mov.w	r0, #0
    5c14:	bd70      	pop	{r4, r5, r6, pc}
    5c16:	f041 41fe 	orr.w	r1, r1, #2130706432	; 0x7f000000
    5c1a:	f441 0178 	orr.w	r1, r1, #16252928	; 0xf80000
    5c1e:	bd70      	pop	{r4, r5, r6, pc}

00005c20 <__aeabi_ddiv>:
    5c20:	b570      	push	{r4, r5, r6, lr}
    5c22:	f04f 0cff 	mov.w	ip, #255	; 0xff
    5c26:	f44c 6ce0 	orr.w	ip, ip, #1792	; 0x700
    5c2a:	ea1c 5411 	ands.w	r4, ip, r1, lsr #20
    5c2e:	bf1d      	ittte	ne
    5c30:	ea1c 5513 	andsne.w	r5, ip, r3, lsr #20
    5c34:	ea94 0f0c 	teqne	r4, ip
    5c38:	ea95 0f0c 	teqne	r5, ip
    5c3c:	f000 f8a7 	bleq	5d8e <__aeabi_ddiv+0x16e>
    5c40:	eba4 0405 	sub.w	r4, r4, r5
    5c44:	ea81 0e03 	eor.w	lr, r1, r3
    5c48:	ea52 3503 	orrs.w	r5, r2, r3, lsl #12
    5c4c:	ea4f 3101 	mov.w	r1, r1, lsl #12
    5c50:	f000 8088 	beq.w	5d64 <__aeabi_ddiv+0x144>
    5c54:	ea4f 3303 	mov.w	r3, r3, lsl #12
    5c58:	f04f 5580 	mov.w	r5, #268435456	; 0x10000000
    5c5c:	ea45 1313 	orr.w	r3, r5, r3, lsr #4
    5c60:	ea43 6312 	orr.w	r3, r3, r2, lsr #24
    5c64:	ea4f 2202 	mov.w	r2, r2, lsl #8
    5c68:	ea45 1511 	orr.w	r5, r5, r1, lsr #4
    5c6c:	ea45 6510 	orr.w	r5, r5, r0, lsr #24
    5c70:	ea4f 2600 	mov.w	r6, r0, lsl #8
    5c74:	f00e 4100 	and.w	r1, lr, #2147483648	; 0x80000000
    5c78:	429d      	cmp	r5, r3
    5c7a:	bf08      	it	eq
    5c7c:	4296      	cmpeq	r6, r2
    5c7e:	f144 04fd 	adc.w	r4, r4, #253	; 0xfd
    5c82:	f504 7440 	add.w	r4, r4, #768	; 0x300
    5c86:	d202      	bcs.n	5c8e <__aeabi_ddiv+0x6e>
    5c88:	085b      	lsrs	r3, r3, #1
    5c8a:	ea4f 0232 	mov.w	r2, r2, rrx
    5c8e:	1ab6      	subs	r6, r6, r2
    5c90:	eb65 0503 	sbc.w	r5, r5, r3
    5c94:	085b      	lsrs	r3, r3, #1
    5c96:	ea4f 0232 	mov.w	r2, r2, rrx
    5c9a:	f44f 1080 	mov.w	r0, #1048576	; 0x100000
    5c9e:	f44f 2c00 	mov.w	ip, #524288	; 0x80000
    5ca2:	ebb6 0e02 	subs.w	lr, r6, r2
    5ca6:	eb75 0e03 	sbcs.w	lr, r5, r3
    5caa:	bf22      	ittt	cs
    5cac:	1ab6      	subcs	r6, r6, r2
    5cae:	4675      	movcs	r5, lr
    5cb0:	ea40 000c 	orrcs.w	r0, r0, ip
    5cb4:	085b      	lsrs	r3, r3, #1
    5cb6:	ea4f 0232 	mov.w	r2, r2, rrx
    5cba:	ebb6 0e02 	subs.w	lr, r6, r2
    5cbe:	eb75 0e03 	sbcs.w	lr, r5, r3
    5cc2:	bf22      	ittt	cs
    5cc4:	1ab6      	subcs	r6, r6, r2
    5cc6:	4675      	movcs	r5, lr
    5cc8:	ea40 005c 	orrcs.w	r0, r0, ip, lsr #1
    5ccc:	085b      	lsrs	r3, r3, #1
    5cce:	ea4f 0232 	mov.w	r2, r2, rrx
    5cd2:	ebb6 0e02 	subs.w	lr, r6, r2
    5cd6:	eb75 0e03 	sbcs.w	lr, r5, r3
    5cda:	bf22      	ittt	cs
    5cdc:	1ab6      	subcs	r6, r6, r2
    5cde:	4675      	movcs	r5, lr
    5ce0:	ea40 009c 	orrcs.w	r0, r0, ip, lsr #2
    5ce4:	085b      	lsrs	r3, r3, #1
    5ce6:	ea4f 0232 	mov.w	r2, r2, rrx
    5cea:	ebb6 0e02 	subs.w	lr, r6, r2
    5cee:	eb75 0e03 	sbcs.w	lr, r5, r3
    5cf2:	bf22      	ittt	cs
    5cf4:	1ab6      	subcs	r6, r6, r2
    5cf6:	4675      	movcs	r5, lr
    5cf8:	ea40 00dc 	orrcs.w	r0, r0, ip, lsr #3
    5cfc:	ea55 0e06 	orrs.w	lr, r5, r6
    5d00:	d018      	beq.n	5d34 <__aeabi_ddiv+0x114>
    5d02:	ea4f 1505 	mov.w	r5, r5, lsl #4
    5d06:	ea45 7516 	orr.w	r5, r5, r6, lsr #28
    5d0a:	ea4f 1606 	mov.w	r6, r6, lsl #4
    5d0e:	ea4f 03c3 	mov.w	r3, r3, lsl #3
    5d12:	ea43 7352 	orr.w	r3, r3, r2, lsr #29
    5d16:	ea4f 02c2 	mov.w	r2, r2, lsl #3
    5d1a:	ea5f 1c1c 	movs.w	ip, ip, lsr #4
    5d1e:	d1c0      	bne.n	5ca2 <__aeabi_ddiv+0x82>
    5d20:	f411 1f80 	tst.w	r1, #1048576	; 0x100000
    5d24:	d10b      	bne.n	5d3e <__aeabi_ddiv+0x11e>
    5d26:	ea41 0100 	orr.w	r1, r1, r0
    5d2a:	f04f 0000 	mov.w	r0, #0
    5d2e:	f04f 4c00 	mov.w	ip, #2147483648	; 0x80000000
    5d32:	e7b6      	b.n	5ca2 <__aeabi_ddiv+0x82>
    5d34:	f411 1f80 	tst.w	r1, #1048576	; 0x100000
    5d38:	bf04      	itt	eq
    5d3a:	4301      	orreq	r1, r0
    5d3c:	2000      	moveq	r0, #0
    5d3e:	f1b4 0cfd 	subs.w	ip, r4, #253	; 0xfd
    5d42:	bf88      	it	hi
    5d44:	f5bc 6fe0 	cmphi.w	ip, #1792	; 0x700
    5d48:	f63f aeaf 	bhi.w	5aaa <__aeabi_dmul+0xde>
    5d4c:	ebb5 0c03 	subs.w	ip, r5, r3
    5d50:	bf04      	itt	eq
    5d52:	ebb6 0c02 	subseq.w	ip, r6, r2
    5d56:	ea5f 0c50 	movseq.w	ip, r0, lsr #1
    5d5a:	f150 0000 	adcs.w	r0, r0, #0
    5d5e:	eb41 5104 	adc.w	r1, r1, r4, lsl #20
    5d62:	bd70      	pop	{r4, r5, r6, pc}
    5d64:	f00e 4e00 	and.w	lr, lr, #2147483648	; 0x80000000
    5d68:	ea4e 3111 	orr.w	r1, lr, r1, lsr #12
    5d6c:	eb14 045c 	adds.w	r4, r4, ip, lsr #1
    5d70:	bfc2      	ittt	gt
    5d72:	ebd4 050c 	rsbsgt	r5, r4, ip
    5d76:	ea41 5104 	orrgt.w	r1, r1, r4, lsl #20
    5d7a:	bd70      	popgt	{r4, r5, r6, pc}
    5d7c:	f441 1180 	orr.w	r1, r1, #1048576	; 0x100000
    5d80:	f04f 0e00 	mov.w	lr, #0
    5d84:	3c01      	subs	r4, #1
    5d86:	e690      	b.n	5aaa <__aeabi_dmul+0xde>
    5d88:	ea45 0e06 	orr.w	lr, r5, r6
    5d8c:	e68d      	b.n	5aaa <__aeabi_dmul+0xde>
    5d8e:	ea0c 5513 	and.w	r5, ip, r3, lsr #20
    5d92:	ea94 0f0c 	teq	r4, ip
    5d96:	bf08      	it	eq
    5d98:	ea95 0f0c 	teqeq	r5, ip
    5d9c:	f43f af3b 	beq.w	5c16 <__aeabi_dmul+0x24a>
    5da0:	ea94 0f0c 	teq	r4, ip
    5da4:	d10a      	bne.n	5dbc <__aeabi_ddiv+0x19c>
    5da6:	ea50 3401 	orrs.w	r4, r0, r1, lsl #12
    5daa:	f47f af34 	bne.w	5c16 <__aeabi_dmul+0x24a>
    5dae:	ea95 0f0c 	teq	r5, ip
    5db2:	f47f af25 	bne.w	5c00 <__aeabi_dmul+0x234>
    5db6:	4610      	mov	r0, r2
    5db8:	4619      	mov	r1, r3
    5dba:	e72c      	b.n	5c16 <__aeabi_dmul+0x24a>
    5dbc:	ea95 0f0c 	teq	r5, ip
    5dc0:	d106      	bne.n	5dd0 <__aeabi_ddiv+0x1b0>
    5dc2:	ea52 3503 	orrs.w	r5, r2, r3, lsl #12
    5dc6:	f43f aefd 	beq.w	5bc4 <__aeabi_dmul+0x1f8>
    5dca:	4610      	mov	r0, r2
    5dcc:	4619      	mov	r1, r3
    5dce:	e722      	b.n	5c16 <__aeabi_dmul+0x24a>
    5dd0:	ea50 0641 	orrs.w	r6, r0, r1, lsl #1
    5dd4:	bf18      	it	ne
    5dd6:	ea52 0643 	orrsne.w	r6, r2, r3, lsl #1
    5dda:	f47f aec5 	bne.w	5b68 <__aeabi_dmul+0x19c>
    5dde:	ea50 0441 	orrs.w	r4, r0, r1, lsl #1
    5de2:	f47f af0d 	bne.w	5c00 <__aeabi_dmul+0x234>
    5de6:	ea52 0543 	orrs.w	r5, r2, r3, lsl #1
    5dea:	f47f aeeb 	bne.w	5bc4 <__aeabi_dmul+0x1f8>
    5dee:	e712      	b.n	5c16 <__aeabi_dmul+0x24a>

00005df0 <__gedf2>:
    5df0:	f04f 3cff 	mov.w	ip, #4294967295
    5df4:	e006      	b.n	5e04 <__cmpdf2+0x4>
    5df6:	bf00      	nop

00005df8 <__ledf2>:
    5df8:	f04f 0c01 	mov.w	ip, #1
    5dfc:	e002      	b.n	5e04 <__cmpdf2+0x4>
    5dfe:	bf00      	nop

00005e00 <__cmpdf2>:
    5e00:	f04f 0c01 	mov.w	ip, #1
    5e04:	f84d cd04 	str.w	ip, [sp, #-4]!
    5e08:	ea4f 0c41 	mov.w	ip, r1, lsl #1
    5e0c:	ea7f 5c6c 	mvns.w	ip, ip, asr #21
    5e10:	ea4f 0c43 	mov.w	ip, r3, lsl #1
    5e14:	bf18      	it	ne
    5e16:	ea7f 5c6c 	mvnsne.w	ip, ip, asr #21
    5e1a:	d01b      	beq.n	5e54 <__cmpdf2+0x54>
    5e1c:	b001      	add	sp, #4
    5e1e:	ea50 0c41 	orrs.w	ip, r0, r1, lsl #1
    5e22:	bf0c      	ite	eq
    5e24:	ea52 0c43 	orrseq.w	ip, r2, r3, lsl #1
    5e28:	ea91 0f03 	teqne	r1, r3
    5e2c:	bf02      	ittt	eq
    5e2e:	ea90 0f02 	teqeq	r0, r2
    5e32:	2000      	moveq	r0, #0
    5e34:	4770      	bxeq	lr
    5e36:	f110 0f00 	cmn.w	r0, #0
    5e3a:	ea91 0f03 	teq	r1, r3
    5e3e:	bf58      	it	pl
    5e40:	4299      	cmppl	r1, r3
    5e42:	bf08      	it	eq
    5e44:	4290      	cmpeq	r0, r2
    5e46:	bf2c      	ite	cs
    5e48:	17d8      	asrcs	r0, r3, #31
    5e4a:	ea6f 70e3 	mvncc.w	r0, r3, asr #31
    5e4e:	f040 0001 	orr.w	r0, r0, #1
    5e52:	4770      	bx	lr
    5e54:	ea4f 0c41 	mov.w	ip, r1, lsl #1
    5e58:	ea7f 5c6c 	mvns.w	ip, ip, asr #21
    5e5c:	d102      	bne.n	5e64 <__cmpdf2+0x64>
    5e5e:	ea50 3c01 	orrs.w	ip, r0, r1, lsl #12
    5e62:	d107      	bne.n	5e74 <__cmpdf2+0x74>
    5e64:	ea4f 0c43 	mov.w	ip, r3, lsl #1
    5e68:	ea7f 5c6c 	mvns.w	ip, ip, asr #21
    5e6c:	d1d6      	bne.n	5e1c <__cmpdf2+0x1c>
    5e6e:	ea52 3c03 	orrs.w	ip, r2, r3, lsl #12
    5e72:	d0d3      	beq.n	5e1c <__cmpdf2+0x1c>
    5e74:	f85d 0b04 	ldr.w	r0, [sp], #4
    5e78:	4770      	bx	lr
    5e7a:	bf00      	nop

00005e7c <__aeabi_cdrcmple>:
    5e7c:	4684      	mov	ip, r0
    5e7e:	4610      	mov	r0, r2
    5e80:	4662      	mov	r2, ip
    5e82:	468c      	mov	ip, r1
    5e84:	4619      	mov	r1, r3
    5e86:	4663      	mov	r3, ip
    5e88:	e000      	b.n	5e8c <__aeabi_cdcmpeq>
    5e8a:	bf00      	nop

00005e8c <__aeabi_cdcmpeq>:
    5e8c:	b501      	push	{r0, lr}
    5e8e:	f7ff ffb7 	bl	5e00 <__cmpdf2>
    5e92:	2800      	cmp	r0, #0
    5e94:	bf48      	it	mi
    5e96:	f110 0f00 	cmnmi.w	r0, #0
    5e9a:	bd01      	pop	{r0, pc}

00005e9c <__aeabi_dcmpeq>:
    5e9c:	f84d ed08 	str.w	lr, [sp, #-8]!
    5ea0:	f7ff fff4 	bl	5e8c <__aeabi_cdcmpeq>
    5ea4:	bf0c      	ite	eq
    5ea6:	2001      	moveq	r0, #1
    5ea8:	2000      	movne	r0, #0
    5eaa:	f85d fb08 	ldr.w	pc, [sp], #8
    5eae:	bf00      	nop

00005eb0 <__aeabi_dcmplt>:
    5eb0:	f84d ed08 	str.w	lr, [sp, #-8]!
    5eb4:	f7ff ffea 	bl	5e8c <__aeabi_cdcmpeq>
    5eb8:	bf34      	ite	cc
    5eba:	2001      	movcc	r0, #1
    5ebc:	2000      	movcs	r0, #0
    5ebe:	f85d fb08 	ldr.w	pc, [sp], #8
    5ec2:	bf00      	nop

00005ec4 <__aeabi_dcmple>:
    5ec4:	f84d ed08 	str.w	lr, [sp, #-8]!
    5ec8:	f7ff ffe0 	bl	5e8c <__aeabi_cdcmpeq>
    5ecc:	bf94      	ite	ls
    5ece:	2001      	movls	r0, #1
    5ed0:	2000      	movhi	r0, #0
    5ed2:	f85d fb08 	ldr.w	pc, [sp], #8
    5ed6:	bf00      	nop

00005ed8 <__aeabi_dcmpge>:
    5ed8:	f84d ed08 	str.w	lr, [sp, #-8]!
    5edc:	f7ff ffce 	bl	5e7c <__aeabi_cdrcmple>
    5ee0:	bf94      	ite	ls
    5ee2:	2001      	movls	r0, #1
    5ee4:	2000      	movhi	r0, #0
    5ee6:	f85d fb08 	ldr.w	pc, [sp], #8
    5eea:	bf00      	nop

00005eec <__aeabi_dcmpgt>:
    5eec:	f84d ed08 	str.w	lr, [sp, #-8]!
    5ef0:	f7ff ffc4 	bl	5e7c <__aeabi_cdrcmple>
    5ef4:	bf34      	ite	cc
    5ef6:	2001      	movcc	r0, #1
    5ef8:	2000      	movcs	r0, #0
    5efa:	f85d fb08 	ldr.w	pc, [sp], #8
    5efe:	bf00      	nop

00005f00 <__aeabi_d2iz>:
    5f00:	ea4f 0241 	mov.w	r2, r1, lsl #1
    5f04:	f512 1200 	adds.w	r2, r2, #2097152	; 0x200000
    5f08:	d215      	bcs.n	5f36 <__aeabi_d2iz+0x36>
    5f0a:	d511      	bpl.n	5f30 <__aeabi_d2iz+0x30>
    5f0c:	f46f 7378 	mvn.w	r3, #992	; 0x3e0
    5f10:	ebb3 5262 	subs.w	r2, r3, r2, asr #21
    5f14:	d912      	bls.n	5f3c <__aeabi_d2iz+0x3c>
    5f16:	ea4f 23c1 	mov.w	r3, r1, lsl #11
    5f1a:	f043 4300 	orr.w	r3, r3, #2147483648	; 0x80000000
    5f1e:	ea43 5350 	orr.w	r3, r3, r0, lsr #21
    5f22:	f011 4f00 	tst.w	r1, #2147483648	; 0x80000000
    5f26:	fa23 f002 	lsr.w	r0, r3, r2
    5f2a:	bf18      	it	ne
    5f2c:	4240      	negne	r0, r0
    5f2e:	4770      	bx	lr
    5f30:	f04f 0000 	mov.w	r0, #0
    5f34:	4770      	bx	lr
    5f36:	ea50 3001 	orrs.w	r0, r0, r1, lsl #12
    5f3a:	d105      	bne.n	5f48 <__aeabi_d2iz+0x48>
    5f3c:	f011 4000 	ands.w	r0, r1, #2147483648	; 0x80000000
    5f40:	bf08      	it	eq
    5f42:	f06f 4000 	mvneq.w	r0, #2147483648	; 0x80000000
    5f46:	4770      	bx	lr
    5f48:	f04f 0000 	mov.w	r0, #0
    5f4c:	4770      	bx	lr
    5f4e:	bf00      	nop

00005f50 <__aeabi_d2uiz>:
    5f50:	004a      	lsls	r2, r1, #1
    5f52:	d211      	bcs.n	5f78 <__aeabi_d2uiz+0x28>
    5f54:	f512 1200 	adds.w	r2, r2, #2097152	; 0x200000
    5f58:	d211      	bcs.n	5f7e <__aeabi_d2uiz+0x2e>
    5f5a:	d50d      	bpl.n	5f78 <__aeabi_d2uiz+0x28>
    5f5c:	f46f 7378 	mvn.w	r3, #992	; 0x3e0
    5f60:	ebb3 5262 	subs.w	r2, r3, r2, asr #21
    5f64:	d40e      	bmi.n	5f84 <__aeabi_d2uiz+0x34>
    5f66:	ea4f 23c1 	mov.w	r3, r1, lsl #11
    5f6a:	f043 4300 	orr.w	r3, r3, #2147483648	; 0x80000000
    5f6e:	ea43 5350 	orr.w	r3, r3, r0, lsr #21
    5f72:	fa23 f002 	lsr.w	r0, r3, r2
    5f76:	4770      	bx	lr
    5f78:	f04f 0000 	mov.w	r0, #0
    5f7c:	4770      	bx	lr
    5f7e:	ea50 3001 	orrs.w	r0, r0, r1, lsl #12
    5f82:	d102      	bne.n	5f8a <__aeabi_d2uiz+0x3a>
    5f84:	f04f 30ff 	mov.w	r0, #4294967295
    5f88:	4770      	bx	lr
    5f8a:	f04f 0000 	mov.w	r0, #0
    5f8e:	4770      	bx	lr

00005f90 <__aeabi_d2f>:
    5f90:	ea4f 0241 	mov.w	r2, r1, lsl #1
    5f94:	f1b2 43e0 	subs.w	r3, r2, #1879048192	; 0x70000000
    5f98:	bf24      	itt	cs
    5f9a:	f5b3 1c00 	subscs.w	ip, r3, #2097152	; 0x200000
    5f9e:	f1dc 5cfe 	rsbscs	ip, ip, #532676608	; 0x1fc00000
    5fa2:	d90d      	bls.n	5fc0 <__aeabi_d2f+0x30>
    5fa4:	f001 4c00 	and.w	ip, r1, #2147483648	; 0x80000000
    5fa8:	ea4f 02c0 	mov.w	r2, r0, lsl #3
    5fac:	ea4c 7050 	orr.w	r0, ip, r0, lsr #29
    5fb0:	f1b2 4f00 	cmp.w	r2, #2147483648	; 0x80000000
    5fb4:	eb40 0083 	adc.w	r0, r0, r3, lsl #2
    5fb8:	bf08      	it	eq
    5fba:	f020 0001 	biceq.w	r0, r0, #1
    5fbe:	4770      	bx	lr
    5fc0:	f011 4f80 	tst.w	r1, #1073741824	; 0x40000000
    5fc4:	d121      	bne.n	600a <__aeabi_d2f+0x7a>
    5fc6:	f113 7238 	adds.w	r2, r3, #48234496	; 0x2e00000
    5fca:	bfbc      	itt	lt
    5fcc:	f001 4000 	andlt.w	r0, r1, #2147483648	; 0x80000000
    5fd0:	4770      	bxlt	lr
    5fd2:	f441 1180 	orr.w	r1, r1, #1048576	; 0x100000
    5fd6:	ea4f 5252 	mov.w	r2, r2, lsr #21
    5fda:	f1c2 0218 	rsb	r2, r2, #24
    5fde:	f1c2 0c20 	rsb	ip, r2, #32
    5fe2:	fa10 f30c 	lsls.w	r3, r0, ip
    5fe6:	fa20 f002 	lsr.w	r0, r0, r2
    5fea:	bf18      	it	ne
    5fec:	f040 0001 	orrne.w	r0, r0, #1
    5ff0:	ea4f 23c1 	mov.w	r3, r1, lsl #11
    5ff4:	ea4f 23d3 	mov.w	r3, r3, lsr #11
    5ff8:	fa03 fc0c 	lsl.w	ip, r3, ip
    5ffc:	ea40 000c 	orr.w	r0, r0, ip
    6000:	fa23 f302 	lsr.w	r3, r3, r2
    6004:	ea4f 0343 	mov.w	r3, r3, lsl #1
    6008:	e7cc      	b.n	5fa4 <__aeabi_d2f+0x14>
    600a:	ea7f 5362 	mvns.w	r3, r2, asr #21
    600e:	d107      	bne.n	6020 <__aeabi_d2f+0x90>
    6010:	ea50 3301 	orrs.w	r3, r0, r1, lsl #12
    6014:	bf1e      	ittt	ne
    6016:	f04f 40fe 	movne.w	r0, #2130706432	; 0x7f000000
    601a:	f440 0040 	orrne.w	r0, r0, #12582912	; 0xc00000
    601e:	4770      	bxne	lr
    6020:	f001 4000 	and.w	r0, r1, #2147483648	; 0x80000000
    6024:	f040 40fe 	orr.w	r0, r0, #2130706432	; 0x7f000000
    6028:	f440 0000 	orr.w	r0, r0, #8388608	; 0x800000
    602c:	4770      	bx	lr
    602e:	bf00      	nop

00006030 <__aeabi_frsub>:
    6030:	f080 4000 	eor.w	r0, r0, #2147483648	; 0x80000000
    6034:	e002      	b.n	603c <__addsf3>
    6036:	bf00      	nop

00006038 <__aeabi_fsub>:
    6038:	f081 4100 	eor.w	r1, r1, #2147483648	; 0x80000000

0000603c <__addsf3>:
    603c:	0042      	lsls	r2, r0, #1
    603e:	bf1f      	itttt	ne
    6040:	ea5f 0341 	movsne.w	r3, r1, lsl #1
    6044:	ea92 0f03 	teqne	r2, r3
    6048:	ea7f 6c22 	mvnsne.w	ip, r2, asr #24
    604c:	ea7f 6c23 	mvnsne.w	ip, r3, asr #24
    6050:	d06a      	beq.n	6128 <__addsf3+0xec>
    6052:	ea4f 6212 	mov.w	r2, r2, lsr #24
    6056:	ebd2 6313 	rsbs	r3, r2, r3, lsr #24
    605a:	bfc1      	itttt	gt
    605c:	18d2      	addgt	r2, r2, r3
    605e:	4041      	eorgt	r1, r0
    6060:	4048      	eorgt	r0, r1
    6062:	4041      	eorgt	r1, r0
    6064:	bfb8      	it	lt
    6066:	425b      	neglt	r3, r3
    6068:	2b19      	cmp	r3, #25
    606a:	bf88      	it	hi
    606c:	4770      	bxhi	lr
    606e:	f010 4f00 	tst.w	r0, #2147483648	; 0x80000000
    6072:	f440 0000 	orr.w	r0, r0, #8388608	; 0x800000
    6076:	f020 407f 	bic.w	r0, r0, #4278190080	; 0xff000000
    607a:	bf18      	it	ne
    607c:	4240      	negne	r0, r0
    607e:	f011 4f00 	tst.w	r1, #2147483648	; 0x80000000
    6082:	f441 0100 	orr.w	r1, r1, #8388608	; 0x800000
    6086:	f021 417f 	bic.w	r1, r1, #4278190080	; 0xff000000
    608a:	bf18      	it	ne
    608c:	4249      	negne	r1, r1
    608e:	ea92 0f03 	teq	r2, r3
    6092:	d03f      	beq.n	6114 <__addsf3+0xd8>
    6094:	f1a2 0201 	sub.w	r2, r2, #1
    6098:	fa41 fc03 	asr.w	ip, r1, r3
    609c:	eb10 000c 	adds.w	r0, r0, ip
    60a0:	f1c3 0320 	rsb	r3, r3, #32
    60a4:	fa01 f103 	lsl.w	r1, r1, r3
    60a8:	f000 4300 	and.w	r3, r0, #2147483648	; 0x80000000
    60ac:	d502      	bpl.n	60b4 <__addsf3+0x78>
    60ae:	4249      	negs	r1, r1
    60b0:	eb60 0040 	sbc.w	r0, r0, r0, lsl #1
    60b4:	f5b0 0f00 	cmp.w	r0, #8388608	; 0x800000
    60b8:	d313      	bcc.n	60e2 <__addsf3+0xa6>
    60ba:	f1b0 7f80 	cmp.w	r0, #16777216	; 0x1000000
    60be:	d306      	bcc.n	60ce <__addsf3+0x92>
    60c0:	0840      	lsrs	r0, r0, #1
    60c2:	ea4f 0131 	mov.w	r1, r1, rrx
    60c6:	f102 0201 	add.w	r2, r2, #1
    60ca:	2afe      	cmp	r2, #254	; 0xfe
    60cc:	d251      	bcs.n	6172 <__addsf3+0x136>
    60ce:	f1b1 4f00 	cmp.w	r1, #2147483648	; 0x80000000
    60d2:	eb40 50c2 	adc.w	r0, r0, r2, lsl #23
    60d6:	bf08      	it	eq
    60d8:	f020 0001 	biceq.w	r0, r0, #1
    60dc:	ea40 0003 	orr.w	r0, r0, r3
    60e0:	4770      	bx	lr
    60e2:	0049      	lsls	r1, r1, #1
    60e4:	eb40 0000 	adc.w	r0, r0, r0
    60e8:	f410 0f00 	tst.w	r0, #8388608	; 0x800000
    60ec:	f1a2 0201 	sub.w	r2, r2, #1
    60f0:	d1ed      	bne.n	60ce <__addsf3+0x92>
    60f2:	fab0 fc80 	clz	ip, r0
    60f6:	f1ac 0c08 	sub.w	ip, ip, #8
    60fa:	ebb2 020c 	subs.w	r2, r2, ip
    60fe:	fa00 f00c 	lsl.w	r0, r0, ip
    6102:	bfaa      	itet	ge
    6104:	eb00 50c2 	addge.w	r0, r0, r2, lsl #23
    6108:	4252      	neglt	r2, r2
    610a:	4318      	orrge	r0, r3
    610c:	bfbc      	itt	lt
    610e:	40d0      	lsrlt	r0, r2
    6110:	4318      	orrlt	r0, r3
    6112:	4770      	bx	lr
    6114:	f092 0f00 	teq	r2, #0
    6118:	f481 0100 	eor.w	r1, r1, #8388608	; 0x800000
    611c:	bf06      	itte	eq
    611e:	f480 0000 	eoreq.w	r0, r0, #8388608	; 0x800000
    6122:	3201      	addeq	r2, #1
    6124:	3b01      	subne	r3, #1
    6126:	e7b5      	b.n	6094 <__addsf3+0x58>
    6128:	ea4f 0341 	mov.w	r3, r1, lsl #1
    612c:	ea7f 6c22 	mvns.w	ip, r2, asr #24
    6130:	bf18      	it	ne
    6132:	ea7f 6c23 	mvnsne.w	ip, r3, asr #24
    6136:	d021      	beq.n	617c <__addsf3+0x140>
    6138:	ea92 0f03 	teq	r2, r3
    613c:	d004      	beq.n	6148 <__addsf3+0x10c>
    613e:	f092 0f00 	teq	r2, #0
    6142:	bf08      	it	eq
    6144:	4608      	moveq	r0, r1
    6146:	4770      	bx	lr
    6148:	ea90 0f01 	teq	r0, r1
    614c:	bf1c      	itt	ne
    614e:	2000      	movne	r0, #0
    6150:	4770      	bxne	lr
    6152:	f012 4f7f 	tst.w	r2, #4278190080	; 0xff000000
    6156:	d104      	bne.n	6162 <__addsf3+0x126>
    6158:	0040      	lsls	r0, r0, #1
    615a:	bf28      	it	cs
    615c:	f040 4000 	orrcs.w	r0, r0, #2147483648	; 0x80000000
    6160:	4770      	bx	lr
    6162:	f112 7200 	adds.w	r2, r2, #33554432	; 0x2000000
    6166:	bf3c      	itt	cc
    6168:	f500 0000 	addcc.w	r0, r0, #8388608	; 0x800000
    616c:	4770      	bxcc	lr
    616e:	f000 4300 	and.w	r3, r0, #2147483648	; 0x80000000
    6172:	f043 40fe 	orr.w	r0, r3, #2130706432	; 0x7f000000
    6176:	f440 0000 	orr.w	r0, r0, #8388608	; 0x800000
    617a:	4770      	bx	lr
    617c:	ea7f 6222 	mvns.w	r2, r2, asr #24
    6180:	bf16      	itet	ne
    6182:	4608      	movne	r0, r1
    6184:	ea7f 6323 	mvnseq.w	r3, r3, asr #24
    6188:	4601      	movne	r1, r0
    618a:	0242      	lsls	r2, r0, #9
    618c:	bf06      	itte	eq
    618e:	ea5f 2341 	movseq.w	r3, r1, lsl #9
    6192:	ea90 0f01 	teqeq	r0, r1
    6196:	f440 0080 	orrne.w	r0, r0, #4194304	; 0x400000
    619a:	4770      	bx	lr

0000619c <__aeabi_ui2f>:
    619c:	f04f 0300 	mov.w	r3, #0
    61a0:	e004      	b.n	61ac <__aeabi_i2f+0x8>
    61a2:	bf00      	nop

000061a4 <__aeabi_i2f>:
    61a4:	f010 4300 	ands.w	r3, r0, #2147483648	; 0x80000000
    61a8:	bf48      	it	mi
    61aa:	4240      	negmi	r0, r0
    61ac:	ea5f 0c00 	movs.w	ip, r0
    61b0:	bf08      	it	eq
    61b2:	4770      	bxeq	lr
    61b4:	f043 4396 	orr.w	r3, r3, #1258291200	; 0x4b000000
    61b8:	4601      	mov	r1, r0
    61ba:	f04f 0000 	mov.w	r0, #0
    61be:	e01c      	b.n	61fa <__aeabi_l2f+0x2a>

000061c0 <__aeabi_ul2f>:
    61c0:	ea50 0201 	orrs.w	r2, r0, r1
    61c4:	bf08      	it	eq
    61c6:	4770      	bxeq	lr
    61c8:	f04f 0300 	mov.w	r3, #0
    61cc:	e00a      	b.n	61e4 <__aeabi_l2f+0x14>
    61ce:	bf00      	nop

000061d0 <__aeabi_l2f>:
    61d0:	ea50 0201 	orrs.w	r2, r0, r1
    61d4:	bf08      	it	eq
    61d6:	4770      	bxeq	lr
    61d8:	f011 4300 	ands.w	r3, r1, #2147483648	; 0x80000000
    61dc:	d502      	bpl.n	61e4 <__aeabi_l2f+0x14>
    61de:	4240      	negs	r0, r0
    61e0:	eb61 0141 	sbc.w	r1, r1, r1, lsl #1
    61e4:	ea5f 0c01 	movs.w	ip, r1
    61e8:	bf02      	ittt	eq
    61ea:	4684      	moveq	ip, r0
    61ec:	4601      	moveq	r1, r0
    61ee:	2000      	moveq	r0, #0
    61f0:	f043 43b6 	orr.w	r3, r3, #1526726656	; 0x5b000000
    61f4:	bf08      	it	eq
    61f6:	f1a3 5380 	subeq.w	r3, r3, #268435456	; 0x10000000
    61fa:	f5a3 0300 	sub.w	r3, r3, #8388608	; 0x800000
    61fe:	fabc f28c 	clz	r2, ip
    6202:	3a08      	subs	r2, #8
    6204:	eba3 53c2 	sub.w	r3, r3, r2, lsl #23
    6208:	db10      	blt.n	622c <__aeabi_l2f+0x5c>
    620a:	fa01 fc02 	lsl.w	ip, r1, r2
    620e:	4463      	add	r3, ip
    6210:	fa00 fc02 	lsl.w	ip, r0, r2
    6214:	f1c2 0220 	rsb	r2, r2, #32
    6218:	f1bc 4f00 	cmp.w	ip, #2147483648	; 0x80000000
    621c:	fa20 f202 	lsr.w	r2, r0, r2
    6220:	eb43 0002 	adc.w	r0, r3, r2
    6224:	bf08      	it	eq
    6226:	f020 0001 	biceq.w	r0, r0, #1
    622a:	4770      	bx	lr
    622c:	f102 0220 	add.w	r2, r2, #32
    6230:	fa01 fc02 	lsl.w	ip, r1, r2
    6234:	f1c2 0220 	rsb	r2, r2, #32
    6238:	ea50 004c 	orrs.w	r0, r0, ip, lsl #1
    623c:	fa21 f202 	lsr.w	r2, r1, r2
    6240:	eb43 0002 	adc.w	r0, r3, r2
    6244:	bf08      	it	eq
    6246:	ea20 70dc 	biceq.w	r0, r0, ip, lsr #31
    624a:	4770      	bx	lr

0000624c <__aeabi_fmul>:
    624c:	f04f 0cff 	mov.w	ip, #255	; 0xff
    6250:	ea1c 52d0 	ands.w	r2, ip, r0, lsr #23
    6254:	bf1e      	ittt	ne
    6256:	ea1c 53d1 	andsne.w	r3, ip, r1, lsr #23
    625a:	ea92 0f0c 	teqne	r2, ip
    625e:	ea93 0f0c 	teqne	r3, ip
    6262:	d06f      	beq.n	6344 <__aeabi_fmul+0xf8>
    6264:	441a      	add	r2, r3
    6266:	ea80 0c01 	eor.w	ip, r0, r1
    626a:	0240      	lsls	r0, r0, #9
    626c:	bf18      	it	ne
    626e:	ea5f 2141 	movsne.w	r1, r1, lsl #9
    6272:	d01e      	beq.n	62b2 <__aeabi_fmul+0x66>
    6274:	f04f 6300 	mov.w	r3, #134217728	; 0x8000000
    6278:	ea43 1050 	orr.w	r0, r3, r0, lsr #5
    627c:	ea43 1151 	orr.w	r1, r3, r1, lsr #5
    6280:	fba0 3101 	umull	r3, r1, r0, r1
    6284:	f00c 4000 	and.w	r0, ip, #2147483648	; 0x80000000
    6288:	f5b1 0f00 	cmp.w	r1, #8388608	; 0x800000
    628c:	bf3e      	ittt	cc
    628e:	0049      	lslcc	r1, r1, #1
    6290:	ea41 71d3 	orrcc.w	r1, r1, r3, lsr #31
    6294:	005b      	lslcc	r3, r3, #1
    6296:	ea40 0001 	orr.w	r0, r0, r1
    629a:	f162 027f 	sbc.w	r2, r2, #127	; 0x7f
    629e:	2afd      	cmp	r2, #253	; 0xfd
    62a0:	d81d      	bhi.n	62de <__aeabi_fmul+0x92>
    62a2:	f1b3 4f00 	cmp.w	r3, #2147483648	; 0x80000000
    62a6:	eb40 50c2 	adc.w	r0, r0, r2, lsl #23
    62aa:	bf08      	it	eq
    62ac:	f020 0001 	biceq.w	r0, r0, #1
    62b0:	4770      	bx	lr
    62b2:	f090 0f00 	teq	r0, #0
    62b6:	f00c 4c00 	and.w	ip, ip, #2147483648	; 0x80000000
    62ba:	bf08      	it	eq
    62bc:	0249      	lsleq	r1, r1, #9
    62be:	ea4c 2050 	orr.w	r0, ip, r0, lsr #9
    62c2:	ea40 2051 	orr.w	r0, r0, r1, lsr #9
    62c6:	3a7f      	subs	r2, #127	; 0x7f
    62c8:	bfc2      	ittt	gt
    62ca:	f1d2 03ff 	rsbsgt	r3, r2, #255	; 0xff
    62ce:	ea40 50c2 	orrgt.w	r0, r0, r2, lsl #23
    62d2:	4770      	bxgt	lr
    62d4:	f440 0000 	orr.w	r0, r0, #8388608	; 0x800000
    62d8:	f04f 0300 	mov.w	r3, #0
    62dc:	3a01      	subs	r2, #1
    62de:	dc5d      	bgt.n	639c <__aeabi_fmul+0x150>
    62e0:	f112 0f19 	cmn.w	r2, #25
    62e4:	bfdc      	itt	le
    62e6:	f000 4000 	andle.w	r0, r0, #2147483648	; 0x80000000
    62ea:	4770      	bxle	lr
    62ec:	f1c2 0200 	rsb	r2, r2, #0
    62f0:	0041      	lsls	r1, r0, #1
    62f2:	fa21 f102 	lsr.w	r1, r1, r2
    62f6:	f1c2 0220 	rsb	r2, r2, #32
    62fa:	fa00 fc02 	lsl.w	ip, r0, r2
    62fe:	ea5f 0031 	movs.w	r0, r1, rrx
    6302:	f140 0000 	adc.w	r0, r0, #0
    6306:	ea53 034c 	orrs.w	r3, r3, ip, lsl #1
    630a:	bf08      	it	eq
    630c:	ea20 70dc 	biceq.w	r0, r0, ip, lsr #31
    6310:	4770      	bx	lr
    6312:	f092 0f00 	teq	r2, #0
    6316:	f000 4c00 	and.w	ip, r0, #2147483648	; 0x80000000
    631a:	bf02      	ittt	eq
    631c:	0040      	lsleq	r0, r0, #1
    631e:	f410 0f00 	tsteq.w	r0, #8388608	; 0x800000
    6322:	3a01      	subeq	r2, #1
    6324:	d0f9      	beq.n	631a <__aeabi_fmul+0xce>
    6326:	ea40 000c 	orr.w	r0, r0, ip
    632a:	f093 0f00 	teq	r3, #0
    632e:	f001 4c00 	and.w	ip, r1, #2147483648	; 0x80000000
    6332:	bf02      	ittt	eq
    6334:	0049      	lsleq	r1, r1, #1
    6336:	f411 0f00 	tsteq.w	r1, #8388608	; 0x800000
    633a:	3b01      	subeq	r3, #1
    633c:	d0f9      	beq.n	6332 <__aeabi_fmul+0xe6>
    633e:	ea41 010c 	orr.w	r1, r1, ip
    6342:	e78f      	b.n	6264 <__aeabi_fmul+0x18>
    6344:	ea0c 53d1 	and.w	r3, ip, r1, lsr #23
    6348:	ea92 0f0c 	teq	r2, ip
    634c:	bf18      	it	ne
    634e:	ea93 0f0c 	teqne	r3, ip
    6352:	d00a      	beq.n	636a <__aeabi_fmul+0x11e>
    6354:	f030 4c00 	bics.w	ip, r0, #2147483648	; 0x80000000
    6358:	bf18      	it	ne
    635a:	f031 4c00 	bicsne.w	ip, r1, #2147483648	; 0x80000000
    635e:	d1d8      	bne.n	6312 <__aeabi_fmul+0xc6>
    6360:	ea80 0001 	eor.w	r0, r0, r1
    6364:	f000 4000 	and.w	r0, r0, #2147483648	; 0x80000000
    6368:	4770      	bx	lr
    636a:	f090 0f00 	teq	r0, #0
    636e:	bf17      	itett	ne
    6370:	f090 4f00 	teqne	r0, #2147483648	; 0x80000000
    6374:	4608      	moveq	r0, r1
    6376:	f091 0f00 	teqne	r1, #0
    637a:	f091 4f00 	teqne	r1, #2147483648	; 0x80000000
    637e:	d014      	beq.n	63aa <__aeabi_fmul+0x15e>
    6380:	ea92 0f0c 	teq	r2, ip
    6384:	d101      	bne.n	638a <__aeabi_fmul+0x13e>
    6386:	0242      	lsls	r2, r0, #9
    6388:	d10f      	bne.n	63aa <__aeabi_fmul+0x15e>
    638a:	ea93 0f0c 	teq	r3, ip
    638e:	d103      	bne.n	6398 <__aeabi_fmul+0x14c>
    6390:	024b      	lsls	r3, r1, #9
    6392:	bf18      	it	ne
    6394:	4608      	movne	r0, r1
    6396:	d108      	bne.n	63aa <__aeabi_fmul+0x15e>
    6398:	ea80 0001 	eor.w	r0, r0, r1
    639c:	f000 4000 	and.w	r0, r0, #2147483648	; 0x80000000
    63a0:	f040 40fe 	orr.w	r0, r0, #2130706432	; 0x7f000000
    63a4:	f440 0000 	orr.w	r0, r0, #8388608	; 0x800000
    63a8:	4770      	bx	lr
    63aa:	f040 40fe 	orr.w	r0, r0, #2130706432	; 0x7f000000
    63ae:	f440 0040 	orr.w	r0, r0, #12582912	; 0xc00000
    63b2:	4770      	bx	lr

000063b4 <__aeabi_fdiv>:
    63b4:	f04f 0cff 	mov.w	ip, #255	; 0xff
    63b8:	ea1c 52d0 	ands.w	r2, ip, r0, lsr #23
    63bc:	bf1e      	ittt	ne
    63be:	ea1c 53d1 	andsne.w	r3, ip, r1, lsr #23
    63c2:	ea92 0f0c 	teqne	r2, ip
    63c6:	ea93 0f0c 	teqne	r3, ip
    63ca:	d069      	beq.n	64a0 <__aeabi_fdiv+0xec>
    63cc:	eba2 0203 	sub.w	r2, r2, r3
    63d0:	ea80 0c01 	eor.w	ip, r0, r1
    63d4:	0249      	lsls	r1, r1, #9
    63d6:	ea4f 2040 	mov.w	r0, r0, lsl #9
    63da:	d037      	beq.n	644c <__aeabi_fdiv+0x98>
    63dc:	f04f 5380 	mov.w	r3, #268435456	; 0x10000000
    63e0:	ea43 1111 	orr.w	r1, r3, r1, lsr #4
    63e4:	ea43 1310 	orr.w	r3, r3, r0, lsr #4
    63e8:	f00c 4000 	and.w	r0, ip, #2147483648	; 0x80000000
    63ec:	428b      	cmp	r3, r1
    63ee:	bf38      	it	cc
    63f0:	005b      	lslcc	r3, r3, #1
    63f2:	f142 027d 	adc.w	r2, r2, #125	; 0x7d
    63f6:	f44f 0c00 	mov.w	ip, #8388608	; 0x800000
    63fa:	428b      	cmp	r3, r1
    63fc:	bf24      	itt	cs
    63fe:	1a5b      	subcs	r3, r3, r1
    6400:	ea40 000c 	orrcs.w	r0, r0, ip
    6404:	ebb3 0f51 	cmp.w	r3, r1, lsr #1
    6408:	bf24      	itt	cs
    640a:	eba3 0351 	subcs.w	r3, r3, r1, lsr #1
    640e:	ea40 005c 	orrcs.w	r0, r0, ip, lsr #1
    6412:	ebb3 0f91 	cmp.w	r3, r1, lsr #2
    6416:	bf24      	itt	cs
    6418:	eba3 0391 	subcs.w	r3, r3, r1, lsr #2
    641c:	ea40 009c 	orrcs.w	r0, r0, ip, lsr #2
    6420:	ebb3 0fd1 	cmp.w	r3, r1, lsr #3
    6424:	bf24      	itt	cs
    6426:	eba3 03d1 	subcs.w	r3, r3, r1, lsr #3
    642a:	ea40 00dc 	orrcs.w	r0, r0, ip, lsr #3
    642e:	011b      	lsls	r3, r3, #4
    6430:	bf18      	it	ne
    6432:	ea5f 1c1c 	movsne.w	ip, ip, lsr #4
    6436:	d1e0      	bne.n	63fa <__aeabi_fdiv+0x46>
    6438:	2afd      	cmp	r2, #253	; 0xfd
    643a:	f63f af50 	bhi.w	62de <__aeabi_fmul+0x92>
    643e:	428b      	cmp	r3, r1
    6440:	eb40 50c2 	adc.w	r0, r0, r2, lsl #23
    6444:	bf08      	it	eq
    6446:	f020 0001 	biceq.w	r0, r0, #1
    644a:	4770      	bx	lr
    644c:	f00c 4c00 	and.w	ip, ip, #2147483648	; 0x80000000
    6450:	ea4c 2050 	orr.w	r0, ip, r0, lsr #9
    6454:	327f      	adds	r2, #127	; 0x7f
    6456:	bfc2      	ittt	gt
    6458:	f1d2 03ff 	rsbsgt	r3, r2, #255	; 0xff
    645c:	ea40 50c2 	orrgt.w	r0, r0, r2, lsl #23
    6460:	4770      	bxgt	lr
    6462:	f440 0000 	orr.w	r0, r0, #8388608	; 0x800000
    6466:	f04f 0300 	mov.w	r3, #0
    646a:	3a01      	subs	r2, #1
    646c:	e737      	b.n	62de <__aeabi_fmul+0x92>
    646e:	f092 0f00 	teq	r2, #0
    6472:	f000 4c00 	and.w	ip, r0, #2147483648	; 0x80000000
    6476:	bf02      	ittt	eq
    6478:	0040      	lsleq	r0, r0, #1
    647a:	f410 0f00 	tsteq.w	r0, #8388608	; 0x800000
    647e:	3a01      	subeq	r2, #1
    6480:	d0f9      	beq.n	6476 <__aeabi_fdiv+0xc2>
    6482:	ea40 000c 	orr.w	r0, r0, ip
    6486:	f093 0f00 	teq	r3, #0
    648a:	f001 4c00 	and.w	ip, r1, #2147483648	; 0x80000000
    648e:	bf02      	ittt	eq
    6490:	0049      	lsleq	r1, r1, #1
    6492:	f411 0f00 	tsteq.w	r1, #8388608	; 0x800000
    6496:	3b01      	subeq	r3, #1
    6498:	d0f9      	beq.n	648e <__aeabi_fdiv+0xda>
    649a:	ea41 010c 	orr.w	r1, r1, ip
    649e:	e795      	b.n	63cc <__aeabi_fdiv+0x18>
    64a0:	ea0c 53d1 	and.w	r3, ip, r1, lsr #23
    64a4:	ea92 0f0c 	teq	r2, ip
    64a8:	d108      	bne.n	64bc <__aeabi_fdiv+0x108>
    64aa:	0242      	lsls	r2, r0, #9
    64ac:	f47f af7d 	bne.w	63aa <__aeabi_fmul+0x15e>
    64b0:	ea93 0f0c 	teq	r3, ip
    64b4:	f47f af70 	bne.w	6398 <__aeabi_fmul+0x14c>
    64b8:	4608      	mov	r0, r1
    64ba:	e776      	b.n	63aa <__aeabi_fmul+0x15e>
    64bc:	ea93 0f0c 	teq	r3, ip
    64c0:	d104      	bne.n	64cc <__aeabi_fdiv+0x118>
    64c2:	024b      	lsls	r3, r1, #9
    64c4:	f43f af4c 	beq.w	6360 <__aeabi_fmul+0x114>
    64c8:	4608      	mov	r0, r1
    64ca:	e76e      	b.n	63aa <__aeabi_fmul+0x15e>
    64cc:	f030 4c00 	bics.w	ip, r0, #2147483648	; 0x80000000
    64d0:	bf18      	it	ne
    64d2:	f031 4c00 	bicsne.w	ip, r1, #2147483648	; 0x80000000
    64d6:	d1ca      	bne.n	646e <__aeabi_fdiv+0xba>
    64d8:	f030 4200 	bics.w	r2, r0, #2147483648	; 0x80000000
    64dc:	f47f af5c 	bne.w	6398 <__aeabi_fmul+0x14c>
    64e0:	f031 4300 	bics.w	r3, r1, #2147483648	; 0x80000000
    64e4:	f47f af3c 	bne.w	6360 <__aeabi_fmul+0x114>
    64e8:	e75f      	b.n	63aa <__aeabi_fmul+0x15e>
    64ea:	bf00      	nop

000064ec <__gesf2>:
    64ec:	f04f 3cff 	mov.w	ip, #4294967295
    64f0:	e006      	b.n	6500 <__cmpsf2+0x4>
    64f2:	bf00      	nop

000064f4 <__lesf2>:
    64f4:	f04f 0c01 	mov.w	ip, #1
    64f8:	e002      	b.n	6500 <__cmpsf2+0x4>
    64fa:	bf00      	nop

000064fc <__cmpsf2>:
    64fc:	f04f 0c01 	mov.w	ip, #1
    6500:	f84d cd04 	str.w	ip, [sp, #-4]!
    6504:	ea4f 0240 	mov.w	r2, r0, lsl #1
    6508:	ea4f 0341 	mov.w	r3, r1, lsl #1
    650c:	ea7f 6c22 	mvns.w	ip, r2, asr #24
    6510:	bf18      	it	ne
    6512:	ea7f 6c23 	mvnsne.w	ip, r3, asr #24
    6516:	d011      	beq.n	653c <__cmpsf2+0x40>
    6518:	b001      	add	sp, #4
    651a:	ea52 0c53 	orrs.w	ip, r2, r3, lsr #1
    651e:	bf18      	it	ne
    6520:	ea90 0f01 	teqne	r0, r1
    6524:	bf58      	it	pl
    6526:	ebb2 0003 	subspl.w	r0, r2, r3
    652a:	bf88      	it	hi
    652c:	17c8      	asrhi	r0, r1, #31
    652e:	bf38      	it	cc
    6530:	ea6f 70e1 	mvncc.w	r0, r1, asr #31
    6534:	bf18      	it	ne
    6536:	f040 0001 	orrne.w	r0, r0, #1
    653a:	4770      	bx	lr
    653c:	ea7f 6c22 	mvns.w	ip, r2, asr #24
    6540:	d102      	bne.n	6548 <__cmpsf2+0x4c>
    6542:	ea5f 2c40 	movs.w	ip, r0, lsl #9
    6546:	d105      	bne.n	6554 <__cmpsf2+0x58>
    6548:	ea7f 6c23 	mvns.w	ip, r3, asr #24
    654c:	d1e4      	bne.n	6518 <__cmpsf2+0x1c>
    654e:	ea5f 2c41 	movs.w	ip, r1, lsl #9
    6552:	d0e1      	beq.n	6518 <__cmpsf2+0x1c>
    6554:	f85d 0b04 	ldr.w	r0, [sp], #4
    6558:	4770      	bx	lr
    655a:	bf00      	nop

0000655c <__aeabi_cfrcmple>:
    655c:	4684      	mov	ip, r0
    655e:	4608      	mov	r0, r1
    6560:	4661      	mov	r1, ip
    6562:	e7ff      	b.n	6564 <__aeabi_cfcmpeq>

00006564 <__aeabi_cfcmpeq>:
    6564:	b50f      	push	{r0, r1, r2, r3, lr}
    6566:	f7ff ffc9 	bl	64fc <__cmpsf2>
    656a:	2800      	cmp	r0, #0
    656c:	bf48      	it	mi
    656e:	f110 0f00 	cmnmi.w	r0, #0
    6572:	bd0f      	pop	{r0, r1, r2, r3, pc}

00006574 <__aeabi_fcmpeq>:
    6574:	f84d ed08 	str.w	lr, [sp, #-8]!
    6578:	f7ff fff4 	bl	6564 <__aeabi_cfcmpeq>
    657c:	bf0c      	ite	eq
    657e:	2001      	moveq	r0, #1
    6580:	2000      	movne	r0, #0
    6582:	f85d fb08 	ldr.w	pc, [sp], #8
    6586:	bf00      	nop

00006588 <__aeabi_fcmplt>:
    6588:	f84d ed08 	str.w	lr, [sp, #-8]!
    658c:	f7ff ffea 	bl	6564 <__aeabi_cfcmpeq>
    6590:	bf34      	ite	cc
    6592:	2001      	movcc	r0, #1
    6594:	2000      	movcs	r0, #0
    6596:	f85d fb08 	ldr.w	pc, [sp], #8
    659a:	bf00      	nop

0000659c <__aeabi_fcmple>:
    659c:	f84d ed08 	str.w	lr, [sp, #-8]!
    65a0:	f7ff ffe0 	bl	6564 <__aeabi_cfcmpeq>
    65a4:	bf94      	ite	ls
    65a6:	2001      	movls	r0, #1
    65a8:	2000      	movhi	r0, #0
    65aa:	f85d fb08 	ldr.w	pc, [sp], #8
    65ae:	bf00      	nop

000065b0 <__aeabi_fcmpge>:
    65b0:	f84d ed08 	str.w	lr, [sp, #-8]!
    65b4:	f7ff ffd2 	bl	655c <__aeabi_cfrcmple>
    65b8:	bf94      	ite	ls
    65ba:	2001      	movls	r0, #1
    65bc:	2000      	movhi	r0, #0
    65be:	f85d fb08 	ldr.w	pc, [sp], #8
    65c2:	bf00      	nop

000065c4 <__aeabi_fcmpgt>:
    65c4:	f84d ed08 	str.w	lr, [sp, #-8]!
    65c8:	f7ff ffc8 	bl	655c <__aeabi_cfrcmple>
    65cc:	bf34      	ite	cc
    65ce:	2001      	movcc	r0, #1
    65d0:	2000      	movcs	r0, #0
    65d2:	f85d fb08 	ldr.w	pc, [sp], #8
    65d6:	bf00      	nop

000065d8 <__aeabi_fcmpun>:
    65d8:	ea4f 0240 	mov.w	r2, r0, lsl #1
    65dc:	ea4f 0341 	mov.w	r3, r1, lsl #1
    65e0:	ea7f 6c22 	mvns.w	ip, r2, asr #24
    65e4:	d102      	bne.n	65ec <__aeabi_fcmpun+0x14>
    65e6:	ea5f 2c40 	movs.w	ip, r0, lsl #9
    65ea:	d108      	bne.n	65fe <__aeabi_fcmpun+0x26>
    65ec:	ea7f 6c23 	mvns.w	ip, r3, asr #24
    65f0:	d102      	bne.n	65f8 <__aeabi_fcmpun+0x20>
    65f2:	ea5f 2c41 	movs.w	ip, r1, lsl #9
    65f6:	d102      	bne.n	65fe <__aeabi_fcmpun+0x26>
    65f8:	f04f 0000 	mov.w	r0, #0
    65fc:	4770      	bx	lr
    65fe:	f04f 0001 	mov.w	r0, #1
    6602:	4770      	bx	lr

00006604 <__aeabi_f2uiz>:
    6604:	0042      	lsls	r2, r0, #1
    6606:	d20e      	bcs.n	6626 <__aeabi_f2uiz+0x22>
    6608:	f1b2 4ffe 	cmp.w	r2, #2130706432	; 0x7f000000
    660c:	d30b      	bcc.n	6626 <__aeabi_f2uiz+0x22>
    660e:	f04f 039e 	mov.w	r3, #158	; 0x9e
    6612:	ebb3 6212 	subs.w	r2, r3, r2, lsr #24
    6616:	d409      	bmi.n	662c <__aeabi_f2uiz+0x28>
    6618:	ea4f 2300 	mov.w	r3, r0, lsl #8
    661c:	f043 4300 	orr.w	r3, r3, #2147483648	; 0x80000000
    6620:	fa23 f002 	lsr.w	r0, r3, r2
    6624:	4770      	bx	lr
    6626:	f04f 0000 	mov.w	r0, #0
    662a:	4770      	bx	lr
    662c:	f112 0f61 	cmn.w	r2, #97	; 0x61
    6630:	d101      	bne.n	6636 <__aeabi_f2uiz+0x32>
    6632:	0242      	lsls	r2, r0, #9
    6634:	d102      	bne.n	663c <__aeabi_f2uiz+0x38>
    6636:	f04f 30ff 	mov.w	r0, #4294967295
    663a:	4770      	bx	lr
    663c:	f04f 0000 	mov.w	r0, #0
    6640:	4770      	bx	lr
    6642:	bf00      	nop

00006644 <atol>:
    6644:	2100      	movs	r1, #0
    6646:	220a      	movs	r2, #10
    6648:	f001 b89c 	b.w	7784 <strtol>

0000664c <fcvt>:
    664c:	b513      	push	{r0, r1, r4, lr}
    664e:	9c04      	ldr	r4, [sp, #16]
    6650:	9400      	str	r4, [sp, #0]
    6652:	2400      	movs	r4, #0
    6654:	9401      	str	r4, [sp, #4]
    6656:	f001 f90b 	bl	7870 <fcvtbuf>
    665a:	b002      	add	sp, #8
    665c:	bd10      	pop	{r4, pc}

0000665e <fcvtf>:
    665e:	b573      	push	{r0, r1, r4, r5, r6, lr}
    6660:	4614      	mov	r4, r2
    6662:	461e      	mov	r6, r3
    6664:	460d      	mov	r5, r1
    6666:	f7ff f95d 	bl	5924 <__aeabi_f2d>
    666a:	9600      	str	r6, [sp, #0]
    666c:	462a      	mov	r2, r5
    666e:	4623      	mov	r3, r4
    6670:	f7ff ffec 	bl	664c <fcvt>
    6674:	b002      	add	sp, #8
    6676:	bd70      	pop	{r4, r5, r6, pc}

00006678 <__libc_init_array>:
    6678:	b570      	push	{r4, r5, r6, lr}
    667a:	4b0e      	ldr	r3, [pc, #56]	; (66b4 <__libc_init_array+0x3c>)
    667c:	4d0e      	ldr	r5, [pc, #56]	; (66b8 <__libc_init_array+0x40>)
    667e:	1aed      	subs	r5, r5, r3
    6680:	10ad      	asrs	r5, r5, #2
    6682:	2400      	movs	r4, #0
    6684:	461e      	mov	r6, r3
    6686:	42ac      	cmp	r4, r5
    6688:	d004      	beq.n	6694 <__libc_init_array+0x1c>
    668a:	f856 2024 	ldr.w	r2, [r6, r4, lsl #2]
    668e:	4790      	blx	r2
    6690:	3401      	adds	r4, #1
    6692:	e7f8      	b.n	6686 <__libc_init_array+0xe>
    6694:	f004 f826 	bl	a6e4 <_init>
    6698:	4d08      	ldr	r5, [pc, #32]	; (66bc <__libc_init_array+0x44>)
    669a:	4b09      	ldr	r3, [pc, #36]	; (66c0 <__libc_init_array+0x48>)
    669c:	1aed      	subs	r5, r5, r3
    669e:	10ad      	asrs	r5, r5, #2
    66a0:	2400      	movs	r4, #0
    66a2:	461e      	mov	r6, r3
    66a4:	42ac      	cmp	r4, r5
    66a6:	d004      	beq.n	66b2 <__libc_init_array+0x3a>
    66a8:	f856 2024 	ldr.w	r2, [r6, r4, lsl #2]
    66ac:	4790      	blx	r2
    66ae:	3401      	adds	r4, #1
    66b0:	e7f8      	b.n	66a4 <__libc_init_array+0x2c>
    66b2:	bd70      	pop	{r4, r5, r6, pc}
    66b4:	0000a6f0 	.word	0x0000a6f0
    66b8:	0000a6f0 	.word	0x0000a6f0
    66bc:	0000a710 	.word	0x0000a710
    66c0:	0000a6f0 	.word	0x0000a6f0

000066c4 <isspace>:
    66c4:	4b03      	ldr	r3, [pc, #12]	; (66d4 <isspace+0x10>)
    66c6:	681b      	ldr	r3, [r3, #0]
    66c8:	4418      	add	r0, r3
    66ca:	7840      	ldrb	r0, [r0, #1]
    66cc:	f000 0008 	and.w	r0, r0, #8
    66d0:	4770      	bx	lr
    66d2:	bf00      	nop
    66d4:	1fff0b18 	.word	0x1fff0b18

000066d8 <malloc>:
    66d8:	4b02      	ldr	r3, [pc, #8]	; (66e4 <malloc+0xc>)
    66da:	4601      	mov	r1, r0
    66dc:	6818      	ldr	r0, [r3, #0]
    66de:	f000 b87b 	b.w	67d8 <_malloc_r>
    66e2:	bf00      	nop
    66e4:	1fff0b14 	.word	0x1fff0b14

000066e8 <free>:
    66e8:	4b02      	ldr	r3, [pc, #8]	; (66f4 <free+0xc>)
    66ea:	4601      	mov	r1, r0
    66ec:	6818      	ldr	r0, [r3, #0]
    66ee:	f000 b82f 	b.w	6750 <_free_r>
    66f2:	bf00      	nop
    66f4:	1fff0b14 	.word	0x1fff0b14

000066f8 <memcpy>:
    66f8:	b510      	push	{r4, lr}
    66fa:	2300      	movs	r3, #0
    66fc:	4293      	cmp	r3, r2
    66fe:	d003      	beq.n	6708 <memcpy+0x10>
    6700:	5ccc      	ldrb	r4, [r1, r3]
    6702:	54c4      	strb	r4, [r0, r3]
    6704:	3301      	adds	r3, #1
    6706:	e7f9      	b.n	66fc <memcpy+0x4>
    6708:	bd10      	pop	{r4, pc}

0000670a <memmove>:
    670a:	4281      	cmp	r1, r0
    670c:	b570      	push	{r4, r5, r6, lr}
    670e:	d301      	bcc.n	6714 <memmove+0xa>
    6710:	2300      	movs	r3, #0
    6712:	e00e      	b.n	6732 <memmove+0x28>
    6714:	188c      	adds	r4, r1, r2
    6716:	42a0      	cmp	r0, r4
    6718:	d2fa      	bcs.n	6710 <memmove+0x6>
    671a:	1885      	adds	r5, r0, r2
    671c:	4613      	mov	r3, r2
    671e:	f113 33ff 	adds.w	r3, r3, #4294967295
    6722:	d305      	bcc.n	6730 <memmove+0x26>
    6724:	4251      	negs	r1, r2
    6726:	1866      	adds	r6, r4, r1
    6728:	4429      	add	r1, r5
    672a:	5cf6      	ldrb	r6, [r6, r3]
    672c:	54ce      	strb	r6, [r1, r3]
    672e:	e7f6      	b.n	671e <memmove+0x14>
    6730:	bd70      	pop	{r4, r5, r6, pc}
    6732:	4293      	cmp	r3, r2
    6734:	d003      	beq.n	673e <memmove+0x34>
    6736:	5ccc      	ldrb	r4, [r1, r3]
    6738:	54c4      	strb	r4, [r0, r3]
    673a:	3301      	adds	r3, #1
    673c:	e7f9      	b.n	6732 <memmove+0x28>
    673e:	bd70      	pop	{r4, r5, r6, pc}

00006740 <memset>:
    6740:	4402      	add	r2, r0
    6742:	4603      	mov	r3, r0
    6744:	4293      	cmp	r3, r2
    6746:	d002      	beq.n	674e <memset+0xe>
    6748:	f803 1b01 	strb.w	r1, [r3], #1
    674c:	e7fa      	b.n	6744 <memset+0x4>
    674e:	4770      	bx	lr

00006750 <_free_r>:
    6750:	b530      	push	{r4, r5, lr}
    6752:	2900      	cmp	r1, #0
    6754:	d03c      	beq.n	67d0 <_free_r+0x80>
    6756:	f851 2c04 	ldr.w	r2, [r1, #-4]
    675a:	1f0b      	subs	r3, r1, #4
    675c:	491d      	ldr	r1, [pc, #116]	; (67d4 <_free_r+0x84>)
    675e:	2a00      	cmp	r2, #0
    6760:	bfb8      	it	lt
    6762:	189b      	addlt	r3, r3, r2
    6764:	680a      	ldr	r2, [r1, #0]
    6766:	460c      	mov	r4, r1
    6768:	b912      	cbnz	r2, 6770 <_free_r+0x20>
    676a:	605a      	str	r2, [r3, #4]
    676c:	600b      	str	r3, [r1, #0]
    676e:	bd30      	pop	{r4, r5, pc}
    6770:	4293      	cmp	r3, r2
    6772:	d20d      	bcs.n	6790 <_free_r+0x40>
    6774:	6819      	ldr	r1, [r3, #0]
    6776:	1858      	adds	r0, r3, r1
    6778:	4290      	cmp	r0, r2
    677a:	d103      	bne.n	6784 <_free_r+0x34>
    677c:	585a      	ldr	r2, [r3, r1]
    677e:	4411      	add	r1, r2
    6780:	6842      	ldr	r2, [r0, #4]
    6782:	6019      	str	r1, [r3, #0]
    6784:	605a      	str	r2, [r3, #4]
    6786:	6023      	str	r3, [r4, #0]
    6788:	bd30      	pop	{r4, r5, pc}
    678a:	4299      	cmp	r1, r3
    678c:	d803      	bhi.n	6796 <_free_r+0x46>
    678e:	460a      	mov	r2, r1
    6790:	6851      	ldr	r1, [r2, #4]
    6792:	2900      	cmp	r1, #0
    6794:	d1f9      	bne.n	678a <_free_r+0x3a>
    6796:	6814      	ldr	r4, [r2, #0]
    6798:	1915      	adds	r5, r2, r4
    679a:	429d      	cmp	r5, r3
    679c:	d10a      	bne.n	67b4 <_free_r+0x64>
    679e:	681b      	ldr	r3, [r3, #0]
    67a0:	4423      	add	r3, r4
    67a2:	18d0      	adds	r0, r2, r3
    67a4:	4288      	cmp	r0, r1
    67a6:	6013      	str	r3, [r2, #0]
    67a8:	d112      	bne.n	67d0 <_free_r+0x80>
    67aa:	6808      	ldr	r0, [r1, #0]
    67ac:	4403      	add	r3, r0
    67ae:	6013      	str	r3, [r2, #0]
    67b0:	684b      	ldr	r3, [r1, #4]
    67b2:	e00c      	b.n	67ce <_free_r+0x7e>
    67b4:	d902      	bls.n	67bc <_free_r+0x6c>
    67b6:	230c      	movs	r3, #12
    67b8:	6003      	str	r3, [r0, #0]
    67ba:	bd30      	pop	{r4, r5, pc}
    67bc:	6818      	ldr	r0, [r3, #0]
    67be:	181c      	adds	r4, r3, r0
    67c0:	428c      	cmp	r4, r1
    67c2:	d103      	bne.n	67cc <_free_r+0x7c>
    67c4:	680c      	ldr	r4, [r1, #0]
    67c6:	6849      	ldr	r1, [r1, #4]
    67c8:	4420      	add	r0, r4
    67ca:	6018      	str	r0, [r3, #0]
    67cc:	6059      	str	r1, [r3, #4]
    67ce:	6053      	str	r3, [r2, #4]
    67d0:	bd30      	pop	{r4, r5, pc}
    67d2:	bf00      	nop
    67d4:	1fff0fd8 	.word	0x1fff0fd8

000067d8 <_malloc_r>:
    67d8:	b570      	push	{r4, r5, r6, lr}
    67da:	1ccd      	adds	r5, r1, #3
    67dc:	f025 0503 	bic.w	r5, r5, #3
    67e0:	3508      	adds	r5, #8
    67e2:	2d0c      	cmp	r5, #12
    67e4:	bf38      	it	cc
    67e6:	250c      	movcc	r5, #12
    67e8:	2d00      	cmp	r5, #0
    67ea:	4606      	mov	r6, r0
    67ec:	db3f      	blt.n	686e <_malloc_r+0x96>
    67ee:	428d      	cmp	r5, r1
    67f0:	d33d      	bcc.n	686e <_malloc_r+0x96>
    67f2:	4b21      	ldr	r3, [pc, #132]	; (6878 <_malloc_r+0xa0>)
    67f4:	681c      	ldr	r4, [r3, #0]
    67f6:	4618      	mov	r0, r3
    67f8:	4621      	mov	r1, r4
    67fa:	b1a1      	cbz	r1, 6826 <_malloc_r+0x4e>
    67fc:	680b      	ldr	r3, [r1, #0]
    67fe:	1b5b      	subs	r3, r3, r5
    6800:	d40e      	bmi.n	6820 <_malloc_r+0x48>
    6802:	2b0b      	cmp	r3, #11
    6804:	d903      	bls.n	680e <_malloc_r+0x36>
    6806:	600b      	str	r3, [r1, #0]
    6808:	18cc      	adds	r4, r1, r3
    680a:	50cd      	str	r5, [r1, r3]
    680c:	e01f      	b.n	684e <_malloc_r+0x76>
    680e:	428c      	cmp	r4, r1
    6810:	d102      	bne.n	6818 <_malloc_r+0x40>
    6812:	6862      	ldr	r2, [r4, #4]
    6814:	6002      	str	r2, [r0, #0]
    6816:	e01a      	b.n	684e <_malloc_r+0x76>
    6818:	684b      	ldr	r3, [r1, #4]
    681a:	6063      	str	r3, [r4, #4]
    681c:	460c      	mov	r4, r1
    681e:	e016      	b.n	684e <_malloc_r+0x76>
    6820:	460c      	mov	r4, r1
    6822:	6849      	ldr	r1, [r1, #4]
    6824:	e7e9      	b.n	67fa <_malloc_r+0x22>
    6826:	4c15      	ldr	r4, [pc, #84]	; (687c <_malloc_r+0xa4>)
    6828:	6823      	ldr	r3, [r4, #0]
    682a:	b91b      	cbnz	r3, 6834 <_malloc_r+0x5c>
    682c:	4630      	mov	r0, r6
    682e:	f000 f831 	bl	6894 <_sbrk_r>
    6832:	6020      	str	r0, [r4, #0]
    6834:	4629      	mov	r1, r5
    6836:	4630      	mov	r0, r6
    6838:	f000 f82c 	bl	6894 <_sbrk_r>
    683c:	1c43      	adds	r3, r0, #1
    683e:	4601      	mov	r1, r0
    6840:	d015      	beq.n	686e <_malloc_r+0x96>
    6842:	1cc4      	adds	r4, r0, #3
    6844:	f024 0403 	bic.w	r4, r4, #3
    6848:	4284      	cmp	r4, r0
    684a:	d10a      	bne.n	6862 <_malloc_r+0x8a>
    684c:	6025      	str	r5, [r4, #0]
    684e:	f104 000b 	add.w	r0, r4, #11
    6852:	1d23      	adds	r3, r4, #4
    6854:	f020 0007 	bic.w	r0, r0, #7
    6858:	1ac3      	subs	r3, r0, r3
    685a:	d00b      	beq.n	6874 <_malloc_r+0x9c>
    685c:	425a      	negs	r2, r3
    685e:	50e2      	str	r2, [r4, r3]
    6860:	bd70      	pop	{r4, r5, r6, pc}
    6862:	4630      	mov	r0, r6
    6864:	1a61      	subs	r1, r4, r1
    6866:	f000 f815 	bl	6894 <_sbrk_r>
    686a:	3001      	adds	r0, #1
    686c:	d1ee      	bne.n	684c <_malloc_r+0x74>
    686e:	230c      	movs	r3, #12
    6870:	6033      	str	r3, [r6, #0]
    6872:	2000      	movs	r0, #0
    6874:	bd70      	pop	{r4, r5, r6, pc}
    6876:	bf00      	nop
    6878:	1fff0fd8 	.word	0x1fff0fd8
    687c:	1fff0fd4 	.word	0x1fff0fd4

00006880 <realloc>:
    6880:	460a      	mov	r2, r1
    6882:	4903      	ldr	r1, [pc, #12]	; (6890 <realloc+0x10>)
    6884:	4603      	mov	r3, r0
    6886:	6808      	ldr	r0, [r1, #0]
    6888:	4619      	mov	r1, r3
    688a:	f002 b83c 	b.w	8906 <_realloc_r>
    688e:	bf00      	nop
    6890:	1fff0b14 	.word	0x1fff0b14

00006894 <_sbrk_r>:
    6894:	b538      	push	{r3, r4, r5, lr}
    6896:	4c06      	ldr	r4, [pc, #24]	; (68b0 <_sbrk_r+0x1c>)
    6898:	2300      	movs	r3, #0
    689a:	4605      	mov	r5, r0
    689c:	4608      	mov	r0, r1
    689e:	6023      	str	r3, [r4, #0]
    68a0:	f7fa f863 	bl	96a <_sbrk>
    68a4:	1c43      	adds	r3, r0, #1
    68a6:	d102      	bne.n	68ae <_sbrk_r+0x1a>
    68a8:	6823      	ldr	r3, [r4, #0]
    68aa:	b103      	cbz	r3, 68ae <_sbrk_r+0x1a>
    68ac:	602b      	str	r3, [r5, #0]
    68ae:	bd38      	pop	{r3, r4, r5, pc}
    68b0:	1fff10f0 	.word	0x1fff10f0

000068b4 <strchr>:
    68b4:	b2c9      	uxtb	r1, r1
    68b6:	4602      	mov	r2, r0
    68b8:	f810 3b01 	ldrb.w	r3, [r0], #1
    68bc:	b11b      	cbz	r3, 68c6 <strchr+0x12>
    68be:	428b      	cmp	r3, r1
    68c0:	d1f9      	bne.n	68b6 <strchr+0x2>
    68c2:	4610      	mov	r0, r2
    68c4:	4770      	bx	lr
    68c6:	2900      	cmp	r1, #0
    68c8:	d0fb      	beq.n	68c2 <strchr+0xe>
    68ca:	4618      	mov	r0, r3
    68cc:	4770      	bx	lr

000068ce <strcmp>:
    68ce:	f810 2b01 	ldrb.w	r2, [r0], #1
    68d2:	f811 3b01 	ldrb.w	r3, [r1], #1
    68d6:	2a01      	cmp	r2, #1
    68d8:	bf28      	it	cs
    68da:	429a      	cmpcs	r2, r3
    68dc:	d0f7      	beq.n	68ce <strcmp>
    68de:	1ad0      	subs	r0, r2, r3
    68e0:	4770      	bx	lr

000068e2 <strcpy>:
    68e2:	4603      	mov	r3, r0
    68e4:	f811 2b01 	ldrb.w	r2, [r1], #1
    68e8:	f803 2b01 	strb.w	r2, [r3], #1
    68ec:	2a00      	cmp	r2, #0
    68ee:	d1f9      	bne.n	68e4 <strcpy+0x2>
    68f0:	4770      	bx	lr

000068f2 <strlen>:
    68f2:	4603      	mov	r3, r0
    68f4:	f813 2b01 	ldrb.w	r2, [r3], #1
    68f8:	2a00      	cmp	r2, #0
    68fa:	d1fb      	bne.n	68f4 <strlen+0x2>
    68fc:	1a18      	subs	r0, r3, r0
    68fe:	3801      	subs	r0, #1
    6900:	4770      	bx	lr

00006902 <strncmp>:
    6902:	b570      	push	{r4, r5, r6, lr}
    6904:	b192      	cbz	r2, 692c <strncmp+0x2a>
    6906:	460b      	mov	r3, r1
    6908:	4605      	mov	r5, r0
    690a:	781c      	ldrb	r4, [r3, #0]
    690c:	f810 6b01 	ldrb.w	r6, [r0], #1
    6910:	42b4      	cmp	r4, r6
    6912:	f101 0101 	add.w	r1, r1, #1
    6916:	d101      	bne.n	691c <strncmp+0x1a>
    6918:	2a01      	cmp	r2, #1
    691a:	d103      	bne.n	6924 <strncmp+0x22>
    691c:	7828      	ldrb	r0, [r5, #0]
    691e:	781b      	ldrb	r3, [r3, #0]
    6920:	1ac0      	subs	r0, r0, r3
    6922:	bd70      	pop	{r4, r5, r6, pc}
    6924:	3a01      	subs	r2, #1
    6926:	2c00      	cmp	r4, #0
    6928:	d1ed      	bne.n	6906 <strncmp+0x4>
    692a:	e7f7      	b.n	691c <strncmp+0x1a>
    692c:	4610      	mov	r0, r2
    692e:	bd70      	pop	{r4, r5, r6, pc}

00006930 <strncpy>:
    6930:	b510      	push	{r4, lr}
    6932:	4603      	mov	r3, r0
    6934:	b132      	cbz	r2, 6944 <strncpy+0x14>
    6936:	f811 4b01 	ldrb.w	r4, [r1], #1
    693a:	f803 4b01 	strb.w	r4, [r3], #1
    693e:	3a01      	subs	r2, #1
    6940:	2c00      	cmp	r4, #0
    6942:	d1f7      	bne.n	6934 <strncpy+0x4>
    6944:	441a      	add	r2, r3
    6946:	4293      	cmp	r3, r2
    6948:	d003      	beq.n	6952 <strncpy+0x22>
    694a:	2100      	movs	r1, #0
    694c:	f803 1b01 	strb.w	r1, [r3], #1
    6950:	e7f9      	b.n	6946 <strncpy+0x16>
    6952:	bd10      	pop	{r4, pc}

00006954 <strrchr>:
    6954:	b538      	push	{r3, r4, r5, lr}
    6956:	4602      	mov	r2, r0
    6958:	460d      	mov	r5, r1
    695a:	b141      	cbz	r1, 696e <strrchr+0x1a>
    695c:	2400      	movs	r4, #0
    695e:	4610      	mov	r0, r2
    6960:	4629      	mov	r1, r5
    6962:	f7ff ffa7 	bl	68b4 <strchr>
    6966:	b130      	cbz	r0, 6976 <strrchr+0x22>
    6968:	1c42      	adds	r2, r0, #1
    696a:	4604      	mov	r4, r0
    696c:	e7f7      	b.n	695e <strrchr+0xa>
    696e:	e8bd 4038 	ldmia.w	sp!, {r3, r4, r5, lr}
    6972:	f7ff bf9f 	b.w	68b4 <strchr>
    6976:	4620      	mov	r0, r4
    6978:	bd38      	pop	{r3, r4, r5, pc}

0000697a <strstr>:
    697a:	b530      	push	{r4, r5, lr}
    697c:	7803      	ldrb	r3, [r0, #0]
    697e:	b10b      	cbz	r3, 6984 <strstr+0xa>
    6980:	4604      	mov	r4, r0
    6982:	e004      	b.n	698e <strstr+0x14>
    6984:	780b      	ldrb	r3, [r1, #0]
    6986:	2b00      	cmp	r3, #0
    6988:	bf18      	it	ne
    698a:	2000      	movne	r0, #0
    698c:	bd30      	pop	{r4, r5, pc}
    698e:	4622      	mov	r2, r4
    6990:	3401      	adds	r4, #1
    6992:	7810      	ldrb	r0, [r2, #0]
    6994:	b138      	cbz	r0, 69a6 <strstr+0x2c>
    6996:	2300      	movs	r3, #0
    6998:	5cc8      	ldrb	r0, [r1, r3]
    699a:	b128      	cbz	r0, 69a8 <strstr+0x2e>
    699c:	5cd5      	ldrb	r5, [r2, r3]
    699e:	4285      	cmp	r5, r0
    69a0:	d1f5      	bne.n	698e <strstr+0x14>
    69a2:	3301      	adds	r3, #1
    69a4:	e7f8      	b.n	6998 <strstr+0x1e>
    69a6:	bd30      	pop	{r4, r5, pc}
    69a8:	4610      	mov	r0, r2
    69aa:	bd30      	pop	{r4, r5, pc}

000069ac <match>:
    69ac:	b530      	push	{r4, r5, lr}
    69ae:	6802      	ldr	r2, [r0, #0]
    69b0:	f811 5b01 	ldrb.w	r5, [r1], #1
    69b4:	1c54      	adds	r4, r2, #1
    69b6:	b155      	cbz	r5, 69ce <match+0x22>
    69b8:	7853      	ldrb	r3, [r2, #1]
    69ba:	4622      	mov	r2, r4
    69bc:	f1a3 0441 	sub.w	r4, r3, #65	; 0x41
    69c0:	2c19      	cmp	r4, #25
    69c2:	bf98      	it	ls
    69c4:	3320      	addls	r3, #32
    69c6:	42ab      	cmp	r3, r5
    69c8:	d0f2      	beq.n	69b0 <match+0x4>
    69ca:	2000      	movs	r0, #0
    69cc:	bd30      	pop	{r4, r5, pc}
    69ce:	6004      	str	r4, [r0, #0]
    69d0:	2001      	movs	r0, #1
    69d2:	bd30      	pop	{r4, r5, pc}

000069d4 <sulp>:
    69d4:	e92d 41f0 	stmdb	sp!, {r4, r5, r6, r7, r8, lr}
    69d8:	460d      	mov	r5, r1
    69da:	4690      	mov	r8, r2
    69dc:	f001 fe5c 	bl	8698 <__ulp>
    69e0:	4606      	mov	r6, r0
    69e2:	460f      	mov	r7, r1
    69e4:	f1b8 0f00 	cmp.w	r8, #0
    69e8:	d00f      	beq.n	6a0a <sulp+0x36>
    69ea:	f3c5 530a 	ubfx	r3, r5, #20, #11
    69ee:	f1c3 036b 	rsb	r3, r3, #107	; 0x6b
    69f2:	2b00      	cmp	r3, #0
    69f4:	dd09      	ble.n	6a0a <sulp+0x36>
    69f6:	051c      	lsls	r4, r3, #20
    69f8:	f104 537f 	add.w	r3, r4, #1069547520	; 0x3fc00000
    69fc:	f503 1340 	add.w	r3, r3, #3145728	; 0x300000
    6a00:	2200      	movs	r2, #0
    6a02:	f7fe ffe3 	bl	59cc <__aeabi_dmul>
    6a06:	e8bd 81f0 	ldmia.w	sp!, {r4, r5, r6, r7, r8, pc}
    6a0a:	4630      	mov	r0, r6
    6a0c:	4639      	mov	r1, r7
    6a0e:	e8bd 81f0 	ldmia.w	sp!, {r4, r5, r6, r7, r8, pc}
    6a12:	ffff ffff 			; <UNDEFINED> instruction: 0xffffffff
    6a16:	ffff e92d 	vtbl.8	d30, {d15-d16}, d29

00006a18 <_strtod_r>:
    6a18:	e92d 4ff0 	stmdb	sp!, {r4, r5, r6, r7, r8, r9, sl, fp, lr}
    6a1c:	b09f      	sub	sp, #124	; 0x7c
    6a1e:	2300      	movs	r3, #0
    6a20:	4681      	mov	r9, r0
    6a22:	9104      	str	r1, [sp, #16]
    6a24:	9215      	str	r2, [sp, #84]	; 0x54
    6a26:	931a      	str	r3, [sp, #104]	; 0x68
    6a28:	f04f 0a00 	mov.w	sl, #0
    6a2c:	f04f 0b00 	mov.w	fp, #0
    6a30:	9119      	str	r1, [sp, #100]	; 0x64
    6a32:	9a19      	ldr	r2, [sp, #100]	; 0x64
    6a34:	7813      	ldrb	r3, [r2, #0]
    6a36:	2b0d      	cmp	r3, #13
    6a38:	d805      	bhi.n	6a46 <_strtod_r+0x2e>
    6a3a:	2b09      	cmp	r3, #9
    6a3c:	d214      	bcs.n	6a68 <_strtod_r+0x50>
    6a3e:	2b00      	cmp	r3, #0
    6a40:	f000 81b1 	beq.w	6da6 <_strtod_r+0x38e>
    6a44:	e013      	b.n	6a6e <_strtod_r+0x56>
    6a46:	2b2b      	cmp	r3, #43	; 0x2b
    6a48:	d007      	beq.n	6a5a <_strtod_r+0x42>
    6a4a:	2b2d      	cmp	r3, #45	; 0x2d
    6a4c:	d002      	beq.n	6a54 <_strtod_r+0x3c>
    6a4e:	2b20      	cmp	r3, #32
    6a50:	d10d      	bne.n	6a6e <_strtod_r+0x56>
    6a52:	e009      	b.n	6a68 <_strtod_r+0x50>
    6a54:	2601      	movs	r6, #1
    6a56:	9609      	str	r6, [sp, #36]	; 0x24
    6a58:	e001      	b.n	6a5e <_strtod_r+0x46>
    6a5a:	2700      	movs	r7, #0
    6a5c:	9709      	str	r7, [sp, #36]	; 0x24
    6a5e:	1c53      	adds	r3, r2, #1
    6a60:	9319      	str	r3, [sp, #100]	; 0x64
    6a62:	7853      	ldrb	r3, [r2, #1]
    6a64:	b92b      	cbnz	r3, 6a72 <_strtod_r+0x5a>
    6a66:	e19e      	b.n	6da6 <_strtod_r+0x38e>
    6a68:	3201      	adds	r2, #1
    6a6a:	9219      	str	r2, [sp, #100]	; 0x64
    6a6c:	e7e1      	b.n	6a32 <_strtod_r+0x1a>
    6a6e:	2600      	movs	r6, #0
    6a70:	9609      	str	r6, [sp, #36]	; 0x24
    6a72:	9c19      	ldr	r4, [sp, #100]	; 0x64
    6a74:	7823      	ldrb	r3, [r4, #0]
    6a76:	2b30      	cmp	r3, #48	; 0x30
    6a78:	d15a      	bne.n	6b30 <_strtod_r+0x118>
    6a7a:	7863      	ldrb	r3, [r4, #1]
    6a7c:	2b58      	cmp	r3, #88	; 0x58
    6a7e:	d001      	beq.n	6a84 <_strtod_r+0x6c>
    6a80:	2b78      	cmp	r3, #120	; 0x78
    6a82:	d149      	bne.n	6b18 <_strtod_r+0x100>
    6a84:	ab1a      	add	r3, sp, #104	; 0x68
    6a86:	9f09      	ldr	r7, [sp, #36]	; 0x24
    6a88:	9300      	str	r3, [sp, #0]
    6a8a:	9701      	str	r7, [sp, #4]
    6a8c:	4648      	mov	r0, r9
    6a8e:	a919      	add	r1, sp, #100	; 0x64
    6a90:	4a9c      	ldr	r2, [pc, #624]	; (6d04 <_strtod_r+0x2ec>)
    6a92:	ab1b      	add	r3, sp, #108	; 0x6c
    6a94:	f001 f858 	bl	7b48 <__gethex>
    6a98:	f010 0607 	ands.w	r6, r0, #7
    6a9c:	4605      	mov	r5, r0
    6a9e:	f000 85ad 	beq.w	75fc <_strtod_r+0xbe4>
    6aa2:	2e06      	cmp	r6, #6
    6aa4:	d102      	bne.n	6aac <_strtod_r+0x94>
    6aa6:	3401      	adds	r4, #1
    6aa8:	9419      	str	r4, [sp, #100]	; 0x64
    6aaa:	e17e      	b.n	6daa <_strtod_r+0x392>
    6aac:	9a1a      	ldr	r2, [sp, #104]	; 0x68
    6aae:	b13a      	cbz	r2, 6ac0 <_strtod_r+0xa8>
    6ab0:	a81c      	add	r0, sp, #112	; 0x70
    6ab2:	2135      	movs	r1, #53	; 0x35
    6ab4:	f001 fedc 	bl	8870 <__copybits>
    6ab8:	4648      	mov	r0, r9
    6aba:	991a      	ldr	r1, [sp, #104]	; 0x68
    6abc:	f001 fb4f 	bl	815e <_Bfree>
    6ac0:	9a1b      	ldr	r2, [sp, #108]	; 0x6c
    6ac2:	2e06      	cmp	r6, #6
    6ac4:	d821      	bhi.n	6b0a <_strtod_r+0xf2>
    6ac6:	e8df f006 	tbb	[pc, r6]
    6aca:	0d04      	.short	0x0d04
    6acc:	0d1c1708 	.word	0x0d1c1708
    6ad0:	04          	.byte	0x04
    6ad1:	00          	.byte	0x00
    6ad2:	f04f 0b00 	mov.w	fp, #0
    6ad6:	46da      	mov	sl, fp
    6ad8:	e017      	b.n	6b0a <_strtod_r+0xf2>
    6ada:	f8dd a070 	ldr.w	sl, [sp, #112]	; 0x70
    6ade:	f8dd b074 	ldr.w	fp, [sp, #116]	; 0x74
    6ae2:	e012      	b.n	6b0a <_strtod_r+0xf2>
    6ae4:	9b1d      	ldr	r3, [sp, #116]	; 0x74
    6ae6:	f8dd a070 	ldr.w	sl, [sp, #112]	; 0x70
    6aea:	f202 4233 	addw	r2, r2, #1075	; 0x433
    6aee:	f423 1380 	bic.w	r3, r3, #1048576	; 0x100000
    6af2:	ea43 5b02 	orr.w	fp, r3, r2, lsl #20
    6af6:	e008      	b.n	6b0a <_strtod_r+0xf2>
    6af8:	f8df b20c 	ldr.w	fp, [pc, #524]	; 6d08 <_strtod_r+0x2f0>
    6afc:	f04f 0a00 	mov.w	sl, #0
    6b00:	e003      	b.n	6b0a <_strtod_r+0xf2>
    6b02:	f06f 4b00 	mvn.w	fp, #2147483648	; 0x80000000
    6b06:	f04f 3aff 	mov.w	sl, #4294967295
    6b0a:	072b      	lsls	r3, r5, #28
    6b0c:	f140 8576 	bpl.w	75fc <_strtod_r+0xbe4>
    6b10:	f04b 4b00 	orr.w	fp, fp, #2147483648	; 0x80000000
    6b14:	f000 bd72 	b.w	75fc <_strtod_r+0xbe4>
    6b18:	9b19      	ldr	r3, [sp, #100]	; 0x64
    6b1a:	1c5a      	adds	r2, r3, #1
    6b1c:	9219      	str	r2, [sp, #100]	; 0x64
    6b1e:	785b      	ldrb	r3, [r3, #1]
    6b20:	2b30      	cmp	r3, #48	; 0x30
    6b22:	d0f9      	beq.n	6b18 <_strtod_r+0x100>
    6b24:	2b00      	cmp	r3, #0
    6b26:	f000 8569 	beq.w	75fc <_strtod_r+0xbe4>
    6b2a:	2301      	movs	r3, #1
    6b2c:	9305      	str	r3, [sp, #20]
    6b2e:	e001      	b.n	6b34 <_strtod_r+0x11c>
    6b30:	2600      	movs	r6, #0
    6b32:	9605      	str	r6, [sp, #20]
    6b34:	f04f 0800 	mov.w	r8, #0
    6b38:	9f19      	ldr	r7, [sp, #100]	; 0x64
    6b3a:	9707      	str	r7, [sp, #28]
    6b3c:	f8cd 800c 	str.w	r8, [sp, #12]
    6b40:	4644      	mov	r4, r8
    6b42:	9e19      	ldr	r6, [sp, #100]	; 0x64
    6b44:	7835      	ldrb	r5, [r6, #0]
    6b46:	f1a5 0330 	sub.w	r3, r5, #48	; 0x30
    6b4a:	b2da      	uxtb	r2, r3
    6b4c:	2a09      	cmp	r2, #9
    6b4e:	d810      	bhi.n	6b72 <_strtod_r+0x15a>
    6b50:	2c08      	cmp	r4, #8
    6b52:	bfd8      	it	le
    6b54:	9f03      	ldrle	r7, [sp, #12]
    6b56:	f04f 020a 	mov.w	r2, #10
    6b5a:	bfd8      	it	le
    6b5c:	fb02 3707 	mlale	r7, r2, r7, r3
    6b60:	f106 0601 	add.w	r6, r6, #1
    6b64:	bfd4      	ite	le
    6b66:	9703      	strle	r7, [sp, #12]
    6b68:	fb02 3808 	mlagt	r8, r2, r8, r3
    6b6c:	3401      	adds	r4, #1
    6b6e:	9619      	str	r6, [sp, #100]	; 0x64
    6b70:	e7e7      	b.n	6b42 <_strtod_r+0x12a>
    6b72:	4648      	mov	r0, r9
    6b74:	f001 faba 	bl	80ec <_localeconv_r>
    6b78:	6807      	ldr	r7, [r0, #0]
    6b7a:	4648      	mov	r0, r9
    6b7c:	f001 fab6 	bl	80ec <_localeconv_r>
    6b80:	6800      	ldr	r0, [r0, #0]
    6b82:	f7ff feb6 	bl	68f2 <strlen>
    6b86:	4639      	mov	r1, r7
    6b88:	4602      	mov	r2, r0
    6b8a:	4630      	mov	r0, r6
    6b8c:	f7ff feb9 	bl	6902 <strncmp>
    6b90:	4606      	mov	r6, r0
    6b92:	b128      	cbz	r0, 6ba0 <_strtod_r+0x188>
    6b94:	2300      	movs	r3, #0
    6b96:	462a      	mov	r2, r5
    6b98:	4619      	mov	r1, r3
    6b9a:	4625      	mov	r5, r4
    6b9c:	930a      	str	r3, [sp, #40]	; 0x28
    6b9e:	e05f      	b.n	6c60 <_strtod_r+0x248>
    6ba0:	4648      	mov	r0, r9
    6ba2:	9d19      	ldr	r5, [sp, #100]	; 0x64
    6ba4:	f001 faa2 	bl	80ec <_localeconv_r>
    6ba8:	6800      	ldr	r0, [r0, #0]
    6baa:	f7ff fea2 	bl	68f2 <strlen>
    6bae:	182b      	adds	r3, r5, r0
    6bb0:	9319      	str	r3, [sp, #100]	; 0x64
    6bb2:	5c2a      	ldrb	r2, [r5, r0]
    6bb4:	2c00      	cmp	r4, #0
    6bb6:	d145      	bne.n	6c44 <_strtod_r+0x22c>
    6bb8:	4623      	mov	r3, r4
    6bba:	2a30      	cmp	r2, #48	; 0x30
    6bbc:	d105      	bne.n	6bca <_strtod_r+0x1b2>
    6bbe:	9a19      	ldr	r2, [sp, #100]	; 0x64
    6bc0:	1c51      	adds	r1, r2, #1
    6bc2:	9119      	str	r1, [sp, #100]	; 0x64
    6bc4:	3301      	adds	r3, #1
    6bc6:	7852      	ldrb	r2, [r2, #1]
    6bc8:	e7f7      	b.n	6bba <_strtod_r+0x1a2>
    6bca:	f1a2 0131 	sub.w	r1, r2, #49	; 0x31
    6bce:	2908      	cmp	r1, #8
    6bd0:	d842      	bhi.n	6c58 <_strtod_r+0x240>
    6bd2:	9e19      	ldr	r6, [sp, #100]	; 0x64
    6bd4:	9607      	str	r6, [sp, #28]
    6bd6:	4619      	mov	r1, r3
    6bd8:	2300      	movs	r3, #0
    6bda:	461d      	mov	r5, r3
    6bdc:	3a30      	subs	r2, #48	; 0x30
    6bde:	f103 0001 	add.w	r0, r3, #1
    6be2:	d029      	beq.n	6c38 <_strtod_r+0x220>
    6be4:	4401      	add	r1, r0
    6be6:	1c6e      	adds	r6, r5, #1
    6be8:	1b77      	subs	r7, r6, r5
    6bea:	4287      	cmp	r7, r0
    6bec:	da10      	bge.n	6c10 <_strtod_r+0x1f8>
    6bee:	1e77      	subs	r7, r6, #1
    6bf0:	2f08      	cmp	r7, #8
    6bf2:	dc06      	bgt.n	6c02 <_strtod_r+0x1ea>
    6bf4:	9f03      	ldr	r7, [sp, #12]
    6bf6:	f04f 0c0a 	mov.w	ip, #10
    6bfa:	fb0c f707 	mul.w	r7, ip, r7
    6bfe:	9703      	str	r7, [sp, #12]
    6c00:	e004      	b.n	6c0c <_strtod_r+0x1f4>
    6c02:	2e10      	cmp	r6, #16
    6c04:	bfdc      	itt	le
    6c06:	270a      	movle	r7, #10
    6c08:	fb07 f808 	mulle.w	r8, r7, r8
    6c0c:	3601      	adds	r6, #1
    6c0e:	e7eb      	b.n	6be8 <_strtod_r+0x1d0>
    6c10:	2b00      	cmp	r3, #0
    6c12:	bfac      	ite	ge
    6c14:	18eb      	addge	r3, r5, r3
    6c16:	1c2b      	addlt	r3, r5, #0
    6c18:	2b08      	cmp	r3, #8
    6c1a:	f103 0501 	add.w	r5, r3, #1
    6c1e:	dc05      	bgt.n	6c2c <_strtod_r+0x214>
    6c20:	9e03      	ldr	r6, [sp, #12]
    6c22:	230a      	movs	r3, #10
    6c24:	fb03 2606 	mla	r6, r3, r6, r2
    6c28:	9603      	str	r6, [sp, #12]
    6c2a:	e004      	b.n	6c36 <_strtod_r+0x21e>
    6c2c:	2d10      	cmp	r5, #16
    6c2e:	bfdc      	itt	le
    6c30:	230a      	movle	r3, #10
    6c32:	fb03 2808 	mlale	r8, r3, r8, r2
    6c36:	2000      	movs	r0, #0
    6c38:	9b19      	ldr	r3, [sp, #100]	; 0x64
    6c3a:	1c5a      	adds	r2, r3, #1
    6c3c:	9219      	str	r2, [sp, #100]	; 0x64
    6c3e:	785a      	ldrb	r2, [r3, #1]
    6c40:	4603      	mov	r3, r0
    6c42:	e002      	b.n	6c4a <_strtod_r+0x232>
    6c44:	4625      	mov	r5, r4
    6c46:	4633      	mov	r3, r6
    6c48:	4631      	mov	r1, r6
    6c4a:	f1a2 0030 	sub.w	r0, r2, #48	; 0x30
    6c4e:	2809      	cmp	r0, #9
    6c50:	d9c4      	bls.n	6bdc <_strtod_r+0x1c4>
    6c52:	2701      	movs	r7, #1
    6c54:	970a      	str	r7, [sp, #40]	; 0x28
    6c56:	e003      	b.n	6c60 <_strtod_r+0x248>
    6c58:	2500      	movs	r5, #0
    6c5a:	2001      	movs	r0, #1
    6c5c:	4629      	mov	r1, r5
    6c5e:	900a      	str	r0, [sp, #40]	; 0x28
    6c60:	f022 0620 	bic.w	r6, r2, #32
    6c64:	2e45      	cmp	r6, #69	; 0x45
    6c66:	d153      	bne.n	6d10 <_strtod_r+0x2f8>
    6c68:	b925      	cbnz	r5, 6c74 <_strtod_r+0x25c>
    6c6a:	b91b      	cbnz	r3, 6c74 <_strtod_r+0x25c>
    6c6c:	9e05      	ldr	r6, [sp, #20]
    6c6e:	2e00      	cmp	r6, #0
    6c70:	f000 8099 	beq.w	6da6 <_strtod_r+0x38e>
    6c74:	9f19      	ldr	r7, [sp, #100]	; 0x64
    6c76:	9704      	str	r7, [sp, #16]
    6c78:	1c7a      	adds	r2, r7, #1
    6c7a:	9219      	str	r2, [sp, #100]	; 0x64
    6c7c:	787a      	ldrb	r2, [r7, #1]
    6c7e:	2a2b      	cmp	r2, #43	; 0x2b
    6c80:	d004      	beq.n	6c8c <_strtod_r+0x274>
    6c82:	2a2d      	cmp	r2, #45	; 0x2d
    6c84:	d005      	beq.n	6c92 <_strtod_r+0x27a>
    6c86:	2600      	movs	r6, #0
    6c88:	960f      	str	r6, [sp, #60]	; 0x3c
    6c8a:	e008      	b.n	6c9e <_strtod_r+0x286>
    6c8c:	2000      	movs	r0, #0
    6c8e:	900f      	str	r0, [sp, #60]	; 0x3c
    6c90:	e001      	b.n	6c96 <_strtod_r+0x27e>
    6c92:	2701      	movs	r7, #1
    6c94:	970f      	str	r7, [sp, #60]	; 0x3c
    6c96:	9e04      	ldr	r6, [sp, #16]
    6c98:	1cb2      	adds	r2, r6, #2
    6c9a:	9219      	str	r2, [sp, #100]	; 0x64
    6c9c:	78b2      	ldrb	r2, [r6, #2]
    6c9e:	f1a2 0730 	sub.w	r7, r2, #48	; 0x30
    6ca2:	2f09      	cmp	r7, #9
    6ca4:	d832      	bhi.n	6d0c <_strtod_r+0x2f4>
    6ca6:	2a30      	cmp	r2, #48	; 0x30
    6ca8:	d104      	bne.n	6cb4 <_strtod_r+0x29c>
    6caa:	9a19      	ldr	r2, [sp, #100]	; 0x64
    6cac:	1c57      	adds	r7, r2, #1
    6cae:	9719      	str	r7, [sp, #100]	; 0x64
    6cb0:	7852      	ldrb	r2, [r2, #1]
    6cb2:	e7f8      	b.n	6ca6 <_strtod_r+0x28e>
    6cb4:	f1a2 0731 	sub.w	r7, r2, #49	; 0x31
    6cb8:	2f08      	cmp	r7, #8
    6cba:	d829      	bhi.n	6d10 <_strtod_r+0x2f8>
    6cbc:	9819      	ldr	r0, [sp, #100]	; 0x64
    6cbe:	9006      	str	r0, [sp, #24]
    6cc0:	f1a2 0730 	sub.w	r7, r2, #48	; 0x30
    6cc4:	9a19      	ldr	r2, [sp, #100]	; 0x64
    6cc6:	1c56      	adds	r6, r2, #1
    6cc8:	9619      	str	r6, [sp, #100]	; 0x64
    6cca:	7852      	ldrb	r2, [r2, #1]
    6ccc:	960e      	str	r6, [sp, #56]	; 0x38
    6cce:	f1a2 0630 	sub.w	r6, r2, #48	; 0x30
    6cd2:	2e09      	cmp	r6, #9
    6cd4:	d805      	bhi.n	6ce2 <_strtod_r+0x2ca>
    6cd6:	f04f 0c0a 	mov.w	ip, #10
    6cda:	fb0c 2707 	mla	r7, ip, r7, r2
    6cde:	3f30      	subs	r7, #48	; 0x30
    6ce0:	e7f0      	b.n	6cc4 <_strtod_r+0x2ac>
    6ce2:	980e      	ldr	r0, [sp, #56]	; 0x38
    6ce4:	9e06      	ldr	r6, [sp, #24]
    6ce6:	ebc6 0c00 	rsb	ip, r6, r0
    6cea:	f1bc 0f08 	cmp.w	ip, #8
    6cee:	f644 6c1f 	movw	ip, #19999	; 0x4e1f
    6cf2:	dc02      	bgt.n	6cfa <_strtod_r+0x2e2>
    6cf4:	4567      	cmp	r7, ip
    6cf6:	bfb8      	it	lt
    6cf8:	46bc      	movlt	ip, r7
    6cfa:	9f0f      	ldr	r7, [sp, #60]	; 0x3c
    6cfc:	b157      	cbz	r7, 6d14 <_strtod_r+0x2fc>
    6cfe:	f1cc 0c00 	rsb	ip, ip, #0
    6d02:	e007      	b.n	6d14 <_strtod_r+0x2fc>
    6d04:	0000a410 	.word	0x0000a410
    6d08:	7ff00000 	.word	0x7ff00000
    6d0c:	9e04      	ldr	r6, [sp, #16]
    6d0e:	9619      	str	r6, [sp, #100]	; 0x64
    6d10:	f04f 0c00 	mov.w	ip, #0
    6d14:	2d00      	cmp	r5, #0
    6d16:	d14c      	bne.n	6db2 <_strtod_r+0x39a>
    6d18:	2b00      	cmp	r3, #0
    6d1a:	f040 846f 	bne.w	75fc <_strtod_r+0xbe4>
    6d1e:	9f05      	ldr	r7, [sp, #20]
    6d20:	2f00      	cmp	r7, #0
    6d22:	f040 846b 	bne.w	75fc <_strtod_r+0xbe4>
    6d26:	980a      	ldr	r0, [sp, #40]	; 0x28
    6d28:	2800      	cmp	r0, #0
    6d2a:	d13c      	bne.n	6da6 <_strtod_r+0x38e>
    6d2c:	2a4e      	cmp	r2, #78	; 0x4e
    6d2e:	d01b      	beq.n	6d68 <_strtod_r+0x350>
    6d30:	dc02      	bgt.n	6d38 <_strtod_r+0x320>
    6d32:	2a49      	cmp	r2, #73	; 0x49
    6d34:	d005      	beq.n	6d42 <_strtod_r+0x32a>
    6d36:	e036      	b.n	6da6 <_strtod_r+0x38e>
    6d38:	2a69      	cmp	r2, #105	; 0x69
    6d3a:	d002      	beq.n	6d42 <_strtod_r+0x32a>
    6d3c:	2a6e      	cmp	r2, #110	; 0x6e
    6d3e:	d013      	beq.n	6d68 <_strtod_r+0x350>
    6d40:	e031      	b.n	6da6 <_strtod_r+0x38e>
    6d42:	a819      	add	r0, sp, #100	; 0x64
    6d44:	49ac      	ldr	r1, [pc, #688]	; (6ff8 <_strtod_r+0x5e0>)
    6d46:	f7ff fe31 	bl	69ac <match>
    6d4a:	b360      	cbz	r0, 6da6 <_strtod_r+0x38e>
    6d4c:	9b19      	ldr	r3, [sp, #100]	; 0x64
    6d4e:	49ab      	ldr	r1, [pc, #684]	; (6ffc <_strtod_r+0x5e4>)
    6d50:	3b01      	subs	r3, #1
    6d52:	a819      	add	r0, sp, #100	; 0x64
    6d54:	9319      	str	r3, [sp, #100]	; 0x64
    6d56:	f7ff fe29 	bl	69ac <match>
    6d5a:	b910      	cbnz	r0, 6d62 <_strtod_r+0x34a>
    6d5c:	9b19      	ldr	r3, [sp, #100]	; 0x64
    6d5e:	3301      	adds	r3, #1
    6d60:	9319      	str	r3, [sp, #100]	; 0x64
    6d62:	f8df b2b4 	ldr.w	fp, [pc, #692]	; 7018 <_strtod_r+0x600>
    6d66:	e01a      	b.n	6d9e <_strtod_r+0x386>
    6d68:	a819      	add	r0, sp, #100	; 0x64
    6d6a:	49a5      	ldr	r1, [pc, #660]	; (7000 <_strtod_r+0x5e8>)
    6d6c:	f7ff fe1e 	bl	69ac <match>
    6d70:	b1c8      	cbz	r0, 6da6 <_strtod_r+0x38e>
    6d72:	9b19      	ldr	r3, [sp, #100]	; 0x64
    6d74:	781b      	ldrb	r3, [r3, #0]
    6d76:	2b28      	cmp	r3, #40	; 0x28
    6d78:	d10f      	bne.n	6d9a <_strtod_r+0x382>
    6d7a:	a819      	add	r0, sp, #100	; 0x64
    6d7c:	49a1      	ldr	r1, [pc, #644]	; (7004 <_strtod_r+0x5ec>)
    6d7e:	aa1c      	add	r2, sp, #112	; 0x70
    6d80:	f001 f924 	bl	7fcc <__hexnan>
    6d84:	2805      	cmp	r0, #5
    6d86:	d108      	bne.n	6d9a <_strtod_r+0x382>
    6d88:	9b1d      	ldr	r3, [sp, #116]	; 0x74
    6d8a:	f8dd a070 	ldr.w	sl, [sp, #112]	; 0x70
    6d8e:	f043 4bff 	orr.w	fp, r3, #2139095040	; 0x7f800000
    6d92:	f44b 0be0 	orr.w	fp, fp, #7340032	; 0x700000
    6d96:	f000 bc31 	b.w	75fc <_strtod_r+0xbe4>
    6d9a:	f8df b280 	ldr.w	fp, [pc, #640]	; 701c <_strtod_r+0x604>
    6d9e:	f04f 0a00 	mov.w	sl, #0
    6da2:	f000 bc2b 	b.w	75fc <_strtod_r+0xbe4>
    6da6:	9b04      	ldr	r3, [sp, #16]
    6da8:	9319      	str	r3, [sp, #100]	; 0x64
    6daa:	2600      	movs	r6, #0
    6dac:	9609      	str	r6, [sp, #36]	; 0x24
    6dae:	f000 bc25 	b.w	75fc <_strtod_r+0xbe4>
    6db2:	ebc1 010c 	rsb	r1, r1, ip
    6db6:	9803      	ldr	r0, [sp, #12]
    6db8:	9106      	str	r1, [sp, #24]
    6dba:	2d10      	cmp	r5, #16
    6dbc:	bfb4      	ite	lt
    6dbe:	46ac      	movlt	ip, r5
    6dc0:	f04f 0c10 	movge.w	ip, #16
    6dc4:	f8cd c008 	str.w	ip, [sp, #8]
    6dc8:	f7fe fd8a 	bl	58e0 <__aeabi_ui2d>
    6dcc:	f8dd c008 	ldr.w	ip, [sp, #8]
    6dd0:	2c00      	cmp	r4, #0
    6dd2:	bf08      	it	eq
    6dd4:	462c      	moveq	r4, r5
    6dd6:	f1bc 0f09 	cmp.w	ip, #9
    6dda:	4682      	mov	sl, r0
    6ddc:	468b      	mov	fp, r1
    6dde:	dd15      	ble.n	6e0c <_strtod_r+0x3f4>
    6de0:	4b89      	ldr	r3, [pc, #548]	; (7008 <_strtod_r+0x5f0>)
    6de2:	eb03 03cc 	add.w	r3, r3, ip, lsl #3
    6de6:	e953 2312 	ldrd	r2, r3, [r3, #-72]	; 0x48
    6dea:	f7fe fdef 	bl	59cc <__aeabi_dmul>
    6dee:	4606      	mov	r6, r0
    6df0:	4640      	mov	r0, r8
    6df2:	460f      	mov	r7, r1
    6df4:	f7fe fd74 	bl	58e0 <__aeabi_ui2d>
    6df8:	4602      	mov	r2, r0
    6dfa:	460b      	mov	r3, r1
    6dfc:	4630      	mov	r0, r6
    6dfe:	4639      	mov	r1, r7
    6e00:	f7fe fc32 	bl	5668 <__adddf3>
    6e04:	f8dd c008 	ldr.w	ip, [sp, #8]
    6e08:	4682      	mov	sl, r0
    6e0a:	468b      	mov	fp, r1
    6e0c:	2d0f      	cmp	r5, #15
    6e0e:	dc37      	bgt.n	6e80 <_strtod_r+0x468>
    6e10:	9f06      	ldr	r7, [sp, #24]
    6e12:	2f00      	cmp	r7, #0
    6e14:	f000 83f2 	beq.w	75fc <_strtod_r+0xbe4>
    6e18:	dd23      	ble.n	6e62 <_strtod_r+0x44a>
    6e1a:	2f16      	cmp	r7, #22
    6e1c:	dc07      	bgt.n	6e2e <_strtod_r+0x416>
    6e1e:	497a      	ldr	r1, [pc, #488]	; (7008 <_strtod_r+0x5f0>)
    6e20:	eb01 01c7 	add.w	r1, r1, r7, lsl #3
    6e24:	e9d1 0100 	ldrd	r0, r1, [r1]
    6e28:	4652      	mov	r2, sl
    6e2a:	465b      	mov	r3, fp
    6e2c:	e014      	b.n	6e58 <_strtod_r+0x440>
    6e2e:	9e06      	ldr	r6, [sp, #24]
    6e30:	f1c5 0325 	rsb	r3, r5, #37	; 0x25
    6e34:	429e      	cmp	r6, r3
    6e36:	dc23      	bgt.n	6e80 <_strtod_r+0x468>
    6e38:	4c73      	ldr	r4, [pc, #460]	; (7008 <_strtod_r+0x5f0>)
    6e3a:	f1c5 050f 	rsb	r5, r5, #15
    6e3e:	eb04 03c5 	add.w	r3, r4, r5, lsl #3
    6e42:	1b75      	subs	r5, r6, r5
    6e44:	e9d3 0100 	ldrd	r0, r1, [r3]
    6e48:	4652      	mov	r2, sl
    6e4a:	465b      	mov	r3, fp
    6e4c:	eb04 04c5 	add.w	r4, r4, r5, lsl #3
    6e50:	f7fe fdbc 	bl	59cc <__aeabi_dmul>
    6e54:	e9d4 2300 	ldrd	r2, r3, [r4]
    6e58:	f7fe fdb8 	bl	59cc <__aeabi_dmul>
    6e5c:	4682      	mov	sl, r0
    6e5e:	468b      	mov	fp, r1
    6e60:	e3cc      	b.n	75fc <_strtod_r+0xbe4>
    6e62:	9f06      	ldr	r7, [sp, #24]
    6e64:	3716      	adds	r7, #22
    6e66:	db0b      	blt.n	6e80 <_strtod_r+0x468>
    6e68:	f8dd c018 	ldr.w	ip, [sp, #24]
    6e6c:	4f66      	ldr	r7, [pc, #408]	; (7008 <_strtod_r+0x5f0>)
    6e6e:	eba7 07cc 	sub.w	r7, r7, ip, lsl #3
    6e72:	4650      	mov	r0, sl
    6e74:	4659      	mov	r1, fp
    6e76:	e9d7 2300 	ldrd	r2, r3, [r7]
    6e7a:	f7fe fed1 	bl	5c20 <__aeabi_ddiv>
    6e7e:	e7ed      	b.n	6e5c <_strtod_r+0x444>
    6e80:	9e06      	ldr	r6, [sp, #24]
    6e82:	ebcc 0805 	rsb	r8, ip, r5
    6e86:	44b0      	add	r8, r6
    6e88:	f1b8 0f00 	cmp.w	r8, #0
    6e8c:	dd61      	ble.n	6f52 <_strtod_r+0x53a>
    6e8e:	f018 030f 	ands.w	r3, r8, #15
    6e92:	d00a      	beq.n	6eaa <_strtod_r+0x492>
    6e94:	4a5c      	ldr	r2, [pc, #368]	; (7008 <_strtod_r+0x5f0>)
    6e96:	eb02 03c3 	add.w	r3, r2, r3, lsl #3
    6e9a:	e9d3 0100 	ldrd	r0, r1, [r3]
    6e9e:	4652      	mov	r2, sl
    6ea0:	465b      	mov	r3, fp
    6ea2:	f7fe fd93 	bl	59cc <__aeabi_dmul>
    6ea6:	4682      	mov	sl, r0
    6ea8:	468b      	mov	fp, r1
    6eaa:	f038 080f 	bics.w	r8, r8, #15
    6eae:	f000 80c8 	beq.w	7042 <_strtod_r+0x62a>
    6eb2:	f5b8 7f9a 	cmp.w	r8, #308	; 0x134
    6eb6:	dd13      	ble.n	6ee0 <_strtod_r+0x4c8>
    6eb8:	f04f 0800 	mov.w	r8, #0
    6ebc:	f8cd 800c 	str.w	r8, [sp, #12]
    6ec0:	f8cd 801c 	str.w	r8, [sp, #28]
    6ec4:	f8cd 8014 	str.w	r8, [sp, #20]
    6ec8:	9f07      	ldr	r7, [sp, #28]
    6eca:	f8df b14c 	ldr.w	fp, [pc, #332]	; 7018 <_strtod_r+0x600>
    6ece:	2322      	movs	r3, #34	; 0x22
    6ed0:	f8c9 3000 	str.w	r3, [r9]
    6ed4:	f04f 0a00 	mov.w	sl, #0
    6ed8:	2f00      	cmp	r7, #0
    6eda:	f040 837b 	bne.w	75d4 <_strtod_r+0xbbc>
    6ede:	e38d      	b.n	75fc <_strtod_r+0xbe4>
    6ee0:	ea4f 1828 	mov.w	r8, r8, asr #4
    6ee4:	4650      	mov	r0, sl
    6ee6:	4659      	mov	r1, fp
    6ee8:	2600      	movs	r6, #0
    6eea:	f1b8 0f01 	cmp.w	r8, #1
    6eee:	dd0d      	ble.n	6f0c <_strtod_r+0x4f4>
    6ef0:	f018 0f01 	tst.w	r8, #1
    6ef4:	d006      	beq.n	6f04 <_strtod_r+0x4ec>
    6ef6:	4b45      	ldr	r3, [pc, #276]	; (700c <_strtod_r+0x5f4>)
    6ef8:	eb03 03c6 	add.w	r3, r3, r6, lsl #3
    6efc:	e9d3 2300 	ldrd	r2, r3, [r3]
    6f00:	f7fe fd64 	bl	59cc <__aeabi_dmul>
    6f04:	3601      	adds	r6, #1
    6f06:	ea4f 0868 	mov.w	r8, r8, asr #1
    6f0a:	e7ee      	b.n	6eea <_strtod_r+0x4d2>
    6f0c:	4b3f      	ldr	r3, [pc, #252]	; (700c <_strtod_r+0x5f4>)
    6f0e:	4682      	mov	sl, r0
    6f10:	f1a1 7b54 	sub.w	fp, r1, #55574528	; 0x3500000
    6f14:	eb03 06c6 	add.w	r6, r3, r6, lsl #3
    6f18:	4652      	mov	r2, sl
    6f1a:	465b      	mov	r3, fp
    6f1c:	e9d6 0100 	ldrd	r0, r1, [r6]
    6f20:	f7fe fd54 	bl	59cc <__aeabi_dmul>
    6f24:	f021 4300 	bic.w	r3, r1, #2147483648	; 0x80000000
    6f28:	468b      	mov	fp, r1
    6f2a:	0d1b      	lsrs	r3, r3, #20
    6f2c:	4938      	ldr	r1, [pc, #224]	; (7010 <_strtod_r+0x5f8>)
    6f2e:	051b      	lsls	r3, r3, #20
    6f30:	428b      	cmp	r3, r1
    6f32:	4682      	mov	sl, r0
    6f34:	d8c0      	bhi.n	6eb8 <_strtod_r+0x4a0>
    6f36:	f5a1 1180 	sub.w	r1, r1, #1048576	; 0x100000
    6f3a:	428b      	cmp	r3, r1
    6f3c:	d906      	bls.n	6f4c <_strtod_r+0x534>
    6f3e:	2600      	movs	r6, #0
    6f40:	f8df b0dc 	ldr.w	fp, [pc, #220]	; 7020 <_strtod_r+0x608>
    6f44:	9604      	str	r6, [sp, #16]
    6f46:	f04f 3aff 	mov.w	sl, #4294967295
    6f4a:	e07c      	b.n	7046 <_strtod_r+0x62e>
    6f4c:	f10b 7b54 	add.w	fp, fp, #55574528	; 0x3500000
    6f50:	e077      	b.n	7042 <_strtod_r+0x62a>
    6f52:	d076      	beq.n	7042 <_strtod_r+0x62a>
    6f54:	f1c8 0800 	rsb	r8, r8, #0
    6f58:	f018 030f 	ands.w	r3, r8, #15
    6f5c:	d00a      	beq.n	6f74 <_strtod_r+0x55c>
    6f5e:	4a2a      	ldr	r2, [pc, #168]	; (7008 <_strtod_r+0x5f0>)
    6f60:	eb02 03c3 	add.w	r3, r2, r3, lsl #3
    6f64:	4650      	mov	r0, sl
    6f66:	4659      	mov	r1, fp
    6f68:	e9d3 2300 	ldrd	r2, r3, [r3]
    6f6c:	f7fe fe58 	bl	5c20 <__aeabi_ddiv>
    6f70:	4682      	mov	sl, r0
    6f72:	468b      	mov	fp, r1
    6f74:	ea5f 1828 	movs.w	r8, r8, asr #4
    6f78:	d063      	beq.n	7042 <_strtod_r+0x62a>
    6f7a:	f1b8 0f1f 	cmp.w	r8, #31
    6f7e:	dd08      	ble.n	6f92 <_strtod_r+0x57a>
    6f80:	f04f 0800 	mov.w	r8, #0
    6f84:	f8cd 800c 	str.w	r8, [sp, #12]
    6f88:	f8cd 801c 	str.w	r8, [sp, #28]
    6f8c:	f8cd 8014 	str.w	r8, [sp, #20]
    6f90:	e11e      	b.n	71d0 <_strtod_r+0x7b8>
    6f92:	f018 0f10 	tst.w	r8, #16
    6f96:	bf14      	ite	ne
    6f98:	266a      	movne	r6, #106	; 0x6a
    6f9a:	2600      	moveq	r6, #0
    6f9c:	9604      	str	r6, [sp, #16]
    6f9e:	4e1d      	ldr	r6, [pc, #116]	; (7014 <_strtod_r+0x5fc>)
    6fa0:	4650      	mov	r0, sl
    6fa2:	4659      	mov	r1, fp
    6fa4:	f1b8 0f00 	cmp.w	r8, #0
    6fa8:	dd0a      	ble.n	6fc0 <_strtod_r+0x5a8>
    6faa:	f018 0f01 	tst.w	r8, #1
    6fae:	d003      	beq.n	6fb8 <_strtod_r+0x5a0>
    6fb0:	e9d6 2300 	ldrd	r2, r3, [r6]
    6fb4:	f7fe fd0a 	bl	59cc <__aeabi_dmul>
    6fb8:	ea4f 0868 	mov.w	r8, r8, asr #1
    6fbc:	3608      	adds	r6, #8
    6fbe:	e7f1      	b.n	6fa4 <_strtod_r+0x58c>
    6fc0:	9f04      	ldr	r7, [sp, #16]
    6fc2:	4682      	mov	sl, r0
    6fc4:	468b      	mov	fp, r1
    6fc6:	b39f      	cbz	r7, 7030 <_strtod_r+0x618>
    6fc8:	f3c1 530a 	ubfx	r3, r1, #20, #11
    6fcc:	f1c3 036b 	rsb	r3, r3, #107	; 0x6b
    6fd0:	2b00      	cmp	r3, #0
    6fd2:	dd2d      	ble.n	7030 <_strtod_r+0x618>
    6fd4:	2b1f      	cmp	r3, #31
    6fd6:	dd25      	ble.n	7024 <_strtod_r+0x60c>
    6fd8:	2b34      	cmp	r3, #52	; 0x34
    6fda:	f04f 0a00 	mov.w	sl, #0
    6fde:	dd02      	ble.n	6fe6 <_strtod_r+0x5ce>
    6fe0:	f04f 7b5c 	mov.w	fp, #57671680	; 0x3700000
    6fe4:	e024      	b.n	7030 <_strtod_r+0x618>
    6fe6:	3b20      	subs	r3, #32
    6fe8:	f04f 31ff 	mov.w	r1, #4294967295
    6fec:	fa01 f303 	lsl.w	r3, r1, r3
    6ff0:	ea03 0b0b 	and.w	fp, r3, fp
    6ff4:	e01c      	b.n	7030 <_strtod_r+0x618>
    6ff6:	bf00      	nop
    6ff8:	0000a3ad 	.word	0x0000a3ad
    6ffc:	0000a6a7 	.word	0x0000a6a7
    7000:	0000a3a9 	.word	0x0000a3a9
    7004:	0000a424 	.word	0x0000a424
    7008:	0000a5a8 	.word	0x0000a5a8
    700c:	0000a670 	.word	0x0000a670
    7010:	7ca00000 	.word	0x7ca00000
    7014:	0000a3e8 	.word	0x0000a3e8
    7018:	7ff00000 	.word	0x7ff00000
    701c:	fff80000 	.word	0xfff80000
    7020:	7fefffff 	.word	0x7fefffff
    7024:	f04f 32ff 	mov.w	r2, #4294967295
    7028:	fa02 f303 	lsl.w	r3, r2, r3
    702c:	ea03 0a00 	and.w	sl, r3, r0
    7030:	4650      	mov	r0, sl
    7032:	4659      	mov	r1, fp
    7034:	2200      	movs	r2, #0
    7036:	2300      	movs	r3, #0
    7038:	f7fe ff30 	bl	5e9c <__aeabi_dcmpeq>
    703c:	2800      	cmp	r0, #0
    703e:	d19f      	bne.n	6f80 <_strtod_r+0x568>
    7040:	e001      	b.n	7046 <_strtod_r+0x62e>
    7042:	2700      	movs	r7, #0
    7044:	9704      	str	r7, [sp, #16]
    7046:	9e03      	ldr	r6, [sp, #12]
    7048:	9600      	str	r6, [sp, #0]
    704a:	4648      	mov	r0, r9
    704c:	9907      	ldr	r1, [sp, #28]
    704e:	4622      	mov	r2, r4
    7050:	462b      	mov	r3, r5
    7052:	f001 f8d5 	bl	8200 <__s2b>
    7056:	9007      	str	r0, [sp, #28]
    7058:	2800      	cmp	r0, #0
    705a:	f43f af2d 	beq.w	6eb8 <_strtod_r+0x4a0>
    705e:	9f06      	ldr	r7, [sp, #24]
    7060:	427b      	negs	r3, r7
    7062:	2f00      	cmp	r7, #0
    7064:	bfa8      	it	ge
    7066:	2300      	movge	r3, #0
    7068:	f04f 0800 	mov.w	r8, #0
    706c:	930e      	str	r3, [sp, #56]	; 0x38
    706e:	f8cd 800c 	str.w	r8, [sp, #12]
    7072:	9e07      	ldr	r6, [sp, #28]
    7074:	4648      	mov	r0, r9
    7076:	6871      	ldr	r1, [r6, #4]
    7078:	f001 f83c 	bl	80f4 <_Balloc>
    707c:	9005      	str	r0, [sp, #20]
    707e:	2800      	cmp	r0, #0
    7080:	f43f af22 	beq.w	6ec8 <_strtod_r+0x4b0>
    7084:	6932      	ldr	r2, [r6, #16]
    7086:	3202      	adds	r2, #2
    7088:	f106 010c 	add.w	r1, r6, #12
    708c:	0092      	lsls	r2, r2, #2
    708e:	300c      	adds	r0, #12
    7090:	f7ff fb32 	bl	66f8 <memcpy>
    7094:	ab1b      	add	r3, sp, #108	; 0x6c
    7096:	9300      	str	r3, [sp, #0]
    7098:	ab1c      	add	r3, sp, #112	; 0x70
    709a:	9301      	str	r3, [sp, #4]
    709c:	4648      	mov	r0, r9
    709e:	4652      	mov	r2, sl
    70a0:	465b      	mov	r3, fp
    70a2:	e9cd ab0a 	strd	sl, fp, [sp, #40]	; 0x28
    70a6:	f001 fb6c 	bl	8782 <__d2b>
    70aa:	901a      	str	r0, [sp, #104]	; 0x68
    70ac:	2800      	cmp	r0, #0
    70ae:	f43f af0b 	beq.w	6ec8 <_strtod_r+0x4b0>
    70b2:	4648      	mov	r0, r9
    70b4:	2101      	movs	r1, #1
    70b6:	f001 f932 	bl	831e <__i2b>
    70ba:	9003      	str	r0, [sp, #12]
    70bc:	2800      	cmp	r0, #0
    70be:	f43f af03 	beq.w	6ec8 <_strtod_r+0x4b0>
    70c2:	9b1b      	ldr	r3, [sp, #108]	; 0x6c
    70c4:	f8dd c018 	ldr.w	ip, [sp, #24]
    70c8:	2b00      	cmp	r3, #0
    70ca:	ea2c 77ec 	bic.w	r7, ip, ip, asr #31
    70ce:	f2c0 808b 	blt.w	71e8 <_strtod_r+0x7d0>
    70d2:	9c0e      	ldr	r4, [sp, #56]	; 0x38
    70d4:	463a      	mov	r2, r7
    70d6:	441c      	add	r4, r3
    70d8:	9e04      	ldr	r6, [sp, #16]
    70da:	9d1c      	ldr	r5, [sp, #112]	; 0x70
    70dc:	1b9b      	subs	r3, r3, r6
    70de:	1959      	adds	r1, r3, r5
    70e0:	f46f 737f 	mvn.w	r3, #1020	; 0x3fc
    70e4:	4299      	cmp	r1, r3
    70e6:	f1c5 0536 	rsb	r5, r5, #54	; 0x36
    70ea:	f280 8087 	bge.w	71fc <_strtod_r+0x7e4>
    70ee:	1a5b      	subs	r3, r3, r1
    70f0:	2b1f      	cmp	r3, #31
    70f2:	ebc3 0505 	rsb	r5, r3, r5
    70f6:	f04f 0001 	mov.w	r0, #1
    70fa:	dc78      	bgt.n	71ee <_strtod_r+0x7d6>
    70fc:	4098      	lsls	r0, r3
    70fe:	2300      	movs	r3, #0
    7100:	9014      	str	r0, [sp, #80]	; 0x50
    7102:	930f      	str	r3, [sp, #60]	; 0x3c
    7104:	9804      	ldr	r0, [sp, #16]
    7106:	1966      	adds	r6, r4, r5
    7108:	4415      	add	r5, r2
    710a:	42a6      	cmp	r6, r4
    710c:	bfb4      	ite	lt
    710e:	4633      	movlt	r3, r6
    7110:	4623      	movge	r3, r4
    7112:	4405      	add	r5, r0
    7114:	42ab      	cmp	r3, r5
    7116:	bfa8      	it	ge
    7118:	462b      	movge	r3, r5
    711a:	2b00      	cmp	r3, #0
    711c:	dd02      	ble.n	7124 <_strtod_r+0x70c>
    711e:	1af6      	subs	r6, r6, r3
    7120:	1aed      	subs	r5, r5, r3
    7122:	1ae4      	subs	r4, r4, r3
    7124:	990e      	ldr	r1, [sp, #56]	; 0x38
    7126:	2900      	cmp	r1, #0
    7128:	d16f      	bne.n	720a <_strtod_r+0x7f2>
    712a:	2e00      	cmp	r6, #0
    712c:	f300 8087 	bgt.w	723e <_strtod_r+0x826>
    7130:	2f00      	cmp	r7, #0
    7132:	f040 808e 	bne.w	7252 <_strtod_r+0x83a>
    7136:	2d00      	cmp	r5, #0
    7138:	f300 8095 	bgt.w	7266 <_strtod_r+0x84e>
    713c:	2c00      	cmp	r4, #0
    713e:	f300 809c 	bgt.w	727a <_strtod_r+0x862>
    7142:	4648      	mov	r0, r9
    7144:	991a      	ldr	r1, [sp, #104]	; 0x68
    7146:	9a05      	ldr	r2, [sp, #20]
    7148:	f001 fa48 	bl	85dc <__mdiff>
    714c:	4680      	mov	r8, r0
    714e:	2800      	cmp	r0, #0
    7150:	f43f aeba 	beq.w	6ec8 <_strtod_r+0x4b0>
    7154:	2300      	movs	r3, #0
    7156:	68c6      	ldr	r6, [r0, #12]
    7158:	9903      	ldr	r1, [sp, #12]
    715a:	60c3      	str	r3, [r0, #12]
    715c:	9608      	str	r6, [sp, #32]
    715e:	f001 fa20 	bl	85a2 <__mcmp>
    7162:	2800      	cmp	r0, #0
    7164:	f280 8098 	bge.w	7298 <_strtod_r+0x880>
    7168:	2e00      	cmp	r6, #0
    716a:	f040 8220 	bne.w	75ae <_strtod_r+0xb96>
    716e:	f1ba 0f00 	cmp.w	sl, #0
    7172:	f040 821c 	bne.w	75ae <_strtod_r+0xb96>
    7176:	f3cb 0313 	ubfx	r3, fp, #0, #20
    717a:	2b00      	cmp	r3, #0
    717c:	f040 8217 	bne.w	75ae <_strtod_r+0xb96>
    7180:	f02b 4300 	bic.w	r3, fp, #2147483648	; 0x80000000
    7184:	0d1b      	lsrs	r3, r3, #20
    7186:	051b      	lsls	r3, r3, #20
    7188:	f1b3 6fd6 	cmp.w	r3, #112197632	; 0x6b00000
    718c:	f240 820f 	bls.w	75ae <_strtod_r+0xb96>
    7190:	f8d8 3014 	ldr.w	r3, [r8, #20]
    7194:	2b00      	cmp	r3, #0
    7196:	d07a      	beq.n	728e <_strtod_r+0x876>
    7198:	4641      	mov	r1, r8
    719a:	2201      	movs	r2, #1
    719c:	4648      	mov	r0, r9
    719e:	f001 f9ad 	bl	84fc <__lshift>
    71a2:	9903      	ldr	r1, [sp, #12]
    71a4:	4680      	mov	r8, r0
    71a6:	f001 f9fc 	bl	85a2 <__mcmp>
    71aa:	2800      	cmp	r0, #0
    71ac:	f340 81ff 	ble.w	75ae <_strtod_r+0xb96>
    71b0:	f02b 4300 	bic.w	r3, fp, #2147483648	; 0x80000000
    71b4:	9f04      	ldr	r7, [sp, #16]
    71b6:	0d1b      	lsrs	r3, r3, #20
    71b8:	051b      	lsls	r3, r3, #20
    71ba:	2f00      	cmp	r7, #0
    71bc:	f000 809c 	beq.w	72f8 <_strtod_r+0x8e0>
    71c0:	f1b3 6fd6 	cmp.w	r3, #112197632	; 0x6b00000
    71c4:	f200 8098 	bhi.w	72f8 <_strtod_r+0x8e0>
    71c8:	f1b3 7f5c 	cmp.w	r3, #57671680	; 0x3700000
    71cc:	f200 81f1 	bhi.w	75b2 <_strtod_r+0xb9a>
    71d0:	9e07      	ldr	r6, [sp, #28]
    71d2:	2322      	movs	r3, #34	; 0x22
    71d4:	f04f 0a00 	mov.w	sl, #0
    71d8:	f04f 0b00 	mov.w	fp, #0
    71dc:	f8c9 3000 	str.w	r3, [r9]
    71e0:	2e00      	cmp	r6, #0
    71e2:	f040 81f7 	bne.w	75d4 <_strtod_r+0xbbc>
    71e6:	e209      	b.n	75fc <_strtod_r+0xbe4>
    71e8:	1afa      	subs	r2, r7, r3
    71ea:	9c0e      	ldr	r4, [sp, #56]	; 0x38
    71ec:	e774      	b.n	70d8 <_strtod_r+0x6c0>
    71ee:	4e84      	ldr	r6, [pc, #528]	; (7400 <_strtod_r+0x9e8>)
    71f0:	9014      	str	r0, [sp, #80]	; 0x50
    71f2:	1a76      	subs	r6, r6, r1
    71f4:	fa00 f606 	lsl.w	r6, r0, r6
    71f8:	960f      	str	r6, [sp, #60]	; 0x3c
    71fa:	e783      	b.n	7104 <_strtod_r+0x6ec>
    71fc:	2600      	movs	r6, #0
    71fe:	f04f 0c01 	mov.w	ip, #1
    7202:	960f      	str	r6, [sp, #60]	; 0x3c
    7204:	f8cd c050 	str.w	ip, [sp, #80]	; 0x50
    7208:	e77c      	b.n	7104 <_strtod_r+0x6ec>
    720a:	4648      	mov	r0, r9
    720c:	9903      	ldr	r1, [sp, #12]
    720e:	9a0e      	ldr	r2, [sp, #56]	; 0x38
    7210:	f001 f926 	bl	8460 <__pow5mult>
    7214:	9003      	str	r0, [sp, #12]
    7216:	2800      	cmp	r0, #0
    7218:	f43f ae56 	beq.w	6ec8 <_strtod_r+0x4b0>
    721c:	4648      	mov	r0, r9
    721e:	9903      	ldr	r1, [sp, #12]
    7220:	9a1a      	ldr	r2, [sp, #104]	; 0x68
    7222:	f001 f885 	bl	8330 <__multiply>
    7226:	4603      	mov	r3, r0
    7228:	2800      	cmp	r0, #0
    722a:	f43f ae4d 	beq.w	6ec8 <_strtod_r+0x4b0>
    722e:	4648      	mov	r0, r9
    7230:	991a      	ldr	r1, [sp, #104]	; 0x68
    7232:	9302      	str	r3, [sp, #8]
    7234:	f000 ff93 	bl	815e <_Bfree>
    7238:	9b02      	ldr	r3, [sp, #8]
    723a:	931a      	str	r3, [sp, #104]	; 0x68
    723c:	e775      	b.n	712a <_strtod_r+0x712>
    723e:	4648      	mov	r0, r9
    7240:	991a      	ldr	r1, [sp, #104]	; 0x68
    7242:	4632      	mov	r2, r6
    7244:	f001 f95a 	bl	84fc <__lshift>
    7248:	901a      	str	r0, [sp, #104]	; 0x68
    724a:	2800      	cmp	r0, #0
    724c:	f47f af70 	bne.w	7130 <_strtod_r+0x718>
    7250:	e63a      	b.n	6ec8 <_strtod_r+0x4b0>
    7252:	4648      	mov	r0, r9
    7254:	9905      	ldr	r1, [sp, #20]
    7256:	463a      	mov	r2, r7
    7258:	f001 f902 	bl	8460 <__pow5mult>
    725c:	9005      	str	r0, [sp, #20]
    725e:	2800      	cmp	r0, #0
    7260:	f47f af69 	bne.w	7136 <_strtod_r+0x71e>
    7264:	e630      	b.n	6ec8 <_strtod_r+0x4b0>
    7266:	4648      	mov	r0, r9
    7268:	9905      	ldr	r1, [sp, #20]
    726a:	462a      	mov	r2, r5
    726c:	f001 f946 	bl	84fc <__lshift>
    7270:	9005      	str	r0, [sp, #20]
    7272:	2800      	cmp	r0, #0
    7274:	f47f af62 	bne.w	713c <_strtod_r+0x724>
    7278:	e626      	b.n	6ec8 <_strtod_r+0x4b0>
    727a:	4648      	mov	r0, r9
    727c:	9903      	ldr	r1, [sp, #12]
    727e:	4622      	mov	r2, r4
    7280:	f001 f93c 	bl	84fc <__lshift>
    7284:	9003      	str	r0, [sp, #12]
    7286:	2800      	cmp	r0, #0
    7288:	f47f af5b 	bne.w	7142 <_strtod_r+0x72a>
    728c:	e61c      	b.n	6ec8 <_strtod_r+0x4b0>
    728e:	f8d8 3010 	ldr.w	r3, [r8, #16]
    7292:	2b01      	cmp	r3, #1
    7294:	dc80      	bgt.n	7198 <_strtod_r+0x780>
    7296:	e18a      	b.n	75ae <_strtod_r+0xb96>
    7298:	d163      	bne.n	7362 <_strtod_r+0x94a>
    729a:	9f08      	ldr	r7, [sp, #32]
    729c:	f3cb 0313 	ubfx	r3, fp, #0, #20
    72a0:	b32f      	cbz	r7, 72ee <_strtod_r+0x8d6>
    72a2:	4958      	ldr	r1, [pc, #352]	; (7404 <_strtod_r+0x9ec>)
    72a4:	428b      	cmp	r3, r1
    72a6:	465a      	mov	r2, fp
    72a8:	d12f      	bne.n	730a <_strtod_r+0x8f2>
    72aa:	9e04      	ldr	r6, [sp, #16]
    72ac:	4651      	mov	r1, sl
    72ae:	b16e      	cbz	r6, 72cc <_strtod_r+0x8b4>
    72b0:	4b55      	ldr	r3, [pc, #340]	; (7408 <_strtod_r+0x9f0>)
    72b2:	ea0b 0303 	and.w	r3, fp, r3
    72b6:	f1b3 6fd4 	cmp.w	r3, #111149056	; 0x6a00000
    72ba:	d807      	bhi.n	72cc <_strtod_r+0x8b4>
    72bc:	0d1b      	lsrs	r3, r3, #20
    72be:	f1c3 036b 	rsb	r3, r3, #107	; 0x6b
    72c2:	f04f 30ff 	mov.w	r0, #4294967295
    72c6:	fa00 f303 	lsl.w	r3, r0, r3
    72ca:	e001      	b.n	72d0 <_strtod_r+0x8b8>
    72cc:	f04f 33ff 	mov.w	r3, #4294967295
    72d0:	4299      	cmp	r1, r3
    72d2:	d11a      	bne.n	730a <_strtod_r+0x8f2>
    72d4:	4b4d      	ldr	r3, [pc, #308]	; (740c <_strtod_r+0x9f4>)
    72d6:	429a      	cmp	r2, r3
    72d8:	d102      	bne.n	72e0 <_strtod_r+0x8c8>
    72da:	3101      	adds	r1, #1
    72dc:	f43f adf4 	beq.w	6ec8 <_strtod_r+0x4b0>
    72e0:	4b49      	ldr	r3, [pc, #292]	; (7408 <_strtod_r+0x9f0>)
    72e2:	4013      	ands	r3, r2
    72e4:	f503 1b80 	add.w	fp, r3, #1048576	; 0x100000
    72e8:	f04f 0a00 	mov.w	sl, #0
    72ec:	e15f      	b.n	75ae <_strtod_r+0xb96>
    72ee:	b963      	cbnz	r3, 730a <_strtod_r+0x8f2>
    72f0:	f1ba 0f00 	cmp.w	sl, #0
    72f4:	d109      	bne.n	730a <_strtod_r+0x8f2>
    72f6:	e75b      	b.n	71b0 <_strtod_r+0x798>
    72f8:	f5a3 1380 	sub.w	r3, r3, #1048576	; 0x100000
    72fc:	ea6f 5b13 	mvn.w	fp, r3, lsr #20
    7300:	ea6f 5b0b 	mvn.w	fp, fp, lsl #20
    7304:	f04f 3aff 	mov.w	sl, #4294967295
    7308:	e151      	b.n	75ae <_strtod_r+0xb96>
    730a:	9b0f      	ldr	r3, [sp, #60]	; 0x3c
    730c:	b113      	cbz	r3, 7314 <_strtod_r+0x8fc>
    730e:	ea13 0f0b 	tst.w	r3, fp
    7312:	e002      	b.n	731a <_strtod_r+0x902>
    7314:	9e14      	ldr	r6, [sp, #80]	; 0x50
    7316:	ea16 0f0a 	tst.w	r6, sl
    731a:	f000 8148 	beq.w	75ae <_strtod_r+0xb96>
    731e:	9f08      	ldr	r7, [sp, #32]
    7320:	9a04      	ldr	r2, [sp, #16]
    7322:	4650      	mov	r0, sl
    7324:	4659      	mov	r1, fp
    7326:	b157      	cbz	r7, 733e <_strtod_r+0x926>
    7328:	f7ff fb54 	bl	69d4 <sulp>
    732c:	4602      	mov	r2, r0
    732e:	460b      	mov	r3, r1
    7330:	e9dd 010a 	ldrd	r0, r1, [sp, #40]	; 0x28
    7334:	f7fe f998 	bl	5668 <__adddf3>
    7338:	4682      	mov	sl, r0
    733a:	468b      	mov	fp, r1
    733c:	e137      	b.n	75ae <_strtod_r+0xb96>
    733e:	f7ff fb49 	bl	69d4 <sulp>
    7342:	4602      	mov	r2, r0
    7344:	460b      	mov	r3, r1
    7346:	e9dd 010a 	ldrd	r0, r1, [sp, #40]	; 0x28
    734a:	f7fe f98b 	bl	5664 <__aeabi_dsub>
    734e:	2200      	movs	r2, #0
    7350:	2300      	movs	r3, #0
    7352:	4682      	mov	sl, r0
    7354:	468b      	mov	fp, r1
    7356:	f7fe fda1 	bl	5e9c <__aeabi_dcmpeq>
    735a:	2800      	cmp	r0, #0
    735c:	f47f af38 	bne.w	71d0 <_strtod_r+0x7b8>
    7360:	e125      	b.n	75ae <_strtod_r+0xb96>
    7362:	4640      	mov	r0, r8
    7364:	9903      	ldr	r1, [sp, #12]
    7366:	f001 fa5e 	bl	8826 <__ratio>
    736a:	2200      	movs	r2, #0
    736c:	f04f 4380 	mov.w	r3, #1073741824	; 0x40000000
    7370:	4604      	mov	r4, r0
    7372:	460d      	mov	r5, r1
    7374:	f7fe fda6 	bl	5ec4 <__aeabi_dcmple>
    7378:	2800      	cmp	r0, #0
    737a:	d032      	beq.n	73e2 <_strtod_r+0x9ca>
    737c:	9e08      	ldr	r6, [sp, #32]
    737e:	b126      	cbz	r6, 738a <_strtod_r+0x972>
    7380:	4f23      	ldr	r7, [pc, #140]	; (7410 <_strtod_r+0x9f8>)
    7382:	2600      	movs	r6, #0
    7384:	4634      	mov	r4, r6
    7386:	463d      	mov	r5, r7
    7388:	e04c      	b.n	7424 <_strtod_r+0xa0c>
    738a:	f1ba 0f00 	cmp.w	sl, #0
    738e:	d103      	bne.n	7398 <_strtod_r+0x980>
    7390:	f3cb 0313 	ubfx	r3, fp, #0, #20
    7394:	b93b      	cbnz	r3, 73a6 <_strtod_r+0x98e>
    7396:	e00b      	b.n	73b0 <_strtod_r+0x998>
    7398:	f1ba 0f01 	cmp.w	sl, #1
    739c:	d103      	bne.n	73a6 <_strtod_r+0x98e>
    739e:	f1bb 0f00 	cmp.w	fp, #0
    73a2:	f43f af15 	beq.w	71d0 <_strtod_r+0x7b8>
    73a6:	2600      	movs	r6, #0
    73a8:	4f1a      	ldr	r7, [pc, #104]	; (7414 <_strtod_r+0x9fc>)
    73aa:	4d19      	ldr	r5, [pc, #100]	; (7410 <_strtod_r+0x9f8>)
    73ac:	2400      	movs	r4, #0
    73ae:	e039      	b.n	7424 <_strtod_r+0xa0c>
    73b0:	4620      	mov	r0, r4
    73b2:	4629      	mov	r1, r5
    73b4:	2200      	movs	r2, #0
    73b6:	4b16      	ldr	r3, [pc, #88]	; (7410 <_strtod_r+0x9f8>)
    73b8:	f7fe fd7a 	bl	5eb0 <__aeabi_dcmplt>
    73bc:	b940      	cbnz	r0, 73d0 <_strtod_r+0x9b8>
    73be:	4620      	mov	r0, r4
    73c0:	4629      	mov	r1, r5
    73c2:	2200      	movs	r2, #0
    73c4:	4b14      	ldr	r3, [pc, #80]	; (7418 <_strtod_r+0xa00>)
    73c6:	f7fe fb01 	bl	59cc <__aeabi_dmul>
    73ca:	4604      	mov	r4, r0
    73cc:	460d      	mov	r5, r1
    73ce:	e001      	b.n	73d4 <_strtod_r+0x9bc>
    73d0:	4d11      	ldr	r5, [pc, #68]	; (7418 <_strtod_r+0xa00>)
    73d2:	2400      	movs	r4, #0
    73d4:	f105 4700 	add.w	r7, r5, #2147483648	; 0x80000000
    73d8:	9416      	str	r4, [sp, #88]	; 0x58
    73da:	9717      	str	r7, [sp, #92]	; 0x5c
    73dc:	e9dd 6716 	ldrd	r6, r7, [sp, #88]	; 0x58
    73e0:	e020      	b.n	7424 <_strtod_r+0xa0c>
    73e2:	4620      	mov	r0, r4
    73e4:	4629      	mov	r1, r5
    73e6:	2200      	movs	r2, #0
    73e8:	4b0b      	ldr	r3, [pc, #44]	; (7418 <_strtod_r+0xa00>)
    73ea:	f7fe faef 	bl	59cc <__aeabi_dmul>
    73ee:	9e08      	ldr	r6, [sp, #32]
    73f0:	4604      	mov	r4, r0
    73f2:	460d      	mov	r5, r1
    73f4:	b996      	cbnz	r6, 741c <_strtod_r+0xa04>
    73f6:	f101 4700 	add.w	r7, r1, #2147483648	; 0x80000000
    73fa:	9010      	str	r0, [sp, #64]	; 0x40
    73fc:	9711      	str	r7, [sp, #68]	; 0x44
    73fe:	e00f      	b.n	7420 <_strtod_r+0xa08>
    7400:	fffffbe3 	.word	0xfffffbe3
    7404:	000fffff 	.word	0x000fffff
    7408:	7ff00000 	.word	0x7ff00000
    740c:	7fefffff 	.word	0x7fefffff
    7410:	3ff00000 	.word	0x3ff00000
    7414:	bff00000 	.word	0xbff00000
    7418:	3fe00000 	.word	0x3fe00000
    741c:	e9cd 4510 	strd	r4, r5, [sp, #64]	; 0x40
    7420:	e9dd 6710 	ldrd	r6, r7, [sp, #64]	; 0x40
    7424:	f02b 4c00 	bic.w	ip, fp, #2147483648	; 0x80000000
    7428:	ea4f 5c1c 	mov.w	ip, ip, lsr #20
    742c:	4b84      	ldr	r3, [pc, #528]	; (7640 <_strtod_r+0xc28>)
    742e:	ea4f 5c0c 	mov.w	ip, ip, lsl #20
    7432:	459c      	cmp	ip, r3
    7434:	d131      	bne.n	749a <_strtod_r+0xa82>
    7436:	e9dd 010a 	ldrd	r0, r1, [sp, #40]	; 0x28
    743a:	f1ab 7b54 	sub.w	fp, fp, #55574528	; 0x3500000
    743e:	e9cd 010c 	strd	r0, r1, [sp, #48]	; 0x30
    7442:	4650      	mov	r0, sl
    7444:	4659      	mov	r1, fp
    7446:	f8cd c008 	str.w	ip, [sp, #8]
    744a:	f001 f925 	bl	8698 <__ulp>
    744e:	4602      	mov	r2, r0
    7450:	460b      	mov	r3, r1
    7452:	4630      	mov	r0, r6
    7454:	4639      	mov	r1, r7
    7456:	f7fe fab9 	bl	59cc <__aeabi_dmul>
    745a:	4602      	mov	r2, r0
    745c:	460b      	mov	r3, r1
    745e:	4650      	mov	r0, sl
    7460:	4659      	mov	r1, fp
    7462:	f7fe f901 	bl	5668 <__adddf3>
    7466:	f021 4300 	bic.w	r3, r1, #2147483648	; 0x80000000
    746a:	0d1b      	lsrs	r3, r3, #20
    746c:	4a75      	ldr	r2, [pc, #468]	; (7644 <_strtod_r+0xc2c>)
    746e:	f8dd c008 	ldr.w	ip, [sp, #8]
    7472:	051b      	lsls	r3, r3, #20
    7474:	4293      	cmp	r3, r2
    7476:	4682      	mov	sl, r0
    7478:	d90c      	bls.n	7494 <_strtod_r+0xa7c>
    747a:	4b73      	ldr	r3, [pc, #460]	; (7648 <_strtod_r+0xc30>)
    747c:	990d      	ldr	r1, [sp, #52]	; 0x34
    747e:	4299      	cmp	r1, r3
    7480:	d103      	bne.n	748a <_strtod_r+0xa72>
    7482:	9a0c      	ldr	r2, [sp, #48]	; 0x30
    7484:	3201      	adds	r2, #1
    7486:	f43f ad1f 	beq.w	6ec8 <_strtod_r+0x4b0>
    748a:	f8df b1bc 	ldr.w	fp, [pc, #444]	; 7648 <_strtod_r+0xc30>
    748e:	f04f 3aff 	mov.w	sl, #4294967295
    7492:	e07b      	b.n	758c <_strtod_r+0xb74>
    7494:	f101 7b54 	add.w	fp, r1, #55574528	; 0x3500000
    7498:	e042      	b.n	7520 <_strtod_r+0xb08>
    749a:	9b04      	ldr	r3, [sp, #16]
    749c:	b353      	cbz	r3, 74f4 <_strtod_r+0xadc>
    749e:	f1bc 6fd4 	cmp.w	ip, #111149056	; 0x6a00000
    74a2:	d827      	bhi.n	74f4 <_strtod_r+0xadc>
    74a4:	4620      	mov	r0, r4
    74a6:	4629      	mov	r1, r5
    74a8:	a35d      	add	r3, pc, #372	; (adr r3, 7620 <_strtod_r+0xc08>)
    74aa:	e9d3 2300 	ldrd	r2, r3, [r3]
    74ae:	f8cd c008 	str.w	ip, [sp, #8]
    74b2:	f7fe fd07 	bl	5ec4 <__aeabi_dcmple>
    74b6:	f8dd c008 	ldr.w	ip, [sp, #8]
    74ba:	b1b8      	cbz	r0, 74ec <_strtod_r+0xad4>
    74bc:	4629      	mov	r1, r5
    74be:	4620      	mov	r0, r4
    74c0:	f7fe fd46 	bl	5f50 <__aeabi_d2uiz>
    74c4:	2800      	cmp	r0, #0
    74c6:	bf08      	it	eq
    74c8:	2001      	moveq	r0, #1
    74ca:	f7fe fa09 	bl	58e0 <__aeabi_ui2d>
    74ce:	9e08      	ldr	r6, [sp, #32]
    74d0:	f8dd c008 	ldr.w	ip, [sp, #8]
    74d4:	4604      	mov	r4, r0
    74d6:	460d      	mov	r5, r1
    74d8:	b926      	cbnz	r6, 74e4 <_strtod_r+0xacc>
    74da:	f101 4700 	add.w	r7, r1, #2147483648	; 0x80000000
    74de:	9012      	str	r0, [sp, #72]	; 0x48
    74e0:	9713      	str	r7, [sp, #76]	; 0x4c
    74e2:	e001      	b.n	74e8 <_strtod_r+0xad0>
    74e4:	e9cd 4512 	strd	r4, r5, [sp, #72]	; 0x48
    74e8:	e9dd 6712 	ldrd	r6, r7, [sp, #72]	; 0x48
    74ec:	f107 63d6 	add.w	r3, r7, #112197632	; 0x6b00000
    74f0:	ebcc 0703 	rsb	r7, ip, r3
    74f4:	e9dd 010a 	ldrd	r0, r1, [sp, #40]	; 0x28
    74f8:	f8cd c008 	str.w	ip, [sp, #8]
    74fc:	f001 f8cc 	bl	8698 <__ulp>
    7500:	4602      	mov	r2, r0
    7502:	460b      	mov	r3, r1
    7504:	4630      	mov	r0, r6
    7506:	4639      	mov	r1, r7
    7508:	f7fe fa60 	bl	59cc <__aeabi_dmul>
    750c:	4602      	mov	r2, r0
    750e:	460b      	mov	r3, r1
    7510:	e9dd 010a 	ldrd	r0, r1, [sp, #40]	; 0x28
    7514:	f7fe f8a8 	bl	5668 <__adddf3>
    7518:	f8dd c008 	ldr.w	ip, [sp, #8]
    751c:	4682      	mov	sl, r0
    751e:	468b      	mov	fp, r1
    7520:	9f04      	ldr	r7, [sp, #16]
    7522:	2f00      	cmp	r7, #0
    7524:	d132      	bne.n	758c <_strtod_r+0xb74>
    7526:	f02b 4300 	bic.w	r3, fp, #2147483648	; 0x80000000
    752a:	0d1b      	lsrs	r3, r3, #20
    752c:	051b      	lsls	r3, r3, #20
    752e:	459c      	cmp	ip, r3
    7530:	d12c      	bne.n	758c <_strtod_r+0xb74>
    7532:	4629      	mov	r1, r5
    7534:	4620      	mov	r0, r4
    7536:	f7fe fce3 	bl	5f00 <__aeabi_d2iz>
    753a:	f7fe f9e1 	bl	5900 <__aeabi_i2d>
    753e:	4602      	mov	r2, r0
    7540:	460b      	mov	r3, r1
    7542:	4620      	mov	r0, r4
    7544:	4629      	mov	r1, r5
    7546:	f7fe f88d 	bl	5664 <__aeabi_dsub>
    754a:	9f08      	ldr	r7, [sp, #32]
    754c:	4604      	mov	r4, r0
    754e:	460d      	mov	r5, r1
    7550:	b92f      	cbnz	r7, 755e <_strtod_r+0xb46>
    7552:	f1ba 0f00 	cmp.w	sl, #0
    7556:	d102      	bne.n	755e <_strtod_r+0xb46>
    7558:	f3cb 0613 	ubfx	r6, fp, #0, #20
    755c:	b186      	cbz	r6, 7580 <_strtod_r+0xb68>
    755e:	4620      	mov	r0, r4
    7560:	4629      	mov	r1, r5
    7562:	a331      	add	r3, pc, #196	; (adr r3, 7628 <_strtod_r+0xc10>)
    7564:	e9d3 2300 	ldrd	r2, r3, [r3]
    7568:	f7fe fca2 	bl	5eb0 <__aeabi_dcmplt>
    756c:	2800      	cmp	r0, #0
    756e:	d131      	bne.n	75d4 <_strtod_r+0xbbc>
    7570:	4620      	mov	r0, r4
    7572:	4629      	mov	r1, r5
    7574:	a32e      	add	r3, pc, #184	; (adr r3, 7630 <_strtod_r+0xc18>)
    7576:	e9d3 2300 	ldrd	r2, r3, [r3]
    757a:	f7fe fcb7 	bl	5eec <__aeabi_dcmpgt>
    757e:	e004      	b.n	758a <_strtod_r+0xb72>
    7580:	a32d      	add	r3, pc, #180	; (adr r3, 7638 <_strtod_r+0xc20>)
    7582:	e9d3 2300 	ldrd	r2, r3, [r3]
    7586:	f7fe fc93 	bl	5eb0 <__aeabi_dcmplt>
    758a:	bb18      	cbnz	r0, 75d4 <_strtod_r+0xbbc>
    758c:	4648      	mov	r0, r9
    758e:	991a      	ldr	r1, [sp, #104]	; 0x68
    7590:	f000 fde5 	bl	815e <_Bfree>
    7594:	4648      	mov	r0, r9
    7596:	9905      	ldr	r1, [sp, #20]
    7598:	f000 fde1 	bl	815e <_Bfree>
    759c:	4648      	mov	r0, r9
    759e:	9903      	ldr	r1, [sp, #12]
    75a0:	f000 fddd 	bl	815e <_Bfree>
    75a4:	4648      	mov	r0, r9
    75a6:	4641      	mov	r1, r8
    75a8:	f000 fdd9 	bl	815e <_Bfree>
    75ac:	e561      	b.n	7072 <_strtod_r+0x65a>
    75ae:	9e04      	ldr	r6, [sp, #16]
    75b0:	b186      	cbz	r6, 75d4 <_strtod_r+0xbbc>
    75b2:	2000      	movs	r0, #0
    75b4:	4f25      	ldr	r7, [pc, #148]	; (764c <_strtod_r+0xc34>)
    75b6:	900c      	str	r0, [sp, #48]	; 0x30
    75b8:	970d      	str	r7, [sp, #52]	; 0x34
    75ba:	4650      	mov	r0, sl
    75bc:	4659      	mov	r1, fp
    75be:	e9dd 230c 	ldrd	r2, r3, [sp, #48]	; 0x30
    75c2:	f7fe fa03 	bl	59cc <__aeabi_dmul>
    75c6:	4682      	mov	sl, r0
    75c8:	468b      	mov	fp, r1
    75ca:	b919      	cbnz	r1, 75d4 <_strtod_r+0xbbc>
    75cc:	b910      	cbnz	r0, 75d4 <_strtod_r+0xbbc>
    75ce:	2322      	movs	r3, #34	; 0x22
    75d0:	f8c9 3000 	str.w	r3, [r9]
    75d4:	4648      	mov	r0, r9
    75d6:	991a      	ldr	r1, [sp, #104]	; 0x68
    75d8:	f000 fdc1 	bl	815e <_Bfree>
    75dc:	4648      	mov	r0, r9
    75de:	9905      	ldr	r1, [sp, #20]
    75e0:	f000 fdbd 	bl	815e <_Bfree>
    75e4:	4648      	mov	r0, r9
    75e6:	9903      	ldr	r1, [sp, #12]
    75e8:	f000 fdb9 	bl	815e <_Bfree>
    75ec:	4648      	mov	r0, r9
    75ee:	9907      	ldr	r1, [sp, #28]
    75f0:	f000 fdb5 	bl	815e <_Bfree>
    75f4:	4648      	mov	r0, r9
    75f6:	4641      	mov	r1, r8
    75f8:	f000 fdb1 	bl	815e <_Bfree>
    75fc:	9e15      	ldr	r6, [sp, #84]	; 0x54
    75fe:	b10e      	cbz	r6, 7604 <_strtod_r+0xbec>
    7600:	9b19      	ldr	r3, [sp, #100]	; 0x64
    7602:	6033      	str	r3, [r6, #0]
    7604:	9f09      	ldr	r7, [sp, #36]	; 0x24
    7606:	b11f      	cbz	r7, 7610 <_strtod_r+0xbf8>
    7608:	4650      	mov	r0, sl
    760a:	f10b 4100 	add.w	r1, fp, #2147483648	; 0x80000000
    760e:	e001      	b.n	7614 <_strtod_r+0xbfc>
    7610:	4650      	mov	r0, sl
    7612:	4659      	mov	r1, fp
    7614:	b01f      	add	sp, #124	; 0x7c
    7616:	e8bd 8ff0 	ldmia.w	sp!, {r4, r5, r6, r7, r8, r9, sl, fp, pc}
    761a:	bf00      	nop
    761c:	f3af 8000 	nop.w
    7620:	ffc00000 	.word	0xffc00000
    7624:	41dfffff 	.word	0x41dfffff
    7628:	94a03595 	.word	0x94a03595
    762c:	3fdfffff 	.word	0x3fdfffff
    7630:	35afe535 	.word	0x35afe535
    7634:	3fe00000 	.word	0x3fe00000
    7638:	94a03595 	.word	0x94a03595
    763c:	3fcfffff 	.word	0x3fcfffff
    7640:	7fe00000 	.word	0x7fe00000
    7644:	7c9fffff 	.word	0x7c9fffff
    7648:	7fefffff 	.word	0x7fefffff
    764c:	39500000 	.word	0x39500000

00007650 <strtof>:
    7650:	460a      	mov	r2, r1
    7652:	490a      	ldr	r1, [pc, #40]	; (767c <strtof+0x2c>)
    7654:	b538      	push	{r3, r4, r5, lr}
    7656:	4603      	mov	r3, r0
    7658:	6808      	ldr	r0, [r1, #0]
    765a:	4619      	mov	r1, r3
    765c:	f7ff f9dc 	bl	6a18 <_strtod_r>
    7660:	4604      	mov	r4, r0
    7662:	460d      	mov	r5, r1
    7664:	f7fd ffd2 	bl	560c <__fpclassifyd>
    7668:	b918      	cbnz	r0, 7672 <strtof+0x22>
    766a:	e8bd 4038 	ldmia.w	sp!, {r3, r4, r5, lr}
    766e:	f001 b971 	b.w	8954 <nanf>
    7672:	4620      	mov	r0, r4
    7674:	4629      	mov	r1, r5
    7676:	f7fe fc8b 	bl	5f90 <__aeabi_d2f>
    767a:	bd38      	pop	{r3, r4, r5, pc}
    767c:	1fff0b14 	.word	0x1fff0b14

00007680 <_strtol_r>:
    7680:	4684      	mov	ip, r0
    7682:	483f      	ldr	r0, [pc, #252]	; (7780 <_strtol_r+0x100>)
    7684:	e92d 4ff0 	stmdb	sp!, {r4, r5, r6, r7, r8, r9, sl, fp, lr}
    7688:	f8d0 8000 	ldr.w	r8, [r0]
    768c:	460e      	mov	r6, r1
    768e:	4634      	mov	r4, r6
    7690:	f814 5b01 	ldrb.w	r5, [r4], #1
    7694:	eb08 0005 	add.w	r0, r8, r5
    7698:	7840      	ldrb	r0, [r0, #1]
    769a:	f000 0008 	and.w	r0, r0, #8
    769e:	f000 07ff 	and.w	r7, r0, #255	; 0xff
    76a2:	b108      	cbz	r0, 76a8 <_strtol_r+0x28>
    76a4:	4626      	mov	r6, r4
    76a6:	e7f2      	b.n	768e <_strtol_r+0xe>
    76a8:	2d2d      	cmp	r5, #45	; 0x2d
    76aa:	d103      	bne.n	76b4 <_strtol_r+0x34>
    76ac:	1cb4      	adds	r4, r6, #2
    76ae:	7875      	ldrb	r5, [r6, #1]
    76b0:	2701      	movs	r7, #1
    76b2:	e003      	b.n	76bc <_strtol_r+0x3c>
    76b4:	2d2b      	cmp	r5, #43	; 0x2b
    76b6:	bf04      	itt	eq
    76b8:	7875      	ldrbeq	r5, [r6, #1]
    76ba:	1cb4      	addeq	r4, r6, #2
    76bc:	f033 0010 	bics.w	r0, r3, #16
    76c0:	d10d      	bne.n	76de <_strtol_r+0x5e>
    76c2:	2d30      	cmp	r5, #48	; 0x30
    76c4:	d108      	bne.n	76d8 <_strtol_r+0x58>
    76c6:	7820      	ldrb	r0, [r4, #0]
    76c8:	f000 00df 	and.w	r0, r0, #223	; 0xdf
    76cc:	2858      	cmp	r0, #88	; 0x58
    76ce:	d151      	bne.n	7774 <_strtol_r+0xf4>
    76d0:	7865      	ldrb	r5, [r4, #1]
    76d2:	2310      	movs	r3, #16
    76d4:	3402      	adds	r4, #2
    76d6:	e002      	b.n	76de <_strtol_r+0x5e>
    76d8:	2b00      	cmp	r3, #0
    76da:	bf08      	it	eq
    76dc:	230a      	moveq	r3, #10
    76de:	2f00      	cmp	r7, #0
    76e0:	bf0c      	ite	eq
    76e2:	f06f 4a00 	mvneq.w	sl, #2147483648	; 0x80000000
    76e6:	f04f 4a00 	movne.w	sl, #2147483648	; 0x80000000
    76ea:	fbba f9f3 	udiv	r9, sl, r3
    76ee:	2600      	movs	r6, #0
    76f0:	fb03 aa19 	mls	sl, r3, r9, sl
    76f4:	4630      	mov	r0, r6
    76f6:	eb08 0b05 	add.w	fp, r8, r5
    76fa:	f89b b001 	ldrb.w	fp, [fp, #1]
    76fe:	f01b 0f04 	tst.w	fp, #4
    7702:	d001      	beq.n	7708 <_strtol_r+0x88>
    7704:	3d30      	subs	r5, #48	; 0x30
    7706:	e00b      	b.n	7720 <_strtol_r+0xa0>
    7708:	f01b 0b03 	ands.w	fp, fp, #3
    770c:	d01b      	beq.n	7746 <_strtol_r+0xc6>
    770e:	f1bb 0f01 	cmp.w	fp, #1
    7712:	bf14      	ite	ne
    7714:	f04f 0b57 	movne.w	fp, #87	; 0x57
    7718:	f04f 0b37 	moveq.w	fp, #55	; 0x37
    771c:	ebcb 0505 	rsb	r5, fp, r5
    7720:	429d      	cmp	r5, r3
    7722:	da10      	bge.n	7746 <_strtol_r+0xc6>
    7724:	f1b6 3fff 	cmp.w	r6, #4294967295
    7728:	d00a      	beq.n	7740 <_strtol_r+0xc0>
    772a:	4548      	cmp	r0, r9
    772c:	d806      	bhi.n	773c <_strtol_r+0xbc>
    772e:	d101      	bne.n	7734 <_strtol_r+0xb4>
    7730:	4555      	cmp	r5, sl
    7732:	dc03      	bgt.n	773c <_strtol_r+0xbc>
    7734:	fb03 5000 	mla	r0, r3, r0, r5
    7738:	2601      	movs	r6, #1
    773a:	e001      	b.n	7740 <_strtol_r+0xc0>
    773c:	f04f 36ff 	mov.w	r6, #4294967295
    7740:	f814 5b01 	ldrb.w	r5, [r4], #1
    7744:	e7d7      	b.n	76f6 <_strtol_r+0x76>
    7746:	1c73      	adds	r3, r6, #1
    7748:	d10c      	bne.n	7764 <_strtol_r+0xe4>
    774a:	2f00      	cmp	r7, #0
    774c:	f04f 0322 	mov.w	r3, #34	; 0x22
    7750:	bf0c      	ite	eq
    7752:	f06f 4000 	mvneq.w	r0, #2147483648	; 0x80000000
    7756:	f04f 4000 	movne.w	r0, #2147483648	; 0x80000000
    775a:	f8cc 3000 	str.w	r3, [ip]
    775e:	b92a      	cbnz	r2, 776c <_strtol_r+0xec>
    7760:	e8bd 8ff0 	ldmia.w	sp!, {r4, r5, r6, r7, r8, r9, sl, fp, pc}
    7764:	b107      	cbz	r7, 7768 <_strtol_r+0xe8>
    7766:	4240      	negs	r0, r0
    7768:	b142      	cbz	r2, 777c <_strtol_r+0xfc>
    776a:	b106      	cbz	r6, 776e <_strtol_r+0xee>
    776c:	1e61      	subs	r1, r4, #1
    776e:	6011      	str	r1, [r2, #0]
    7770:	e8bd 8ff0 	ldmia.w	sp!, {r4, r5, r6, r7, r8, r9, sl, fp, pc}
    7774:	2b00      	cmp	r3, #0
    7776:	bf08      	it	eq
    7778:	2308      	moveq	r3, #8
    777a:	e7b0      	b.n	76de <_strtol_r+0x5e>
    777c:	e8bd 8ff0 	ldmia.w	sp!, {r4, r5, r6, r7, r8, r9, sl, fp, pc}
    7780:	1fff0b18 	.word	0x1fff0b18

00007784 <strtol>:
    7784:	b530      	push	{r4, r5, lr}
    7786:	4613      	mov	r3, r2
    7788:	4a04      	ldr	r2, [pc, #16]	; (779c <strtol+0x18>)
    778a:	4605      	mov	r5, r0
    778c:	460c      	mov	r4, r1
    778e:	6810      	ldr	r0, [r2, #0]
    7790:	4629      	mov	r1, r5
    7792:	4622      	mov	r2, r4
    7794:	e8bd 4030 	ldmia.w	sp!, {r4, r5, lr}
    7798:	f7ff bf72 	b.w	7680 <_strtol_r>
    779c:	1fff0b14 	.word	0x1fff0b14

000077a0 <tolower>:
    77a0:	4b04      	ldr	r3, [pc, #16]	; (77b4 <tolower+0x14>)
    77a2:	681b      	ldr	r3, [r3, #0]
    77a4:	4403      	add	r3, r0
    77a6:	785b      	ldrb	r3, [r3, #1]
    77a8:	f003 0303 	and.w	r3, r3, #3
    77ac:	2b01      	cmp	r3, #1
    77ae:	bf08      	it	eq
    77b0:	3020      	addeq	r0, #32
    77b2:	4770      	bx	lr
    77b4:	1fff0b18 	.word	0x1fff0b18

000077b8 <toupper>:
    77b8:	4b04      	ldr	r3, [pc, #16]	; (77cc <toupper+0x14>)
    77ba:	681b      	ldr	r3, [r3, #0]
    77bc:	4403      	add	r3, r0
    77be:	785b      	ldrb	r3, [r3, #1]
    77c0:	f003 0303 	and.w	r3, r3, #3
    77c4:	2b02      	cmp	r3, #2
    77c6:	bf08      	it	eq
    77c8:	3820      	subeq	r0, #32
    77ca:	4770      	bx	lr
    77cc:	1fff0b18 	.word	0x1fff0b18

000077d0 <_vdiprintf_r>:
    77d0:	e92d 41f0 	stmdb	sp!, {r4, r5, r6, r7, r8, lr}
    77d4:	f5ad 7d04 	sub.w	sp, sp, #528	; 0x210
    77d8:	461d      	mov	r5, r3
    77da:	f44f 7300 	mov.w	r3, #512	; 0x200
    77de:	460f      	mov	r7, r1
    77e0:	4690      	mov	r8, r2
    77e2:	9303      	str	r3, [sp, #12]
    77e4:	4604      	mov	r4, r0
    77e6:	b118      	cbz	r0, 77f0 <_vdiprintf_r+0x20>
    77e8:	6983      	ldr	r3, [r0, #24]
    77ea:	b90b      	cbnz	r3, 77f0 <_vdiprintf_r+0x20>
    77ec:	f000 f8f8 	bl	79e0 <__sinit>
    77f0:	ae04      	add	r6, sp, #16
    77f2:	9500      	str	r5, [sp, #0]
    77f4:	4620      	mov	r0, r4
    77f6:	4631      	mov	r1, r6
    77f8:	aa03      	add	r2, sp, #12
    77fa:	4643      	mov	r3, r8
    77fc:	f001 f8f1 	bl	89e2 <_vasniprintf_r>
    7800:	4605      	mov	r5, r0
    7802:	b170      	cbz	r0, 7822 <_vdiprintf_r+0x52>
    7804:	4620      	mov	r0, r4
    7806:	4639      	mov	r1, r7
    7808:	462a      	mov	r2, r5
    780a:	9b03      	ldr	r3, [sp, #12]
    780c:	f000 f81e 	bl	784c <_write_r>
    7810:	42b5      	cmp	r5, r6
    7812:	9003      	str	r0, [sp, #12]
    7814:	d003      	beq.n	781e <_vdiprintf_r+0x4e>
    7816:	4620      	mov	r0, r4
    7818:	4629      	mov	r1, r5
    781a:	f7fe ff99 	bl	6750 <_free_r>
    781e:	9803      	ldr	r0, [sp, #12]
    7820:	e001      	b.n	7826 <_vdiprintf_r+0x56>
    7822:	f04f 30ff 	mov.w	r0, #4294967295
    7826:	f50d 7d04 	add.w	sp, sp, #528	; 0x210
    782a:	e8bd 81f0 	ldmia.w	sp!, {r4, r5, r6, r7, r8, pc}
    782e:	ffff b530 	vsli.32	d27, d16, #31

00007830 <vdiprintf>:
    7830:	b530      	push	{r4, r5, lr}
    7832:	4613      	mov	r3, r2
    7834:	4a04      	ldr	r2, [pc, #16]	; (7848 <vdiprintf+0x18>)
    7836:	4605      	mov	r5, r0
    7838:	460c      	mov	r4, r1
    783a:	6810      	ldr	r0, [r2, #0]
    783c:	4629      	mov	r1, r5
    783e:	4622      	mov	r2, r4
    7840:	e8bd 4030 	ldmia.w	sp!, {r4, r5, lr}
    7844:	f7ff bfc4 	b.w	77d0 <_vdiprintf_r>
    7848:	1fff0b14 	.word	0x1fff0b14

0000784c <_write_r>:
    784c:	b538      	push	{r3, r4, r5, lr}
    784e:	4c07      	ldr	r4, [pc, #28]	; (786c <_write_r+0x20>)
    7850:	4605      	mov	r5, r0
    7852:	2000      	movs	r0, #0
    7854:	6020      	str	r0, [r4, #0]
    7856:	4608      	mov	r0, r1
    7858:	4611      	mov	r1, r2
    785a:	461a      	mov	r2, r3
    785c:	f7fd f890 	bl	4980 <_write>
    7860:	1c43      	adds	r3, r0, #1
    7862:	d102      	bne.n	786a <_write_r+0x1e>
    7864:	6823      	ldr	r3, [r4, #0]
    7866:	b103      	cbz	r3, 786a <_write_r+0x1e>
    7868:	602b      	str	r3, [r5, #0]
    786a:	bd38      	pop	{r3, r4, r5, pc}
    786c:	1fff10f0 	.word	0x1fff10f0

00007870 <fcvtbuf>:
    7870:	e92d 4ff0 	stmdb	sp!, {r4, r5, r6, r7, r8, r9, sl, fp, lr}
    7874:	b089      	sub	sp, #36	; 0x24
    7876:	469a      	mov	sl, r3
    7878:	f8dd 804c 	ldr.w	r8, [sp, #76]	; 0x4c
    787c:	4b2b      	ldr	r3, [pc, #172]	; (792c <fcvtbuf+0xbc>)
    787e:	f8dd b048 	ldr.w	fp, [sp, #72]	; 0x48
    7882:	681e      	ldr	r6, [r3, #0]
    7884:	4604      	mov	r4, r0
    7886:	460d      	mov	r5, r1
    7888:	4691      	mov	r9, r2
    788a:	f1b8 0f00 	cmp.w	r8, #0
    788e:	d110      	bne.n	78b2 <fcvtbuf+0x42>
    7890:	6b33      	ldr	r3, [r6, #48]	; 0x30
    7892:	3223      	adds	r2, #35	; 0x23
    7894:	4293      	cmp	r3, r2
    7896:	dc0a      	bgt.n	78ae <fcvtbuf+0x3e>
    7898:	f109 0724 	add.w	r7, r9, #36	; 0x24
    789c:	4630      	mov	r0, r6
    789e:	6b71      	ldr	r1, [r6, #52]	; 0x34
    78a0:	463a      	mov	r2, r7
    78a2:	f001 f830 	bl	8906 <_realloc_r>
    78a6:	2800      	cmp	r0, #0
    78a8:	d03d      	beq.n	7926 <fcvtbuf+0xb6>
    78aa:	6337      	str	r7, [r6, #48]	; 0x30
    78ac:	6370      	str	r0, [r6, #52]	; 0x34
    78ae:	f8d6 8034 	ldr.w	r8, [r6, #52]	; 0x34
    78b2:	4620      	mov	r0, r4
    78b4:	4629      	mov	r1, r5
    78b6:	2200      	movs	r2, #0
    78b8:	4b1d      	ldr	r3, [pc, #116]	; (7930 <fcvtbuf+0xc0>)
    78ba:	f7fe faf9 	bl	5eb0 <__aeabi_dcmplt>
    78be:	af07      	add	r7, sp, #28
    78c0:	b140      	cbz	r0, 78d4 <fcvtbuf+0x64>
    78c2:	4620      	mov	r0, r4
    78c4:	4629      	mov	r1, r5
    78c6:	2200      	movs	r2, #0
    78c8:	4b1a      	ldr	r3, [pc, #104]	; (7934 <fcvtbuf+0xc4>)
    78ca:	f7fe fb0f 	bl	5eec <__aeabi_dcmpgt>
    78ce:	b108      	cbz	r0, 78d4 <fcvtbuf+0x64>
    78d0:	2302      	movs	r3, #2
    78d2:	e000      	b.n	78d6 <fcvtbuf+0x66>
    78d4:	2303      	movs	r3, #3
    78d6:	e88d 0e08 	stmia.w	sp, {r3, r9, sl, fp}
    78da:	9704      	str	r7, [sp, #16]
    78dc:	462b      	mov	r3, r5
    78de:	4630      	mov	r0, r6
    78e0:	4622      	mov	r2, r4
    78e2:	f001 f94d 	bl	8b80 <_dtoa_r>
    78e6:	f8da 1000 	ldr.w	r1, [sl]
    78ea:	4249      	negs	r1, r1
    78ec:	460b      	mov	r3, r1
    78ee:	1a46      	subs	r6, r0, r1
    78f0:	9d07      	ldr	r5, [sp, #28]
    78f2:	441e      	add	r6, r3
    78f4:	ebc1 0208 	rsb	r2, r1, r8
    78f8:	42b5      	cmp	r5, r6
    78fa:	f1c1 0400 	rsb	r4, r1, #0
    78fe:	441a      	add	r2, r3
    7900:	d905      	bls.n	790e <fcvtbuf+0x9e>
    7902:	1902      	adds	r2, r0, r4
    7904:	4444      	add	r4, r8
    7906:	5cd2      	ldrb	r2, [r2, r3]
    7908:	54e2      	strb	r2, [r4, r3]
    790a:	3301      	adds	r3, #1
    790c:	e7ef      	b.n	78ee <fcvtbuf+0x7e>
    790e:	4610      	mov	r0, r2
    7910:	1a19      	subs	r1, r3, r0
    7912:	4411      	add	r1, r2
    7914:	4549      	cmp	r1, r9
    7916:	da03      	bge.n	7920 <fcvtbuf+0xb0>
    7918:	2130      	movs	r1, #48	; 0x30
    791a:	f802 1b01 	strb.w	r1, [r2], #1
    791e:	e7f7      	b.n	7910 <fcvtbuf+0xa0>
    7920:	2300      	movs	r3, #0
    7922:	7013      	strb	r3, [r2, #0]
    7924:	4640      	mov	r0, r8
    7926:	b009      	add	sp, #36	; 0x24
    7928:	e8bd 8ff0 	ldmia.w	sp!, {r4, r5, r6, r7, r8, r9, sl, fp, pc}
    792c:	1fff0b14 	.word	0x1fff0b14
    7930:	3ff00000 	.word	0x3ff00000
    7934:	bff00000 	.word	0xbff00000

00007938 <_cleanup_r>:
    7938:	b5f8      	push	{r3, r4, r5, r6, r7, lr}
    793a:	4607      	mov	r7, r0
    793c:	f100 0448 	add.w	r4, r0, #72	; 0x48
    7940:	b194      	cbz	r4, 7968 <_cleanup_r+0x30>
    7942:	68a5      	ldr	r5, [r4, #8]
    7944:	6866      	ldr	r6, [r4, #4]
    7946:	3e01      	subs	r6, #1
    7948:	d40c      	bmi.n	7964 <_cleanup_r+0x2c>
    794a:	89ab      	ldrh	r3, [r5, #12]
    794c:	2b01      	cmp	r3, #1
    794e:	d907      	bls.n	7960 <_cleanup_r+0x28>
    7950:	f9b5 300e 	ldrsh.w	r3, [r5, #14]
    7954:	3301      	adds	r3, #1
    7956:	d003      	beq.n	7960 <_cleanup_r+0x28>
    7958:	4638      	mov	r0, r7
    795a:	4629      	mov	r1, r5
    795c:	f001 ff54 	bl	9808 <_fflush_r>
    7960:	3568      	adds	r5, #104	; 0x68
    7962:	e7f0      	b.n	7946 <_cleanup_r+0xe>
    7964:	6824      	ldr	r4, [r4, #0]
    7966:	e7eb      	b.n	7940 <_cleanup_r+0x8>
    7968:	bdf8      	pop	{r3, r4, r5, r6, r7, pc}
    796a:	ffff 2300 	vsubw.u<illegal width 64>	q9, <illegal reg q7.5>, d0

0000796c <std.isra.0>:
    796c:	2300      	movs	r3, #0
    796e:	b510      	push	{r4, lr}
    7970:	4604      	mov	r4, r0
    7972:	6003      	str	r3, [r0, #0]
    7974:	6043      	str	r3, [r0, #4]
    7976:	6083      	str	r3, [r0, #8]
    7978:	8181      	strh	r1, [r0, #12]
    797a:	6643      	str	r3, [r0, #100]	; 0x64
    797c:	81c2      	strh	r2, [r0, #14]
    797e:	6103      	str	r3, [r0, #16]
    7980:	6143      	str	r3, [r0, #20]
    7982:	6183      	str	r3, [r0, #24]
    7984:	4619      	mov	r1, r3
    7986:	305c      	adds	r0, #92	; 0x5c
    7988:	2208      	movs	r2, #8
    798a:	f7fe fed9 	bl	6740 <memset>
    798e:	4b05      	ldr	r3, [pc, #20]	; (79a4 <std.isra.0+0x38>)
    7990:	6263      	str	r3, [r4, #36]	; 0x24
    7992:	4b05      	ldr	r3, [pc, #20]	; (79a8 <std.isra.0+0x3c>)
    7994:	62a3      	str	r3, [r4, #40]	; 0x28
    7996:	4b05      	ldr	r3, [pc, #20]	; (79ac <std.isra.0+0x40>)
    7998:	62e3      	str	r3, [r4, #44]	; 0x2c
    799a:	4b05      	ldr	r3, [pc, #20]	; (79b0 <std.isra.0+0x44>)
    799c:	6224      	str	r4, [r4, #32]
    799e:	6323      	str	r3, [r4, #48]	; 0x30
    79a0:	bd10      	pop	{r4, pc}
    79a2:	bf00      	nop
    79a4:	0000895d 	.word	0x0000895d
    79a8:	0000897f 	.word	0x0000897f
    79ac:	000089b7 	.word	0x000089b7
    79b0:	000089db 	.word	0x000089db

000079b4 <__sfmoreglue>:
    79b4:	b570      	push	{r4, r5, r6, lr}
    79b6:	1e4b      	subs	r3, r1, #1
    79b8:	2568      	movs	r5, #104	; 0x68
    79ba:	435d      	muls	r5, r3
    79bc:	460e      	mov	r6, r1
    79be:	f105 0174 	add.w	r1, r5, #116	; 0x74
    79c2:	f7fe ff09 	bl	67d8 <_malloc_r>
    79c6:	4604      	mov	r4, r0
    79c8:	b140      	cbz	r0, 79dc <__sfmoreglue+0x28>
    79ca:	2100      	movs	r1, #0
    79cc:	e880 0042 	stmia.w	r0, {r1, r6}
    79d0:	300c      	adds	r0, #12
    79d2:	60a0      	str	r0, [r4, #8]
    79d4:	f105 0268 	add.w	r2, r5, #104	; 0x68
    79d8:	f7fe feb2 	bl	6740 <memset>
    79dc:	4620      	mov	r0, r4
    79de:	bd70      	pop	{r4, r5, r6, pc}

000079e0 <__sinit>:
    79e0:	6983      	ldr	r3, [r0, #24]
    79e2:	b510      	push	{r4, lr}
    79e4:	4604      	mov	r4, r0
    79e6:	bb33      	cbnz	r3, 7a36 <__sinit+0x56>
    79e8:	6483      	str	r3, [r0, #72]	; 0x48
    79ea:	64c3      	str	r3, [r0, #76]	; 0x4c
    79ec:	6503      	str	r3, [r0, #80]	; 0x50
    79ee:	4b12      	ldr	r3, [pc, #72]	; (7a38 <__sinit+0x58>)
    79f0:	4a12      	ldr	r2, [pc, #72]	; (7a3c <__sinit+0x5c>)
    79f2:	681b      	ldr	r3, [r3, #0]
    79f4:	6282      	str	r2, [r0, #40]	; 0x28
    79f6:	4298      	cmp	r0, r3
    79f8:	bf04      	itt	eq
    79fa:	2301      	moveq	r3, #1
    79fc:	6183      	streq	r3, [r0, #24]
    79fe:	f000 f81f 	bl	7a40 <__sfp>
    7a02:	6060      	str	r0, [r4, #4]
    7a04:	4620      	mov	r0, r4
    7a06:	f000 f81b 	bl	7a40 <__sfp>
    7a0a:	60a0      	str	r0, [r4, #8]
    7a0c:	4620      	mov	r0, r4
    7a0e:	f000 f817 	bl	7a40 <__sfp>
    7a12:	2104      	movs	r1, #4
    7a14:	60e0      	str	r0, [r4, #12]
    7a16:	2200      	movs	r2, #0
    7a18:	6860      	ldr	r0, [r4, #4]
    7a1a:	f7ff ffa7 	bl	796c <std.isra.0>
    7a1e:	68a0      	ldr	r0, [r4, #8]
    7a20:	2109      	movs	r1, #9
    7a22:	2201      	movs	r2, #1
    7a24:	f7ff ffa2 	bl	796c <std.isra.0>
    7a28:	68e0      	ldr	r0, [r4, #12]
    7a2a:	2112      	movs	r1, #18
    7a2c:	2202      	movs	r2, #2
    7a2e:	f7ff ff9d 	bl	796c <std.isra.0>
    7a32:	2301      	movs	r3, #1
    7a34:	61a3      	str	r3, [r4, #24]
    7a36:	bd10      	pop	{r4, pc}
    7a38:	0000a3e4 	.word	0x0000a3e4
    7a3c:	00007939 	.word	0x00007939

00007a40 <__sfp>:
    7a40:	b5f8      	push	{r3, r4, r5, r6, r7, lr}
    7a42:	4b1b      	ldr	r3, [pc, #108]	; (7ab0 <__sfp+0x70>)
    7a44:	681e      	ldr	r6, [r3, #0]
    7a46:	69b3      	ldr	r3, [r6, #24]
    7a48:	4607      	mov	r7, r0
    7a4a:	b913      	cbnz	r3, 7a52 <__sfp+0x12>
    7a4c:	4630      	mov	r0, r6
    7a4e:	f7ff ffc7 	bl	79e0 <__sinit>
    7a52:	3648      	adds	r6, #72	; 0x48
    7a54:	68b4      	ldr	r4, [r6, #8]
    7a56:	6873      	ldr	r3, [r6, #4]
    7a58:	3b01      	subs	r3, #1
    7a5a:	d404      	bmi.n	7a66 <__sfp+0x26>
    7a5c:	f9b4 500c 	ldrsh.w	r5, [r4, #12]
    7a60:	b175      	cbz	r5, 7a80 <__sfp+0x40>
    7a62:	3468      	adds	r4, #104	; 0x68
    7a64:	e7f8      	b.n	7a58 <__sfp+0x18>
    7a66:	6833      	ldr	r3, [r6, #0]
    7a68:	b92b      	cbnz	r3, 7a76 <__sfp+0x36>
    7a6a:	4638      	mov	r0, r7
    7a6c:	2104      	movs	r1, #4
    7a6e:	f7ff ffa1 	bl	79b4 <__sfmoreglue>
    7a72:	6030      	str	r0, [r6, #0]
    7a74:	b108      	cbz	r0, 7a7a <__sfp+0x3a>
    7a76:	6836      	ldr	r6, [r6, #0]
    7a78:	e7ec      	b.n	7a54 <__sfp+0x14>
    7a7a:	230c      	movs	r3, #12
    7a7c:	603b      	str	r3, [r7, #0]
    7a7e:	bdf8      	pop	{r3, r4, r5, r6, r7, pc}
    7a80:	f64f 73ff 	movw	r3, #65535	; 0xffff
    7a84:	81e3      	strh	r3, [r4, #14]
    7a86:	2301      	movs	r3, #1
    7a88:	81a3      	strh	r3, [r4, #12]
    7a8a:	6665      	str	r5, [r4, #100]	; 0x64
    7a8c:	6025      	str	r5, [r4, #0]
    7a8e:	60a5      	str	r5, [r4, #8]
    7a90:	6065      	str	r5, [r4, #4]
    7a92:	6125      	str	r5, [r4, #16]
    7a94:	6165      	str	r5, [r4, #20]
    7a96:	61a5      	str	r5, [r4, #24]
    7a98:	f104 005c 	add.w	r0, r4, #92	; 0x5c
    7a9c:	4629      	mov	r1, r5
    7a9e:	2208      	movs	r2, #8
    7aa0:	f7fe fe4e 	bl	6740 <memset>
    7aa4:	6365      	str	r5, [r4, #52]	; 0x34
    7aa6:	63a5      	str	r5, [r4, #56]	; 0x38
    7aa8:	64a5      	str	r5, [r4, #72]	; 0x48
    7aaa:	64e5      	str	r5, [r4, #76]	; 0x4c
    7aac:	4620      	mov	r0, r4
    7aae:	bdf8      	pop	{r3, r4, r5, r6, r7, pc}
    7ab0:	0000a3e4 	.word	0x0000a3e4

00007ab4 <rshift>:
    7ab4:	b5f0      	push	{r4, r5, r6, r7, lr}
    7ab6:	6906      	ldr	r6, [r0, #16]
    7ab8:	114b      	asrs	r3, r1, #5
    7aba:	42b3      	cmp	r3, r6
    7abc:	f100 0214 	add.w	r2, r0, #20
    7ac0:	da26      	bge.n	7b10 <rshift+0x5c>
    7ac2:	f011 011f 	ands.w	r1, r1, #31
    7ac6:	eb02 0686 	add.w	r6, r2, r6, lsl #2
    7aca:	eb02 0483 	add.w	r4, r2, r3, lsl #2
    7ace:	d101      	bne.n	7ad4 <rshift+0x20>
    7ad0:	4613      	mov	r3, r2
    7ad2:	e016      	b.n	7b02 <rshift+0x4e>
    7ad4:	f852 5023 	ldr.w	r5, [r2, r3, lsl #2]
    7ad8:	f1c1 0c20 	rsb	ip, r1, #32
    7adc:	3404      	adds	r4, #4
    7ade:	40cd      	lsrs	r5, r1
    7ae0:	4613      	mov	r3, r2
    7ae2:	42b4      	cmp	r4, r6
    7ae4:	d209      	bcs.n	7afa <rshift+0x46>
    7ae6:	6827      	ldr	r7, [r4, #0]
    7ae8:	fa07 f70c 	lsl.w	r7, r7, ip
    7aec:	433d      	orrs	r5, r7
    7aee:	f843 5b04 	str.w	r5, [r3], #4
    7af2:	f854 5b04 	ldr.w	r5, [r4], #4
    7af6:	40cd      	lsrs	r5, r1
    7af8:	e7f3      	b.n	7ae2 <rshift+0x2e>
    7afa:	601d      	str	r5, [r3, #0]
    7afc:	b14d      	cbz	r5, 7b12 <rshift+0x5e>
    7afe:	3304      	adds	r3, #4
    7b00:	e007      	b.n	7b12 <rshift+0x5e>
    7b02:	42b4      	cmp	r4, r6
    7b04:	d205      	bcs.n	7b12 <rshift+0x5e>
    7b06:	f854 1b04 	ldr.w	r1, [r4], #4
    7b0a:	f843 1b04 	str.w	r1, [r3], #4
    7b0e:	e7f8      	b.n	7b02 <rshift+0x4e>
    7b10:	4613      	mov	r3, r2
    7b12:	1a9b      	subs	r3, r3, r2
    7b14:	109b      	asrs	r3, r3, #2
    7b16:	6103      	str	r3, [r0, #16]
    7b18:	b903      	cbnz	r3, 7b1c <rshift+0x68>
    7b1a:	6143      	str	r3, [r0, #20]
    7b1c:	bdf0      	pop	{r4, r5, r6, r7, pc}

00007b1e <__hexdig_fun>:
    7b1e:	f1a0 0330 	sub.w	r3, r0, #48	; 0x30
    7b22:	2b09      	cmp	r3, #9
    7b24:	d801      	bhi.n	7b2a <__hexdig_fun+0xc>
    7b26:	3820      	subs	r0, #32
    7b28:	e00a      	b.n	7b40 <__hexdig_fun+0x22>
    7b2a:	f1a0 0361 	sub.w	r3, r0, #97	; 0x61
    7b2e:	2b05      	cmp	r3, #5
    7b30:	d801      	bhi.n	7b36 <__hexdig_fun+0x18>
    7b32:	3847      	subs	r0, #71	; 0x47
    7b34:	e004      	b.n	7b40 <__hexdig_fun+0x22>
    7b36:	f1a0 0341 	sub.w	r3, r0, #65	; 0x41
    7b3a:	2b05      	cmp	r3, #5
    7b3c:	d802      	bhi.n	7b44 <__hexdig_fun+0x26>
    7b3e:	3827      	subs	r0, #39	; 0x27
    7b40:	b2c0      	uxtb	r0, r0
    7b42:	4770      	bx	lr
    7b44:	2000      	movs	r0, #0
    7b46:	4770      	bx	lr

00007b48 <__gethex>:
    7b48:	e92d 4ff0 	stmdb	sp!, {r4, r5, r6, r7, r8, r9, sl, fp, lr}
    7b4c:	b089      	sub	sp, #36	; 0x24
    7b4e:	4690      	mov	r8, r2
    7b50:	9105      	str	r1, [sp, #20]
    7b52:	9306      	str	r3, [sp, #24]
    7b54:	9003      	str	r0, [sp, #12]
    7b56:	f000 fac9 	bl	80ec <_localeconv_r>
    7b5a:	6800      	ldr	r0, [r0, #0]
    7b5c:	9004      	str	r0, [sp, #16]
    7b5e:	f7fe fec8 	bl	68f2 <strlen>
    7b62:	9b04      	ldr	r3, [sp, #16]
    7b64:	9905      	ldr	r1, [sp, #20]
    7b66:	9002      	str	r0, [sp, #8]
    7b68:	4403      	add	r3, r0
    7b6a:	f04f 0b00 	mov.w	fp, #0
    7b6e:	f813 3c01 	ldrb.w	r3, [r3, #-1]
    7b72:	9307      	str	r3, [sp, #28]
    7b74:	680b      	ldr	r3, [r1, #0]
    7b76:	3302      	adds	r3, #2
    7b78:	461f      	mov	r7, r3
    7b7a:	f813 0b01 	ldrb.w	r0, [r3], #1
    7b7e:	2830      	cmp	r0, #48	; 0x30
    7b80:	d102      	bne.n	7b88 <__gethex+0x40>
    7b82:	f10b 0b01 	add.w	fp, fp, #1
    7b86:	e7f7      	b.n	7b78 <__gethex+0x30>
    7b88:	f7ff ffc9 	bl	7b1e <__hexdig_fun>
    7b8c:	4606      	mov	r6, r0
    7b8e:	b9f8      	cbnz	r0, 7bd0 <__gethex+0x88>
    7b90:	4638      	mov	r0, r7
    7b92:	9904      	ldr	r1, [sp, #16]
    7b94:	9a02      	ldr	r2, [sp, #8]
    7b96:	f7fe feb4 	bl	6902 <strncmp>
    7b9a:	2800      	cmp	r0, #0
    7b9c:	d139      	bne.n	7c12 <__gethex+0xca>
    7b9e:	9b02      	ldr	r3, [sp, #8]
    7ba0:	9d02      	ldr	r5, [sp, #8]
    7ba2:	5cf8      	ldrb	r0, [r7, r3]
    7ba4:	443d      	add	r5, r7
    7ba6:	f7ff ffba 	bl	7b1e <__hexdig_fun>
    7baa:	2800      	cmp	r0, #0
    7bac:	d033      	beq.n	7c16 <__gethex+0xce>
    7bae:	462b      	mov	r3, r5
    7bb0:	7818      	ldrb	r0, [r3, #0]
    7bb2:	2830      	cmp	r0, #48	; 0x30
    7bb4:	461f      	mov	r7, r3
    7bb6:	f103 0301 	add.w	r3, r3, #1
    7bba:	d0f9      	beq.n	7bb0 <__gethex+0x68>
    7bbc:	f7ff ffaf 	bl	7b1e <__hexdig_fun>
    7bc0:	f1d0 0401 	rsbs	r4, r0, #1
    7bc4:	bf38      	it	cc
    7bc6:	2400      	movcc	r4, #0
    7bc8:	462e      	mov	r6, r5
    7bca:	f04f 0b01 	mov.w	fp, #1
    7bce:	e001      	b.n	7bd4 <__gethex+0x8c>
    7bd0:	2400      	movs	r4, #0
    7bd2:	4626      	mov	r6, r4
    7bd4:	46b9      	mov	r9, r7
    7bd6:	464d      	mov	r5, r9
    7bd8:	f109 0901 	add.w	r9, r9, #1
    7bdc:	7828      	ldrb	r0, [r5, #0]
    7bde:	f7ff ff9e 	bl	7b1e <__hexdig_fun>
    7be2:	2800      	cmp	r0, #0
    7be4:	d1f7      	bne.n	7bd6 <__gethex+0x8e>
    7be6:	4628      	mov	r0, r5
    7be8:	9904      	ldr	r1, [sp, #16]
    7bea:	9a02      	ldr	r2, [sp, #8]
    7bec:	f7fe fe89 	bl	6902 <strncmp>
    7bf0:	b958      	cbnz	r0, 7c0a <__gethex+0xc2>
    7bf2:	b95e      	cbnz	r6, 7c0c <__gethex+0xc4>
    7bf4:	9e02      	ldr	r6, [sp, #8]
    7bf6:	442e      	add	r6, r5
    7bf8:	46b1      	mov	r9, r6
    7bfa:	464d      	mov	r5, r9
    7bfc:	f109 0901 	add.w	r9, r9, #1
    7c00:	7828      	ldrb	r0, [r5, #0]
    7c02:	f7ff ff8c 	bl	7b1e <__hexdig_fun>
    7c06:	2800      	cmp	r0, #0
    7c08:	d1f7      	bne.n	7bfa <__gethex+0xb2>
    7c0a:	b136      	cbz	r6, 7c1a <__gethex+0xd2>
    7c0c:	1b76      	subs	r6, r6, r5
    7c0e:	00b6      	lsls	r6, r6, #2
    7c10:	e003      	b.n	7c1a <__gethex+0xd2>
    7c12:	463d      	mov	r5, r7
    7c14:	e000      	b.n	7c18 <__gethex+0xd0>
    7c16:	4606      	mov	r6, r0
    7c18:	2401      	movs	r4, #1
    7c1a:	782b      	ldrb	r3, [r5, #0]
    7c1c:	2b50      	cmp	r3, #80	; 0x50
    7c1e:	d001      	beq.n	7c24 <__gethex+0xdc>
    7c20:	2b70      	cmp	r3, #112	; 0x70
    7c22:	d134      	bne.n	7c8e <__gethex+0x146>
    7c24:	786b      	ldrb	r3, [r5, #1]
    7c26:	2b2b      	cmp	r3, #43	; 0x2b
    7c28:	d005      	beq.n	7c36 <__gethex+0xee>
    7c2a:	2b2d      	cmp	r3, #45	; 0x2d
    7c2c:	d005      	beq.n	7c3a <__gethex+0xf2>
    7c2e:	f105 0901 	add.w	r9, r5, #1
    7c32:	2100      	movs	r1, #0
    7c34:	e004      	b.n	7c40 <__gethex+0xf8>
    7c36:	2100      	movs	r1, #0
    7c38:	e000      	b.n	7c3c <__gethex+0xf4>
    7c3a:	2101      	movs	r1, #1
    7c3c:	f105 0902 	add.w	r9, r5, #2
    7c40:	f899 0000 	ldrb.w	r0, [r9]
    7c44:	9101      	str	r1, [sp, #4]
    7c46:	f7ff ff6a 	bl	7b1e <__hexdig_fun>
    7c4a:	1e43      	subs	r3, r0, #1
    7c4c:	b2db      	uxtb	r3, r3
    7c4e:	2b18      	cmp	r3, #24
    7c50:	9901      	ldr	r1, [sp, #4]
    7c52:	d81c      	bhi.n	7c8e <__gethex+0x146>
    7c54:	f1a0 0a10 	sub.w	sl, r0, #16
    7c58:	f109 0301 	add.w	r3, r9, #1
    7c5c:	4699      	mov	r9, r3
    7c5e:	3301      	adds	r3, #1
    7c60:	f899 0000 	ldrb.w	r0, [r9]
    7c64:	9101      	str	r1, [sp, #4]
    7c66:	9300      	str	r3, [sp, #0]
    7c68:	f7ff ff59 	bl	7b1e <__hexdig_fun>
    7c6c:	1e42      	subs	r2, r0, #1
    7c6e:	b2d2      	uxtb	r2, r2
    7c70:	2a18      	cmp	r2, #24
    7c72:	9901      	ldr	r1, [sp, #4]
    7c74:	9b00      	ldr	r3, [sp, #0]
    7c76:	d805      	bhi.n	7c84 <__gethex+0x13c>
    7c78:	220a      	movs	r2, #10
    7c7a:	fb02 0a0a 	mla	sl, r2, sl, r0
    7c7e:	f1aa 0a10 	sub.w	sl, sl, #16
    7c82:	e7eb      	b.n	7c5c <__gethex+0x114>
    7c84:	b109      	cbz	r1, 7c8a <__gethex+0x142>
    7c86:	f1ca 0a00 	rsb	sl, sl, #0
    7c8a:	4456      	add	r6, sl
    7c8c:	e000      	b.n	7c90 <__gethex+0x148>
    7c8e:	46a9      	mov	r9, r5
    7c90:	9905      	ldr	r1, [sp, #20]
    7c92:	f8c1 9000 	str.w	r9, [r1]
    7c96:	b12c      	cbz	r4, 7ca4 <__gethex+0x15c>
    7c98:	f1bb 0f00 	cmp.w	fp, #0
    7c9c:	bf0c      	ite	eq
    7c9e:	2006      	moveq	r0, #6
    7ca0:	2000      	movne	r0, #0
    7ca2:	e17d      	b.n	7fa0 <__gethex+0x458>
    7ca4:	1beb      	subs	r3, r5, r7
    7ca6:	3b01      	subs	r3, #1
    7ca8:	4621      	mov	r1, r4
    7caa:	2b07      	cmp	r3, #7
    7cac:	dd02      	ble.n	7cb4 <__gethex+0x16c>
    7cae:	3101      	adds	r1, #1
    7cb0:	105b      	asrs	r3, r3, #1
    7cb2:	e7fa      	b.n	7caa <__gethex+0x162>
    7cb4:	9803      	ldr	r0, [sp, #12]
    7cb6:	f000 fa1d 	bl	80f4 <_Balloc>
    7cba:	f04f 0900 	mov.w	r9, #0
    7cbe:	f100 0a14 	add.w	sl, r0, #20
    7cc2:	4604      	mov	r4, r0
    7cc4:	4653      	mov	r3, sl
    7cc6:	46cb      	mov	fp, r9
    7cc8:	42bd      	cmp	r5, r7
    7cca:	d933      	bls.n	7d34 <__gethex+0x1ec>
    7ccc:	1e6a      	subs	r2, r5, #1
    7cce:	9205      	str	r2, [sp, #20]
    7cd0:	9907      	ldr	r1, [sp, #28]
    7cd2:	f815 2c01 	ldrb.w	r2, [r5, #-1]
    7cd6:	428a      	cmp	r2, r1
    7cd8:	d009      	beq.n	7cee <__gethex+0x1a6>
    7cda:	f1bb 0f20 	cmp.w	fp, #32
    7cde:	d117      	bne.n	7d10 <__gethex+0x1c8>
    7ce0:	f8c3 9000 	str.w	r9, [r3]
    7ce4:	f04f 0900 	mov.w	r9, #0
    7ce8:	3304      	adds	r3, #4
    7cea:	46cb      	mov	fp, r9
    7cec:	e010      	b.n	7d10 <__gethex+0x1c8>
    7cee:	9a02      	ldr	r2, [sp, #8]
    7cf0:	9905      	ldr	r1, [sp, #20]
    7cf2:	f1c2 0c01 	rsb	ip, r2, #1
    7cf6:	448c      	add	ip, r1
    7cf8:	45bc      	cmp	ip, r7
    7cfa:	d3ee      	bcc.n	7cda <__gethex+0x192>
    7cfc:	4660      	mov	r0, ip
    7cfe:	9904      	ldr	r1, [sp, #16]
    7d00:	e88d 1008 	stmia.w	sp, {r3, ip}
    7d04:	f7fe fdfd 	bl	6902 <strncmp>
    7d08:	e89d 1008 	ldmia.w	sp, {r3, ip}
    7d0c:	b180      	cbz	r0, 7d30 <__gethex+0x1e8>
    7d0e:	e7e4      	b.n	7cda <__gethex+0x192>
    7d10:	f815 0c01 	ldrb.w	r0, [r5, #-1]
    7d14:	9300      	str	r3, [sp, #0]
    7d16:	f7ff ff02 	bl	7b1e <__hexdig_fun>
    7d1a:	f000 000f 	and.w	r0, r0, #15
    7d1e:	fa00 f00b 	lsl.w	r0, r0, fp
    7d22:	f8dd c014 	ldr.w	ip, [sp, #20]
    7d26:	9b00      	ldr	r3, [sp, #0]
    7d28:	ea49 0900 	orr.w	r9, r9, r0
    7d2c:	f10b 0b04 	add.w	fp, fp, #4
    7d30:	4665      	mov	r5, ip
    7d32:	e7c9      	b.n	7cc8 <__gethex+0x180>
    7d34:	f843 9b04 	str.w	r9, [r3], #4
    7d38:	ebca 0303 	rsb	r3, sl, r3
    7d3c:	109b      	asrs	r3, r3, #2
    7d3e:	6123      	str	r3, [r4, #16]
    7d40:	4648      	mov	r0, r9
    7d42:	015f      	lsls	r7, r3, #5
    7d44:	f000 fa9e 	bl	8284 <__hi0bits>
    7d48:	f8d8 5000 	ldr.w	r5, [r8]
    7d4c:	1a38      	subs	r0, r7, r0
    7d4e:	42a8      	cmp	r0, r5
    7d50:	dd26      	ble.n	7da0 <__gethex+0x258>
    7d52:	1b47      	subs	r7, r0, r5
    7d54:	4639      	mov	r1, r7
    7d56:	4620      	mov	r0, r4
    7d58:	f000 fda3 	bl	88a2 <__any_on>
    7d5c:	b1c8      	cbz	r0, 7d92 <__gethex+0x24a>
    7d5e:	1e7b      	subs	r3, r7, #1
    7d60:	115a      	asrs	r2, r3, #5
    7d62:	f003 011f 	and.w	r1, r3, #31
    7d66:	f04f 0901 	mov.w	r9, #1
    7d6a:	f85a 2022 	ldr.w	r2, [sl, r2, lsl #2]
    7d6e:	fa09 f101 	lsl.w	r1, r9, r1
    7d72:	4211      	tst	r1, r2
    7d74:	d00e      	beq.n	7d94 <__gethex+0x24c>
    7d76:	454b      	cmp	r3, r9
    7d78:	dc02      	bgt.n	7d80 <__gethex+0x238>
    7d7a:	f04f 0902 	mov.w	r9, #2
    7d7e:	e009      	b.n	7d94 <__gethex+0x24c>
    7d80:	4620      	mov	r0, r4
    7d82:	1eb9      	subs	r1, r7, #2
    7d84:	f000 fd8d 	bl	88a2 <__any_on>
    7d88:	2800      	cmp	r0, #0
    7d8a:	d0f6      	beq.n	7d7a <__gethex+0x232>
    7d8c:	f04f 0903 	mov.w	r9, #3
    7d90:	e000      	b.n	7d94 <__gethex+0x24c>
    7d92:	4681      	mov	r9, r0
    7d94:	4620      	mov	r0, r4
    7d96:	4639      	mov	r1, r7
    7d98:	f7ff fe8c 	bl	7ab4 <rshift>
    7d9c:	443e      	add	r6, r7
    7d9e:	e00c      	b.n	7dba <__gethex+0x272>
    7da0:	da09      	bge.n	7db6 <__gethex+0x26e>
    7da2:	1a2f      	subs	r7, r5, r0
    7da4:	4621      	mov	r1, r4
    7da6:	9803      	ldr	r0, [sp, #12]
    7da8:	463a      	mov	r2, r7
    7daa:	f000 fba7 	bl	84fc <__lshift>
    7dae:	1bf6      	subs	r6, r6, r7
    7db0:	4604      	mov	r4, r0
    7db2:	f100 0a14 	add.w	sl, r0, #20
    7db6:	f04f 0900 	mov.w	r9, #0
    7dba:	f8d8 3008 	ldr.w	r3, [r8, #8]
    7dbe:	429e      	cmp	r6, r3
    7dc0:	dd08      	ble.n	7dd4 <__gethex+0x28c>
    7dc2:	9803      	ldr	r0, [sp, #12]
    7dc4:	4621      	mov	r1, r4
    7dc6:	f000 f9ca 	bl	815e <_Bfree>
    7dca:	9a12      	ldr	r2, [sp, #72]	; 0x48
    7dcc:	2300      	movs	r3, #0
    7dce:	6013      	str	r3, [r2, #0]
    7dd0:	20a3      	movs	r0, #163	; 0xa3
    7dd2:	e0e5      	b.n	7fa0 <__gethex+0x458>
    7dd4:	f8d8 3004 	ldr.w	r3, [r8, #4]
    7dd8:	429e      	cmp	r6, r3
    7dda:	da54      	bge.n	7e86 <__gethex+0x33e>
    7ddc:	1b9e      	subs	r6, r3, r6
    7dde:	42ae      	cmp	r6, r5
    7de0:	db2e      	blt.n	7e40 <__gethex+0x2f8>
    7de2:	f8d8 300c 	ldr.w	r3, [r8, #12]
    7de6:	2b02      	cmp	r3, #2
    7de8:	d01a      	beq.n	7e20 <__gethex+0x2d8>
    7dea:	2b03      	cmp	r3, #3
    7dec:	d01c      	beq.n	7e28 <__gethex+0x2e0>
    7dee:	2b01      	cmp	r3, #1
    7df0:	d11d      	bne.n	7e2e <__gethex+0x2e6>
    7df2:	42ae      	cmp	r6, r5
    7df4:	d11b      	bne.n	7e2e <__gethex+0x2e6>
    7df6:	2d01      	cmp	r5, #1
    7df8:	dc0b      	bgt.n	7e12 <__gethex+0x2ca>
    7dfa:	9906      	ldr	r1, [sp, #24]
    7dfc:	f8d8 3004 	ldr.w	r3, [r8, #4]
    7e00:	600b      	str	r3, [r1, #0]
    7e02:	2301      	movs	r3, #1
    7e04:	6123      	str	r3, [r4, #16]
    7e06:	f8ca 3000 	str.w	r3, [sl]
    7e0a:	9b12      	ldr	r3, [sp, #72]	; 0x48
    7e0c:	2062      	movs	r0, #98	; 0x62
    7e0e:	601c      	str	r4, [r3, #0]
    7e10:	e0c6      	b.n	7fa0 <__gethex+0x458>
    7e12:	4620      	mov	r0, r4
    7e14:	1e69      	subs	r1, r5, #1
    7e16:	f000 fd44 	bl	88a2 <__any_on>
    7e1a:	2800      	cmp	r0, #0
    7e1c:	d1ed      	bne.n	7dfa <__gethex+0x2b2>
    7e1e:	e006      	b.n	7e2e <__gethex+0x2e6>
    7e20:	9b13      	ldr	r3, [sp, #76]	; 0x4c
    7e22:	2b00      	cmp	r3, #0
    7e24:	d0e9      	beq.n	7dfa <__gethex+0x2b2>
    7e26:	e002      	b.n	7e2e <__gethex+0x2e6>
    7e28:	9b13      	ldr	r3, [sp, #76]	; 0x4c
    7e2a:	2b00      	cmp	r3, #0
    7e2c:	d1e5      	bne.n	7dfa <__gethex+0x2b2>
    7e2e:	9803      	ldr	r0, [sp, #12]
    7e30:	4621      	mov	r1, r4
    7e32:	f000 f994 	bl	815e <_Bfree>
    7e36:	9912      	ldr	r1, [sp, #72]	; 0x48
    7e38:	2300      	movs	r3, #0
    7e3a:	600b      	str	r3, [r1, #0]
    7e3c:	2050      	movs	r0, #80	; 0x50
    7e3e:	e0af      	b.n	7fa0 <__gethex+0x458>
    7e40:	1e77      	subs	r7, r6, #1
    7e42:	f1b9 0f00 	cmp.w	r9, #0
    7e46:	d107      	bne.n	7e58 <__gethex+0x310>
    7e48:	2f00      	cmp	r7, #0
    7e4a:	dd07      	ble.n	7e5c <__gethex+0x314>
    7e4c:	4620      	mov	r0, r4
    7e4e:	4639      	mov	r1, r7
    7e50:	f000 fd27 	bl	88a2 <__any_on>
    7e54:	4681      	mov	r9, r0
    7e56:	e001      	b.n	7e5c <__gethex+0x314>
    7e58:	f04f 0901 	mov.w	r9, #1
    7e5c:	117b      	asrs	r3, r7, #5
    7e5e:	2201      	movs	r2, #1
    7e60:	f85a 3023 	ldr.w	r3, [sl, r3, lsl #2]
    7e64:	f007 071f 	and.w	r7, r7, #31
    7e68:	fa02 f707 	lsl.w	r7, r2, r7
    7e6c:	421f      	tst	r7, r3
    7e6e:	4631      	mov	r1, r6
    7e70:	4620      	mov	r0, r4
    7e72:	bf18      	it	ne
    7e74:	f049 0902 	orrne.w	r9, r9, #2
    7e78:	1bad      	subs	r5, r5, r6
    7e7a:	f7ff fe1b 	bl	7ab4 <rshift>
    7e7e:	2702      	movs	r7, #2
    7e80:	f8d8 6004 	ldr.w	r6, [r8, #4]
    7e84:	e000      	b.n	7e88 <__gethex+0x340>
    7e86:	2701      	movs	r7, #1
    7e88:	f1b9 0f00 	cmp.w	r9, #0
    7e8c:	f000 8083 	beq.w	7f96 <__gethex+0x44e>
    7e90:	f8d8 300c 	ldr.w	r3, [r8, #12]
    7e94:	2b02      	cmp	r3, #2
    7e96:	d00e      	beq.n	7eb6 <__gethex+0x36e>
    7e98:	2b03      	cmp	r3, #3
    7e9a:	d010      	beq.n	7ebe <__gethex+0x376>
    7e9c:	2b01      	cmp	r3, #1
    7e9e:	d178      	bne.n	7f92 <__gethex+0x44a>
    7ea0:	f019 0f02 	tst.w	r9, #2
    7ea4:	d075      	beq.n	7f92 <__gethex+0x44a>
    7ea6:	f8da 3000 	ldr.w	r3, [sl]
    7eaa:	ea49 0903 	orr.w	r9, r9, r3
    7eae:	f019 0f01 	tst.w	r9, #1
    7eb2:	d107      	bne.n	7ec4 <__gethex+0x37c>
    7eb4:	e06d      	b.n	7f92 <__gethex+0x44a>
    7eb6:	9b13      	ldr	r3, [sp, #76]	; 0x4c
    7eb8:	f1c3 0301 	rsb	r3, r3, #1
    7ebc:	9313      	str	r3, [sp, #76]	; 0x4c
    7ebe:	9b13      	ldr	r3, [sp, #76]	; 0x4c
    7ec0:	2b00      	cmp	r3, #0
    7ec2:	d066      	beq.n	7f92 <__gethex+0x44a>
    7ec4:	f8d4 9010 	ldr.w	r9, [r4, #16]
    7ec8:	f104 0314 	add.w	r3, r4, #20
    7ecc:	ea4f 0a89 	mov.w	sl, r9, lsl #2
    7ed0:	eb03 010a 	add.w	r1, r3, sl
    7ed4:	4618      	mov	r0, r3
    7ed6:	f853 2b04 	ldr.w	r2, [r3], #4
    7eda:	f1b2 3fff 	cmp.w	r2, #4294967295
    7ede:	d002      	beq.n	7ee6 <__gethex+0x39e>
    7ee0:	3201      	adds	r2, #1
    7ee2:	6002      	str	r2, [r0, #0]
    7ee4:	e021      	b.n	7f2a <__gethex+0x3e2>
    7ee6:	2200      	movs	r2, #0
    7ee8:	428b      	cmp	r3, r1
    7eea:	f843 2c04 	str.w	r2, [r3, #-4]
    7eee:	d3f1      	bcc.n	7ed4 <__gethex+0x38c>
    7ef0:	68a3      	ldr	r3, [r4, #8]
    7ef2:	4599      	cmp	r9, r3
    7ef4:	db12      	blt.n	7f1c <__gethex+0x3d4>
    7ef6:	6861      	ldr	r1, [r4, #4]
    7ef8:	9803      	ldr	r0, [sp, #12]
    7efa:	3101      	adds	r1, #1
    7efc:	f000 f8fa 	bl	80f4 <_Balloc>
    7f00:	6922      	ldr	r2, [r4, #16]
    7f02:	3202      	adds	r2, #2
    7f04:	f104 010c 	add.w	r1, r4, #12
    7f08:	4683      	mov	fp, r0
    7f0a:	0092      	lsls	r2, r2, #2
    7f0c:	300c      	adds	r0, #12
    7f0e:	f7fe fbf3 	bl	66f8 <memcpy>
    7f12:	4621      	mov	r1, r4
    7f14:	9803      	ldr	r0, [sp, #12]
    7f16:	f000 f922 	bl	815e <_Bfree>
    7f1a:	465c      	mov	r4, fp
    7f1c:	6923      	ldr	r3, [r4, #16]
    7f1e:	1c5a      	adds	r2, r3, #1
    7f20:	eb04 0383 	add.w	r3, r4, r3, lsl #2
    7f24:	6122      	str	r2, [r4, #16]
    7f26:	2201      	movs	r2, #1
    7f28:	615a      	str	r2, [r3, #20]
    7f2a:	2f02      	cmp	r7, #2
    7f2c:	f104 0314 	add.w	r3, r4, #20
    7f30:	d111      	bne.n	7f56 <__gethex+0x40e>
    7f32:	f8d8 2000 	ldr.w	r2, [r8]
    7f36:	3a01      	subs	r2, #1
    7f38:	4295      	cmp	r5, r2
    7f3a:	d127      	bne.n	7f8c <__gethex+0x444>
    7f3c:	116a      	asrs	r2, r5, #5
    7f3e:	2101      	movs	r1, #1
    7f40:	f005 051f 	and.w	r5, r5, #31
    7f44:	f853 3022 	ldr.w	r3, [r3, r2, lsl #2]
    7f48:	fa01 f505 	lsl.w	r5, r1, r5
    7f4c:	421d      	tst	r5, r3
    7f4e:	bf0c      	ite	eq
    7f50:	2702      	moveq	r7, #2
    7f52:	460f      	movne	r7, r1
    7f54:	e01a      	b.n	7f8c <__gethex+0x444>
    7f56:	6922      	ldr	r2, [r4, #16]
    7f58:	454a      	cmp	r2, r9
    7f5a:	dd0a      	ble.n	7f72 <__gethex+0x42a>
    7f5c:	4620      	mov	r0, r4
    7f5e:	2101      	movs	r1, #1
    7f60:	f7ff fda8 	bl	7ab4 <rshift>
    7f64:	f8d8 3008 	ldr.w	r3, [r8, #8]
    7f68:	3601      	adds	r6, #1
    7f6a:	429e      	cmp	r6, r3
    7f6c:	f73f af29 	bgt.w	7dc2 <__gethex+0x27a>
    7f70:	e00b      	b.n	7f8a <__gethex+0x442>
    7f72:	f015 051f 	ands.w	r5, r5, #31
    7f76:	d008      	beq.n	7f8a <__gethex+0x442>
    7f78:	4453      	add	r3, sl
    7f7a:	f1c5 0520 	rsb	r5, r5, #32
    7f7e:	f853 0c04 	ldr.w	r0, [r3, #-4]
    7f82:	f000 f97f 	bl	8284 <__hi0bits>
    7f86:	42a8      	cmp	r0, r5
    7f88:	dbe8      	blt.n	7f5c <__gethex+0x414>
    7f8a:	2701      	movs	r7, #1
    7f8c:	f047 0720 	orr.w	r7, r7, #32
    7f90:	e001      	b.n	7f96 <__gethex+0x44e>
    7f92:	f047 0710 	orr.w	r7, r7, #16
    7f96:	9b12      	ldr	r3, [sp, #72]	; 0x48
    7f98:	601c      	str	r4, [r3, #0]
    7f9a:	9b06      	ldr	r3, [sp, #24]
    7f9c:	4638      	mov	r0, r7
    7f9e:	601e      	str	r6, [r3, #0]
    7fa0:	b009      	add	sp, #36	; 0x24
    7fa2:	e8bd 8ff0 	ldmia.w	sp!, {r4, r5, r6, r7, r8, r9, sl, fp, pc}

00007fa6 <L_shift>:
    7fa6:	f1c2 0208 	rsb	r2, r2, #8
    7faa:	0092      	lsls	r2, r2, #2
    7fac:	b570      	push	{r4, r5, r6, lr}
    7fae:	f1c2 0420 	rsb	r4, r2, #32
    7fb2:	6805      	ldr	r5, [r0, #0]
    7fb4:	f850 3f04 	ldr.w	r3, [r0, #4]!
    7fb8:	fa03 f604 	lsl.w	r6, r3, r4
    7fbc:	4335      	orrs	r5, r6
    7fbe:	40d3      	lsrs	r3, r2
    7fc0:	4288      	cmp	r0, r1
    7fc2:	f840 5c04 	str.w	r5, [r0, #-4]
    7fc6:	6003      	str	r3, [r0, #0]
    7fc8:	d3f3      	bcc.n	7fb2 <L_shift+0xc>
    7fca:	bd70      	pop	{r4, r5, r6, pc}

00007fcc <__hexnan>:
    7fcc:	e92d 4ff0 	stmdb	sp!, {r4, r5, r6, r7, r8, r9, sl, fp, lr}
    7fd0:	680b      	ldr	r3, [r1, #0]
    7fd2:	b085      	sub	sp, #20
    7fd4:	115e      	asrs	r6, r3, #5
    7fd6:	9003      	str	r0, [sp, #12]
    7fd8:	f013 031f 	ands.w	r3, r3, #31
    7fdc:	eb02 0686 	add.w	r6, r2, r6, lsl #2
    7fe0:	9302      	str	r3, [sp, #8]
    7fe2:	9b03      	ldr	r3, [sp, #12]
    7fe4:	bf18      	it	ne
    7fe6:	3604      	addne	r6, #4
    7fe8:	f1a6 0804 	sub.w	r8, r6, #4
    7fec:	4615      	mov	r5, r2
    7fee:	f8d3 9000 	ldr.w	r9, [r3]
    7ff2:	2200      	movs	r2, #0
    7ff4:	f846 2c04 	str.w	r2, [r6, #-4]
    7ff8:	4647      	mov	r7, r8
    7ffa:	4644      	mov	r4, r8
    7ffc:	4692      	mov	sl, r2
    7ffe:	4693      	mov	fp, r2
    8000:	f899 1001 	ldrb.w	r1, [r9, #1]
    8004:	2900      	cmp	r1, #0
    8006:	d03a      	beq.n	807e <__hexnan+0xb2>
    8008:	4608      	mov	r0, r1
    800a:	e88d 0006 	stmia.w	sp, {r1, r2}
    800e:	f7ff fd86 	bl	7b1e <__hexdig_fun>
    8012:	e89d 0006 	ldmia.w	sp, {r1, r2}
    8016:	b9d8      	cbnz	r0, 8050 <__hexnan+0x84>
    8018:	2920      	cmp	r1, #32
    801a:	d812      	bhi.n	8042 <__hexnan+0x76>
    801c:	45da      	cmp	sl, fp
    801e:	da2b      	bge.n	8078 <__hexnan+0xac>
    8020:	42bc      	cmp	r4, r7
    8022:	d205      	bcs.n	8030 <__hexnan+0x64>
    8024:	2a07      	cmp	r2, #7
    8026:	dc03      	bgt.n	8030 <__hexnan+0x64>
    8028:	4620      	mov	r0, r4
    802a:	4639      	mov	r1, r7
    802c:	f7ff ffbb 	bl	7fa6 <L_shift>
    8030:	42ac      	cmp	r4, r5
    8032:	d920      	bls.n	8076 <__hexnan+0xaa>
    8034:	1f27      	subs	r7, r4, #4
    8036:	2200      	movs	r2, #0
    8038:	f844 2c04 	str.w	r2, [r4, #-4]
    803c:	46da      	mov	sl, fp
    803e:	463c      	mov	r4, r7
    8040:	e01a      	b.n	8078 <__hexnan+0xac>
    8042:	2929      	cmp	r1, #41	; 0x29
    8044:	d14c      	bne.n	80e0 <__hexnan+0x114>
    8046:	9b03      	ldr	r3, [sp, #12]
    8048:	f109 0102 	add.w	r1, r9, #2
    804c:	6019      	str	r1, [r3, #0]
    804e:	e016      	b.n	807e <__hexnan+0xb2>
    8050:	3201      	adds	r2, #1
    8052:	2a08      	cmp	r2, #8
    8054:	f10b 0b01 	add.w	fp, fp, #1
    8058:	dd06      	ble.n	8068 <__hexnan+0x9c>
    805a:	42ac      	cmp	r4, r5
    805c:	d90c      	bls.n	8078 <__hexnan+0xac>
    805e:	2200      	movs	r2, #0
    8060:	f844 2c04 	str.w	r2, [r4, #-4]
    8064:	3c04      	subs	r4, #4
    8066:	2201      	movs	r2, #1
    8068:	6821      	ldr	r1, [r4, #0]
    806a:	f000 000f 	and.w	r0, r0, #15
    806e:	ea40 1101 	orr.w	r1, r0, r1, lsl #4
    8072:	6021      	str	r1, [r4, #0]
    8074:	e000      	b.n	8078 <__hexnan+0xac>
    8076:	2208      	movs	r2, #8
    8078:	f109 0901 	add.w	r9, r9, #1
    807c:	e7c0      	b.n	8000 <__hexnan+0x34>
    807e:	f1bb 0f00 	cmp.w	fp, #0
    8082:	d02d      	beq.n	80e0 <__hexnan+0x114>
    8084:	42bc      	cmp	r4, r7
    8086:	d205      	bcs.n	8094 <__hexnan+0xc8>
    8088:	2a07      	cmp	r2, #7
    808a:	dc03      	bgt.n	8094 <__hexnan+0xc8>
    808c:	4620      	mov	r0, r4
    808e:	4639      	mov	r1, r7
    8090:	f7ff ff89 	bl	7fa6 <L_shift>
    8094:	42ac      	cmp	r4, r5
    8096:	d90c      	bls.n	80b2 <__hexnan+0xe6>
    8098:	462b      	mov	r3, r5
    809a:	f854 2b04 	ldr.w	r2, [r4], #4
    809e:	f843 2b04 	str.w	r2, [r3], #4
    80a2:	4544      	cmp	r4, r8
    80a4:	d9f9      	bls.n	809a <__hexnan+0xce>
    80a6:	2200      	movs	r2, #0
    80a8:	f843 2b04 	str.w	r2, [r3], #4
    80ac:	4543      	cmp	r3, r8
    80ae:	d9fa      	bls.n	80a6 <__hexnan+0xda>
    80b0:	e00d      	b.n	80ce <__hexnan+0x102>
    80b2:	9b02      	ldr	r3, [sp, #8]
    80b4:	b15b      	cbz	r3, 80ce <__hexnan+0x102>
    80b6:	f1c3 0920 	rsb	r9, r3, #32
    80ba:	f04f 33ff 	mov.w	r3, #4294967295
    80be:	fa23 f909 	lsr.w	r9, r3, r9
    80c2:	f856 3c04 	ldr.w	r3, [r6, #-4]
    80c6:	ea03 0309 	and.w	r3, r3, r9
    80ca:	f846 3c04 	str.w	r3, [r6, #-4]
    80ce:	f856 3c04 	ldr.w	r3, [r6, #-4]
    80d2:	3e04      	subs	r6, #4
    80d4:	b933      	cbnz	r3, 80e4 <__hexnan+0x118>
    80d6:	42b5      	cmp	r5, r6
    80d8:	d1f9      	bne.n	80ce <__hexnan+0x102>
    80da:	2301      	movs	r3, #1
    80dc:	602b      	str	r3, [r5, #0]
    80de:	e001      	b.n	80e4 <__hexnan+0x118>
    80e0:	2004      	movs	r0, #4
    80e2:	e000      	b.n	80e6 <__hexnan+0x11a>
    80e4:	2005      	movs	r0, #5
    80e6:	b005      	add	sp, #20
    80e8:	e8bd 8ff0 	ldmia.w	sp!, {r4, r5, r6, r7, r8, r9, sl, fp, pc}

000080ec <_localeconv_r>:
    80ec:	4800      	ldr	r0, [pc, #0]	; (80f0 <_localeconv_r+0x4>)
    80ee:	4770      	bx	lr
    80f0:	1fff0b1c 	.word	0x1fff0b1c

000080f4 <_Balloc>:
    80f4:	b570      	push	{r4, r5, r6, lr}
    80f6:	6a45      	ldr	r5, [r0, #36]	; 0x24
    80f8:	4604      	mov	r4, r0
    80fa:	460e      	mov	r6, r1
    80fc:	b93d      	cbnz	r5, 810e <_Balloc+0x1a>
    80fe:	2010      	movs	r0, #16
    8100:	f7fe faea 	bl	66d8 <malloc>
    8104:	6260      	str	r0, [r4, #36]	; 0x24
    8106:	6045      	str	r5, [r0, #4]
    8108:	6085      	str	r5, [r0, #8]
    810a:	6005      	str	r5, [r0, #0]
    810c:	60c5      	str	r5, [r0, #12]
    810e:	6a65      	ldr	r5, [r4, #36]	; 0x24
    8110:	68eb      	ldr	r3, [r5, #12]
    8112:	b143      	cbz	r3, 8126 <_Balloc+0x32>
    8114:	6a63      	ldr	r3, [r4, #36]	; 0x24
    8116:	68da      	ldr	r2, [r3, #12]
    8118:	f852 0026 	ldr.w	r0, [r2, r6, lsl #2]
    811c:	b178      	cbz	r0, 813e <_Balloc+0x4a>
    811e:	6801      	ldr	r1, [r0, #0]
    8120:	f842 1026 	str.w	r1, [r2, r6, lsl #2]
    8124:	e017      	b.n	8156 <_Balloc+0x62>
    8126:	4620      	mov	r0, r4
    8128:	2104      	movs	r1, #4
    812a:	2221      	movs	r2, #33	; 0x21
    812c:	f000 fbdd 	bl	88ea <_calloc_r>
    8130:	6a63      	ldr	r3, [r4, #36]	; 0x24
    8132:	60e8      	str	r0, [r5, #12]
    8134:	68db      	ldr	r3, [r3, #12]
    8136:	2b00      	cmp	r3, #0
    8138:	d1ec      	bne.n	8114 <_Balloc+0x20>
    813a:	2000      	movs	r0, #0
    813c:	bd70      	pop	{r4, r5, r6, pc}
    813e:	2101      	movs	r1, #1
    8140:	fa01 f506 	lsl.w	r5, r1, r6
    8144:	1d6a      	adds	r2, r5, #5
    8146:	4620      	mov	r0, r4
    8148:	0092      	lsls	r2, r2, #2
    814a:	f000 fbce 	bl	88ea <_calloc_r>
    814e:	2800      	cmp	r0, #0
    8150:	d0f3      	beq.n	813a <_Balloc+0x46>
    8152:	6046      	str	r6, [r0, #4]
    8154:	6085      	str	r5, [r0, #8]
    8156:	2200      	movs	r2, #0
    8158:	6102      	str	r2, [r0, #16]
    815a:	60c2      	str	r2, [r0, #12]
    815c:	bd70      	pop	{r4, r5, r6, pc}

0000815e <_Bfree>:
    815e:	b570      	push	{r4, r5, r6, lr}
    8160:	6a44      	ldr	r4, [r0, #36]	; 0x24
    8162:	4606      	mov	r6, r0
    8164:	460d      	mov	r5, r1
    8166:	b93c      	cbnz	r4, 8178 <_Bfree+0x1a>
    8168:	2010      	movs	r0, #16
    816a:	f7fe fab5 	bl	66d8 <malloc>
    816e:	6270      	str	r0, [r6, #36]	; 0x24
    8170:	6044      	str	r4, [r0, #4]
    8172:	6084      	str	r4, [r0, #8]
    8174:	6004      	str	r4, [r0, #0]
    8176:	60c4      	str	r4, [r0, #12]
    8178:	b13d      	cbz	r5, 818a <_Bfree+0x2c>
    817a:	6a73      	ldr	r3, [r6, #36]	; 0x24
    817c:	686a      	ldr	r2, [r5, #4]
    817e:	68db      	ldr	r3, [r3, #12]
    8180:	f853 1022 	ldr.w	r1, [r3, r2, lsl #2]
    8184:	6029      	str	r1, [r5, #0]
    8186:	f843 5022 	str.w	r5, [r3, r2, lsl #2]
    818a:	bd70      	pop	{r4, r5, r6, pc}

0000818c <__multadd>:
    818c:	e92d 41f0 	stmdb	sp!, {r4, r5, r6, r7, r8, lr}
    8190:	460c      	mov	r4, r1
    8192:	461e      	mov	r6, r3
    8194:	690d      	ldr	r5, [r1, #16]
    8196:	4607      	mov	r7, r0
    8198:	3114      	adds	r1, #20
    819a:	2300      	movs	r3, #0
    819c:	6808      	ldr	r0, [r1, #0]
    819e:	fa1f fc80 	uxth.w	ip, r0
    81a2:	0c00      	lsrs	r0, r0, #16
    81a4:	fb02 6c0c 	mla	ip, r2, ip, r6
    81a8:	4350      	muls	r0, r2
    81aa:	eb00 401c 	add.w	r0, r0, ip, lsr #16
    81ae:	3301      	adds	r3, #1
    81b0:	fa1f fc8c 	uxth.w	ip, ip
    81b4:	0c06      	lsrs	r6, r0, #16
    81b6:	42ab      	cmp	r3, r5
    81b8:	eb0c 4000 	add.w	r0, ip, r0, lsl #16
    81bc:	f841 0b04 	str.w	r0, [r1], #4
    81c0:	dbec      	blt.n	819c <__multadd+0x10>
    81c2:	b1d6      	cbz	r6, 81fa <__multadd+0x6e>
    81c4:	68a3      	ldr	r3, [r4, #8]
    81c6:	429d      	cmp	r5, r3
    81c8:	db12      	blt.n	81f0 <__multadd+0x64>
    81ca:	6861      	ldr	r1, [r4, #4]
    81cc:	4638      	mov	r0, r7
    81ce:	3101      	adds	r1, #1
    81d0:	f7ff ff90 	bl	80f4 <_Balloc>
    81d4:	6922      	ldr	r2, [r4, #16]
    81d6:	3202      	adds	r2, #2
    81d8:	f104 010c 	add.w	r1, r4, #12
    81dc:	4680      	mov	r8, r0
    81de:	0092      	lsls	r2, r2, #2
    81e0:	300c      	adds	r0, #12
    81e2:	f7fe fa89 	bl	66f8 <memcpy>
    81e6:	4621      	mov	r1, r4
    81e8:	4638      	mov	r0, r7
    81ea:	f7ff ffb8 	bl	815e <_Bfree>
    81ee:	4644      	mov	r4, r8
    81f0:	eb04 0385 	add.w	r3, r4, r5, lsl #2
    81f4:	3501      	adds	r5, #1
    81f6:	615e      	str	r6, [r3, #20]
    81f8:	6125      	str	r5, [r4, #16]
    81fa:	4620      	mov	r0, r4
    81fc:	e8bd 81f0 	ldmia.w	sp!, {r4, r5, r6, r7, r8, pc}

00008200 <__s2b>:
    8200:	e92d 43f8 	stmdb	sp!, {r3, r4, r5, r6, r7, r8, r9, lr}
    8204:	4614      	mov	r4, r2
    8206:	4698      	mov	r8, r3
    8208:	f103 0208 	add.w	r2, r3, #8
    820c:	2309      	movs	r3, #9
    820e:	460d      	mov	r5, r1
    8210:	fb92 f2f3 	sdiv	r2, r2, r3
    8214:	4606      	mov	r6, r0
    8216:	2301      	movs	r3, #1
    8218:	2100      	movs	r1, #0
    821a:	429a      	cmp	r2, r3
    821c:	dd02      	ble.n	8224 <__s2b+0x24>
    821e:	005b      	lsls	r3, r3, #1
    8220:	3101      	adds	r1, #1
    8222:	e7fa      	b.n	821a <__s2b+0x1a>
    8224:	4630      	mov	r0, r6
    8226:	f7ff ff65 	bl	80f4 <_Balloc>
    822a:	9b08      	ldr	r3, [sp, #32]
    822c:	6143      	str	r3, [r0, #20]
    822e:	2c09      	cmp	r4, #9
    8230:	f04f 0301 	mov.w	r3, #1
    8234:	4601      	mov	r1, r0
    8236:	6103      	str	r3, [r0, #16]
    8238:	dd11      	ble.n	825e <__s2b+0x5e>
    823a:	f105 0909 	add.w	r9, r5, #9
    823e:	464f      	mov	r7, r9
    8240:	4425      	add	r5, r4
    8242:	f817 3b01 	ldrb.w	r3, [r7], #1
    8246:	4630      	mov	r0, r6
    8248:	220a      	movs	r2, #10
    824a:	3b30      	subs	r3, #48	; 0x30
    824c:	f7ff ff9e 	bl	818c <__multadd>
    8250:	42af      	cmp	r7, r5
    8252:	4601      	mov	r1, r0
    8254:	d1f5      	bne.n	8242 <__s2b+0x42>
    8256:	eb09 0704 	add.w	r7, r9, r4
    825a:	3f08      	subs	r7, #8
    825c:	e002      	b.n	8264 <__s2b+0x64>
    825e:	f105 070a 	add.w	r7, r5, #10
    8262:	2409      	movs	r4, #9
    8264:	4625      	mov	r5, r4
    8266:	4545      	cmp	r5, r8
    8268:	da09      	bge.n	827e <__s2b+0x7e>
    826a:	1b3b      	subs	r3, r7, r4
    826c:	4630      	mov	r0, r6
    826e:	5d5b      	ldrb	r3, [r3, r5]
    8270:	220a      	movs	r2, #10
    8272:	3b30      	subs	r3, #48	; 0x30
    8274:	f7ff ff8a 	bl	818c <__multadd>
    8278:	3501      	adds	r5, #1
    827a:	4601      	mov	r1, r0
    827c:	e7f3      	b.n	8266 <__s2b+0x66>
    827e:	4608      	mov	r0, r1
    8280:	e8bd 83f8 	ldmia.w	sp!, {r3, r4, r5, r6, r7, r8, r9, pc}

00008284 <__hi0bits>:
    8284:	0c03      	lsrs	r3, r0, #16
    8286:	041b      	lsls	r3, r3, #16
    8288:	b913      	cbnz	r3, 8290 <__hi0bits+0xc>
    828a:	0400      	lsls	r0, r0, #16
    828c:	2310      	movs	r3, #16
    828e:	e000      	b.n	8292 <__hi0bits+0xe>
    8290:	2300      	movs	r3, #0
    8292:	f010 4f7f 	tst.w	r0, #4278190080	; 0xff000000
    8296:	bf04      	itt	eq
    8298:	0200      	lsleq	r0, r0, #8
    829a:	3308      	addeq	r3, #8
    829c:	f010 4f70 	tst.w	r0, #4026531840	; 0xf0000000
    82a0:	bf04      	itt	eq
    82a2:	0100      	lsleq	r0, r0, #4
    82a4:	3304      	addeq	r3, #4
    82a6:	f010 4f40 	tst.w	r0, #3221225472	; 0xc0000000
    82aa:	bf04      	itt	eq
    82ac:	0080      	lsleq	r0, r0, #2
    82ae:	3302      	addeq	r3, #2
    82b0:	2800      	cmp	r0, #0
    82b2:	db03      	blt.n	82bc <__hi0bits+0x38>
    82b4:	0042      	lsls	r2, r0, #1
    82b6:	d503      	bpl.n	82c0 <__hi0bits+0x3c>
    82b8:	1c58      	adds	r0, r3, #1
    82ba:	4770      	bx	lr
    82bc:	4618      	mov	r0, r3
    82be:	4770      	bx	lr
    82c0:	2020      	movs	r0, #32
    82c2:	4770      	bx	lr

000082c4 <__lo0bits>:
    82c4:	6803      	ldr	r3, [r0, #0]
    82c6:	f013 0207 	ands.w	r2, r3, #7
    82ca:	d00b      	beq.n	82e4 <__lo0bits+0x20>
    82cc:	07d9      	lsls	r1, r3, #31
    82ce:	d422      	bmi.n	8316 <__lo0bits+0x52>
    82d0:	079a      	lsls	r2, r3, #30
    82d2:	d503      	bpl.n	82dc <__lo0bits+0x18>
    82d4:	085b      	lsrs	r3, r3, #1
    82d6:	6003      	str	r3, [r0, #0]
    82d8:	2001      	movs	r0, #1
    82da:	4770      	bx	lr
    82dc:	089b      	lsrs	r3, r3, #2
    82de:	6003      	str	r3, [r0, #0]
    82e0:	2002      	movs	r0, #2
    82e2:	4770      	bx	lr
    82e4:	b299      	uxth	r1, r3
    82e6:	b909      	cbnz	r1, 82ec <__lo0bits+0x28>
    82e8:	0c1b      	lsrs	r3, r3, #16
    82ea:	2210      	movs	r2, #16
    82ec:	f013 0fff 	tst.w	r3, #255	; 0xff
    82f0:	bf04      	itt	eq
    82f2:	0a1b      	lsreq	r3, r3, #8
    82f4:	3208      	addeq	r2, #8
    82f6:	0719      	lsls	r1, r3, #28
    82f8:	bf04      	itt	eq
    82fa:	091b      	lsreq	r3, r3, #4
    82fc:	3204      	addeq	r2, #4
    82fe:	0799      	lsls	r1, r3, #30
    8300:	bf04      	itt	eq
    8302:	089b      	lsreq	r3, r3, #2
    8304:	3202      	addeq	r2, #2
    8306:	07d9      	lsls	r1, r3, #31
    8308:	d402      	bmi.n	8310 <__lo0bits+0x4c>
    830a:	085b      	lsrs	r3, r3, #1
    830c:	d005      	beq.n	831a <__lo0bits+0x56>
    830e:	3201      	adds	r2, #1
    8310:	6003      	str	r3, [r0, #0]
    8312:	4610      	mov	r0, r2
    8314:	4770      	bx	lr
    8316:	2000      	movs	r0, #0
    8318:	4770      	bx	lr
    831a:	2020      	movs	r0, #32
    831c:	4770      	bx	lr

0000831e <__i2b>:
    831e:	b510      	push	{r4, lr}
    8320:	460c      	mov	r4, r1
    8322:	2101      	movs	r1, #1
    8324:	f7ff fee6 	bl	80f4 <_Balloc>
    8328:	2201      	movs	r2, #1
    832a:	6144      	str	r4, [r0, #20]
    832c:	6102      	str	r2, [r0, #16]
    832e:	bd10      	pop	{r4, pc}

00008330 <__multiply>:
    8330:	e92d 4ff0 	stmdb	sp!, {r4, r5, r6, r7, r8, r9, sl, fp, lr}
    8334:	4616      	mov	r6, r2
    8336:	690a      	ldr	r2, [r1, #16]
    8338:	6933      	ldr	r3, [r6, #16]
    833a:	429a      	cmp	r2, r3
    833c:	b085      	sub	sp, #20
    833e:	460d      	mov	r5, r1
    8340:	da01      	bge.n	8346 <__multiply+0x16>
    8342:	4635      	mov	r5, r6
    8344:	460e      	mov	r6, r1
    8346:	f8d5 8010 	ldr.w	r8, [r5, #16]
    834a:	6937      	ldr	r7, [r6, #16]
    834c:	68ab      	ldr	r3, [r5, #8]
    834e:	6869      	ldr	r1, [r5, #4]
    8350:	eb08 0407 	add.w	r4, r8, r7
    8354:	429c      	cmp	r4, r3
    8356:	bfc8      	it	gt
    8358:	3101      	addgt	r1, #1
    835a:	f7ff fecb 	bl	80f4 <_Balloc>
    835e:	f100 0314 	add.w	r3, r0, #20
    8362:	eb03 0184 	add.w	r1, r3, r4, lsl #2
    8366:	9101      	str	r1, [sp, #4]
    8368:	461a      	mov	r2, r3
    836a:	f8dd a004 	ldr.w	sl, [sp, #4]
    836e:	4552      	cmp	r2, sl
    8370:	d203      	bcs.n	837a <__multiply+0x4a>
    8372:	2100      	movs	r1, #0
    8374:	f842 1b04 	str.w	r1, [r2], #4
    8378:	e7f7      	b.n	836a <__multiply+0x3a>
    837a:	f105 0114 	add.w	r1, r5, #20
    837e:	f106 0214 	add.w	r2, r6, #20
    8382:	eb01 0888 	add.w	r8, r1, r8, lsl #2
    8386:	eb02 0787 	add.w	r7, r2, r7, lsl #2
    838a:	f8cd 8008 	str.w	r8, [sp, #8]
    838e:	9703      	str	r7, [sp, #12]
    8390:	9e03      	ldr	r6, [sp, #12]
    8392:	42b2      	cmp	r2, r6
    8394:	4615      	mov	r5, r2
    8396:	d256      	bcs.n	8446 <__multiply+0x116>
    8398:	f8b5 c000 	ldrh.w	ip, [r5]
    839c:	3204      	adds	r2, #4
    839e:	f1bc 0f00 	cmp.w	ip, #0
    83a2:	d025      	beq.n	83f0 <__multiply+0xc0>
    83a4:	460f      	mov	r7, r1
    83a6:	461d      	mov	r5, r3
    83a8:	2600      	movs	r6, #0
    83aa:	f857 9b04 	ldr.w	r9, [r7], #4
    83ae:	f8d5 8000 	ldr.w	r8, [r5]
    83b2:	fa1f fb89 	uxth.w	fp, r9
    83b6:	fa1f fa88 	uxth.w	sl, r8
    83ba:	fb0c aa0b 	mla	sl, ip, fp, sl
    83be:	ea4f 4919 	mov.w	r9, r9, lsr #16
    83c2:	ea4f 4818 	mov.w	r8, r8, lsr #16
    83c6:	44b2      	add	sl, r6
    83c8:	fb0c 8809 	mla	r8, ip, r9, r8
    83cc:	eb08 481a 	add.w	r8, r8, sl, lsr #16
    83d0:	fa1f fa8a 	uxth.w	sl, sl
    83d4:	ea4a 4a08 	orr.w	sl, sl, r8, lsl #16
    83d8:	ea4f 4618 	mov.w	r6, r8, lsr #16
    83dc:	f8dd 8008 	ldr.w	r8, [sp, #8]
    83e0:	46ab      	mov	fp, r5
    83e2:	45b8      	cmp	r8, r7
    83e4:	f84b ab04 	str.w	sl, [fp], #4
    83e8:	d901      	bls.n	83ee <__multiply+0xbe>
    83ea:	465d      	mov	r5, fp
    83ec:	e7dd      	b.n	83aa <__multiply+0x7a>
    83ee:	606e      	str	r6, [r5, #4]
    83f0:	f832 8c02 	ldrh.w	r8, [r2, #-2]
    83f4:	f1b8 0f00 	cmp.w	r8, #0
    83f8:	d023      	beq.n	8442 <__multiply+0x112>
    83fa:	681e      	ldr	r6, [r3, #0]
    83fc:	460f      	mov	r7, r1
    83fe:	461d      	mov	r5, r3
    8400:	f04f 0900 	mov.w	r9, #0
    8404:	f8b7 a000 	ldrh.w	sl, [r7]
    8408:	f8b5 c002 	ldrh.w	ip, [r5, #2]
    840c:	fb08 cc0a 	mla	ip, r8, sl, ip
    8410:	44e1      	add	r9, ip
    8412:	b2b6      	uxth	r6, r6
    8414:	46ac      	mov	ip, r5
    8416:	ea46 4609 	orr.w	r6, r6, r9, lsl #16
    841a:	f84c 6b04 	str.w	r6, [ip], #4
    841e:	f857 6b04 	ldr.w	r6, [r7], #4
    8422:	f8b5 a004 	ldrh.w	sl, [r5, #4]
    8426:	0c36      	lsrs	r6, r6, #16
    8428:	fb08 a606 	mla	r6, r8, r6, sl
    842c:	f8dd a008 	ldr.w	sl, [sp, #8]
    8430:	eb06 4619 	add.w	r6, r6, r9, lsr #16
    8434:	4557      	cmp	r7, sl
    8436:	ea4f 4916 	mov.w	r9, r6, lsr #16
    843a:	d201      	bcs.n	8440 <__multiply+0x110>
    843c:	4665      	mov	r5, ip
    843e:	e7e1      	b.n	8404 <__multiply+0xd4>
    8440:	606e      	str	r6, [r5, #4]
    8442:	3304      	adds	r3, #4
    8444:	e7a4      	b.n	8390 <__multiply+0x60>
    8446:	9b01      	ldr	r3, [sp, #4]
    8448:	2c00      	cmp	r4, #0
    844a:	dc03      	bgt.n	8454 <__multiply+0x124>
    844c:	6104      	str	r4, [r0, #16]
    844e:	b005      	add	sp, #20
    8450:	e8bd 8ff0 	ldmia.w	sp!, {r4, r5, r6, r7, r8, r9, sl, fp, pc}
    8454:	f853 2d04 	ldr.w	r2, [r3, #-4]!
    8458:	2a00      	cmp	r2, #0
    845a:	d1f7      	bne.n	844c <__multiply+0x11c>
    845c:	3c01      	subs	r4, #1
    845e:	e7f3      	b.n	8448 <__multiply+0x118>

00008460 <__pow5mult>:
    8460:	f012 0303 	ands.w	r3, r2, #3
    8464:	e92d 41f0 	stmdb	sp!, {r4, r5, r6, r7, r8, lr}
    8468:	4605      	mov	r5, r0
    846a:	460e      	mov	r6, r1
    846c:	4617      	mov	r7, r2
    846e:	d007      	beq.n	8480 <__pow5mult+0x20>
    8470:	3b01      	subs	r3, #1
    8472:	4a21      	ldr	r2, [pc, #132]	; (84f8 <__pow5mult+0x98>)
    8474:	f852 2023 	ldr.w	r2, [r2, r3, lsl #2]
    8478:	2300      	movs	r3, #0
    847a:	f7ff fe87 	bl	818c <__multadd>
    847e:	4606      	mov	r6, r0
    8480:	10bf      	asrs	r7, r7, #2
    8482:	d035      	beq.n	84f0 <__pow5mult+0x90>
    8484:	6a6c      	ldr	r4, [r5, #36]	; 0x24
    8486:	b93c      	cbnz	r4, 8498 <__pow5mult+0x38>
    8488:	2010      	movs	r0, #16
    848a:	f7fe f925 	bl	66d8 <malloc>
    848e:	6268      	str	r0, [r5, #36]	; 0x24
    8490:	6044      	str	r4, [r0, #4]
    8492:	6084      	str	r4, [r0, #8]
    8494:	6004      	str	r4, [r0, #0]
    8496:	60c4      	str	r4, [r0, #12]
    8498:	f8d5 8024 	ldr.w	r8, [r5, #36]	; 0x24
    849c:	f8d8 4008 	ldr.w	r4, [r8, #8]
    84a0:	b97c      	cbnz	r4, 84c2 <__pow5mult+0x62>
    84a2:	4628      	mov	r0, r5
    84a4:	f240 2171 	movw	r1, #625	; 0x271
    84a8:	f7ff ff39 	bl	831e <__i2b>
    84ac:	2300      	movs	r3, #0
    84ae:	f8c8 0008 	str.w	r0, [r8, #8]
    84b2:	4604      	mov	r4, r0
    84b4:	6003      	str	r3, [r0, #0]
    84b6:	e004      	b.n	84c2 <__pow5mult+0x62>
    84b8:	107f      	asrs	r7, r7, #1
    84ba:	d019      	beq.n	84f0 <__pow5mult+0x90>
    84bc:	6820      	ldr	r0, [r4, #0]
    84be:	b170      	cbz	r0, 84de <__pow5mult+0x7e>
    84c0:	4604      	mov	r4, r0
    84c2:	07fb      	lsls	r3, r7, #31
    84c4:	d5f8      	bpl.n	84b8 <__pow5mult+0x58>
    84c6:	4631      	mov	r1, r6
    84c8:	4622      	mov	r2, r4
    84ca:	4628      	mov	r0, r5
    84cc:	f7ff ff30 	bl	8330 <__multiply>
    84d0:	4631      	mov	r1, r6
    84d2:	4680      	mov	r8, r0
    84d4:	4628      	mov	r0, r5
    84d6:	f7ff fe42 	bl	815e <_Bfree>
    84da:	4646      	mov	r6, r8
    84dc:	e7ec      	b.n	84b8 <__pow5mult+0x58>
    84de:	4628      	mov	r0, r5
    84e0:	4621      	mov	r1, r4
    84e2:	4622      	mov	r2, r4
    84e4:	f7ff ff24 	bl	8330 <__multiply>
    84e8:	2300      	movs	r3, #0
    84ea:	6020      	str	r0, [r4, #0]
    84ec:	6003      	str	r3, [r0, #0]
    84ee:	e7e7      	b.n	84c0 <__pow5mult+0x60>
    84f0:	4630      	mov	r0, r6
    84f2:	e8bd 81f0 	ldmia.w	sp!, {r4, r5, r6, r7, r8, pc}
    84f6:	bf00      	nop
    84f8:	0000a698 	.word	0x0000a698

000084fc <__lshift>:
    84fc:	e92d 47f0 	stmdb	sp!, {r4, r5, r6, r7, r8, r9, sl, lr}
    8500:	460c      	mov	r4, r1
    8502:	ea4f 1a62 	mov.w	sl, r2, asr #5
    8506:	6923      	ldr	r3, [r4, #16]
    8508:	6849      	ldr	r1, [r1, #4]
    850a:	eb0a 0903 	add.w	r9, sl, r3
    850e:	68a3      	ldr	r3, [r4, #8]
    8510:	4680      	mov	r8, r0
    8512:	4615      	mov	r5, r2
    8514:	f109 0701 	add.w	r7, r9, #1
    8518:	429f      	cmp	r7, r3
    851a:	dd02      	ble.n	8522 <__lshift+0x26>
    851c:	3101      	adds	r1, #1
    851e:	005b      	lsls	r3, r3, #1
    8520:	e7fa      	b.n	8518 <__lshift+0x1c>
    8522:	4640      	mov	r0, r8
    8524:	f7ff fde6 	bl	80f4 <_Balloc>
    8528:	2300      	movs	r3, #0
    852a:	4606      	mov	r6, r0
    852c:	f100 0214 	add.w	r2, r0, #20
    8530:	4553      	cmp	r3, sl
    8532:	da04      	bge.n	853e <__lshift+0x42>
    8534:	2100      	movs	r1, #0
    8536:	f842 1023 	str.w	r1, [r2, r3, lsl #2]
    853a:	3301      	adds	r3, #1
    853c:	e7f8      	b.n	8530 <__lshift+0x34>
    853e:	6920      	ldr	r0, [r4, #16]
    8540:	ea2a 71ea 	bic.w	r1, sl, sl, asr #31
    8544:	f104 0314 	add.w	r3, r4, #20
    8548:	f015 0c1f 	ands.w	ip, r5, #31
    854c:	eb02 0181 	add.w	r1, r2, r1, lsl #2
    8550:	eb03 0e80 	add.w	lr, r3, r0, lsl #2
    8554:	d016      	beq.n	8584 <__lshift+0x88>
    8556:	f1cc 0a20 	rsb	sl, ip, #32
    855a:	2500      	movs	r5, #0
    855c:	6818      	ldr	r0, [r3, #0]
    855e:	460a      	mov	r2, r1
    8560:	fa00 f00c 	lsl.w	r0, r0, ip
    8564:	4305      	orrs	r5, r0
    8566:	f842 5b04 	str.w	r5, [r2], #4
    856a:	f853 5b04 	ldr.w	r5, [r3], #4
    856e:	4573      	cmp	r3, lr
    8570:	fa25 f50a 	lsr.w	r5, r5, sl
    8574:	d201      	bcs.n	857a <__lshift+0x7e>
    8576:	4611      	mov	r1, r2
    8578:	e7f0      	b.n	855c <__lshift+0x60>
    857a:	604d      	str	r5, [r1, #4]
    857c:	b145      	cbz	r5, 8590 <__lshift+0x94>
    857e:	f109 0702 	add.w	r7, r9, #2
    8582:	e005      	b.n	8590 <__lshift+0x94>
    8584:	f853 2b04 	ldr.w	r2, [r3], #4
    8588:	f841 2b04 	str.w	r2, [r1], #4
    858c:	4573      	cmp	r3, lr
    858e:	d3f9      	bcc.n	8584 <__lshift+0x88>
    8590:	3f01      	subs	r7, #1
    8592:	4640      	mov	r0, r8
    8594:	6137      	str	r7, [r6, #16]
    8596:	4621      	mov	r1, r4
    8598:	f7ff fde1 	bl	815e <_Bfree>
    859c:	4630      	mov	r0, r6
    859e:	e8bd 87f0 	ldmia.w	sp!, {r4, r5, r6, r7, r8, r9, sl, pc}

000085a2 <__mcmp>:
    85a2:	6902      	ldr	r2, [r0, #16]
    85a4:	690b      	ldr	r3, [r1, #16]
    85a6:	1ad2      	subs	r2, r2, r3
    85a8:	b510      	push	{r4, lr}
    85aa:	d113      	bne.n	85d4 <__mcmp+0x32>
    85ac:	009c      	lsls	r4, r3, #2
    85ae:	3014      	adds	r0, #20
    85b0:	f101 0214 	add.w	r2, r1, #20
    85b4:	1903      	adds	r3, r0, r4
    85b6:	4422      	add	r2, r4
    85b8:	f853 4d04 	ldr.w	r4, [r3, #-4]!
    85bc:	f852 1d04 	ldr.w	r1, [r2, #-4]!
    85c0:	428c      	cmp	r4, r1
    85c2:	d003      	beq.n	85cc <__mcmp+0x2a>
    85c4:	d208      	bcs.n	85d8 <__mcmp+0x36>
    85c6:	f04f 30ff 	mov.w	r0, #4294967295
    85ca:	bd10      	pop	{r4, pc}
    85cc:	4298      	cmp	r0, r3
    85ce:	d3f3      	bcc.n	85b8 <__mcmp+0x16>
    85d0:	2000      	movs	r0, #0
    85d2:	bd10      	pop	{r4, pc}
    85d4:	4610      	mov	r0, r2
    85d6:	bd10      	pop	{r4, pc}
    85d8:	2001      	movs	r0, #1
    85da:	bd10      	pop	{r4, pc}

000085dc <__mdiff>:
    85dc:	e92d 47f0 	stmdb	sp!, {r4, r5, r6, r7, r8, r9, sl, lr}
    85e0:	4606      	mov	r6, r0
    85e2:	460c      	mov	r4, r1
    85e4:	4608      	mov	r0, r1
    85e6:	4611      	mov	r1, r2
    85e8:	4615      	mov	r5, r2
    85ea:	f7ff ffda 	bl	85a2 <__mcmp>
    85ee:	1e07      	subs	r7, r0, #0
    85f0:	d108      	bne.n	8604 <__mdiff+0x28>
    85f2:	4630      	mov	r0, r6
    85f4:	4639      	mov	r1, r7
    85f6:	f7ff fd7d 	bl	80f4 <_Balloc>
    85fa:	2301      	movs	r3, #1
    85fc:	6103      	str	r3, [r0, #16]
    85fe:	6147      	str	r7, [r0, #20]
    8600:	e8bd 87f0 	ldmia.w	sp!, {r4, r5, r6, r7, r8, r9, sl, pc}
    8604:	db01      	blt.n	860a <__mdiff+0x2e>
    8606:	2700      	movs	r7, #0
    8608:	e003      	b.n	8612 <__mdiff+0x36>
    860a:	4623      	mov	r3, r4
    860c:	2701      	movs	r7, #1
    860e:	462c      	mov	r4, r5
    8610:	461d      	mov	r5, r3
    8612:	6861      	ldr	r1, [r4, #4]
    8614:	4630      	mov	r0, r6
    8616:	f7ff fd6d 	bl	80f4 <_Balloc>
    861a:	6922      	ldr	r2, [r4, #16]
    861c:	692b      	ldr	r3, [r5, #16]
    861e:	60c7      	str	r7, [r0, #12]
    8620:	3414      	adds	r4, #20
    8622:	f105 0614 	add.w	r6, r5, #20
    8626:	eb06 0a83 	add.w	sl, r6, r3, lsl #2
    862a:	eb04 0c82 	add.w	ip, r4, r2, lsl #2
    862e:	f100 0314 	add.w	r3, r0, #20
    8632:	2100      	movs	r1, #0
    8634:	f854 7b04 	ldr.w	r7, [r4], #4
    8638:	f856 9b04 	ldr.w	r9, [r6], #4
    863c:	fa11 f187 	uxtah	r1, r1, r7
    8640:	fa1f f589 	uxth.w	r5, r9
    8644:	ea4f 4919 	mov.w	r9, r9, lsr #16
    8648:	ebc5 0801 	rsb	r8, r5, r1
    864c:	ebc9 4717 	rsb	r7, r9, r7, lsr #16
    8650:	eb07 4728 	add.w	r7, r7, r8, asr #16
    8654:	fa1f f888 	uxth.w	r8, r8
    8658:	1439      	asrs	r1, r7, #16
    865a:	45b2      	cmp	sl, r6
    865c:	ea48 4707 	orr.w	r7, r8, r7, lsl #16
    8660:	4625      	mov	r5, r4
    8662:	f843 7b04 	str.w	r7, [r3], #4
    8666:	d8e5      	bhi.n	8634 <__mdiff+0x58>
    8668:	4565      	cmp	r5, ip
    866a:	d20d      	bcs.n	8688 <__mdiff+0xac>
    866c:	f855 4b04 	ldr.w	r4, [r5], #4
    8670:	fa11 f684 	uxtah	r6, r1, r4
    8674:	0c24      	lsrs	r4, r4, #16
    8676:	eb04 4426 	add.w	r4, r4, r6, asr #16
    867a:	b2b6      	uxth	r6, r6
    867c:	1421      	asrs	r1, r4, #16
    867e:	ea46 4404 	orr.w	r4, r6, r4, lsl #16
    8682:	f843 4b04 	str.w	r4, [r3], #4
    8686:	e7ef      	b.n	8668 <__mdiff+0x8c>
    8688:	f853 1d04 	ldr.w	r1, [r3, #-4]!
    868c:	b909      	cbnz	r1, 8692 <__mdiff+0xb6>
    868e:	3a01      	subs	r2, #1
    8690:	e7fa      	b.n	8688 <__mdiff+0xac>
    8692:	6102      	str	r2, [r0, #16]
    8694:	e8bd 87f0 	ldmia.w	sp!, {r4, r5, r6, r7, r8, r9, sl, pc}

00008698 <__ulp>:
    8698:	4b0f      	ldr	r3, [pc, #60]	; (86d8 <__ulp+0x40>)
    869a:	400b      	ands	r3, r1
    869c:	f1a3 7350 	sub.w	r3, r3, #54525952	; 0x3400000
    86a0:	2b00      	cmp	r3, #0
    86a2:	dd01      	ble.n	86a8 <__ulp+0x10>
    86a4:	4619      	mov	r1, r3
    86a6:	e009      	b.n	86bc <__ulp+0x24>
    86a8:	425b      	negs	r3, r3
    86aa:	151b      	asrs	r3, r3, #20
    86ac:	2b13      	cmp	r3, #19
    86ae:	f04f 0100 	mov.w	r1, #0
    86b2:	dc05      	bgt.n	86c0 <__ulp+0x28>
    86b4:	f44f 2200 	mov.w	r2, #524288	; 0x80000
    86b8:	fa42 f103 	asr.w	r1, r2, r3
    86bc:	2000      	movs	r0, #0
    86be:	4770      	bx	lr
    86c0:	2b32      	cmp	r3, #50	; 0x32
    86c2:	f04f 0201 	mov.w	r2, #1
    86c6:	bfda      	itte	le
    86c8:	f1c3 0333 	rsble	r3, r3, #51	; 0x33
    86cc:	fa02 f303 	lslle.w	r3, r2, r3
    86d0:	4613      	movgt	r3, r2
    86d2:	4618      	mov	r0, r3
    86d4:	4770      	bx	lr
    86d6:	bf00      	nop
    86d8:	7ff00000 	.word	0x7ff00000

000086dc <__b2d>:
    86dc:	e92d 41f0 	stmdb	sp!, {r4, r5, r6, r7, r8, lr}
    86e0:	6906      	ldr	r6, [r0, #16]
    86e2:	f100 0714 	add.w	r7, r0, #20
    86e6:	eb07 0686 	add.w	r6, r7, r6, lsl #2
    86ea:	4688      	mov	r8, r1
    86ec:	f856 4c04 	ldr.w	r4, [r6, #-4]
    86f0:	4620      	mov	r0, r4
    86f2:	f7ff fdc7 	bl	8284 <__hi0bits>
    86f6:	f1c0 0320 	rsb	r3, r0, #32
    86fa:	280a      	cmp	r0, #10
    86fc:	f1a6 0504 	sub.w	r5, r6, #4
    8700:	f8c8 3000 	str.w	r3, [r8]
    8704:	dc14      	bgt.n	8730 <__b2d+0x54>
    8706:	42bd      	cmp	r5, r7
    8708:	f1c0 010b 	rsb	r1, r0, #11
    870c:	bf88      	it	hi
    870e:	f856 5c08 	ldrhi.w	r5, [r6, #-8]
    8712:	fa24 fc01 	lsr.w	ip, r4, r1
    8716:	bf98      	it	ls
    8718:	2500      	movls	r5, #0
    871a:	3015      	adds	r0, #21
    871c:	f04c 537f 	orr.w	r3, ip, #1069547520	; 0x3fc00000
    8720:	fa25 f101 	lsr.w	r1, r5, r1
    8724:	4084      	lsls	r4, r0
    8726:	f443 1340 	orr.w	r3, r3, #3145728	; 0x300000
    872a:	ea41 0204 	orr.w	r2, r1, r4
    872e:	e024      	b.n	877a <__b2d+0x9e>
    8730:	42bd      	cmp	r5, r7
    8732:	bf86      	itte	hi
    8734:	f1a6 0508 	subhi.w	r5, r6, #8
    8738:	f856 1c08 	ldrhi.w	r1, [r6, #-8]
    873c:	2100      	movls	r1, #0
    873e:	f1b0 060b 	subs.w	r6, r0, #11
    8742:	d015      	beq.n	8770 <__b2d+0x94>
    8744:	40b4      	lsls	r4, r6
    8746:	f1c0 002b 	rsb	r0, r0, #43	; 0x2b
    874a:	f044 547f 	orr.w	r4, r4, #1069547520	; 0x3fc00000
    874e:	f444 1440 	orr.w	r4, r4, #3145728	; 0x300000
    8752:	fa21 fc00 	lsr.w	ip, r1, r0
    8756:	42bd      	cmp	r5, r7
    8758:	ea44 030c 	orr.w	r3, r4, ip
    875c:	bf8c      	ite	hi
    875e:	f855 4c04 	ldrhi.w	r4, [r5, #-4]
    8762:	2400      	movls	r4, #0
    8764:	fa24 f000 	lsr.w	r0, r4, r0
    8768:	40b1      	lsls	r1, r6
    876a:	ea40 0201 	orr.w	r2, r0, r1
    876e:	e004      	b.n	877a <__b2d+0x9e>
    8770:	f044 537f 	orr.w	r3, r4, #1069547520	; 0x3fc00000
    8774:	f443 1340 	orr.w	r3, r3, #3145728	; 0x300000
    8778:	460a      	mov	r2, r1
    877a:	4610      	mov	r0, r2
    877c:	4619      	mov	r1, r3
    877e:	e8bd 81f0 	ldmia.w	sp!, {r4, r5, r6, r7, r8, pc}

00008782 <__d2b>:
    8782:	e92d 43f7 	stmdb	sp!, {r0, r1, r2, r4, r5, r6, r7, r8, r9, lr}
    8786:	2101      	movs	r1, #1
    8788:	461d      	mov	r5, r3
    878a:	f8dd 9028 	ldr.w	r9, [sp, #40]	; 0x28
    878e:	f8dd 802c 	ldr.w	r8, [sp, #44]	; 0x2c
    8792:	4614      	mov	r4, r2
    8794:	f7ff fcae 	bl	80f4 <_Balloc>
    8798:	f3c5 570a 	ubfx	r7, r5, #20, #11
    879c:	4606      	mov	r6, r0
    879e:	f3c5 0313 	ubfx	r3, r5, #0, #20
    87a2:	b10f      	cbz	r7, 87a8 <__d2b+0x26>
    87a4:	f443 1380 	orr.w	r3, r3, #1048576	; 0x100000
    87a8:	9301      	str	r3, [sp, #4]
    87aa:	b1d4      	cbz	r4, 87e2 <__d2b+0x60>
    87ac:	a802      	add	r0, sp, #8
    87ae:	f840 4d08 	str.w	r4, [r0, #-8]!
    87b2:	4668      	mov	r0, sp
    87b4:	f7ff fd86 	bl	82c4 <__lo0bits>
    87b8:	9b00      	ldr	r3, [sp, #0]
    87ba:	b148      	cbz	r0, 87d0 <__d2b+0x4e>
    87bc:	9a01      	ldr	r2, [sp, #4]
    87be:	f1c0 0120 	rsb	r1, r0, #32
    87c2:	fa02 f101 	lsl.w	r1, r2, r1
    87c6:	430b      	orrs	r3, r1
    87c8:	40c2      	lsrs	r2, r0
    87ca:	6173      	str	r3, [r6, #20]
    87cc:	9201      	str	r2, [sp, #4]
    87ce:	e000      	b.n	87d2 <__d2b+0x50>
    87d0:	6173      	str	r3, [r6, #20]
    87d2:	9b01      	ldr	r3, [sp, #4]
    87d4:	61b3      	str	r3, [r6, #24]
    87d6:	2b00      	cmp	r3, #0
    87d8:	bf0c      	ite	eq
    87da:	2401      	moveq	r4, #1
    87dc:	2402      	movne	r4, #2
    87de:	6134      	str	r4, [r6, #16]
    87e0:	e007      	b.n	87f2 <__d2b+0x70>
    87e2:	a801      	add	r0, sp, #4
    87e4:	f7ff fd6e 	bl	82c4 <__lo0bits>
    87e8:	2401      	movs	r4, #1
    87ea:	9b01      	ldr	r3, [sp, #4]
    87ec:	6173      	str	r3, [r6, #20]
    87ee:	6134      	str	r4, [r6, #16]
    87f0:	3020      	adds	r0, #32
    87f2:	b13f      	cbz	r7, 8804 <__d2b+0x82>
    87f4:	f2a7 4733 	subw	r7, r7, #1075	; 0x433
    87f8:	4407      	add	r7, r0
    87fa:	f8c9 7000 	str.w	r7, [r9]
    87fe:	f1c0 0035 	rsb	r0, r0, #53	; 0x35
    8802:	e00a      	b.n	881a <__d2b+0x98>
    8804:	eb06 0384 	add.w	r3, r6, r4, lsl #2
    8808:	f2a0 4032 	subw	r0, r0, #1074	; 0x432
    880c:	f8c9 0000 	str.w	r0, [r9]
    8810:	6918      	ldr	r0, [r3, #16]
    8812:	f7ff fd37 	bl	8284 <__hi0bits>
    8816:	ebc0 1044 	rsb	r0, r0, r4, lsl #5
    881a:	f8c8 0000 	str.w	r0, [r8]
    881e:	4630      	mov	r0, r6
    8820:	b003      	add	sp, #12
    8822:	e8bd 83f0 	ldmia.w	sp!, {r4, r5, r6, r7, r8, r9, pc}

00008826 <__ratio>:
    8826:	e92d 41f3 	stmdb	sp!, {r0, r1, r4, r5, r6, r7, r8, lr}
    882a:	460e      	mov	r6, r1
    882c:	4669      	mov	r1, sp
    882e:	4680      	mov	r8, r0
    8830:	f7ff ff54 	bl	86dc <__b2d>
    8834:	460d      	mov	r5, r1
    8836:	4604      	mov	r4, r0
    8838:	a901      	add	r1, sp, #4
    883a:	4630      	mov	r0, r6
    883c:	f7ff ff4e 	bl	86dc <__b2d>
    8840:	9f00      	ldr	r7, [sp, #0]
    8842:	460b      	mov	r3, r1
    8844:	9901      	ldr	r1, [sp, #4]
    8846:	4602      	mov	r2, r0
    8848:	1a7f      	subs	r7, r7, r1
    884a:	f8d8 0010 	ldr.w	r0, [r8, #16]
    884e:	6931      	ldr	r1, [r6, #16]
    8850:	1a41      	subs	r1, r0, r1
    8852:	eb07 1141 	add.w	r1, r7, r1, lsl #5
    8856:	2900      	cmp	r1, #0
    8858:	bfcc      	ite	gt
    885a:	eb05 5501 	addgt.w	r5, r5, r1, lsl #20
    885e:	eba3 5301 	suble.w	r3, r3, r1, lsl #20
    8862:	4620      	mov	r0, r4
    8864:	4629      	mov	r1, r5
    8866:	f7fd f9db 	bl	5c20 <__aeabi_ddiv>
    886a:	b002      	add	sp, #8
    886c:	e8bd 81f0 	ldmia.w	sp!, {r4, r5, r6, r7, r8, pc}

00008870 <__copybits>:
    8870:	b510      	push	{r4, lr}
    8872:	3901      	subs	r1, #1
    8874:	f102 0314 	add.w	r3, r2, #20
    8878:	1149      	asrs	r1, r1, #5
    887a:	6912      	ldr	r2, [r2, #16]
    887c:	3101      	adds	r1, #1
    887e:	eb00 0181 	add.w	r1, r0, r1, lsl #2
    8882:	eb03 0282 	add.w	r2, r3, r2, lsl #2
    8886:	4293      	cmp	r3, r2
    8888:	d204      	bcs.n	8894 <__copybits+0x24>
    888a:	f853 4b04 	ldr.w	r4, [r3], #4
    888e:	f840 4b04 	str.w	r4, [r0], #4
    8892:	e7f8      	b.n	8886 <__copybits+0x16>
    8894:	4288      	cmp	r0, r1
    8896:	d203      	bcs.n	88a0 <__copybits+0x30>
    8898:	2300      	movs	r3, #0
    889a:	f840 3b04 	str.w	r3, [r0], #4
    889e:	e7f9      	b.n	8894 <__copybits+0x24>
    88a0:	bd10      	pop	{r4, pc}

000088a2 <__any_on>:
    88a2:	f100 0214 	add.w	r2, r0, #20
    88a6:	6900      	ldr	r0, [r0, #16]
    88a8:	114b      	asrs	r3, r1, #5
    88aa:	4283      	cmp	r3, r0
    88ac:	b510      	push	{r4, lr}
    88ae:	dc0c      	bgt.n	88ca <__any_on+0x28>
    88b0:	da0c      	bge.n	88cc <__any_on+0x2a>
    88b2:	f011 011f 	ands.w	r1, r1, #31
    88b6:	d009      	beq.n	88cc <__any_on+0x2a>
    88b8:	f852 0023 	ldr.w	r0, [r2, r3, lsl #2]
    88bc:	fa20 f401 	lsr.w	r4, r0, r1
    88c0:	fa04 f101 	lsl.w	r1, r4, r1
    88c4:	4281      	cmp	r1, r0
    88c6:	d10e      	bne.n	88e6 <__any_on+0x44>
    88c8:	e000      	b.n	88cc <__any_on+0x2a>
    88ca:	4603      	mov	r3, r0
    88cc:	eb02 0383 	add.w	r3, r2, r3, lsl #2
    88d0:	4293      	cmp	r3, r2
    88d2:	4619      	mov	r1, r3
    88d4:	d905      	bls.n	88e2 <__any_on+0x40>
    88d6:	f851 1c04 	ldr.w	r1, [r1, #-4]
    88da:	3b04      	subs	r3, #4
    88dc:	2900      	cmp	r1, #0
    88de:	d0f7      	beq.n	88d0 <__any_on+0x2e>
    88e0:	e001      	b.n	88e6 <__any_on+0x44>
    88e2:	2000      	movs	r0, #0
    88e4:	bd10      	pop	{r4, pc}
    88e6:	2001      	movs	r0, #1
    88e8:	bd10      	pop	{r4, pc}

000088ea <_calloc_r>:
    88ea:	b538      	push	{r3, r4, r5, lr}
    88ec:	fb02 f401 	mul.w	r4, r2, r1
    88f0:	4621      	mov	r1, r4
    88f2:	f7fd ff71 	bl	67d8 <_malloc_r>
    88f6:	4605      	mov	r5, r0
    88f8:	b118      	cbz	r0, 8902 <_calloc_r+0x18>
    88fa:	2100      	movs	r1, #0
    88fc:	4622      	mov	r2, r4
    88fe:	f7fd ff1f 	bl	6740 <memset>
    8902:	4628      	mov	r0, r5
    8904:	bd38      	pop	{r3, r4, r5, pc}

00008906 <_realloc_r>:
    8906:	b5f8      	push	{r3, r4, r5, r6, r7, lr}
    8908:	4606      	mov	r6, r0
    890a:	4614      	mov	r4, r2
    890c:	460d      	mov	r5, r1
    890e:	b921      	cbnz	r1, 891a <_realloc_r+0x14>
    8910:	4611      	mov	r1, r2
    8912:	e8bd 40f8 	ldmia.w	sp!, {r3, r4, r5, r6, r7, lr}
    8916:	f7fd bf5f 	b.w	67d8 <_malloc_r>
    891a:	b91a      	cbnz	r2, 8924 <_realloc_r+0x1e>
    891c:	f7fd ff18 	bl	6750 <_free_r>
    8920:	4620      	mov	r0, r4
    8922:	bdf8      	pop	{r3, r4, r5, r6, r7, pc}
    8924:	f000 ffac 	bl	9880 <_malloc_usable_size_r>
    8928:	42a0      	cmp	r0, r4
    892a:	d20e      	bcs.n	894a <_realloc_r+0x44>
    892c:	4630      	mov	r0, r6
    892e:	4621      	mov	r1, r4
    8930:	f7fd ff52 	bl	67d8 <_malloc_r>
    8934:	4607      	mov	r7, r0
    8936:	b150      	cbz	r0, 894e <_realloc_r+0x48>
    8938:	4629      	mov	r1, r5
    893a:	4622      	mov	r2, r4
    893c:	f7fd fedc 	bl	66f8 <memcpy>
    8940:	4630      	mov	r0, r6
    8942:	4629      	mov	r1, r5
    8944:	f7fd ff04 	bl	6750 <_free_r>
    8948:	e001      	b.n	894e <_realloc_r+0x48>
    894a:	4628      	mov	r0, r5
    894c:	bdf8      	pop	{r3, r4, r5, r6, r7, pc}
    894e:	4638      	mov	r0, r7
    8950:	bdf8      	pop	{r3, r4, r5, r6, r7, pc}
    8952:	ffff 4800 	vtbl.8	d20, {d15}, d0

00008954 <nanf>:
    8954:	4800      	ldr	r0, [pc, #0]	; (8958 <nanf+0x4>)
    8956:	4770      	bx	lr
    8958:	7fc00000 	.word	0x7fc00000

0000895c <__sread>:
    895c:	b510      	push	{r4, lr}
    895e:	460c      	mov	r4, r1
    8960:	f9b1 100e 	ldrsh.w	r1, [r1, #14]
    8964:	f000 ff96 	bl	9894 <_read_r>
    8968:	2800      	cmp	r0, #0
    896a:	db03      	blt.n	8974 <__sread+0x18>
    896c:	6d63      	ldr	r3, [r4, #84]	; 0x54
    896e:	4403      	add	r3, r0
    8970:	6563      	str	r3, [r4, #84]	; 0x54
    8972:	bd10      	pop	{r4, pc}
    8974:	89a3      	ldrh	r3, [r4, #12]
    8976:	f423 5380 	bic.w	r3, r3, #4096	; 0x1000
    897a:	81a3      	strh	r3, [r4, #12]
    897c:	bd10      	pop	{r4, pc}

0000897e <__swrite>:
    897e:	e92d 41f0 	stmdb	sp!, {r4, r5, r6, r7, r8, lr}
    8982:	461d      	mov	r5, r3
    8984:	898b      	ldrh	r3, [r1, #12]
    8986:	05db      	lsls	r3, r3, #23
    8988:	4607      	mov	r7, r0
    898a:	460c      	mov	r4, r1
    898c:	4616      	mov	r6, r2
    898e:	d505      	bpl.n	899c <__swrite+0x1e>
    8990:	f9b1 100e 	ldrsh.w	r1, [r1, #14]
    8994:	2200      	movs	r2, #0
    8996:	2302      	movs	r3, #2
    8998:	f000 ff60 	bl	985c <_lseek_r>
    899c:	89a3      	ldrh	r3, [r4, #12]
    899e:	f9b4 100e 	ldrsh.w	r1, [r4, #14]
    89a2:	f423 5380 	bic.w	r3, r3, #4096	; 0x1000
    89a6:	81a3      	strh	r3, [r4, #12]
    89a8:	4638      	mov	r0, r7
    89aa:	4632      	mov	r2, r6
    89ac:	462b      	mov	r3, r5
    89ae:	e8bd 41f0 	ldmia.w	sp!, {r4, r5, r6, r7, r8, lr}
    89b2:	f7fe bf4b 	b.w	784c <_write_r>

000089b6 <__sseek>:
    89b6:	b510      	push	{r4, lr}
    89b8:	460c      	mov	r4, r1
    89ba:	f9b1 100e 	ldrsh.w	r1, [r1, #14]
    89be:	f000 ff4d 	bl	985c <_lseek_r>
    89c2:	1c43      	adds	r3, r0, #1
    89c4:	89a3      	ldrh	r3, [r4, #12]
    89c6:	d103      	bne.n	89d0 <__sseek+0x1a>
    89c8:	f423 5380 	bic.w	r3, r3, #4096	; 0x1000
    89cc:	81a3      	strh	r3, [r4, #12]
    89ce:	bd10      	pop	{r4, pc}
    89d0:	f443 5380 	orr.w	r3, r3, #4096	; 0x1000
    89d4:	81a3      	strh	r3, [r4, #12]
    89d6:	6560      	str	r0, [r4, #84]	; 0x54
    89d8:	bd10      	pop	{r4, pc}

000089da <__sclose>:
    89da:	f9b1 100e 	ldrsh.w	r1, [r1, #14]
    89de:	f000 b82f 	b.w	8a40 <_close_r>

000089e2 <_vasniprintf_r>:
    89e2:	b530      	push	{r4, r5, lr}
    89e4:	4615      	mov	r5, r2
    89e6:	b09b      	sub	sp, #108	; 0x6c
    89e8:	6814      	ldr	r4, [r2, #0]
    89ea:	b129      	cbz	r1, 89f8 <_vasniprintf_r+0x16>
    89ec:	b124      	cbz	r4, 89f8 <_vasniprintf_r+0x16>
    89ee:	f44f 62c1 	mov.w	r2, #1544	; 0x608
    89f2:	f8ad 200c 	strh.w	r2, [sp, #12]
    89f6:	e005      	b.n	8a04 <_vasniprintf_r+0x22>
    89f8:	f44f 7222 	mov.w	r2, #648	; 0x288
    89fc:	2400      	movs	r4, #0
    89fe:	f8ad 200c 	strh.w	r2, [sp, #12]
    8a02:	4621      	mov	r1, r4
    8a04:	2c00      	cmp	r4, #0
    8a06:	9100      	str	r1, [sp, #0]
    8a08:	9104      	str	r1, [sp, #16]
    8a0a:	da03      	bge.n	8a14 <_vasniprintf_r+0x32>
    8a0c:	238b      	movs	r3, #139	; 0x8b
    8a0e:	6003      	str	r3, [r0, #0]
    8a10:	2000      	movs	r0, #0
    8a12:	e012      	b.n	8a3a <_vasniprintf_r+0x58>
    8a14:	f64f 72ff 	movw	r2, #65535	; 0xffff
    8a18:	f8ad 200e 	strh.w	r2, [sp, #14]
    8a1c:	4669      	mov	r1, sp
    8a1e:	461a      	mov	r2, r3
    8a20:	9b1e      	ldr	r3, [sp, #120]	; 0x78
    8a22:	9402      	str	r4, [sp, #8]
    8a24:	9405      	str	r4, [sp, #20]
    8a26:	f000 ffa3 	bl	9970 <_svfiprintf_r>
    8a2a:	1e03      	subs	r3, r0, #0
    8a2c:	f04f 0000 	mov.w	r0, #0
    8a30:	db03      	blt.n	8a3a <_vasniprintf_r+0x58>
    8a32:	602b      	str	r3, [r5, #0]
    8a34:	9b00      	ldr	r3, [sp, #0]
    8a36:	7018      	strb	r0, [r3, #0]
    8a38:	9804      	ldr	r0, [sp, #16]
    8a3a:	b01b      	add	sp, #108	; 0x6c
    8a3c:	bd30      	pop	{r4, r5, pc}
    8a3e:	ffff b538 	vsli.32	d27, d24, #31

00008a40 <_close_r>:
    8a40:	b538      	push	{r3, r4, r5, lr}
    8a42:	4c06      	ldr	r4, [pc, #24]	; (8a5c <_close_r+0x1c>)
    8a44:	2300      	movs	r3, #0
    8a46:	4605      	mov	r5, r0
    8a48:	4608      	mov	r0, r1
    8a4a:	6023      	str	r3, [r4, #0]
    8a4c:	f7f7 ff98 	bl	980 <_close>
    8a50:	1c43      	adds	r3, r0, #1
    8a52:	d102      	bne.n	8a5a <_close_r+0x1a>
    8a54:	6823      	ldr	r3, [r4, #0]
    8a56:	b103      	cbz	r3, 8a5a <_close_r+0x1a>
    8a58:	602b      	str	r3, [r5, #0]
    8a5a:	bd38      	pop	{r3, r4, r5, pc}
    8a5c:	1fff10f0 	.word	0x1fff10f0

00008a60 <quorem>:
    8a60:	e92d 4ff7 	stmdb	sp!, {r0, r1, r2, r4, r5, r6, r7, r8, r9, sl, fp, lr}
    8a64:	6903      	ldr	r3, [r0, #16]
    8a66:	690c      	ldr	r4, [r1, #16]
    8a68:	42a3      	cmp	r3, r4
    8a6a:	4680      	mov	r8, r0
    8a6c:	f2c0 8081 	blt.w	8b72 <quorem+0x112>
    8a70:	3c01      	subs	r4, #1
    8a72:	f101 0714 	add.w	r7, r1, #20
    8a76:	00a2      	lsls	r2, r4, #2
    8a78:	f100 0514 	add.w	r5, r0, #20
    8a7c:	4691      	mov	r9, r2
    8a7e:	9200      	str	r2, [sp, #0]
    8a80:	f857 6024 	ldr.w	r6, [r7, r4, lsl #2]
    8a84:	442a      	add	r2, r5
    8a86:	9201      	str	r2, [sp, #4]
    8a88:	f855 2024 	ldr.w	r2, [r5, r4, lsl #2]
    8a8c:	3601      	adds	r6, #1
    8a8e:	fbb2 f6f6 	udiv	r6, r2, r6
    8a92:	44b9      	add	r9, r7
    8a94:	2e00      	cmp	r6, #0
    8a96:	d03a      	beq.n	8b0e <quorem+0xae>
    8a98:	f04f 0e00 	mov.w	lr, #0
    8a9c:	463a      	mov	r2, r7
    8a9e:	4628      	mov	r0, r5
    8aa0:	46f3      	mov	fp, lr
    8aa2:	f852 cb04 	ldr.w	ip, [r2], #4
    8aa6:	6803      	ldr	r3, [r0, #0]
    8aa8:	fa1f fa8c 	uxth.w	sl, ip
    8aac:	ea4f 4c1c 	mov.w	ip, ip, lsr #16
    8ab0:	fb0a ea06 	mla	sl, sl, r6, lr
    8ab4:	fb0c fc06 	mul.w	ip, ip, r6
    8ab8:	eb0c 4c1a 	add.w	ip, ip, sl, lsr #16
    8abc:	fa1f fa8a 	uxth.w	sl, sl
    8ac0:	ebca 0a0b 	rsb	sl, sl, fp
    8ac4:	ea4f 4e1c 	mov.w	lr, ip, lsr #16
    8ac8:	fa1f fc8c 	uxth.w	ip, ip
    8acc:	fa1a fa83 	uxtah	sl, sl, r3
    8ad0:	ebcc 4c13 	rsb	ip, ip, r3, lsr #16
    8ad4:	eb0c 4c2a 	add.w	ip, ip, sl, asr #16
    8ad8:	fa1f fa8a 	uxth.w	sl, sl
    8adc:	ea4a 4a0c 	orr.w	sl, sl, ip, lsl #16
    8ae0:	454a      	cmp	r2, r9
    8ae2:	ea4f 4b2c 	mov.w	fp, ip, asr #16
    8ae6:	f840 ab04 	str.w	sl, [r0], #4
    8aea:	d9da      	bls.n	8aa2 <quorem+0x42>
    8aec:	9a00      	ldr	r2, [sp, #0]
    8aee:	58ab      	ldr	r3, [r5, r2]
    8af0:	b96b      	cbnz	r3, 8b0e <quorem+0xae>
    8af2:	9a01      	ldr	r2, [sp, #4]
    8af4:	1f13      	subs	r3, r2, #4
    8af6:	42ab      	cmp	r3, r5
    8af8:	461a      	mov	r2, r3
    8afa:	d802      	bhi.n	8b02 <quorem+0xa2>
    8afc:	f8c8 4010 	str.w	r4, [r8, #16]
    8b00:	e005      	b.n	8b0e <quorem+0xae>
    8b02:	6812      	ldr	r2, [r2, #0]
    8b04:	3b04      	subs	r3, #4
    8b06:	2a00      	cmp	r2, #0
    8b08:	d1f8      	bne.n	8afc <quorem+0x9c>
    8b0a:	3c01      	subs	r4, #1
    8b0c:	e7f3      	b.n	8af6 <quorem+0x96>
    8b0e:	4640      	mov	r0, r8
    8b10:	f7ff fd47 	bl	85a2 <__mcmp>
    8b14:	2800      	cmp	r0, #0
    8b16:	db2a      	blt.n	8b6e <quorem+0x10e>
    8b18:	3601      	adds	r6, #1
    8b1a:	462b      	mov	r3, r5
    8b1c:	2000      	movs	r0, #0
    8b1e:	f857 cb04 	ldr.w	ip, [r7], #4
    8b22:	681a      	ldr	r2, [r3, #0]
    8b24:	fa1f f18c 	uxth.w	r1, ip
    8b28:	1a41      	subs	r1, r0, r1
    8b2a:	ea4f 4c1c 	mov.w	ip, ip, lsr #16
    8b2e:	fa11 f182 	uxtah	r1, r1, r2
    8b32:	ebcc 4212 	rsb	r2, ip, r2, lsr #16
    8b36:	eb02 4221 	add.w	r2, r2, r1, asr #16
    8b3a:	b289      	uxth	r1, r1
    8b3c:	1410      	asrs	r0, r2, #16
    8b3e:	454f      	cmp	r7, r9
    8b40:	ea41 4202 	orr.w	r2, r1, r2, lsl #16
    8b44:	f843 2b04 	str.w	r2, [r3], #4
    8b48:	d9e9      	bls.n	8b1e <quorem+0xbe>
    8b4a:	f855 2024 	ldr.w	r2, [r5, r4, lsl #2]
    8b4e:	eb05 0384 	add.w	r3, r5, r4, lsl #2
    8b52:	b962      	cbnz	r2, 8b6e <quorem+0x10e>
    8b54:	3b04      	subs	r3, #4
    8b56:	42ab      	cmp	r3, r5
    8b58:	461a      	mov	r2, r3
    8b5a:	d802      	bhi.n	8b62 <quorem+0x102>
    8b5c:	f8c8 4010 	str.w	r4, [r8, #16]
    8b60:	e005      	b.n	8b6e <quorem+0x10e>
    8b62:	6812      	ldr	r2, [r2, #0]
    8b64:	3b04      	subs	r3, #4
    8b66:	2a00      	cmp	r2, #0
    8b68:	d1f8      	bne.n	8b5c <quorem+0xfc>
    8b6a:	3c01      	subs	r4, #1
    8b6c:	e7f3      	b.n	8b56 <quorem+0xf6>
    8b6e:	4630      	mov	r0, r6
    8b70:	e000      	b.n	8b74 <quorem+0x114>
    8b72:	2000      	movs	r0, #0
    8b74:	b003      	add	sp, #12
    8b76:	e8bd 8ff0 	ldmia.w	sp!, {r4, r5, r6, r7, r8, r9, sl, fp, pc}
    8b7a:	ffff ffff 			; <UNDEFINED> instruction: 0xffffffff
    8b7e:	ffff e92d 	vtbl.8	d30, {d15-d16}, d29

00008b80 <_dtoa_r>:
    8b80:	e92d 4ff0 	stmdb	sp!, {r4, r5, r6, r7, r8, r9, sl, fp, lr}
    8b84:	6a45      	ldr	r5, [r0, #36]	; 0x24
    8b86:	b09b      	sub	sp, #108	; 0x6c
    8b88:	4682      	mov	sl, r0
    8b8a:	9c27      	ldr	r4, [sp, #156]	; 0x9c
    8b8c:	e9cd 2304 	strd	r2, r3, [sp, #16]
    8b90:	b945      	cbnz	r5, 8ba4 <_dtoa_r+0x24>
    8b92:	2010      	movs	r0, #16
    8b94:	f7fd fda0 	bl	66d8 <malloc>
    8b98:	f8ca 0024 	str.w	r0, [sl, #36]	; 0x24
    8b9c:	6045      	str	r5, [r0, #4]
    8b9e:	6085      	str	r5, [r0, #8]
    8ba0:	6005      	str	r5, [r0, #0]
    8ba2:	60c5      	str	r5, [r0, #12]
    8ba4:	f8da 3024 	ldr.w	r3, [sl, #36]	; 0x24
    8ba8:	6819      	ldr	r1, [r3, #0]
    8baa:	b161      	cbz	r1, 8bc6 <_dtoa_r+0x46>
    8bac:	685b      	ldr	r3, [r3, #4]
    8bae:	604b      	str	r3, [r1, #4]
    8bb0:	2201      	movs	r2, #1
    8bb2:	fa02 f303 	lsl.w	r3, r2, r3
    8bb6:	608b      	str	r3, [r1, #8]
    8bb8:	4650      	mov	r0, sl
    8bba:	f7ff fad0 	bl	815e <_Bfree>
    8bbe:	f8da 3024 	ldr.w	r3, [sl, #36]	; 0x24
    8bc2:	2200      	movs	r2, #0
    8bc4:	601a      	str	r2, [r3, #0]
    8bc6:	9805      	ldr	r0, [sp, #20]
    8bc8:	2800      	cmp	r0, #0
    8bca:	da05      	bge.n	8bd8 <_dtoa_r+0x58>
    8bcc:	2301      	movs	r3, #1
    8bce:	f020 4100 	bic.w	r1, r0, #2147483648	; 0x80000000
    8bd2:	6023      	str	r3, [r4, #0]
    8bd4:	9105      	str	r1, [sp, #20]
    8bd6:	e001      	b.n	8bdc <_dtoa_r+0x5c>
    8bd8:	2300      	movs	r3, #0
    8bda:	6023      	str	r3, [r4, #0]
    8bdc:	9f05      	ldr	r7, [sp, #20]
    8bde:	4a9c      	ldr	r2, [pc, #624]	; (8e50 <_dtoa_r+0x2d0>)
    8be0:	f027 4300 	bic.w	r3, r7, #2147483648	; 0x80000000
    8be4:	0d1b      	lsrs	r3, r3, #20
    8be6:	051b      	lsls	r3, r3, #20
    8be8:	4293      	cmp	r3, r2
    8bea:	d11d      	bne.n	8c28 <_dtoa_r+0xa8>
    8bec:	9a26      	ldr	r2, [sp, #152]	; 0x98
    8bee:	f242 730f 	movw	r3, #9999	; 0x270f
    8bf2:	6013      	str	r3, [r2, #0]
    8bf4:	9b04      	ldr	r3, [sp, #16]
    8bf6:	b943      	cbnz	r3, 8c0a <_dtoa_r+0x8a>
    8bf8:	4b96      	ldr	r3, [pc, #600]	; (8e54 <_dtoa_r+0x2d4>)
    8bfa:	4a97      	ldr	r2, [pc, #604]	; (8e58 <_dtoa_r+0x2d8>)
    8bfc:	f3c7 0013 	ubfx	r0, r7, #0, #20
    8c00:	2800      	cmp	r0, #0
    8c02:	bf0c      	ite	eq
    8c04:	4610      	moveq	r0, r2
    8c06:	4618      	movne	r0, r3
    8c08:	e000      	b.n	8c0c <_dtoa_r+0x8c>
    8c0a:	4892      	ldr	r0, [pc, #584]	; (8e54 <_dtoa_r+0x2d4>)
    8c0c:	9f28      	ldr	r7, [sp, #160]	; 0xa0
    8c0e:	2f00      	cmp	r7, #0
    8c10:	f000 8571 	beq.w	96f6 <_dtoa_r+0xb76>
    8c14:	78c3      	ldrb	r3, [r0, #3]
    8c16:	b113      	cbz	r3, 8c1e <_dtoa_r+0x9e>
    8c18:	f100 0308 	add.w	r3, r0, #8
    8c1c:	e000      	b.n	8c20 <_dtoa_r+0xa0>
    8c1e:	1cc3      	adds	r3, r0, #3
    8c20:	9f28      	ldr	r7, [sp, #160]	; 0xa0
    8c22:	603b      	str	r3, [r7, #0]
    8c24:	f000 bd67 	b.w	96f6 <_dtoa_r+0xb76>
    8c28:	e9dd 4504 	ldrd	r4, r5, [sp, #16]
    8c2c:	2200      	movs	r2, #0
    8c2e:	4620      	mov	r0, r4
    8c30:	4629      	mov	r1, r5
    8c32:	2300      	movs	r3, #0
    8c34:	f7fd f932 	bl	5e9c <__aeabi_dcmpeq>
    8c38:	4680      	mov	r8, r0
    8c3a:	b158      	cbz	r0, 8c54 <_dtoa_r+0xd4>
    8c3c:	9f26      	ldr	r7, [sp, #152]	; 0x98
    8c3e:	2301      	movs	r3, #1
    8c40:	603b      	str	r3, [r7, #0]
    8c42:	9f28      	ldr	r7, [sp, #160]	; 0xa0
    8c44:	2f00      	cmp	r7, #0
    8c46:	f000 8553 	beq.w	96f0 <_dtoa_r+0xb70>
    8c4a:	4884      	ldr	r0, [pc, #528]	; (8e5c <_dtoa_r+0x2dc>)
    8c4c:	6038      	str	r0, [r7, #0]
    8c4e:	3801      	subs	r0, #1
    8c50:	f000 bd51 	b.w	96f6 <_dtoa_r+0xb76>
    8c54:	ab19      	add	r3, sp, #100	; 0x64
    8c56:	9300      	str	r3, [sp, #0]
    8c58:	ab18      	add	r3, sp, #96	; 0x60
    8c5a:	9301      	str	r3, [sp, #4]
    8c5c:	4650      	mov	r0, sl
    8c5e:	4622      	mov	r2, r4
    8c60:	462b      	mov	r3, r5
    8c62:	f7ff fd8e 	bl	8782 <__d2b>
    8c66:	f3c7 560a 	ubfx	r6, r7, #20, #11
    8c6a:	4683      	mov	fp, r0
    8c6c:	b15e      	cbz	r6, 8c86 <_dtoa_r+0x106>
    8c6e:	f3c5 0313 	ubfx	r3, r5, #0, #20
    8c72:	f043 517f 	orr.w	r1, r3, #1069547520	; 0x3fc00000
    8c76:	4620      	mov	r0, r4
    8c78:	f441 1140 	orr.w	r1, r1, #3145728	; 0x300000
    8c7c:	f2a6 36ff 	subw	r6, r6, #1023	; 0x3ff
    8c80:	f8cd 8054 	str.w	r8, [sp, #84]	; 0x54
    8c84:	e01c      	b.n	8cc0 <_dtoa_r+0x140>
    8c86:	9b19      	ldr	r3, [sp, #100]	; 0x64
    8c88:	9e18      	ldr	r6, [sp, #96]	; 0x60
    8c8a:	441e      	add	r6, r3
    8c8c:	f46f 6382 	mvn.w	r3, #1040	; 0x410
    8c90:	429e      	cmp	r6, r3
    8c92:	db09      	blt.n	8ca8 <_dtoa_r+0x128>
    8c94:	9904      	ldr	r1, [sp, #16]
    8c96:	331f      	adds	r3, #31
    8c98:	f206 4012 	addw	r0, r6, #1042	; 0x412
    8c9c:	1b9b      	subs	r3, r3, r6
    8c9e:	fa21 f000 	lsr.w	r0, r1, r0
    8ca2:	409f      	lsls	r7, r3
    8ca4:	4338      	orrs	r0, r7
    8ca6:	e004      	b.n	8cb2 <_dtoa_r+0x132>
    8ca8:	486d      	ldr	r0, [pc, #436]	; (8e60 <_dtoa_r+0x2e0>)
    8caa:	9a04      	ldr	r2, [sp, #16]
    8cac:	1b80      	subs	r0, r0, r6
    8cae:	fa02 f000 	lsl.w	r0, r2, r0
    8cb2:	f7fc fe15 	bl	58e0 <__aeabi_ui2d>
    8cb6:	2701      	movs	r7, #1
    8cb8:	f1a1 71f8 	sub.w	r1, r1, #32505856	; 0x1f00000
    8cbc:	3e01      	subs	r6, #1
    8cbe:	9715      	str	r7, [sp, #84]	; 0x54
    8cc0:	2200      	movs	r2, #0
    8cc2:	4b68      	ldr	r3, [pc, #416]	; (8e64 <_dtoa_r+0x2e4>)
    8cc4:	f7fc fcce 	bl	5664 <__aeabi_dsub>
    8cc8:	a35b      	add	r3, pc, #364	; (adr r3, 8e38 <_dtoa_r+0x2b8>)
    8cca:	e9d3 2300 	ldrd	r2, r3, [r3]
    8cce:	f7fc fe7d 	bl	59cc <__aeabi_dmul>
    8cd2:	a35b      	add	r3, pc, #364	; (adr r3, 8e40 <_dtoa_r+0x2c0>)
    8cd4:	e9d3 2300 	ldrd	r2, r3, [r3]
    8cd8:	f7fc fcc6 	bl	5668 <__adddf3>
    8cdc:	4604      	mov	r4, r0
    8cde:	4630      	mov	r0, r6
    8ce0:	460d      	mov	r5, r1
    8ce2:	f7fc fe0d 	bl	5900 <__aeabi_i2d>
    8ce6:	a358      	add	r3, pc, #352	; (adr r3, 8e48 <_dtoa_r+0x2c8>)
    8ce8:	e9d3 2300 	ldrd	r2, r3, [r3]
    8cec:	f7fc fe6e 	bl	59cc <__aeabi_dmul>
    8cf0:	4602      	mov	r2, r0
    8cf2:	460b      	mov	r3, r1
    8cf4:	4620      	mov	r0, r4
    8cf6:	4629      	mov	r1, r5
    8cf8:	f7fc fcb6 	bl	5668 <__adddf3>
    8cfc:	4604      	mov	r4, r0
    8cfe:	460d      	mov	r5, r1
    8d00:	f7fd f8fe 	bl	5f00 <__aeabi_d2iz>
    8d04:	4629      	mov	r1, r5
    8d06:	4681      	mov	r9, r0
    8d08:	2200      	movs	r2, #0
    8d0a:	4620      	mov	r0, r4
    8d0c:	2300      	movs	r3, #0
    8d0e:	f7fd f8cf 	bl	5eb0 <__aeabi_dcmplt>
    8d12:	b158      	cbz	r0, 8d2c <_dtoa_r+0x1ac>
    8d14:	4648      	mov	r0, r9
    8d16:	f7fc fdf3 	bl	5900 <__aeabi_i2d>
    8d1a:	4602      	mov	r2, r0
    8d1c:	460b      	mov	r3, r1
    8d1e:	4620      	mov	r0, r4
    8d20:	4629      	mov	r1, r5
    8d22:	f7fd f8bb 	bl	5e9c <__aeabi_dcmpeq>
    8d26:	b908      	cbnz	r0, 8d2c <_dtoa_r+0x1ac>
    8d28:	f109 39ff 	add.w	r9, r9, #4294967295
    8d2c:	f1b9 0f16 	cmp.w	r9, #22
    8d30:	d80d      	bhi.n	8d4e <_dtoa_r+0x1ce>
    8d32:	4b4d      	ldr	r3, [pc, #308]	; (8e68 <_dtoa_r+0x2e8>)
    8d34:	eb03 03c9 	add.w	r3, r3, r9, lsl #3
    8d38:	e9d3 0100 	ldrd	r0, r1, [r3]
    8d3c:	e9dd 2304 	ldrd	r2, r3, [sp, #16]
    8d40:	f7fd f8d4 	bl	5eec <__aeabi_dcmpgt>
    8d44:	b130      	cbz	r0, 8d54 <_dtoa_r+0x1d4>
    8d46:	f109 39ff 	add.w	r9, r9, #4294967295
    8d4a:	2700      	movs	r7, #0
    8d4c:	e000      	b.n	8d50 <_dtoa_r+0x1d0>
    8d4e:	2701      	movs	r7, #1
    8d50:	9714      	str	r7, [sp, #80]	; 0x50
    8d52:	e000      	b.n	8d56 <_dtoa_r+0x1d6>
    8d54:	9014      	str	r0, [sp, #80]	; 0x50
    8d56:	9b18      	ldr	r3, [sp, #96]	; 0x60
    8d58:	1b9e      	subs	r6, r3, r6
    8d5a:	3e01      	subs	r6, #1
    8d5c:	9609      	str	r6, [sp, #36]	; 0x24
    8d5e:	d504      	bpl.n	8d6a <_dtoa_r+0x1ea>
    8d60:	4277      	negs	r7, r6
    8d62:	9708      	str	r7, [sp, #32]
    8d64:	2700      	movs	r7, #0
    8d66:	9709      	str	r7, [sp, #36]	; 0x24
    8d68:	e001      	b.n	8d6e <_dtoa_r+0x1ee>
    8d6a:	2700      	movs	r7, #0
    8d6c:	9708      	str	r7, [sp, #32]
    8d6e:	f1b9 0f00 	cmp.w	r9, #0
    8d72:	db07      	blt.n	8d84 <_dtoa_r+0x204>
    8d74:	9f09      	ldr	r7, [sp, #36]	; 0x24
    8d76:	f8cd 9044 	str.w	r9, [sp, #68]	; 0x44
    8d7a:	444f      	add	r7, r9
    8d7c:	9709      	str	r7, [sp, #36]	; 0x24
    8d7e:	2700      	movs	r7, #0
    8d80:	970e      	str	r7, [sp, #56]	; 0x38
    8d82:	e008      	b.n	8d96 <_dtoa_r+0x216>
    8d84:	9f08      	ldr	r7, [sp, #32]
    8d86:	ebc9 0707 	rsb	r7, r9, r7
    8d8a:	9708      	str	r7, [sp, #32]
    8d8c:	f1c9 0700 	rsb	r7, r9, #0
    8d90:	970e      	str	r7, [sp, #56]	; 0x38
    8d92:	2700      	movs	r7, #0
    8d94:	9711      	str	r7, [sp, #68]	; 0x44
    8d96:	9f24      	ldr	r7, [sp, #144]	; 0x90
    8d98:	2f09      	cmp	r7, #9
    8d9a:	d828      	bhi.n	8dee <_dtoa_r+0x26e>
    8d9c:	2f05      	cmp	r7, #5
    8d9e:	bfc4      	itt	gt
    8da0:	3f04      	subgt	r7, #4
    8da2:	9724      	strgt	r7, [sp, #144]	; 0x90
    8da4:	9f24      	ldr	r7, [sp, #144]	; 0x90
    8da6:	f1a7 0302 	sub.w	r3, r7, #2
    8daa:	bfcc      	ite	gt
    8dac:	2500      	movgt	r5, #0
    8dae:	2501      	movle	r5, #1
    8db0:	2b03      	cmp	r3, #3
    8db2:	d821      	bhi.n	8df8 <_dtoa_r+0x278>
    8db4:	e8df f003 	tbb	[pc, r3]
    8db8:	04020f06 	.word	0x04020f06
    8dbc:	2701      	movs	r7, #1
    8dbe:	e002      	b.n	8dc6 <_dtoa_r+0x246>
    8dc0:	2701      	movs	r7, #1
    8dc2:	e009      	b.n	8dd8 <_dtoa_r+0x258>
    8dc4:	2700      	movs	r7, #0
    8dc6:	970f      	str	r7, [sp, #60]	; 0x3c
    8dc8:	9f25      	ldr	r7, [sp, #148]	; 0x94
    8dca:	2f00      	cmp	r7, #0
    8dcc:	dd1e      	ble.n	8e0c <_dtoa_r+0x28c>
    8dce:	970b      	str	r7, [sp, #44]	; 0x2c
    8dd0:	9707      	str	r7, [sp, #28]
    8dd2:	463b      	mov	r3, r7
    8dd4:	e01f      	b.n	8e16 <_dtoa_r+0x296>
    8dd6:	2700      	movs	r7, #0
    8dd8:	970f      	str	r7, [sp, #60]	; 0x3c
    8dda:	9f25      	ldr	r7, [sp, #148]	; 0x94
    8ddc:	444f      	add	r7, r9
    8dde:	970b      	str	r7, [sp, #44]	; 0x2c
    8de0:	3701      	adds	r7, #1
    8de2:	463b      	mov	r3, r7
    8de4:	9707      	str	r7, [sp, #28]
    8de6:	2b01      	cmp	r3, #1
    8de8:	bfb8      	it	lt
    8dea:	2301      	movlt	r3, #1
    8dec:	e013      	b.n	8e16 <_dtoa_r+0x296>
    8dee:	2501      	movs	r5, #1
    8df0:	2700      	movs	r7, #0
    8df2:	9724      	str	r7, [sp, #144]	; 0x90
    8df4:	950f      	str	r5, [sp, #60]	; 0x3c
    8df6:	e001      	b.n	8dfc <_dtoa_r+0x27c>
    8df8:	2701      	movs	r7, #1
    8dfa:	970f      	str	r7, [sp, #60]	; 0x3c
    8dfc:	f04f 37ff 	mov.w	r7, #4294967295
    8e00:	970b      	str	r7, [sp, #44]	; 0x2c
    8e02:	9707      	str	r7, [sp, #28]
    8e04:	2700      	movs	r7, #0
    8e06:	2312      	movs	r3, #18
    8e08:	9725      	str	r7, [sp, #148]	; 0x94
    8e0a:	e004      	b.n	8e16 <_dtoa_r+0x296>
    8e0c:	2701      	movs	r7, #1
    8e0e:	970b      	str	r7, [sp, #44]	; 0x2c
    8e10:	9707      	str	r7, [sp, #28]
    8e12:	463b      	mov	r3, r7
    8e14:	9725      	str	r7, [sp, #148]	; 0x94
    8e16:	f8da 4024 	ldr.w	r4, [sl, #36]	; 0x24
    8e1a:	2200      	movs	r2, #0
    8e1c:	6062      	str	r2, [r4, #4]
    8e1e:	2104      	movs	r1, #4
    8e20:	f101 0214 	add.w	r2, r1, #20
    8e24:	429a      	cmp	r2, r3
    8e26:	d821      	bhi.n	8e6c <_dtoa_r+0x2ec>
    8e28:	6862      	ldr	r2, [r4, #4]
    8e2a:	3201      	adds	r2, #1
    8e2c:	6062      	str	r2, [r4, #4]
    8e2e:	0049      	lsls	r1, r1, #1
    8e30:	e7f6      	b.n	8e20 <_dtoa_r+0x2a0>
    8e32:	bf00      	nop
    8e34:	f3af 8000 	nop.w
    8e38:	636f4361 	.word	0x636f4361
    8e3c:	3fd287a7 	.word	0x3fd287a7
    8e40:	8b60c8b3 	.word	0x8b60c8b3
    8e44:	3fc68a28 	.word	0x3fc68a28
    8e48:	509f79fb 	.word	0x509f79fb
    8e4c:	3fd34413 	.word	0x3fd34413
    8e50:	7ff00000 	.word	0x7ff00000
    8e54:	0000a6ad 	.word	0x0000a6ad
    8e58:	0000a6a4 	.word	0x0000a6a4
    8e5c:	00009ec1 	.word	0x00009ec1
    8e60:	fffffbee 	.word	0xfffffbee
    8e64:	3ff80000 	.word	0x3ff80000
    8e68:	0000a5a8 	.word	0x0000a5a8
    8e6c:	4650      	mov	r0, sl
    8e6e:	6861      	ldr	r1, [r4, #4]
    8e70:	f7ff f940 	bl	80f4 <_Balloc>
    8e74:	f8da 3024 	ldr.w	r3, [sl, #36]	; 0x24
    8e78:	9f07      	ldr	r7, [sp, #28]
    8e7a:	6020      	str	r0, [r4, #0]
    8e7c:	681b      	ldr	r3, [r3, #0]
    8e7e:	930a      	str	r3, [sp, #40]	; 0x28
    8e80:	2f0e      	cmp	r7, #14
    8e82:	f200 816b 	bhi.w	915c <_dtoa_r+0x5dc>
    8e86:	2d00      	cmp	r5, #0
    8e88:	f000 8168 	beq.w	915c <_dtoa_r+0x5dc>
    8e8c:	e9dd 0104 	ldrd	r0, r1, [sp, #16]
    8e90:	f1b9 0f00 	cmp.w	r9, #0
    8e94:	e9cd 0112 	strd	r0, r1, [sp, #72]	; 0x48
    8e98:	dd31      	ble.n	8efe <_dtoa_r+0x37e>
    8e9a:	4a81      	ldr	r2, [pc, #516]	; (90a0 <_dtoa_r+0x520>)
    8e9c:	f009 030f 	and.w	r3, r9, #15
    8ea0:	eb02 03c3 	add.w	r3, r2, r3, lsl #3
    8ea4:	e9d3 0100 	ldrd	r0, r1, [r3]
    8ea8:	ea4f 1429 	mov.w	r4, r9, asr #4
    8eac:	e9cd 010c 	strd	r0, r1, [sp, #48]	; 0x30
    8eb0:	06e0      	lsls	r0, r4, #27
    8eb2:	d50c      	bpl.n	8ece <_dtoa_r+0x34e>
    8eb4:	4b7b      	ldr	r3, [pc, #492]	; (90a4 <_dtoa_r+0x524>)
    8eb6:	e9dd 0112 	ldrd	r0, r1, [sp, #72]	; 0x48
    8eba:	e9d3 2308 	ldrd	r2, r3, [r3, #32]
    8ebe:	f7fc feaf 	bl	5c20 <__aeabi_ddiv>
    8ec2:	f004 040f 	and.w	r4, r4, #15
    8ec6:	e9cd 0104 	strd	r0, r1, [sp, #16]
    8eca:	2703      	movs	r7, #3
    8ecc:	e000      	b.n	8ed0 <_dtoa_r+0x350>
    8ece:	2702      	movs	r7, #2
    8ed0:	4d74      	ldr	r5, [pc, #464]	; (90a4 <_dtoa_r+0x524>)
    8ed2:	b16c      	cbz	r4, 8ef0 <_dtoa_r+0x370>
    8ed4:	07e1      	lsls	r1, r4, #31
    8ed6:	d508      	bpl.n	8eea <_dtoa_r+0x36a>
    8ed8:	e9dd 010c 	ldrd	r0, r1, [sp, #48]	; 0x30
    8edc:	e9d5 2300 	ldrd	r2, r3, [r5]
    8ee0:	f7fc fd74 	bl	59cc <__aeabi_dmul>
    8ee4:	e9cd 010c 	strd	r0, r1, [sp, #48]	; 0x30
    8ee8:	3701      	adds	r7, #1
    8eea:	1064      	asrs	r4, r4, #1
    8eec:	3508      	adds	r5, #8
    8eee:	e7f0      	b.n	8ed2 <_dtoa_r+0x352>
    8ef0:	e9dd 0104 	ldrd	r0, r1, [sp, #16]
    8ef4:	e9dd 230c 	ldrd	r2, r3, [sp, #48]	; 0x30
    8ef8:	f7fc fe92 	bl	5c20 <__aeabi_ddiv>
    8efc:	e01b      	b.n	8f36 <_dtoa_r+0x3b6>
    8efe:	f1c9 0400 	rsb	r4, r9, #0
    8f02:	b1dc      	cbz	r4, 8f3c <_dtoa_r+0x3bc>
    8f04:	4b66      	ldr	r3, [pc, #408]	; (90a0 <_dtoa_r+0x520>)
    8f06:	4d67      	ldr	r5, [pc, #412]	; (90a4 <_dtoa_r+0x524>)
    8f08:	f004 020f 	and.w	r2, r4, #15
    8f0c:	eb03 03c2 	add.w	r3, r3, r2, lsl #3
    8f10:	e9dd 0112 	ldrd	r0, r1, [sp, #72]	; 0x48
    8f14:	e9d3 2300 	ldrd	r2, r3, [r3]
    8f18:	f7fc fd58 	bl	59cc <__aeabi_dmul>
    8f1c:	1124      	asrs	r4, r4, #4
    8f1e:	2702      	movs	r7, #2
    8f20:	b14c      	cbz	r4, 8f36 <_dtoa_r+0x3b6>
    8f22:	07e2      	lsls	r2, r4, #31
    8f24:	d504      	bpl.n	8f30 <_dtoa_r+0x3b0>
    8f26:	e9d5 2300 	ldrd	r2, r3, [r5]
    8f2a:	3701      	adds	r7, #1
    8f2c:	f7fc fd4e 	bl	59cc <__aeabi_dmul>
    8f30:	1064      	asrs	r4, r4, #1
    8f32:	3508      	adds	r5, #8
    8f34:	e7f4      	b.n	8f20 <_dtoa_r+0x3a0>
    8f36:	e9cd 0104 	strd	r0, r1, [sp, #16]
    8f3a:	e000      	b.n	8f3e <_dtoa_r+0x3be>
    8f3c:	2702      	movs	r7, #2
    8f3e:	9914      	ldr	r1, [sp, #80]	; 0x50
    8f40:	b1e9      	cbz	r1, 8f7e <_dtoa_r+0x3fe>
    8f42:	e9dd 4504 	ldrd	r4, r5, [sp, #16]
    8f46:	2200      	movs	r2, #0
    8f48:	4620      	mov	r0, r4
    8f4a:	4629      	mov	r1, r5
    8f4c:	4b56      	ldr	r3, [pc, #344]	; (90a8 <_dtoa_r+0x528>)
    8f4e:	f7fc ffaf 	bl	5eb0 <__aeabi_dcmplt>
    8f52:	b1c8      	cbz	r0, 8f88 <_dtoa_r+0x408>
    8f54:	9a07      	ldr	r2, [sp, #28]
    8f56:	b1e2      	cbz	r2, 8f92 <_dtoa_r+0x412>
    8f58:	9b0b      	ldr	r3, [sp, #44]	; 0x2c
    8f5a:	2b00      	cmp	r3, #0
    8f5c:	f340 80fa 	ble.w	9154 <_dtoa_r+0x5d4>
    8f60:	f109 30ff 	add.w	r0, r9, #4294967295
    8f64:	9010      	str	r0, [sp, #64]	; 0x40
    8f66:	4629      	mov	r1, r5
    8f68:	4620      	mov	r0, r4
    8f6a:	2200      	movs	r2, #0
    8f6c:	4b4f      	ldr	r3, [pc, #316]	; (90ac <_dtoa_r+0x52c>)
    8f6e:	f7fc fd2d 	bl	59cc <__aeabi_dmul>
    8f72:	e9cd 0104 	strd	r0, r1, [sp, #16]
    8f76:	990b      	ldr	r1, [sp, #44]	; 0x2c
    8f78:	910c      	str	r1, [sp, #48]	; 0x30
    8f7a:	3701      	adds	r7, #1
    8f7c:	e00d      	b.n	8f9a <_dtoa_r+0x41a>
    8f7e:	9a07      	ldr	r2, [sp, #28]
    8f80:	f8cd 9040 	str.w	r9, [sp, #64]	; 0x40
    8f84:	920c      	str	r2, [sp, #48]	; 0x30
    8f86:	e008      	b.n	8f9a <_dtoa_r+0x41a>
    8f88:	9b07      	ldr	r3, [sp, #28]
    8f8a:	f8cd 9040 	str.w	r9, [sp, #64]	; 0x40
    8f8e:	930c      	str	r3, [sp, #48]	; 0x30
    8f90:	e003      	b.n	8f9a <_dtoa_r+0x41a>
    8f92:	9807      	ldr	r0, [sp, #28]
    8f94:	f8cd 9040 	str.w	r9, [sp, #64]	; 0x40
    8f98:	900c      	str	r0, [sp, #48]	; 0x30
    8f9a:	4638      	mov	r0, r7
    8f9c:	f7fc fcb0 	bl	5900 <__aeabi_i2d>
    8fa0:	e9dd 2304 	ldrd	r2, r3, [sp, #16]
    8fa4:	f7fc fd12 	bl	59cc <__aeabi_dmul>
    8fa8:	2200      	movs	r2, #0
    8faa:	4b41      	ldr	r3, [pc, #260]	; (90b0 <_dtoa_r+0x530>)
    8fac:	f7fc fb5c 	bl	5668 <__adddf3>
    8fb0:	9f0c      	ldr	r7, [sp, #48]	; 0x30
    8fb2:	4604      	mov	r4, r0
    8fb4:	f1a1 7550 	sub.w	r5, r1, #54525952	; 0x3400000
    8fb8:	b9cf      	cbnz	r7, 8fee <_dtoa_r+0x46e>
    8fba:	2200      	movs	r2, #0
    8fbc:	4b3d      	ldr	r3, [pc, #244]	; (90b4 <_dtoa_r+0x534>)
    8fbe:	e9dd 0104 	ldrd	r0, r1, [sp, #16]
    8fc2:	f7fc fb4f 	bl	5664 <__aeabi_dsub>
    8fc6:	4622      	mov	r2, r4
    8fc8:	462b      	mov	r3, r5
    8fca:	4606      	mov	r6, r0
    8fcc:	460f      	mov	r7, r1
    8fce:	f7fc ff8d 	bl	5eec <__aeabi_dcmpgt>
    8fd2:	2800      	cmp	r0, #0
    8fd4:	f040 8253 	bne.w	947e <_dtoa_r+0x8fe>
    8fd8:	4622      	mov	r2, r4
    8fda:	f105 4300 	add.w	r3, r5, #2147483648	; 0x80000000
    8fde:	4630      	mov	r0, r6
    8fe0:	4639      	mov	r1, r7
    8fe2:	f7fc ff65 	bl	5eb0 <__aeabi_dcmplt>
    8fe6:	2800      	cmp	r0, #0
    8fe8:	f040 823f 	bne.w	946a <_dtoa_r+0x8ea>
    8fec:	e0b2      	b.n	9154 <_dtoa_r+0x5d4>
    8fee:	9f0c      	ldr	r7, [sp, #48]	; 0x30
    8ff0:	4b2b      	ldr	r3, [pc, #172]	; (90a0 <_dtoa_r+0x520>)
    8ff2:	1e7a      	subs	r2, r7, #1
    8ff4:	9f0f      	ldr	r7, [sp, #60]	; 0x3c
    8ff6:	eb03 03c2 	add.w	r3, r3, r2, lsl #3
    8ffa:	2f00      	cmp	r7, #0
    8ffc:	d05e      	beq.n	90bc <_dtoa_r+0x53c>
    8ffe:	e9d3 2300 	ldrd	r2, r3, [r3]
    9002:	2000      	movs	r0, #0
    9004:	492c      	ldr	r1, [pc, #176]	; (90b8 <_dtoa_r+0x538>)
    9006:	f7fc fe0b 	bl	5c20 <__aeabi_ddiv>
    900a:	4622      	mov	r2, r4
    900c:	462b      	mov	r3, r5
    900e:	f7fc fb29 	bl	5664 <__aeabi_dsub>
    9012:	e9dd 6704 	ldrd	r6, r7, [sp, #16]
    9016:	f8dd 8028 	ldr.w	r8, [sp, #40]	; 0x28
    901a:	4604      	mov	r4, r0
    901c:	460d      	mov	r5, r1
    901e:	4639      	mov	r1, r7
    9020:	4630      	mov	r0, r6
    9022:	f7fc ff6d 	bl	5f00 <__aeabi_d2iz>
    9026:	9002      	str	r0, [sp, #8]
    9028:	f7fc fc6a 	bl	5900 <__aeabi_i2d>
    902c:	4602      	mov	r2, r0
    902e:	460b      	mov	r3, r1
    9030:	4630      	mov	r0, r6
    9032:	4639      	mov	r1, r7
    9034:	f7fc fb16 	bl	5664 <__aeabi_dsub>
    9038:	f8dd c008 	ldr.w	ip, [sp, #8]
    903c:	f10c 0330 	add.w	r3, ip, #48	; 0x30
    9040:	f808 3b01 	strb.w	r3, [r8], #1
    9044:	4622      	mov	r2, r4
    9046:	462b      	mov	r3, r5
    9048:	4606      	mov	r6, r0
    904a:	460f      	mov	r7, r1
    904c:	f7fc ff30 	bl	5eb0 <__aeabi_dcmplt>
    9050:	2800      	cmp	r0, #0
    9052:	f040 833b 	bne.w	96cc <_dtoa_r+0xb4c>
    9056:	4632      	mov	r2, r6
    9058:	463b      	mov	r3, r7
    905a:	2000      	movs	r0, #0
    905c:	4912      	ldr	r1, [pc, #72]	; (90a8 <_dtoa_r+0x528>)
    905e:	f7fc fb01 	bl	5664 <__aeabi_dsub>
    9062:	4622      	mov	r2, r4
    9064:	462b      	mov	r3, r5
    9066:	f7fc ff23 	bl	5eb0 <__aeabi_dcmplt>
    906a:	2800      	cmp	r0, #0
    906c:	f040 80d5 	bne.w	921a <_dtoa_r+0x69a>
    9070:	980a      	ldr	r0, [sp, #40]	; 0x28
    9072:	990c      	ldr	r1, [sp, #48]	; 0x30
    9074:	ebc0 0308 	rsb	r3, r0, r8
    9078:	428b      	cmp	r3, r1
    907a:	da6b      	bge.n	9154 <_dtoa_r+0x5d4>
    907c:	4620      	mov	r0, r4
    907e:	4629      	mov	r1, r5
    9080:	2200      	movs	r2, #0
    9082:	4b0a      	ldr	r3, [pc, #40]	; (90ac <_dtoa_r+0x52c>)
    9084:	f7fc fca2 	bl	59cc <__aeabi_dmul>
    9088:	2200      	movs	r2, #0
    908a:	4604      	mov	r4, r0
    908c:	460d      	mov	r5, r1
    908e:	4630      	mov	r0, r6
    9090:	4639      	mov	r1, r7
    9092:	4b06      	ldr	r3, [pc, #24]	; (90ac <_dtoa_r+0x52c>)
    9094:	f7fc fc9a 	bl	59cc <__aeabi_dmul>
    9098:	4606      	mov	r6, r0
    909a:	460f      	mov	r7, r1
    909c:	e7bf      	b.n	901e <_dtoa_r+0x49e>
    909e:	bf00      	nop
    90a0:	0000a5a8 	.word	0x0000a5a8
    90a4:	0000a670 	.word	0x0000a670
    90a8:	3ff00000 	.word	0x3ff00000
    90ac:	40240000 	.word	0x40240000
    90b0:	401c0000 	.word	0x401c0000
    90b4:	40140000 	.word	0x40140000
    90b8:	3fe00000 	.word	0x3fe00000
    90bc:	4622      	mov	r2, r4
    90be:	e9d3 0100 	ldrd	r0, r1, [r3]
    90c2:	462b      	mov	r3, r5
    90c4:	f7fc fc82 	bl	59cc <__aeabi_dmul>
    90c8:	f8dd 8028 	ldr.w	r8, [sp, #40]	; 0x28
    90cc:	9a0c      	ldr	r2, [sp, #48]	; 0x30
    90ce:	9c0a      	ldr	r4, [sp, #40]	; 0x28
    90d0:	e9cd 0116 	strd	r0, r1, [sp, #88]	; 0x58
    90d4:	e9dd 6704 	ldrd	r6, r7, [sp, #16]
    90d8:	4490      	add	r8, r2
    90da:	4639      	mov	r1, r7
    90dc:	4630      	mov	r0, r6
    90de:	f7fc ff0f 	bl	5f00 <__aeabi_d2iz>
    90e2:	4605      	mov	r5, r0
    90e4:	f7fc fc0c 	bl	5900 <__aeabi_i2d>
    90e8:	3530      	adds	r5, #48	; 0x30
    90ea:	4602      	mov	r2, r0
    90ec:	460b      	mov	r3, r1
    90ee:	4630      	mov	r0, r6
    90f0:	4639      	mov	r1, r7
    90f2:	f7fc fab7 	bl	5664 <__aeabi_dsub>
    90f6:	f804 5b01 	strb.w	r5, [r4], #1
    90fa:	4544      	cmp	r4, r8
    90fc:	4606      	mov	r6, r0
    90fe:	460f      	mov	r7, r1
    9100:	d121      	bne.n	9146 <_dtoa_r+0x5c6>
    9102:	2200      	movs	r2, #0
    9104:	4b87      	ldr	r3, [pc, #540]	; (9324 <_dtoa_r+0x7a4>)
    9106:	e9dd 0116 	ldrd	r0, r1, [sp, #88]	; 0x58
    910a:	f7fc faad 	bl	5668 <__adddf3>
    910e:	4602      	mov	r2, r0
    9110:	460b      	mov	r3, r1
    9112:	4630      	mov	r0, r6
    9114:	4639      	mov	r1, r7
    9116:	f7fc fee9 	bl	5eec <__aeabi_dcmpgt>
    911a:	2800      	cmp	r0, #0
    911c:	d17d      	bne.n	921a <_dtoa_r+0x69a>
    911e:	e9dd 2316 	ldrd	r2, r3, [sp, #88]	; 0x58
    9122:	2000      	movs	r0, #0
    9124:	497f      	ldr	r1, [pc, #508]	; (9324 <_dtoa_r+0x7a4>)
    9126:	f7fc fa9d 	bl	5664 <__aeabi_dsub>
    912a:	4602      	mov	r2, r0
    912c:	460b      	mov	r3, r1
    912e:	4630      	mov	r0, r6
    9130:	4639      	mov	r1, r7
    9132:	f7fc febd 	bl	5eb0 <__aeabi_dcmplt>
    9136:	b168      	cbz	r0, 9154 <_dtoa_r+0x5d4>
    9138:	46a0      	mov	r8, r4
    913a:	3c01      	subs	r4, #1
    913c:	f818 3c01 	ldrb.w	r3, [r8, #-1]
    9140:	2b30      	cmp	r3, #48	; 0x30
    9142:	d0f9      	beq.n	9138 <_dtoa_r+0x5b8>
    9144:	e2c2      	b.n	96cc <_dtoa_r+0xb4c>
    9146:	2200      	movs	r2, #0
    9148:	4b77      	ldr	r3, [pc, #476]	; (9328 <_dtoa_r+0x7a8>)
    914a:	f7fc fc3f 	bl	59cc <__aeabi_dmul>
    914e:	4606      	mov	r6, r0
    9150:	460f      	mov	r7, r1
    9152:	e7c2      	b.n	90da <_dtoa_r+0x55a>
    9154:	e9dd 0112 	ldrd	r0, r1, [sp, #72]	; 0x48
    9158:	e9cd 0104 	strd	r0, r1, [sp, #16]
    915c:	9b19      	ldr	r3, [sp, #100]	; 0x64
    915e:	2b00      	cmp	r3, #0
    9160:	db7c      	blt.n	925c <_dtoa_r+0x6dc>
    9162:	f1b9 0f0e 	cmp.w	r9, #14
    9166:	dc79      	bgt.n	925c <_dtoa_r+0x6dc>
    9168:	4b70      	ldr	r3, [pc, #448]	; (932c <_dtoa_r+0x7ac>)
    916a:	9f25      	ldr	r7, [sp, #148]	; 0x94
    916c:	eb03 03c9 	add.w	r3, r3, r9, lsl #3
    9170:	2f00      	cmp	r7, #0
    9172:	e9d3 4500 	ldrd	r4, r5, [r3]
    9176:	da14      	bge.n	91a2 <_dtoa_r+0x622>
    9178:	9f07      	ldr	r7, [sp, #28]
    917a:	2f00      	cmp	r7, #0
    917c:	dc11      	bgt.n	91a2 <_dtoa_r+0x622>
    917e:	f040 8176 	bne.w	946e <_dtoa_r+0x8ee>
    9182:	4620      	mov	r0, r4
    9184:	4629      	mov	r1, r5
    9186:	2200      	movs	r2, #0
    9188:	4b69      	ldr	r3, [pc, #420]	; (9330 <_dtoa_r+0x7b0>)
    918a:	f7fc fc1f 	bl	59cc <__aeabi_dmul>
    918e:	e9dd 2304 	ldrd	r2, r3, [sp, #16]
    9192:	f7fc fea1 	bl	5ed8 <__aeabi_dcmpge>
    9196:	9d07      	ldr	r5, [sp, #28]
    9198:	462c      	mov	r4, r5
    919a:	2800      	cmp	r0, #0
    919c:	f040 8169 	bne.w	9472 <_dtoa_r+0x8f2>
    91a0:	e171      	b.n	9486 <_dtoa_r+0x906>
    91a2:	e9dd 6704 	ldrd	r6, r7, [sp, #16]
    91a6:	f8dd 8028 	ldr.w	r8, [sp, #40]	; 0x28
    91aa:	4622      	mov	r2, r4
    91ac:	462b      	mov	r3, r5
    91ae:	4630      	mov	r0, r6
    91b0:	4639      	mov	r1, r7
    91b2:	f7fc fd35 	bl	5c20 <__aeabi_ddiv>
    91b6:	f7fc fea3 	bl	5f00 <__aeabi_d2iz>
    91ba:	9004      	str	r0, [sp, #16]
    91bc:	f7fc fba0 	bl	5900 <__aeabi_i2d>
    91c0:	4622      	mov	r2, r4
    91c2:	462b      	mov	r3, r5
    91c4:	f7fc fc02 	bl	59cc <__aeabi_dmul>
    91c8:	4602      	mov	r2, r0
    91ca:	460b      	mov	r3, r1
    91cc:	4630      	mov	r0, r6
    91ce:	4639      	mov	r1, r7
    91d0:	f7fc fa48 	bl	5664 <__aeabi_dsub>
    91d4:	9f04      	ldr	r7, [sp, #16]
    91d6:	f107 0630 	add.w	r6, r7, #48	; 0x30
    91da:	f808 6b01 	strb.w	r6, [r8], #1
    91de:	9f0a      	ldr	r7, [sp, #40]	; 0x28
    91e0:	ebc7 0608 	rsb	r6, r7, r8
    91e4:	9f07      	ldr	r7, [sp, #28]
    91e6:	42be      	cmp	r6, r7
    91e8:	4602      	mov	r2, r0
    91ea:	460b      	mov	r3, r1
    91ec:	d129      	bne.n	9242 <_dtoa_r+0x6c2>
    91ee:	f7fc fa3b 	bl	5668 <__adddf3>
    91f2:	4622      	mov	r2, r4
    91f4:	462b      	mov	r3, r5
    91f6:	4606      	mov	r6, r0
    91f8:	460f      	mov	r7, r1
    91fa:	f7fc fe77 	bl	5eec <__aeabi_dcmpgt>
    91fe:	b970      	cbnz	r0, 921e <_dtoa_r+0x69e>
    9200:	4630      	mov	r0, r6
    9202:	4639      	mov	r1, r7
    9204:	4622      	mov	r2, r4
    9206:	462b      	mov	r3, r5
    9208:	f7fc fe48 	bl	5e9c <__aeabi_dcmpeq>
    920c:	2800      	cmp	r0, #0
    920e:	f000 825f 	beq.w	96d0 <_dtoa_r+0xb50>
    9212:	9f04      	ldr	r7, [sp, #16]
    9214:	07fb      	lsls	r3, r7, #31
    9216:	d402      	bmi.n	921e <_dtoa_r+0x69e>
    9218:	e25a      	b.n	96d0 <_dtoa_r+0xb50>
    921a:	f8dd 9040 	ldr.w	r9, [sp, #64]	; 0x40
    921e:	4643      	mov	r3, r8
    9220:	4698      	mov	r8, r3
    9222:	3b01      	subs	r3, #1
    9224:	f818 2c01 	ldrb.w	r2, [r8, #-1]
    9228:	2a39      	cmp	r2, #57	; 0x39
    922a:	d106      	bne.n	923a <_dtoa_r+0x6ba>
    922c:	9f0a      	ldr	r7, [sp, #40]	; 0x28
    922e:	429f      	cmp	r7, r3
    9230:	d1f6      	bne.n	9220 <_dtoa_r+0x6a0>
    9232:	2230      	movs	r2, #48	; 0x30
    9234:	f109 0901 	add.w	r9, r9, #1
    9238:	703a      	strb	r2, [r7, #0]
    923a:	781a      	ldrb	r2, [r3, #0]
    923c:	3201      	adds	r2, #1
    923e:	701a      	strb	r2, [r3, #0]
    9240:	e246      	b.n	96d0 <_dtoa_r+0xb50>
    9242:	2200      	movs	r2, #0
    9244:	4b38      	ldr	r3, [pc, #224]	; (9328 <_dtoa_r+0x7a8>)
    9246:	f7fc fbc1 	bl	59cc <__aeabi_dmul>
    924a:	2200      	movs	r2, #0
    924c:	2300      	movs	r3, #0
    924e:	4606      	mov	r6, r0
    9250:	460f      	mov	r7, r1
    9252:	f7fc fe23 	bl	5e9c <__aeabi_dcmpeq>
    9256:	2800      	cmp	r0, #0
    9258:	d0a7      	beq.n	91aa <_dtoa_r+0x62a>
    925a:	e239      	b.n	96d0 <_dtoa_r+0xb50>
    925c:	9f0f      	ldr	r7, [sp, #60]	; 0x3c
    925e:	2f00      	cmp	r7, #0
    9260:	d030      	beq.n	92c4 <_dtoa_r+0x744>
    9262:	9f24      	ldr	r7, [sp, #144]	; 0x90
    9264:	2f01      	cmp	r7, #1
    9266:	dc0a      	bgt.n	927e <_dtoa_r+0x6fe>
    9268:	9f15      	ldr	r7, [sp, #84]	; 0x54
    926a:	b117      	cbz	r7, 9272 <_dtoa_r+0x6f2>
    926c:	f203 4333 	addw	r3, r3, #1075	; 0x433
    9270:	e002      	b.n	9278 <_dtoa_r+0x6f8>
    9272:	9b18      	ldr	r3, [sp, #96]	; 0x60
    9274:	f1c3 0336 	rsb	r3, r3, #54	; 0x36
    9278:	9d0e      	ldr	r5, [sp, #56]	; 0x38
    927a:	9e08      	ldr	r6, [sp, #32]
    927c:	e016      	b.n	92ac <_dtoa_r+0x72c>
    927e:	9f07      	ldr	r7, [sp, #28]
    9280:	1e7d      	subs	r5, r7, #1
    9282:	9f0e      	ldr	r7, [sp, #56]	; 0x38
    9284:	42af      	cmp	r7, r5
    9286:	db01      	blt.n	928c <_dtoa_r+0x70c>
    9288:	1b7d      	subs	r5, r7, r5
    928a:	e006      	b.n	929a <_dtoa_r+0x71a>
    928c:	9f0e      	ldr	r7, [sp, #56]	; 0x38
    928e:	950e      	str	r5, [sp, #56]	; 0x38
    9290:	1beb      	subs	r3, r5, r7
    9292:	9f11      	ldr	r7, [sp, #68]	; 0x44
    9294:	441f      	add	r7, r3
    9296:	9711      	str	r7, [sp, #68]	; 0x44
    9298:	2500      	movs	r5, #0
    929a:	9f07      	ldr	r7, [sp, #28]
    929c:	2f00      	cmp	r7, #0
    929e:	da03      	bge.n	92a8 <_dtoa_r+0x728>
    92a0:	9808      	ldr	r0, [sp, #32]
    92a2:	2300      	movs	r3, #0
    92a4:	1bc6      	subs	r6, r0, r7
    92a6:	e001      	b.n	92ac <_dtoa_r+0x72c>
    92a8:	9e08      	ldr	r6, [sp, #32]
    92aa:	9b07      	ldr	r3, [sp, #28]
    92ac:	9f08      	ldr	r7, [sp, #32]
    92ae:	441f      	add	r7, r3
    92b0:	9708      	str	r7, [sp, #32]
    92b2:	9f09      	ldr	r7, [sp, #36]	; 0x24
    92b4:	4650      	mov	r0, sl
    92b6:	441f      	add	r7, r3
    92b8:	2101      	movs	r1, #1
    92ba:	9709      	str	r7, [sp, #36]	; 0x24
    92bc:	f7ff f82f 	bl	831e <__i2b>
    92c0:	4604      	mov	r4, r0
    92c2:	e002      	b.n	92ca <_dtoa_r+0x74a>
    92c4:	9d0e      	ldr	r5, [sp, #56]	; 0x38
    92c6:	9e08      	ldr	r6, [sp, #32]
    92c8:	9c0f      	ldr	r4, [sp, #60]	; 0x3c
    92ca:	b16e      	cbz	r6, 92e8 <_dtoa_r+0x768>
    92cc:	9f09      	ldr	r7, [sp, #36]	; 0x24
    92ce:	2f00      	cmp	r7, #0
    92d0:	dd0a      	ble.n	92e8 <_dtoa_r+0x768>
    92d2:	463b      	mov	r3, r7
    92d4:	9f08      	ldr	r7, [sp, #32]
    92d6:	42b3      	cmp	r3, r6
    92d8:	bfa8      	it	ge
    92da:	4633      	movge	r3, r6
    92dc:	1aff      	subs	r7, r7, r3
    92de:	9708      	str	r7, [sp, #32]
    92e0:	9f09      	ldr	r7, [sp, #36]	; 0x24
    92e2:	1aff      	subs	r7, r7, r3
    92e4:	1af6      	subs	r6, r6, r3
    92e6:	9709      	str	r7, [sp, #36]	; 0x24
    92e8:	9f0e      	ldr	r7, [sp, #56]	; 0x38
    92ea:	2f00      	cmp	r7, #0
    92ec:	dd28      	ble.n	9340 <_dtoa_r+0x7c0>
    92ee:	9f0f      	ldr	r7, [sp, #60]	; 0x3c
    92f0:	b307      	cbz	r7, 9334 <_dtoa_r+0x7b4>
    92f2:	2d00      	cmp	r5, #0
    92f4:	dd10      	ble.n	9318 <_dtoa_r+0x798>
    92f6:	4621      	mov	r1, r4
    92f8:	462a      	mov	r2, r5
    92fa:	4650      	mov	r0, sl
    92fc:	f7ff f8b0 	bl	8460 <__pow5mult>
    9300:	4604      	mov	r4, r0
    9302:	465a      	mov	r2, fp
    9304:	4621      	mov	r1, r4
    9306:	4650      	mov	r0, sl
    9308:	f7ff f812 	bl	8330 <__multiply>
    930c:	4659      	mov	r1, fp
    930e:	4607      	mov	r7, r0
    9310:	4650      	mov	r0, sl
    9312:	f7fe ff24 	bl	815e <_Bfree>
    9316:	46bb      	mov	fp, r7
    9318:	9f0e      	ldr	r7, [sp, #56]	; 0x38
    931a:	1b7a      	subs	r2, r7, r5
    931c:	d010      	beq.n	9340 <_dtoa_r+0x7c0>
    931e:	4650      	mov	r0, sl
    9320:	4659      	mov	r1, fp
    9322:	e00a      	b.n	933a <_dtoa_r+0x7ba>
    9324:	3fe00000 	.word	0x3fe00000
    9328:	40240000 	.word	0x40240000
    932c:	0000a5a8 	.word	0x0000a5a8
    9330:	40140000 	.word	0x40140000
    9334:	9a0e      	ldr	r2, [sp, #56]	; 0x38
    9336:	4650      	mov	r0, sl
    9338:	4659      	mov	r1, fp
    933a:	f7ff f891 	bl	8460 <__pow5mult>
    933e:	4683      	mov	fp, r0
    9340:	4650      	mov	r0, sl
    9342:	2101      	movs	r1, #1
    9344:	f7fe ffeb 	bl	831e <__i2b>
    9348:	9f11      	ldr	r7, [sp, #68]	; 0x44
    934a:	2f00      	cmp	r7, #0
    934c:	4605      	mov	r5, r0
    934e:	dd05      	ble.n	935c <_dtoa_r+0x7dc>
    9350:	4629      	mov	r1, r5
    9352:	4650      	mov	r0, sl
    9354:	463a      	mov	r2, r7
    9356:	f7ff f883 	bl	8460 <__pow5mult>
    935a:	4605      	mov	r5, r0
    935c:	9f24      	ldr	r7, [sp, #144]	; 0x90
    935e:	2f01      	cmp	r7, #1
    9360:	dc12      	bgt.n	9388 <_dtoa_r+0x808>
    9362:	9804      	ldr	r0, [sp, #16]
    9364:	b980      	cbnz	r0, 9388 <_dtoa_r+0x808>
    9366:	9905      	ldr	r1, [sp, #20]
    9368:	f3c1 0313 	ubfx	r3, r1, #0, #20
    936c:	b973      	cbnz	r3, 938c <_dtoa_r+0x80c>
    936e:	f021 4700 	bic.w	r7, r1, #2147483648	; 0x80000000
    9372:	0d3f      	lsrs	r7, r7, #20
    9374:	053f      	lsls	r7, r7, #20
    9376:	b157      	cbz	r7, 938e <_dtoa_r+0x80e>
    9378:	9f08      	ldr	r7, [sp, #32]
    937a:	3701      	adds	r7, #1
    937c:	9708      	str	r7, [sp, #32]
    937e:	9f09      	ldr	r7, [sp, #36]	; 0x24
    9380:	3701      	adds	r7, #1
    9382:	9709      	str	r7, [sp, #36]	; 0x24
    9384:	2701      	movs	r7, #1
    9386:	e002      	b.n	938e <_dtoa_r+0x80e>
    9388:	2700      	movs	r7, #0
    938a:	e000      	b.n	938e <_dtoa_r+0x80e>
    938c:	9f04      	ldr	r7, [sp, #16]
    938e:	9811      	ldr	r0, [sp, #68]	; 0x44
    9390:	b140      	cbz	r0, 93a4 <_dtoa_r+0x824>
    9392:	692b      	ldr	r3, [r5, #16]
    9394:	eb05 0383 	add.w	r3, r5, r3, lsl #2
    9398:	6918      	ldr	r0, [r3, #16]
    939a:	f7fe ff73 	bl	8284 <__hi0bits>
    939e:	f1c0 0020 	rsb	r0, r0, #32
    93a2:	e000      	b.n	93a6 <_dtoa_r+0x826>
    93a4:	2001      	movs	r0, #1
    93a6:	9b09      	ldr	r3, [sp, #36]	; 0x24
    93a8:	4403      	add	r3, r0
    93aa:	f013 031f 	ands.w	r3, r3, #31
    93ae:	d00f      	beq.n	93d0 <_dtoa_r+0x850>
    93b0:	f1c3 0220 	rsb	r2, r3, #32
    93b4:	2a04      	cmp	r2, #4
    93b6:	dd09      	ble.n	93cc <_dtoa_r+0x84c>
    93b8:	9908      	ldr	r1, [sp, #32]
    93ba:	9a09      	ldr	r2, [sp, #36]	; 0x24
    93bc:	f1c3 031c 	rsb	r3, r3, #28
    93c0:	4419      	add	r1, r3
    93c2:	441a      	add	r2, r3
    93c4:	9108      	str	r1, [sp, #32]
    93c6:	441e      	add	r6, r3
    93c8:	9209      	str	r2, [sp, #36]	; 0x24
    93ca:	e009      	b.n	93e0 <_dtoa_r+0x860>
    93cc:	d008      	beq.n	93e0 <_dtoa_r+0x860>
    93ce:	4613      	mov	r3, r2
    93d0:	9808      	ldr	r0, [sp, #32]
    93d2:	9909      	ldr	r1, [sp, #36]	; 0x24
    93d4:	331c      	adds	r3, #28
    93d6:	4418      	add	r0, r3
    93d8:	4419      	add	r1, r3
    93da:	9008      	str	r0, [sp, #32]
    93dc:	441e      	add	r6, r3
    93de:	9109      	str	r1, [sp, #36]	; 0x24
    93e0:	9a08      	ldr	r2, [sp, #32]
    93e2:	2a00      	cmp	r2, #0
    93e4:	dd04      	ble.n	93f0 <_dtoa_r+0x870>
    93e6:	4659      	mov	r1, fp
    93e8:	4650      	mov	r0, sl
    93ea:	f7ff f887 	bl	84fc <__lshift>
    93ee:	4683      	mov	fp, r0
    93f0:	9b09      	ldr	r3, [sp, #36]	; 0x24
    93f2:	2b00      	cmp	r3, #0
    93f4:	dd05      	ble.n	9402 <_dtoa_r+0x882>
    93f6:	4629      	mov	r1, r5
    93f8:	4650      	mov	r0, sl
    93fa:	461a      	mov	r2, r3
    93fc:	f7ff f87e 	bl	84fc <__lshift>
    9400:	4605      	mov	r5, r0
    9402:	9814      	ldr	r0, [sp, #80]	; 0x50
    9404:	b1e0      	cbz	r0, 9440 <_dtoa_r+0x8c0>
    9406:	4658      	mov	r0, fp
    9408:	4629      	mov	r1, r5
    940a:	f7ff f8ca 	bl	85a2 <__mcmp>
    940e:	2800      	cmp	r0, #0
    9410:	da16      	bge.n	9440 <_dtoa_r+0x8c0>
    9412:	4659      	mov	r1, fp
    9414:	4650      	mov	r0, sl
    9416:	220a      	movs	r2, #10
    9418:	2300      	movs	r3, #0
    941a:	f7fe feb7 	bl	818c <__multadd>
    941e:	990f      	ldr	r1, [sp, #60]	; 0x3c
    9420:	f109 39ff 	add.w	r9, r9, #4294967295
    9424:	4683      	mov	fp, r0
    9426:	b149      	cbz	r1, 943c <_dtoa_r+0x8bc>
    9428:	4621      	mov	r1, r4
    942a:	220a      	movs	r2, #10
    942c:	4650      	mov	r0, sl
    942e:	2300      	movs	r3, #0
    9430:	f7fe feac 	bl	818c <__multadd>
    9434:	9a0b      	ldr	r2, [sp, #44]	; 0x2c
    9436:	9207      	str	r2, [sp, #28]
    9438:	4604      	mov	r4, r0
    943a:	e001      	b.n	9440 <_dtoa_r+0x8c0>
    943c:	9b0b      	ldr	r3, [sp, #44]	; 0x2c
    943e:	9307      	str	r3, [sp, #28]
    9440:	9807      	ldr	r0, [sp, #28]
    9442:	2800      	cmp	r0, #0
    9444:	dc29      	bgt.n	949a <_dtoa_r+0x91a>
    9446:	9924      	ldr	r1, [sp, #144]	; 0x90
    9448:	2902      	cmp	r1, #2
    944a:	dd26      	ble.n	949a <_dtoa_r+0x91a>
    944c:	b988      	cbnz	r0, 9472 <_dtoa_r+0x8f2>
    944e:	4629      	mov	r1, r5
    9450:	2205      	movs	r2, #5
    9452:	9b07      	ldr	r3, [sp, #28]
    9454:	4650      	mov	r0, sl
    9456:	f7fe fe99 	bl	818c <__multadd>
    945a:	4605      	mov	r5, r0
    945c:	4629      	mov	r1, r5
    945e:	4658      	mov	r0, fp
    9460:	f7ff f89f 	bl	85a2 <__mcmp>
    9464:	2800      	cmp	r0, #0
    9466:	dc0e      	bgt.n	9486 <_dtoa_r+0x906>
    9468:	e003      	b.n	9472 <_dtoa_r+0x8f2>
    946a:	9d0c      	ldr	r5, [sp, #48]	; 0x30
    946c:	e000      	b.n	9470 <_dtoa_r+0x8f0>
    946e:	2500      	movs	r5, #0
    9470:	462c      	mov	r4, r5
    9472:	9f25      	ldr	r7, [sp, #148]	; 0x94
    9474:	f8dd 8028 	ldr.w	r8, [sp, #40]	; 0x28
    9478:	ea6f 0907 	mvn.w	r9, r7
    947c:	e00a      	b.n	9494 <_dtoa_r+0x914>
    947e:	9d0c      	ldr	r5, [sp, #48]	; 0x30
    9480:	f8dd 9040 	ldr.w	r9, [sp, #64]	; 0x40
    9484:	462c      	mov	r4, r5
    9486:	9f0a      	ldr	r7, [sp, #40]	; 0x28
    9488:	2331      	movs	r3, #49	; 0x31
    948a:	f107 0801 	add.w	r8, r7, #1
    948e:	703b      	strb	r3, [r7, #0]
    9490:	f109 0901 	add.w	r9, r9, #1
    9494:	4627      	mov	r7, r4
    9496:	2400      	movs	r4, #0
    9498:	e107      	b.n	96aa <_dtoa_r+0xb2a>
    949a:	980f      	ldr	r0, [sp, #60]	; 0x3c
    949c:	2800      	cmp	r0, #0
    949e:	f000 80bb 	beq.w	9618 <_dtoa_r+0xa98>
    94a2:	2e00      	cmp	r6, #0
    94a4:	dd05      	ble.n	94b2 <_dtoa_r+0x932>
    94a6:	4621      	mov	r1, r4
    94a8:	4650      	mov	r0, sl
    94aa:	4632      	mov	r2, r6
    94ac:	f7ff f826 	bl	84fc <__lshift>
    94b0:	4604      	mov	r4, r0
    94b2:	b19f      	cbz	r7, 94dc <_dtoa_r+0x95c>
    94b4:	6861      	ldr	r1, [r4, #4]
    94b6:	4650      	mov	r0, sl
    94b8:	f7fe fe1c 	bl	80f4 <_Balloc>
    94bc:	6922      	ldr	r2, [r4, #16]
    94be:	3202      	adds	r2, #2
    94c0:	4606      	mov	r6, r0
    94c2:	f104 010c 	add.w	r1, r4, #12
    94c6:	0092      	lsls	r2, r2, #2
    94c8:	300c      	adds	r0, #12
    94ca:	f7fd f915 	bl	66f8 <memcpy>
    94ce:	4650      	mov	r0, sl
    94d0:	4631      	mov	r1, r6
    94d2:	2201      	movs	r2, #1
    94d4:	f7ff f812 	bl	84fc <__lshift>
    94d8:	4607      	mov	r7, r0
    94da:	e000      	b.n	94de <_dtoa_r+0x95e>
    94dc:	4627      	mov	r7, r4
    94de:	9e0a      	ldr	r6, [sp, #40]	; 0x28
    94e0:	4629      	mov	r1, r5
    94e2:	4658      	mov	r0, fp
    94e4:	f7ff fabc 	bl	8a60 <quorem>
    94e8:	4621      	mov	r1, r4
    94ea:	f100 0c30 	add.w	ip, r0, #48	; 0x30
    94ee:	4680      	mov	r8, r0
    94f0:	4658      	mov	r0, fp
    94f2:	f8cd c008 	str.w	ip, [sp, #8]
    94f6:	f7ff f854 	bl	85a2 <__mcmp>
    94fa:	463a      	mov	r2, r7
    94fc:	9008      	str	r0, [sp, #32]
    94fe:	4629      	mov	r1, r5
    9500:	4650      	mov	r0, sl
    9502:	f7ff f86b 	bl	85dc <__mdiff>
    9506:	68c3      	ldr	r3, [r0, #12]
    9508:	f8dd c008 	ldr.w	ip, [sp, #8]
    950c:	4602      	mov	r2, r0
    950e:	b94b      	cbnz	r3, 9524 <_dtoa_r+0x9a4>
    9510:	4611      	mov	r1, r2
    9512:	4658      	mov	r0, fp
    9514:	9203      	str	r2, [sp, #12]
    9516:	f7ff f844 	bl	85a2 <__mcmp>
    951a:	9a03      	ldr	r2, [sp, #12]
    951c:	f8dd c008 	ldr.w	ip, [sp, #8]
    9520:	4603      	mov	r3, r0
    9522:	e000      	b.n	9526 <_dtoa_r+0x9a6>
    9524:	2301      	movs	r3, #1
    9526:	4650      	mov	r0, sl
    9528:	4611      	mov	r1, r2
    952a:	9303      	str	r3, [sp, #12]
    952c:	f8cd c008 	str.w	ip, [sp, #8]
    9530:	f7fe fe15 	bl	815e <_Bfree>
    9534:	9b03      	ldr	r3, [sp, #12]
    9536:	f8dd c008 	ldr.w	ip, [sp, #8]
    953a:	b963      	cbnz	r3, 9556 <_dtoa_r+0x9d6>
    953c:	9924      	ldr	r1, [sp, #144]	; 0x90
    953e:	b951      	cbnz	r1, 9556 <_dtoa_r+0x9d6>
    9540:	9804      	ldr	r0, [sp, #16]
    9542:	f000 0201 	and.w	r2, r0, #1
    9546:	b932      	cbnz	r2, 9556 <_dtoa_r+0x9d6>
    9548:	f1bc 0f39 	cmp.w	ip, #57	; 0x39
    954c:	d035      	beq.n	95ba <_dtoa_r+0xa3a>
    954e:	9b08      	ldr	r3, [sp, #32]
    9550:	2b00      	cmp	r3, #0
    9552:	dc24      	bgt.n	959e <_dtoa_r+0xa1e>
    9554:	e025      	b.n	95a2 <_dtoa_r+0xa22>
    9556:	9808      	ldr	r0, [sp, #32]
    9558:	2800      	cmp	r0, #0
    955a:	da02      	bge.n	9562 <_dtoa_r+0x9e2>
    955c:	2b00      	cmp	r3, #0
    955e:	dc08      	bgt.n	9572 <_dtoa_r+0x9f2>
    9560:	e01f      	b.n	95a2 <_dtoa_r+0xa22>
    9562:	d123      	bne.n	95ac <_dtoa_r+0xa2c>
    9564:	9924      	ldr	r1, [sp, #144]	; 0x90
    9566:	bb09      	cbnz	r1, 95ac <_dtoa_r+0xa2c>
    9568:	9804      	ldr	r0, [sp, #16]
    956a:	f000 0201 	and.w	r2, r0, #1
    956e:	b9ea      	cbnz	r2, 95ac <_dtoa_r+0xa2c>
    9570:	e7f4      	b.n	955c <_dtoa_r+0x9dc>
    9572:	4659      	mov	r1, fp
    9574:	2201      	movs	r2, #1
    9576:	4650      	mov	r0, sl
    9578:	f8cd c008 	str.w	ip, [sp, #8]
    957c:	f7fe ffbe 	bl	84fc <__lshift>
    9580:	4629      	mov	r1, r5
    9582:	4683      	mov	fp, r0
    9584:	f7ff f80d 	bl	85a2 <__mcmp>
    9588:	2800      	cmp	r0, #0
    958a:	f8dd c008 	ldr.w	ip, [sp, #8]
    958e:	dc03      	bgt.n	9598 <_dtoa_r+0xa18>
    9590:	d107      	bne.n	95a2 <_dtoa_r+0xa22>
    9592:	f01c 0f01 	tst.w	ip, #1
    9596:	d004      	beq.n	95a2 <_dtoa_r+0xa22>
    9598:	f1bc 0f39 	cmp.w	ip, #57	; 0x39
    959c:	d00d      	beq.n	95ba <_dtoa_r+0xa3a>
    959e:	f108 0c31 	add.w	ip, r8, #49	; 0x31
    95a2:	f106 0801 	add.w	r8, r6, #1
    95a6:	f886 c000 	strb.w	ip, [r6]
    95aa:	e07e      	b.n	96aa <_dtoa_r+0xb2a>
    95ac:	2b00      	cmp	r3, #0
    95ae:	f106 0801 	add.w	r8, r6, #1
    95b2:	dd09      	ble.n	95c8 <_dtoa_r+0xa48>
    95b4:	f1bc 0f39 	cmp.w	ip, #57	; 0x39
    95b8:	d103      	bne.n	95c2 <_dtoa_r+0xa42>
    95ba:	2339      	movs	r3, #57	; 0x39
    95bc:	7033      	strb	r3, [r6, #0]
    95be:	3601      	adds	r6, #1
    95c0:	e05b      	b.n	967a <_dtoa_r+0xafa>
    95c2:	f10c 0301 	add.w	r3, ip, #1
    95c6:	e068      	b.n	969a <_dtoa_r+0xb1a>
    95c8:	990a      	ldr	r1, [sp, #40]	; 0x28
    95ca:	9a07      	ldr	r2, [sp, #28]
    95cc:	4646      	mov	r6, r8
    95ce:	ebc1 0308 	rsb	r3, r1, r8
    95d2:	4293      	cmp	r3, r2
    95d4:	f806 cc01 	strb.w	ip, [r6, #-1]
    95d8:	d03c      	beq.n	9654 <_dtoa_r+0xad4>
    95da:	4659      	mov	r1, fp
    95dc:	220a      	movs	r2, #10
    95de:	2300      	movs	r3, #0
    95e0:	4650      	mov	r0, sl
    95e2:	f7fe fdd3 	bl	818c <__multadd>
    95e6:	42bc      	cmp	r4, r7
    95e8:	4683      	mov	fp, r0
    95ea:	4621      	mov	r1, r4
    95ec:	4650      	mov	r0, sl
    95ee:	f04f 020a 	mov.w	r2, #10
    95f2:	f04f 0300 	mov.w	r3, #0
    95f6:	d104      	bne.n	9602 <_dtoa_r+0xa82>
    95f8:	f7fe fdc8 	bl	818c <__multadd>
    95fc:	4604      	mov	r4, r0
    95fe:	4607      	mov	r7, r0
    9600:	e76e      	b.n	94e0 <_dtoa_r+0x960>
    9602:	f7fe fdc3 	bl	818c <__multadd>
    9606:	4639      	mov	r1, r7
    9608:	4604      	mov	r4, r0
    960a:	220a      	movs	r2, #10
    960c:	4650      	mov	r0, sl
    960e:	2300      	movs	r3, #0
    9610:	f7fe fdbc 	bl	818c <__multadd>
    9614:	4607      	mov	r7, r0
    9616:	e763      	b.n	94e0 <_dtoa_r+0x960>
    9618:	9e0f      	ldr	r6, [sp, #60]	; 0x3c
    961a:	4658      	mov	r0, fp
    961c:	4629      	mov	r1, r5
    961e:	f7ff fa1f 	bl	8a60 <quorem>
    9622:	9f0a      	ldr	r7, [sp, #40]	; 0x28
    9624:	f100 0c30 	add.w	ip, r0, #48	; 0x30
    9628:	f807 c006 	strb.w	ip, [r7, r6]
    962c:	9f07      	ldr	r7, [sp, #28]
    962e:	3601      	adds	r6, #1
    9630:	42be      	cmp	r6, r7
    9632:	db07      	blt.n	9644 <_dtoa_r+0xac4>
    9634:	9e0a      	ldr	r6, [sp, #40]	; 0x28
    9636:	2f01      	cmp	r7, #1
    9638:	bfac      	ite	ge
    963a:	19f6      	addge	r6, r6, r7
    963c:	3601      	addlt	r6, #1
    963e:	4627      	mov	r7, r4
    9640:	2400      	movs	r4, #0
    9642:	e007      	b.n	9654 <_dtoa_r+0xad4>
    9644:	4659      	mov	r1, fp
    9646:	4650      	mov	r0, sl
    9648:	220a      	movs	r2, #10
    964a:	2300      	movs	r3, #0
    964c:	f7fe fd9e 	bl	818c <__multadd>
    9650:	4683      	mov	fp, r0
    9652:	e7e2      	b.n	961a <_dtoa_r+0xa9a>
    9654:	4659      	mov	r1, fp
    9656:	2201      	movs	r2, #1
    9658:	4650      	mov	r0, sl
    965a:	f8cd c008 	str.w	ip, [sp, #8]
    965e:	f7fe ff4d 	bl	84fc <__lshift>
    9662:	4629      	mov	r1, r5
    9664:	4683      	mov	fp, r0
    9666:	f7fe ff9c 	bl	85a2 <__mcmp>
    966a:	2800      	cmp	r0, #0
    966c:	f8dd c008 	ldr.w	ip, [sp, #8]
    9670:	dc03      	bgt.n	967a <_dtoa_r+0xafa>
    9672:	d114      	bne.n	969e <_dtoa_r+0xb1e>
    9674:	f01c 0f01 	tst.w	ip, #1
    9678:	d011      	beq.n	969e <_dtoa_r+0xb1e>
    967a:	f816 3c01 	ldrb.w	r3, [r6, #-1]
    967e:	2b39      	cmp	r3, #57	; 0x39
    9680:	46b0      	mov	r8, r6
    9682:	f106 36ff 	add.w	r6, r6, #4294967295
    9686:	d107      	bne.n	9698 <_dtoa_r+0xb18>
    9688:	980a      	ldr	r0, [sp, #40]	; 0x28
    968a:	42b0      	cmp	r0, r6
    968c:	d1f5      	bne.n	967a <_dtoa_r+0xafa>
    968e:	2331      	movs	r3, #49	; 0x31
    9690:	f109 0901 	add.w	r9, r9, #1
    9694:	7003      	strb	r3, [r0, #0]
    9696:	e008      	b.n	96aa <_dtoa_r+0xb2a>
    9698:	3301      	adds	r3, #1
    969a:	7033      	strb	r3, [r6, #0]
    969c:	e005      	b.n	96aa <_dtoa_r+0xb2a>
    969e:	46b0      	mov	r8, r6
    96a0:	3e01      	subs	r6, #1
    96a2:	f818 3c01 	ldrb.w	r3, [r8, #-1]
    96a6:	2b30      	cmp	r3, #48	; 0x30
    96a8:	d0f9      	beq.n	969e <_dtoa_r+0xb1e>
    96aa:	4650      	mov	r0, sl
    96ac:	4629      	mov	r1, r5
    96ae:	f7fe fd56 	bl	815e <_Bfree>
    96b2:	b16f      	cbz	r7, 96d0 <_dtoa_r+0xb50>
    96b4:	b12c      	cbz	r4, 96c2 <_dtoa_r+0xb42>
    96b6:	42bc      	cmp	r4, r7
    96b8:	d003      	beq.n	96c2 <_dtoa_r+0xb42>
    96ba:	4650      	mov	r0, sl
    96bc:	4621      	mov	r1, r4
    96be:	f7fe fd4e 	bl	815e <_Bfree>
    96c2:	4650      	mov	r0, sl
    96c4:	4639      	mov	r1, r7
    96c6:	f7fe fd4a 	bl	815e <_Bfree>
    96ca:	e001      	b.n	96d0 <_dtoa_r+0xb50>
    96cc:	f8dd 9040 	ldr.w	r9, [sp, #64]	; 0x40
    96d0:	4650      	mov	r0, sl
    96d2:	4659      	mov	r1, fp
    96d4:	f7fe fd43 	bl	815e <_Bfree>
    96d8:	2300      	movs	r3, #0
    96da:	9f26      	ldr	r7, [sp, #152]	; 0x98
    96dc:	f888 3000 	strb.w	r3, [r8]
    96e0:	f109 0301 	add.w	r3, r9, #1
    96e4:	603b      	str	r3, [r7, #0]
    96e6:	9f28      	ldr	r7, [sp, #160]	; 0xa0
    96e8:	b127      	cbz	r7, 96f4 <_dtoa_r+0xb74>
    96ea:	f8c7 8000 	str.w	r8, [r7]
    96ee:	e001      	b.n	96f4 <_dtoa_r+0xb74>
    96f0:	4802      	ldr	r0, [pc, #8]	; (96fc <_dtoa_r+0xb7c>)
    96f2:	e000      	b.n	96f6 <_dtoa_r+0xb76>
    96f4:	980a      	ldr	r0, [sp, #40]	; 0x28
    96f6:	b01b      	add	sp, #108	; 0x6c
    96f8:	e8bd 8ff0 	ldmia.w	sp!, {r4, r5, r6, r7, r8, r9, sl, fp, pc}
    96fc:	00009ec0 	.word	0x00009ec0

00009700 <__sflush_r>:
    9700:	898a      	ldrh	r2, [r1, #12]
    9702:	e92d 41f0 	stmdb	sp!, {r4, r5, r6, r7, r8, lr}
    9706:	4605      	mov	r5, r0
    9708:	0710      	lsls	r0, r2, #28
    970a:	460c      	mov	r4, r1
    970c:	d457      	bmi.n	97be <__sflush_r+0xbe>
    970e:	684b      	ldr	r3, [r1, #4]
    9710:	2b00      	cmp	r3, #0
    9712:	dc02      	bgt.n	971a <__sflush_r+0x1a>
    9714:	6c0b      	ldr	r3, [r1, #64]	; 0x40
    9716:	2b00      	cmp	r3, #0
    9718:	dd18      	ble.n	974c <__sflush_r+0x4c>
    971a:	6ae6      	ldr	r6, [r4, #44]	; 0x2c
    971c:	b1b6      	cbz	r6, 974c <__sflush_r+0x4c>
    971e:	f402 5280 	and.w	r2, r2, #4096	; 0x1000
    9722:	2300      	movs	r3, #0
    9724:	b292      	uxth	r2, r2
    9726:	682f      	ldr	r7, [r5, #0]
    9728:	602b      	str	r3, [r5, #0]
    972a:	b10a      	cbz	r2, 9730 <__sflush_r+0x30>
    972c:	6d62      	ldr	r2, [r4, #84]	; 0x54
    972e:	e010      	b.n	9752 <__sflush_r+0x52>
    9730:	6a21      	ldr	r1, [r4, #32]
    9732:	4628      	mov	r0, r5
    9734:	2301      	movs	r3, #1
    9736:	47b0      	blx	r6
    9738:	1c41      	adds	r1, r0, #1
    973a:	4602      	mov	r2, r0
    973c:	d109      	bne.n	9752 <__sflush_r+0x52>
    973e:	682b      	ldr	r3, [r5, #0]
    9740:	b13b      	cbz	r3, 9752 <__sflush_r+0x52>
    9742:	2b1d      	cmp	r3, #29
    9744:	d001      	beq.n	974a <__sflush_r+0x4a>
    9746:	2b16      	cmp	r3, #22
    9748:	d146      	bne.n	97d8 <__sflush_r+0xd8>
    974a:	602f      	str	r7, [r5, #0]
    974c:	2000      	movs	r0, #0
    974e:	e8bd 81f0 	ldmia.w	sp!, {r4, r5, r6, r7, r8, pc}
    9752:	89a3      	ldrh	r3, [r4, #12]
    9754:	075b      	lsls	r3, r3, #29
    9756:	d505      	bpl.n	9764 <__sflush_r+0x64>
    9758:	6863      	ldr	r3, [r4, #4]
    975a:	1ad2      	subs	r2, r2, r3
    975c:	6b63      	ldr	r3, [r4, #52]	; 0x34
    975e:	b10b      	cbz	r3, 9764 <__sflush_r+0x64>
    9760:	6c23      	ldr	r3, [r4, #64]	; 0x40
    9762:	1ad2      	subs	r2, r2, r3
    9764:	6ae6      	ldr	r6, [r4, #44]	; 0x2c
    9766:	6a21      	ldr	r1, [r4, #32]
    9768:	4628      	mov	r0, r5
    976a:	2300      	movs	r3, #0
    976c:	47b0      	blx	r6
    976e:	1c46      	adds	r6, r0, #1
    9770:	89a2      	ldrh	r2, [r4, #12]
    9772:	d105      	bne.n	9780 <__sflush_r+0x80>
    9774:	682b      	ldr	r3, [r5, #0]
    9776:	b11b      	cbz	r3, 9780 <__sflush_r+0x80>
    9778:	2b1d      	cmp	r3, #29
    977a:	d001      	beq.n	9780 <__sflush_r+0x80>
    977c:	2b16      	cmp	r3, #22
    977e:	d119      	bne.n	97b4 <__sflush_r+0xb4>
    9780:	2300      	movs	r3, #0
    9782:	6063      	str	r3, [r4, #4]
    9784:	04d1      	lsls	r1, r2, #19
    9786:	6923      	ldr	r3, [r4, #16]
    9788:	6023      	str	r3, [r4, #0]
    978a:	d504      	bpl.n	9796 <__sflush_r+0x96>
    978c:	1c42      	adds	r2, r0, #1
    978e:	d101      	bne.n	9794 <__sflush_r+0x94>
    9790:	682b      	ldr	r3, [r5, #0]
    9792:	b903      	cbnz	r3, 9796 <__sflush_r+0x96>
    9794:	6560      	str	r0, [r4, #84]	; 0x54
    9796:	6b61      	ldr	r1, [r4, #52]	; 0x34
    9798:	602f      	str	r7, [r5, #0]
    979a:	2900      	cmp	r1, #0
    979c:	d0d6      	beq.n	974c <__sflush_r+0x4c>
    979e:	f104 0344 	add.w	r3, r4, #68	; 0x44
    97a2:	4299      	cmp	r1, r3
    97a4:	d002      	beq.n	97ac <__sflush_r+0xac>
    97a6:	4628      	mov	r0, r5
    97a8:	f7fc ffd2 	bl	6750 <_free_r>
    97ac:	2000      	movs	r0, #0
    97ae:	6360      	str	r0, [r4, #52]	; 0x34
    97b0:	e8bd 81f0 	ldmia.w	sp!, {r4, r5, r6, r7, r8, pc}
    97b4:	f042 0240 	orr.w	r2, r2, #64	; 0x40
    97b8:	81a2      	strh	r2, [r4, #12]
    97ba:	e8bd 81f0 	ldmia.w	sp!, {r4, r5, r6, r7, r8, pc}
    97be:	690e      	ldr	r6, [r1, #16]
    97c0:	2e00      	cmp	r6, #0
    97c2:	d0c3      	beq.n	974c <__sflush_r+0x4c>
    97c4:	680b      	ldr	r3, [r1, #0]
    97c6:	600e      	str	r6, [r1, #0]
    97c8:	ebc6 0803 	rsb	r8, r6, r3
    97cc:	0793      	lsls	r3, r2, #30
    97ce:	bf0c      	ite	eq
    97d0:	694b      	ldreq	r3, [r1, #20]
    97d2:	2300      	movne	r3, #0
    97d4:	608b      	str	r3, [r1, #8]
    97d6:	e012      	b.n	97fe <__sflush_r+0xfe>
    97d8:	89a3      	ldrh	r3, [r4, #12]
    97da:	f043 0340 	orr.w	r3, r3, #64	; 0x40
    97de:	81a3      	strh	r3, [r4, #12]
    97e0:	f04f 30ff 	mov.w	r0, #4294967295
    97e4:	e8bd 81f0 	ldmia.w	sp!, {r4, r5, r6, r7, r8, pc}
    97e8:	6aa7      	ldr	r7, [r4, #40]	; 0x28
    97ea:	6a21      	ldr	r1, [r4, #32]
    97ec:	4628      	mov	r0, r5
    97ee:	4632      	mov	r2, r6
    97f0:	4643      	mov	r3, r8
    97f2:	47b8      	blx	r7
    97f4:	2800      	cmp	r0, #0
    97f6:	ddef      	ble.n	97d8 <__sflush_r+0xd8>
    97f8:	4406      	add	r6, r0
    97fa:	ebc0 0808 	rsb	r8, r0, r8
    97fe:	f1b8 0f00 	cmp.w	r8, #0
    9802:	dcf1      	bgt.n	97e8 <__sflush_r+0xe8>
    9804:	e7a2      	b.n	974c <__sflush_r+0x4c>
    9806:	ffff b538 	vsli.32	d27, d24, #31

00009808 <_fflush_r>:
    9808:	b538      	push	{r3, r4, r5, lr}
    980a:	690b      	ldr	r3, [r1, #16]
    980c:	4605      	mov	r5, r0
    980e:	460c      	mov	r4, r1
    9810:	b1db      	cbz	r3, 984a <_fflush_r+0x42>
    9812:	b118      	cbz	r0, 981c <_fflush_r+0x14>
    9814:	6983      	ldr	r3, [r0, #24]
    9816:	b90b      	cbnz	r3, 981c <_fflush_r+0x14>
    9818:	f7fe f8e2 	bl	79e0 <__sinit>
    981c:	4b0c      	ldr	r3, [pc, #48]	; (9850 <_fflush_r+0x48>)
    981e:	429c      	cmp	r4, r3
    9820:	d101      	bne.n	9826 <_fflush_r+0x1e>
    9822:	686c      	ldr	r4, [r5, #4]
    9824:	e008      	b.n	9838 <_fflush_r+0x30>
    9826:	4b0b      	ldr	r3, [pc, #44]	; (9854 <_fflush_r+0x4c>)
    9828:	429c      	cmp	r4, r3
    982a:	d101      	bne.n	9830 <_fflush_r+0x28>
    982c:	68ac      	ldr	r4, [r5, #8]
    982e:	e003      	b.n	9838 <_fflush_r+0x30>
    9830:	4b09      	ldr	r3, [pc, #36]	; (9858 <_fflush_r+0x50>)
    9832:	429c      	cmp	r4, r3
    9834:	bf08      	it	eq
    9836:	68ec      	ldreq	r4, [r5, #12]
    9838:	f9b4 300c 	ldrsh.w	r3, [r4, #12]
    983c:	b12b      	cbz	r3, 984a <_fflush_r+0x42>
    983e:	4628      	mov	r0, r5
    9840:	4621      	mov	r1, r4
    9842:	e8bd 4038 	ldmia.w	sp!, {r3, r4, r5, lr}
    9846:	f7ff bf5b 	b.w	9700 <__sflush_r>
    984a:	2000      	movs	r0, #0
    984c:	bd38      	pop	{r3, r4, r5, pc}
    984e:	bf00      	nop
    9850:	0000a53c 	.word	0x0000a53c
    9854:	0000a55c 	.word	0x0000a55c
    9858:	0000a57c 	.word	0x0000a57c

0000985c <_lseek_r>:
    985c:	b538      	push	{r3, r4, r5, lr}
    985e:	4c07      	ldr	r4, [pc, #28]	; (987c <_lseek_r+0x20>)
    9860:	4605      	mov	r5, r0
    9862:	2000      	movs	r0, #0
    9864:	6020      	str	r0, [r4, #0]
    9866:	4608      	mov	r0, r1
    9868:	4611      	mov	r1, r2
    986a:	461a      	mov	r2, r3
    986c:	f7f7 f892 	bl	994 <_lseek>
    9870:	1c43      	adds	r3, r0, #1
    9872:	d102      	bne.n	987a <_lseek_r+0x1e>
    9874:	6823      	ldr	r3, [r4, #0]
    9876:	b103      	cbz	r3, 987a <_lseek_r+0x1e>
    9878:	602b      	str	r3, [r5, #0]
    987a:	bd38      	pop	{r3, r4, r5, pc}
    987c:	1fff10f0 	.word	0x1fff10f0

00009880 <_malloc_usable_size_r>:
    9880:	f851 0c04 	ldr.w	r0, [r1, #-4]
    9884:	2800      	cmp	r0, #0
    9886:	da02      	bge.n	988e <_malloc_usable_size_r+0xe>
    9888:	3904      	subs	r1, #4
    988a:	580b      	ldr	r3, [r1, r0]
    988c:	4418      	add	r0, r3
    988e:	3804      	subs	r0, #4
    9890:	4770      	bx	lr
    9892:	ffff b538 	vsli.32	d27, d24, #31

00009894 <_read_r>:
    9894:	b538      	push	{r3, r4, r5, lr}
    9896:	4c07      	ldr	r4, [pc, #28]	; (98b4 <_read_r+0x20>)
    9898:	4605      	mov	r5, r0
    989a:	2000      	movs	r0, #0
    989c:	6020      	str	r0, [r4, #0]
    989e:	4608      	mov	r0, r1
    98a0:	4611      	mov	r1, r2
    98a2:	461a      	mov	r2, r3
    98a4:	f7f7 f86a 	bl	97c <_read>
    98a8:	1c43      	adds	r3, r0, #1
    98aa:	d102      	bne.n	98b2 <_read_r+0x1e>
    98ac:	6823      	ldr	r3, [r4, #0]
    98ae:	b103      	cbz	r3, 98b2 <_read_r+0x1e>
    98b0:	602b      	str	r3, [r5, #0]
    98b2:	bd38      	pop	{r3, r4, r5, pc}
    98b4:	1fff10f0 	.word	0x1fff10f0

000098b8 <__ssputs_r>:
    98b8:	e92d 47f0 	stmdb	sp!, {r4, r5, r6, r7, r8, r9, sl, lr}
    98bc:	688d      	ldr	r5, [r1, #8]
    98be:	42ab      	cmp	r3, r5
    98c0:	4681      	mov	r9, r0
    98c2:	460c      	mov	r4, r1
    98c4:	4692      	mov	sl, r2
    98c6:	461f      	mov	r7, r3
    98c8:	d343      	bcc.n	9952 <__ssputs_r+0x9a>
    98ca:	898b      	ldrh	r3, [r1, #12]
    98cc:	f413 6f90 	tst.w	r3, #1152	; 0x480
    98d0:	d03d      	beq.n	994e <__ssputs_r+0x96>
    98d2:	6826      	ldr	r6, [r4, #0]
    98d4:	6909      	ldr	r1, [r1, #16]
    98d6:	ebc1 0806 	rsb	r8, r1, r6
    98da:	6966      	ldr	r6, [r4, #20]
    98dc:	2202      	movs	r2, #2
    98de:	eb06 0646 	add.w	r6, r6, r6, lsl #1
    98e2:	fb96 f6f2 	sdiv	r6, r6, r2
    98e6:	f108 0201 	add.w	r2, r8, #1
    98ea:	443a      	add	r2, r7
    98ec:	4296      	cmp	r6, r2
    98ee:	bf38      	it	cc
    98f0:	4616      	movcc	r6, r2
    98f2:	055b      	lsls	r3, r3, #21
    98f4:	d50f      	bpl.n	9916 <__ssputs_r+0x5e>
    98f6:	4631      	mov	r1, r6
    98f8:	f7fc ff6e 	bl	67d8 <_malloc_r>
    98fc:	4605      	mov	r5, r0
    98fe:	b198      	cbz	r0, 9928 <__ssputs_r+0x70>
    9900:	6921      	ldr	r1, [r4, #16]
    9902:	4642      	mov	r2, r8
    9904:	f7fc fef8 	bl	66f8 <memcpy>
    9908:	89a3      	ldrh	r3, [r4, #12]
    990a:	f423 6390 	bic.w	r3, r3, #1152	; 0x480
    990e:	f043 0380 	orr.w	r3, r3, #128	; 0x80
    9912:	81a3      	strh	r3, [r4, #12]
    9914:	e013      	b.n	993e <__ssputs_r+0x86>
    9916:	4632      	mov	r2, r6
    9918:	f7fe fff5 	bl	8906 <_realloc_r>
    991c:	4605      	mov	r5, r0
    991e:	b970      	cbnz	r0, 993e <__ssputs_r+0x86>
    9920:	4648      	mov	r0, r9
    9922:	6921      	ldr	r1, [r4, #16]
    9924:	f7fc ff14 	bl	6750 <_free_r>
    9928:	230c      	movs	r3, #12
    992a:	f8c9 3000 	str.w	r3, [r9]
    992e:	89a3      	ldrh	r3, [r4, #12]
    9930:	f043 0340 	orr.w	r3, r3, #64	; 0x40
    9934:	81a3      	strh	r3, [r4, #12]
    9936:	f04f 30ff 	mov.w	r0, #4294967295
    993a:	e8bd 87f0 	ldmia.w	sp!, {r4, r5, r6, r7, r8, r9, sl, pc}
    993e:	6125      	str	r5, [r4, #16]
    9940:	6166      	str	r6, [r4, #20]
    9942:	4445      	add	r5, r8
    9944:	ebc8 0606 	rsb	r6, r8, r6
    9948:	6025      	str	r5, [r4, #0]
    994a:	60a6      	str	r6, [r4, #8]
    994c:	463d      	mov	r5, r7
    994e:	42af      	cmp	r7, r5
    9950:	d200      	bcs.n	9954 <__ssputs_r+0x9c>
    9952:	463d      	mov	r5, r7
    9954:	462a      	mov	r2, r5
    9956:	6820      	ldr	r0, [r4, #0]
    9958:	4651      	mov	r1, sl
    995a:	f7fc fed6 	bl	670a <memmove>
    995e:	68a3      	ldr	r3, [r4, #8]
    9960:	1b5b      	subs	r3, r3, r5
    9962:	60a3      	str	r3, [r4, #8]
    9964:	6823      	ldr	r3, [r4, #0]
    9966:	441d      	add	r5, r3
    9968:	6025      	str	r5, [r4, #0]
    996a:	2000      	movs	r0, #0
    996c:	e8bd 87f0 	ldmia.w	sp!, {r4, r5, r6, r7, r8, r9, sl, pc}

00009970 <_svfiprintf_r>:
    9970:	e92d 43f0 	stmdb	sp!, {r4, r5, r6, r7, r8, r9, lr}
    9974:	b09d      	sub	sp, #116	; 0x74
    9976:	4607      	mov	r7, r0
    9978:	9303      	str	r3, [sp, #12]
    997a:	898b      	ldrh	r3, [r1, #12]
    997c:	061c      	lsls	r4, r3, #24
    997e:	460d      	mov	r5, r1
    9980:	4616      	mov	r6, r2
    9982:	d50c      	bpl.n	999e <_svfiprintf_r+0x2e>
    9984:	690b      	ldr	r3, [r1, #16]
    9986:	b953      	cbnz	r3, 999e <_svfiprintf_r+0x2e>
    9988:	2140      	movs	r1, #64	; 0x40
    998a:	f7fc ff25 	bl	67d8 <_malloc_r>
    998e:	6028      	str	r0, [r5, #0]
    9990:	6128      	str	r0, [r5, #16]
    9992:	b910      	cbnz	r0, 999a <_svfiprintf_r+0x2a>
    9994:	230c      	movs	r3, #12
    9996:	603b      	str	r3, [r7, #0]
    9998:	e0c8      	b.n	9b2c <_svfiprintf_r+0x1bc>
    999a:	2340      	movs	r3, #64	; 0x40
    999c:	616b      	str	r3, [r5, #20]
    999e:	2300      	movs	r3, #0
    99a0:	9309      	str	r3, [sp, #36]	; 0x24
    99a2:	2320      	movs	r3, #32
    99a4:	f88d 3029 	strb.w	r3, [sp, #41]	; 0x29
    99a8:	2330      	movs	r3, #48	; 0x30
    99aa:	f88d 302a 	strb.w	r3, [sp, #42]	; 0x2a
    99ae:	4633      	mov	r3, r6
    99b0:	461c      	mov	r4, r3
    99b2:	f813 2b01 	ldrb.w	r2, [r3], #1
    99b6:	b91a      	cbnz	r2, 99c0 <_svfiprintf_r+0x50>
    99b8:	ebb4 0906 	subs.w	r9, r4, r6
    99bc:	d00f      	beq.n	99de <_svfiprintf_r+0x6e>
    99be:	e002      	b.n	99c6 <_svfiprintf_r+0x56>
    99c0:	2a25      	cmp	r2, #37	; 0x25
    99c2:	d1f5      	bne.n	99b0 <_svfiprintf_r+0x40>
    99c4:	e7f8      	b.n	99b8 <_svfiprintf_r+0x48>
    99c6:	4638      	mov	r0, r7
    99c8:	4629      	mov	r1, r5
    99ca:	4632      	mov	r2, r6
    99cc:	464b      	mov	r3, r9
    99ce:	f7ff ff73 	bl	98b8 <__ssputs_r>
    99d2:	3001      	adds	r0, #1
    99d4:	f000 80a5 	beq.w	9b22 <_svfiprintf_r+0x1b2>
    99d8:	9b09      	ldr	r3, [sp, #36]	; 0x24
    99da:	444b      	add	r3, r9
    99dc:	9309      	str	r3, [sp, #36]	; 0x24
    99de:	7823      	ldrb	r3, [r4, #0]
    99e0:	2b00      	cmp	r3, #0
    99e2:	f000 809e 	beq.w	9b22 <_svfiprintf_r+0x1b2>
    99e6:	2300      	movs	r3, #0
    99e8:	f04f 32ff 	mov.w	r2, #4294967295
    99ec:	9304      	str	r3, [sp, #16]
    99ee:	9307      	str	r3, [sp, #28]
    99f0:	9205      	str	r2, [sp, #20]
    99f2:	9306      	str	r3, [sp, #24]
    99f4:	f88d 3053 	strb.w	r3, [sp, #83]	; 0x53
    99f8:	931a      	str	r3, [sp, #104]	; 0x68
    99fa:	f104 0901 	add.w	r9, r4, #1
    99fe:	464c      	mov	r4, r9
    9a00:	4e4d      	ldr	r6, [pc, #308]	; (9b38 <_svfiprintf_r+0x1c8>)
    9a02:	7821      	ldrb	r1, [r4, #0]
    9a04:	4630      	mov	r0, r6
    9a06:	2205      	movs	r2, #5
    9a08:	f000 fa26 	bl	9e58 <memchr>
    9a0c:	f109 0901 	add.w	r9, r9, #1
    9a10:	9b04      	ldr	r3, [sp, #16]
    9a12:	b128      	cbz	r0, 9a20 <_svfiprintf_r+0xb0>
    9a14:	1b86      	subs	r6, r0, r6
    9a16:	2001      	movs	r0, #1
    9a18:	40b0      	lsls	r0, r6
    9a1a:	4303      	orrs	r3, r0
    9a1c:	9304      	str	r3, [sp, #16]
    9a1e:	e7ee      	b.n	99fe <_svfiprintf_r+0x8e>
    9a20:	06d9      	lsls	r1, r3, #27
    9a22:	bf44      	itt	mi
    9a24:	2220      	movmi	r2, #32
    9a26:	f88d 2053 	strbmi.w	r2, [sp, #83]	; 0x53
    9a2a:	071a      	lsls	r2, r3, #28
    9a2c:	bf44      	itt	mi
    9a2e:	222b      	movmi	r2, #43	; 0x2b
    9a30:	f88d 2053 	strbmi.w	r2, [sp, #83]	; 0x53
    9a34:	7822      	ldrb	r2, [r4, #0]
    9a36:	2a2a      	cmp	r2, #42	; 0x2a
    9a38:	d002      	beq.n	9a40 <_svfiprintf_r+0xd0>
    9a3a:	9b07      	ldr	r3, [sp, #28]
    9a3c:	4621      	mov	r1, r4
    9a3e:	e00e      	b.n	9a5e <_svfiprintf_r+0xee>
    9a40:	9a03      	ldr	r2, [sp, #12]
    9a42:	1d11      	adds	r1, r2, #4
    9a44:	6812      	ldr	r2, [r2, #0]
    9a46:	9103      	str	r1, [sp, #12]
    9a48:	2a00      	cmp	r2, #0
    9a4a:	db01      	blt.n	9a50 <_svfiprintf_r+0xe0>
    9a4c:	9207      	str	r2, [sp, #28]
    9a4e:	e004      	b.n	9a5a <_svfiprintf_r+0xea>
    9a50:	4252      	negs	r2, r2
    9a52:	f043 0302 	orr.w	r3, r3, #2
    9a56:	9207      	str	r2, [sp, #28]
    9a58:	9304      	str	r3, [sp, #16]
    9a5a:	3401      	adds	r4, #1
    9a5c:	e00a      	b.n	9a74 <_svfiprintf_r+0x104>
    9a5e:	460c      	mov	r4, r1
    9a60:	3101      	adds	r1, #1
    9a62:	7822      	ldrb	r2, [r4, #0]
    9a64:	3a30      	subs	r2, #48	; 0x30
    9a66:	2a09      	cmp	r2, #9
    9a68:	d803      	bhi.n	9a72 <_svfiprintf_r+0x102>
    9a6a:	200a      	movs	r0, #10
    9a6c:	fb00 2303 	mla	r3, r0, r3, r2
    9a70:	e7f5      	b.n	9a5e <_svfiprintf_r+0xee>
    9a72:	9307      	str	r3, [sp, #28]
    9a74:	7823      	ldrb	r3, [r4, #0]
    9a76:	2b2e      	cmp	r3, #46	; 0x2e
    9a78:	d11a      	bne.n	9ab0 <_svfiprintf_r+0x140>
    9a7a:	7863      	ldrb	r3, [r4, #1]
    9a7c:	2b2a      	cmp	r3, #42	; 0x2a
    9a7e:	d10a      	bne.n	9a96 <_svfiprintf_r+0x126>
    9a80:	9b03      	ldr	r3, [sp, #12]
    9a82:	1d1a      	adds	r2, r3, #4
    9a84:	681b      	ldr	r3, [r3, #0]
    9a86:	9203      	str	r2, [sp, #12]
    9a88:	2b00      	cmp	r3, #0
    9a8a:	f104 0402 	add.w	r4, r4, #2
    9a8e:	bfb8      	it	lt
    9a90:	f04f 33ff 	movlt.w	r3, #4294967295
    9a94:	e00b      	b.n	9aae <_svfiprintf_r+0x13e>
    9a96:	1c61      	adds	r1, r4, #1
    9a98:	2300      	movs	r3, #0
    9a9a:	460c      	mov	r4, r1
    9a9c:	3101      	adds	r1, #1
    9a9e:	7822      	ldrb	r2, [r4, #0]
    9aa0:	3a30      	subs	r2, #48	; 0x30
    9aa2:	2a09      	cmp	r2, #9
    9aa4:	d803      	bhi.n	9aae <_svfiprintf_r+0x13e>
    9aa6:	200a      	movs	r0, #10
    9aa8:	fb00 2303 	mla	r3, r0, r3, r2
    9aac:	e7f5      	b.n	9a9a <_svfiprintf_r+0x12a>
    9aae:	9305      	str	r3, [sp, #20]
    9ab0:	4e22      	ldr	r6, [pc, #136]	; (9b3c <_svfiprintf_r+0x1cc>)
    9ab2:	7821      	ldrb	r1, [r4, #0]
    9ab4:	4630      	mov	r0, r6
    9ab6:	2203      	movs	r2, #3
    9ab8:	f000 f9ce 	bl	9e58 <memchr>
    9abc:	b130      	cbz	r0, 9acc <_svfiprintf_r+0x15c>
    9abe:	1b86      	subs	r6, r0, r6
    9ac0:	9b04      	ldr	r3, [sp, #16]
    9ac2:	2040      	movs	r0, #64	; 0x40
    9ac4:	40b0      	lsls	r0, r6
    9ac6:	4303      	orrs	r3, r0
    9ac8:	9304      	str	r3, [sp, #16]
    9aca:	3401      	adds	r4, #1
    9acc:	7821      	ldrb	r1, [r4, #0]
    9ace:	481c      	ldr	r0, [pc, #112]	; (9b40 <_svfiprintf_r+0x1d0>)
    9ad0:	f88d 1028 	strb.w	r1, [sp, #40]	; 0x28
    9ad4:	2206      	movs	r2, #6
    9ad6:	1c66      	adds	r6, r4, #1
    9ad8:	f000 f9be 	bl	9e58 <memchr>
    9adc:	b188      	cbz	r0, 9b02 <_svfiprintf_r+0x192>
    9ade:	4b19      	ldr	r3, [pc, #100]	; (9b44 <_svfiprintf_r+0x1d4>)
    9ae0:	b933      	cbnz	r3, 9af0 <_svfiprintf_r+0x180>
    9ae2:	9b03      	ldr	r3, [sp, #12]
    9ae4:	3307      	adds	r3, #7
    9ae6:	f023 0307 	bic.w	r3, r3, #7
    9aea:	3308      	adds	r3, #8
    9aec:	9303      	str	r3, [sp, #12]
    9aee:	e014      	b.n	9b1a <_svfiprintf_r+0x1aa>
    9af0:	ab03      	add	r3, sp, #12
    9af2:	9300      	str	r3, [sp, #0]
    9af4:	4638      	mov	r0, r7
    9af6:	a904      	add	r1, sp, #16
    9af8:	462a      	mov	r2, r5
    9afa:	4b13      	ldr	r3, [pc, #76]	; (9b48 <_svfiprintf_r+0x1d8>)
    9afc:	f3af 8000 	nop.w
    9b00:	e007      	b.n	9b12 <_svfiprintf_r+0x1a2>
    9b02:	ab03      	add	r3, sp, #12
    9b04:	9300      	str	r3, [sp, #0]
    9b06:	4638      	mov	r0, r7
    9b08:	a904      	add	r1, sp, #16
    9b0a:	462a      	mov	r2, r5
    9b0c:	4b0e      	ldr	r3, [pc, #56]	; (9b48 <_svfiprintf_r+0x1d8>)
    9b0e:	f000 f88f 	bl	9c30 <_printf_i>
    9b12:	f1b0 3fff 	cmp.w	r0, #4294967295
    9b16:	4680      	mov	r8, r0
    9b18:	d003      	beq.n	9b22 <_svfiprintf_r+0x1b2>
    9b1a:	9b09      	ldr	r3, [sp, #36]	; 0x24
    9b1c:	4443      	add	r3, r8
    9b1e:	9309      	str	r3, [sp, #36]	; 0x24
    9b20:	e745      	b.n	99ae <_svfiprintf_r+0x3e>
    9b22:	89ab      	ldrh	r3, [r5, #12]
    9b24:	065b      	lsls	r3, r3, #25
    9b26:	d401      	bmi.n	9b2c <_svfiprintf_r+0x1bc>
    9b28:	9809      	ldr	r0, [sp, #36]	; 0x24
    9b2a:	e001      	b.n	9b30 <_svfiprintf_r+0x1c0>
    9b2c:	f04f 30ff 	mov.w	r0, #4294967295
    9b30:	b01d      	add	sp, #116	; 0x74
    9b32:	e8bd 83f0 	ldmia.w	sp!, {r4, r5, r6, r7, r8, r9, pc}
    9b36:	bf00      	nop
    9b38:	0000a6b1 	.word	0x0000a6b1
    9b3c:	0000a6b7 	.word	0x0000a6b7
    9b40:	0000a6bb 	.word	0x0000a6bb
    9b44:	00000000 	.word	0x00000000
    9b48:	000098b9 	.word	0x000098b9

00009b4c <_printf_common>:
    9b4c:	e92d 43f8 	stmdb	sp!, {r3, r4, r5, r6, r7, r8, r9, lr}
    9b50:	4615      	mov	r5, r2
    9b52:	461f      	mov	r7, r3
    9b54:	688a      	ldr	r2, [r1, #8]
    9b56:	690b      	ldr	r3, [r1, #16]
    9b58:	f8dd 8020 	ldr.w	r8, [sp, #32]
    9b5c:	429a      	cmp	r2, r3
    9b5e:	bfa8      	it	ge
    9b60:	4613      	movge	r3, r2
    9b62:	602b      	str	r3, [r5, #0]
    9b64:	f891 2043 	ldrb.w	r2, [r1, #67]	; 0x43
    9b68:	4606      	mov	r6, r0
    9b6a:	460c      	mov	r4, r1
    9b6c:	b10a      	cbz	r2, 9b72 <_printf_common+0x26>
    9b6e:	3301      	adds	r3, #1
    9b70:	602b      	str	r3, [r5, #0]
    9b72:	6823      	ldr	r3, [r4, #0]
    9b74:	0699      	lsls	r1, r3, #26
    9b76:	d502      	bpl.n	9b7e <_printf_common+0x32>
    9b78:	682b      	ldr	r3, [r5, #0]
    9b7a:	3302      	adds	r3, #2
    9b7c:	602b      	str	r3, [r5, #0]
    9b7e:	6823      	ldr	r3, [r4, #0]
    9b80:	f013 0906 	ands.w	r9, r3, #6
    9b84:	d01d      	beq.n	9bc2 <_printf_common+0x76>
    9b86:	f894 3043 	ldrb.w	r3, [r4, #67]	; 0x43
    9b8a:	6822      	ldr	r2, [r4, #0]
    9b8c:	3300      	adds	r3, #0
    9b8e:	bf18      	it	ne
    9b90:	2301      	movne	r3, #1
    9b92:	0692      	lsls	r2, r2, #26
    9b94:	d51f      	bpl.n	9bd6 <_printf_common+0x8a>
    9b96:	18e1      	adds	r1, r4, r3
    9b98:	1c5a      	adds	r2, r3, #1
    9b9a:	2030      	movs	r0, #48	; 0x30
    9b9c:	f881 0043 	strb.w	r0, [r1, #67]	; 0x43
    9ba0:	4422      	add	r2, r4
    9ba2:	f894 1045 	ldrb.w	r1, [r4, #69]	; 0x45
    9ba6:	f882 1043 	strb.w	r1, [r2, #67]	; 0x43
    9baa:	3302      	adds	r3, #2
    9bac:	e013      	b.n	9bd6 <_printf_common+0x8a>
    9bae:	4630      	mov	r0, r6
    9bb0:	4639      	mov	r1, r7
    9bb2:	f104 0219 	add.w	r2, r4, #25
    9bb6:	2301      	movs	r3, #1
    9bb8:	47c0      	blx	r8
    9bba:	3001      	adds	r0, #1
    9bbc:	d007      	beq.n	9bce <_printf_common+0x82>
    9bbe:	f109 0901 	add.w	r9, r9, #1
    9bc2:	68e2      	ldr	r2, [r4, #12]
    9bc4:	682b      	ldr	r3, [r5, #0]
    9bc6:	1ad3      	subs	r3, r2, r3
    9bc8:	4599      	cmp	r9, r3
    9bca:	dbf0      	blt.n	9bae <_printf_common+0x62>
    9bcc:	e7db      	b.n	9b86 <_printf_common+0x3a>
    9bce:	f04f 30ff 	mov.w	r0, #4294967295
    9bd2:	e8bd 83f8 	ldmia.w	sp!, {r3, r4, r5, r6, r7, r8, r9, pc}
    9bd6:	4630      	mov	r0, r6
    9bd8:	4639      	mov	r1, r7
    9bda:	f104 0243 	add.w	r2, r4, #67	; 0x43
    9bde:	47c0      	blx	r8
    9be0:	3001      	adds	r0, #1
    9be2:	d0f4      	beq.n	9bce <_printf_common+0x82>
    9be4:	6823      	ldr	r3, [r4, #0]
    9be6:	682a      	ldr	r2, [r5, #0]
    9be8:	68e1      	ldr	r1, [r4, #12]
    9bea:	f003 0306 	and.w	r3, r3, #6
    9bee:	2b04      	cmp	r3, #4
    9bf0:	bf08      	it	eq
    9bf2:	ebc2 0501 	rsbeq	r5, r2, r1
    9bf6:	6923      	ldr	r3, [r4, #16]
    9bf8:	68a2      	ldr	r2, [r4, #8]
    9bfa:	bf0c      	ite	eq
    9bfc:	ea25 75e5 	biceq.w	r5, r5, r5, asr #31
    9c00:	2500      	movne	r5, #0
    9c02:	429a      	cmp	r2, r3
    9c04:	bfc4      	itt	gt
    9c06:	ebc3 0302 	rsbgt	r3, r3, r2
    9c0a:	18ed      	addgt	r5, r5, r3
    9c0c:	f04f 0900 	mov.w	r9, #0
    9c10:	45a9      	cmp	r9, r5
    9c12:	da0a      	bge.n	9c2a <_printf_common+0xde>
    9c14:	4630      	mov	r0, r6
    9c16:	4639      	mov	r1, r7
    9c18:	f104 021a 	add.w	r2, r4, #26
    9c1c:	2301      	movs	r3, #1
    9c1e:	47c0      	blx	r8
    9c20:	3001      	adds	r0, #1
    9c22:	d0d4      	beq.n	9bce <_printf_common+0x82>
    9c24:	f109 0901 	add.w	r9, r9, #1
    9c28:	e7f2      	b.n	9c10 <_printf_common+0xc4>
    9c2a:	2000      	movs	r0, #0
    9c2c:	e8bd 83f8 	ldmia.w	sp!, {r3, r4, r5, r6, r7, r8, r9, pc}

00009c30 <_printf_i>:
    9c30:	e92d 47ff 	stmdb	sp!, {r0, r1, r2, r3, r4, r5, r6, r7, r8, r9, sl, lr}
    9c34:	7e0e      	ldrb	r6, [r1, #24]
    9c36:	9d0c      	ldr	r5, [sp, #48]	; 0x30
    9c38:	2e6e      	cmp	r6, #110	; 0x6e
    9c3a:	4680      	mov	r8, r0
    9c3c:	460c      	mov	r4, r1
    9c3e:	4691      	mov	r9, r2
    9c40:	469a      	mov	sl, r3
    9c42:	f101 0043 	add.w	r0, r1, #67	; 0x43
    9c46:	f000 80a5 	beq.w	9d94 <_printf_i+0x164>
    9c4a:	d811      	bhi.n	9c70 <_printf_i+0x40>
    9c4c:	2e63      	cmp	r6, #99	; 0x63
    9c4e:	d022      	beq.n	9c96 <_printf_i+0x66>
    9c50:	d809      	bhi.n	9c66 <_printf_i+0x36>
    9c52:	2e00      	cmp	r6, #0
    9c54:	f000 80af 	beq.w	9db6 <_printf_i+0x186>
    9c58:	2e58      	cmp	r6, #88	; 0x58
    9c5a:	f040 80bf 	bne.w	9ddc <_printf_i+0x1ac>
    9c5e:	f881 6045 	strb.w	r6, [r1, #69]	; 0x45
    9c62:	4a7b      	ldr	r2, [pc, #492]	; (9e50 <_printf_i+0x220>)
    9c64:	e04f      	b.n	9d06 <_printf_i+0xd6>
    9c66:	2e64      	cmp	r6, #100	; 0x64
    9c68:	d01e      	beq.n	9ca8 <_printf_i+0x78>
    9c6a:	2e69      	cmp	r6, #105	; 0x69
    9c6c:	d01c      	beq.n	9ca8 <_printf_i+0x78>
    9c6e:	e0b5      	b.n	9ddc <_printf_i+0x1ac>
    9c70:	2e73      	cmp	r6, #115	; 0x73
    9c72:	f000 80a4 	beq.w	9dbe <_printf_i+0x18e>
    9c76:	d809      	bhi.n	9c8c <_printf_i+0x5c>
    9c78:	2e6f      	cmp	r6, #111	; 0x6f
    9c7a:	d02b      	beq.n	9cd4 <_printf_i+0xa4>
    9c7c:	2e70      	cmp	r6, #112	; 0x70
    9c7e:	f040 80ad 	bne.w	9ddc <_printf_i+0x1ac>
    9c82:	680b      	ldr	r3, [r1, #0]
    9c84:	f043 0320 	orr.w	r3, r3, #32
    9c88:	600b      	str	r3, [r1, #0]
    9c8a:	e038      	b.n	9cfe <_printf_i+0xce>
    9c8c:	2e75      	cmp	r6, #117	; 0x75
    9c8e:	d021      	beq.n	9cd4 <_printf_i+0xa4>
    9c90:	2e78      	cmp	r6, #120	; 0x78
    9c92:	d034      	beq.n	9cfe <_printf_i+0xce>
    9c94:	e0a2      	b.n	9ddc <_printf_i+0x1ac>
    9c96:	682b      	ldr	r3, [r5, #0]
    9c98:	1d1a      	adds	r2, r3, #4
    9c9a:	681b      	ldr	r3, [r3, #0]
    9c9c:	602a      	str	r2, [r5, #0]
    9c9e:	f101 0742 	add.w	r7, r1, #66	; 0x42
    9ca2:	f881 3042 	strb.w	r3, [r1, #66]	; 0x42
    9ca6:	e09d      	b.n	9de4 <_printf_i+0x1b4>
    9ca8:	6822      	ldr	r2, [r4, #0]
    9caa:	682b      	ldr	r3, [r5, #0]
    9cac:	f012 0f80 	tst.w	r2, #128	; 0x80
    9cb0:	d003      	beq.n	9cba <_printf_i+0x8a>
    9cb2:	1d1a      	adds	r2, r3, #4
    9cb4:	602a      	str	r2, [r5, #0]
    9cb6:	681d      	ldr	r5, [r3, #0]
    9cb8:	e005      	b.n	9cc6 <_printf_i+0x96>
    9cba:	0651      	lsls	r1, r2, #25
    9cbc:	d5f9      	bpl.n	9cb2 <_printf_i+0x82>
    9cbe:	1d1a      	adds	r2, r3, #4
    9cc0:	602a      	str	r2, [r5, #0]
    9cc2:	f9b3 5000 	ldrsh.w	r5, [r3]
    9cc6:	2d00      	cmp	r5, #0
    9cc8:	da39      	bge.n	9d3e <_printf_i+0x10e>
    9cca:	232d      	movs	r3, #45	; 0x2d
    9ccc:	426d      	negs	r5, r5
    9cce:	f884 3043 	strb.w	r3, [r4, #67]	; 0x43
    9cd2:	e034      	b.n	9d3e <_printf_i+0x10e>
    9cd4:	6822      	ldr	r2, [r4, #0]
    9cd6:	682b      	ldr	r3, [r5, #0]
    9cd8:	f012 0f80 	tst.w	r2, #128	; 0x80
    9cdc:	d003      	beq.n	9ce6 <_printf_i+0xb6>
    9cde:	1d1a      	adds	r2, r3, #4
    9ce0:	602a      	str	r2, [r5, #0]
    9ce2:	681d      	ldr	r5, [r3, #0]
    9ce4:	e004      	b.n	9cf0 <_printf_i+0xc0>
    9ce6:	0652      	lsls	r2, r2, #25
    9ce8:	d5f9      	bpl.n	9cde <_printf_i+0xae>
    9cea:	1d1a      	adds	r2, r3, #4
    9cec:	602a      	str	r2, [r5, #0]
    9cee:	881d      	ldrh	r5, [r3, #0]
    9cf0:	7e23      	ldrb	r3, [r4, #24]
    9cf2:	4a57      	ldr	r2, [pc, #348]	; (9e50 <_printf_i+0x220>)
    9cf4:	2b6f      	cmp	r3, #111	; 0x6f
    9cf6:	bf14      	ite	ne
    9cf8:	230a      	movne	r3, #10
    9cfa:	2308      	moveq	r3, #8
    9cfc:	e01b      	b.n	9d36 <_printf_i+0x106>
    9cfe:	2378      	movs	r3, #120	; 0x78
    9d00:	4a54      	ldr	r2, [pc, #336]	; (9e54 <_printf_i+0x224>)
    9d02:	f884 3045 	strb.w	r3, [r4, #69]	; 0x45
    9d06:	6823      	ldr	r3, [r4, #0]
    9d08:	6829      	ldr	r1, [r5, #0]
    9d0a:	f013 0f80 	tst.w	r3, #128	; 0x80
    9d0e:	f101 0604 	add.w	r6, r1, #4
    9d12:	602e      	str	r6, [r5, #0]
    9d14:	d001      	beq.n	9d1a <_printf_i+0xea>
    9d16:	680d      	ldr	r5, [r1, #0]
    9d18:	e002      	b.n	9d20 <_printf_i+0xf0>
    9d1a:	065f      	lsls	r7, r3, #25
    9d1c:	d5fb      	bpl.n	9d16 <_printf_i+0xe6>
    9d1e:	880d      	ldrh	r5, [r1, #0]
    9d20:	07de      	lsls	r6, r3, #31
    9d22:	bf44      	itt	mi
    9d24:	f043 0320 	orrmi.w	r3, r3, #32
    9d28:	6023      	strmi	r3, [r4, #0]
    9d2a:	b91d      	cbnz	r5, 9d34 <_printf_i+0x104>
    9d2c:	6823      	ldr	r3, [r4, #0]
    9d2e:	f023 0320 	bic.w	r3, r3, #32
    9d32:	6023      	str	r3, [r4, #0]
    9d34:	2310      	movs	r3, #16
    9d36:	2100      	movs	r1, #0
    9d38:	f884 1043 	strb.w	r1, [r4, #67]	; 0x43
    9d3c:	e001      	b.n	9d42 <_printf_i+0x112>
    9d3e:	4a44      	ldr	r2, [pc, #272]	; (9e50 <_printf_i+0x220>)
    9d40:	230a      	movs	r3, #10
    9d42:	6866      	ldr	r6, [r4, #4]
    9d44:	60a6      	str	r6, [r4, #8]
    9d46:	2e00      	cmp	r6, #0
    9d48:	db03      	blt.n	9d52 <_printf_i+0x122>
    9d4a:	6821      	ldr	r1, [r4, #0]
    9d4c:	f021 0104 	bic.w	r1, r1, #4
    9d50:	6021      	str	r1, [r4, #0]
    9d52:	b905      	cbnz	r5, 9d56 <_printf_i+0x126>
    9d54:	b16e      	cbz	r6, 9d72 <_printf_i+0x142>
    9d56:	f104 0142 	add.w	r1, r4, #66	; 0x42
    9d5a:	fbb5 f6f3 	udiv	r6, r5, r3
    9d5e:	fb03 5516 	mls	r5, r3, r6, r5
    9d62:	460f      	mov	r7, r1
    9d64:	5d55      	ldrb	r5, [r2, r5]
    9d66:	f801 5901 	strb.w	r5, [r1], #-1
    9d6a:	4635      	mov	r5, r6
    9d6c:	2e00      	cmp	r6, #0
    9d6e:	d1f4      	bne.n	9d5a <_printf_i+0x12a>
    9d70:	e000      	b.n	9d74 <_printf_i+0x144>
    9d72:	4607      	mov	r7, r0
    9d74:	2b08      	cmp	r3, #8
    9d76:	d10a      	bne.n	9d8e <_printf_i+0x15e>
    9d78:	6823      	ldr	r3, [r4, #0]
    9d7a:	07dd      	lsls	r5, r3, #31
    9d7c:	d507      	bpl.n	9d8e <_printf_i+0x15e>
    9d7e:	6862      	ldr	r2, [r4, #4]
    9d80:	6923      	ldr	r3, [r4, #16]
    9d82:	429a      	cmp	r2, r3
    9d84:	dc03      	bgt.n	9d8e <_printf_i+0x15e>
    9d86:	2330      	movs	r3, #48	; 0x30
    9d88:	f807 3c01 	strb.w	r3, [r7, #-1]
    9d8c:	3f01      	subs	r7, #1
    9d8e:	1bc0      	subs	r0, r0, r7
    9d90:	6120      	str	r0, [r4, #16]
    9d92:	e02c      	b.n	9dee <_printf_i+0x1be>
    9d94:	6809      	ldr	r1, [r1, #0]
    9d96:	682b      	ldr	r3, [r5, #0]
    9d98:	6962      	ldr	r2, [r4, #20]
    9d9a:	f011 0f80 	tst.w	r1, #128	; 0x80
    9d9e:	d004      	beq.n	9daa <_printf_i+0x17a>
    9da0:	1d19      	adds	r1, r3, #4
    9da2:	6029      	str	r1, [r5, #0]
    9da4:	681b      	ldr	r3, [r3, #0]
    9da6:	601a      	str	r2, [r3, #0]
    9da8:	e005      	b.n	9db6 <_printf_i+0x186>
    9daa:	0649      	lsls	r1, r1, #25
    9dac:	d5f8      	bpl.n	9da0 <_printf_i+0x170>
    9dae:	1d19      	adds	r1, r3, #4
    9db0:	6029      	str	r1, [r5, #0]
    9db2:	681b      	ldr	r3, [r3, #0]
    9db4:	801a      	strh	r2, [r3, #0]
    9db6:	2300      	movs	r3, #0
    9db8:	6123      	str	r3, [r4, #16]
    9dba:	4607      	mov	r7, r0
    9dbc:	e017      	b.n	9dee <_printf_i+0x1be>
    9dbe:	682b      	ldr	r3, [r5, #0]
    9dc0:	1d1a      	adds	r2, r3, #4
    9dc2:	602a      	str	r2, [r5, #0]
    9dc4:	681f      	ldr	r7, [r3, #0]
    9dc6:	4638      	mov	r0, r7
    9dc8:	f7fc fd93 	bl	68f2 <strlen>
    9dcc:	6863      	ldr	r3, [r4, #4]
    9dce:	6120      	str	r0, [r4, #16]
    9dd0:	4298      	cmp	r0, r3
    9dd2:	bf88      	it	hi
    9dd4:	6123      	strhi	r3, [r4, #16]
    9dd6:	6923      	ldr	r3, [r4, #16]
    9dd8:	6063      	str	r3, [r4, #4]
    9dda:	e005      	b.n	9de8 <_printf_i+0x1b8>
    9ddc:	f104 0742 	add.w	r7, r4, #66	; 0x42
    9de0:	f884 6042 	strb.w	r6, [r4, #66]	; 0x42
    9de4:	2301      	movs	r3, #1
    9de6:	6123      	str	r3, [r4, #16]
    9de8:	2300      	movs	r3, #0
    9dea:	f884 3043 	strb.w	r3, [r4, #67]	; 0x43
    9dee:	f8cd a000 	str.w	sl, [sp]
    9df2:	4640      	mov	r0, r8
    9df4:	4621      	mov	r1, r4
    9df6:	aa03      	add	r2, sp, #12
    9df8:	464b      	mov	r3, r9
    9dfa:	f7ff fea7 	bl	9b4c <_printf_common>
    9dfe:	3001      	adds	r0, #1
    9e00:	d102      	bne.n	9e08 <_printf_i+0x1d8>
    9e02:	f04f 30ff 	mov.w	r0, #4294967295
    9e06:	e01f      	b.n	9e48 <_printf_i+0x218>
    9e08:	4640      	mov	r0, r8
    9e0a:	4649      	mov	r1, r9
    9e0c:	463a      	mov	r2, r7
    9e0e:	6923      	ldr	r3, [r4, #16]
    9e10:	47d0      	blx	sl
    9e12:	3001      	adds	r0, #1
    9e14:	d0f5      	beq.n	9e02 <_printf_i+0x1d2>
    9e16:	6823      	ldr	r3, [r4, #0]
    9e18:	079b      	lsls	r3, r3, #30
    9e1a:	d405      	bmi.n	9e28 <_printf_i+0x1f8>
    9e1c:	68e0      	ldr	r0, [r4, #12]
    9e1e:	9b03      	ldr	r3, [sp, #12]
    9e20:	4298      	cmp	r0, r3
    9e22:	bfb8      	it	lt
    9e24:	4618      	movlt	r0, r3
    9e26:	e00f      	b.n	9e48 <_printf_i+0x218>
    9e28:	2500      	movs	r5, #0
    9e2a:	68e2      	ldr	r2, [r4, #12]
    9e2c:	9b03      	ldr	r3, [sp, #12]
    9e2e:	1ad3      	subs	r3, r2, r3
    9e30:	429d      	cmp	r5, r3
    9e32:	daf3      	bge.n	9e1c <_printf_i+0x1ec>
    9e34:	4640      	mov	r0, r8
    9e36:	4649      	mov	r1, r9
    9e38:	f104 0219 	add.w	r2, r4, #25
    9e3c:	2301      	movs	r3, #1
    9e3e:	47d0      	blx	sl
    9e40:	3001      	adds	r0, #1
    9e42:	d0de      	beq.n	9e02 <_printf_i+0x1d2>
    9e44:	3501      	adds	r5, #1
    9e46:	e7f0      	b.n	9e2a <_printf_i+0x1fa>
    9e48:	b004      	add	sp, #16
    9e4a:	e8bd 87f0 	ldmia.w	sp!, {r4, r5, r6, r7, r8, r9, sl, pc}
    9e4e:	bf00      	nop
    9e50:	0000a6c2 	.word	0x0000a6c2
    9e54:	0000a6d3 	.word	0x0000a6d3

00009e58 <memchr>:
    9e58:	b510      	push	{r4, lr}
    9e5a:	b2c9      	uxtb	r1, r1
    9e5c:	4402      	add	r2, r0
    9e5e:	4290      	cmp	r0, r2
    9e60:	4603      	mov	r3, r0
    9e62:	d006      	beq.n	9e72 <memchr+0x1a>
    9e64:	781c      	ldrb	r4, [r3, #0]
    9e66:	428c      	cmp	r4, r1
    9e68:	f100 0001 	add.w	r0, r0, #1
    9e6c:	d1f7      	bne.n	9e5e <memchr+0x6>
    9e6e:	4618      	mov	r0, r3
    9e70:	bd10      	pop	{r4, pc}
    9e72:	2000      	movs	r0, #0
    9e74:	bd10      	pop	{r4, pc}

00009e76 <pin2sc1a>:
    9e76:	0e05 0908 0c0d 0706 040f 9303 8f8e 0e05     ................
    9e86:	0908 0c0d 0706 040f ffff ffff ffff 8eff     ................
    9e96:	118f 8412 8685 9187 ffff ffff ffff ffff     ................
    9ea6:	8aff ff8b ffff ffff ffff ffff ffff ffff     ................
    9eb6:	9303 9717 8101 921a 0031 0030 ffff          ........1.0...

00009ec4 <digital_pin_to_info_PGM>:
    9ec4:	0840 43fe a040 4004 0844 43fe a044 4004     @..C@..@D..CD..@
    9ed4:	1800 43fe c000 4004 0030 43fe 9030 4004     ...C...@0..C0..@
    9ee4:	0034 43fe 9034 4004 181c 43fe c01c 4004     4..C4..@...C...@
    9ef4:	1810 43fe c010 4004 1808 43fe c008 4004     ...C...@...C...@
    9f04:	180c 43fe c00c 4004 100c 43fe b00c 4004     ...C...@...C...@
    9f14:	1010 43fe b010 4004 1018 43fe b018 4004     ...C...@...C...@
    9f24:	101c 43fe b01c 4004 1014 43fe b014 4004     ...C...@...C...@
    9f34:	1804 43fe c004 4004 1000 43fe b000 4004     ...C...@...C...@
    9f44:	0800 43fe a000 4004 0804 43fe a004 4004     ...C...@...C...@
    9f54:	080c 43fe a00c 4004 0808 43fe a008 4004     ...C...@...C...@
    9f64:	1814 43fe c014 4004 1818 43fe c018 4004     ...C...@...C...@
    9f74:	1004 43fe b004 4004 1008 43fe b008 4004     ...C...@...C...@
    9f84:	2068 43fe d068 4004 0014 43fe 9014 4004     h .Ch..@...C...@
    9f94:	0038 43fe 9038 4004 003c 43fe 903c 4004     8..C8..@<..C<..@
    9fa4:	0040 43fe 9040 4004 0848 43fe a048 4004     @..C@..@H..CH..@
    9fb4:	084c 43fe a04c 4004 0828 43fe a028 4004     L..CL..@(..C(..@
    9fc4:	082c 43fe a02c 4004 2060 43fe d060 4004     ,..C,..@` .C`..@
    9fd4:	2064 43fe d064 4004 1020 43fe b020 4004     d .Cd..@ ..C ..@
    9fe4:	1024 43fe b024 4004 1028 43fe b028 4004     $..C$..@(..C(..@
    9ff4:	102c 43fe b02c 4004 0044 43fe 9044 4004     ,..C,..@D..CD..@
    a004:	0070 43fe 9070 4004 0074 43fe 9074 4004     p..Cp..@t..Ct..@
    a014:	0068 43fe 9068 4004 0850 43fe a050 4004     h..Ch..@P..CP..@
    a024:	0858 43fe a058 4004 085c 43fe a05c 4004     X..CX..@\..C\..@
    a034:	0854 43fe a054 4004 1820 43fe c020 4004     T..CT..@ ..C ..@
    a044:	1824 43fe c024 4004 0810 43fe a010 4004     $..C$..@...C...@
    a054:	0814 43fe a014 4004 1838 43fe c038 4004     ...C...@8..C8..@
    a064:	1834 43fe c034 4004 1830 43fe c030 4004     4..C4..@0..C0..@
    a074:	183c 43fe c03c 4004 182c 43fe c02c 4004     <..C<..@,..C,..@
    a084:	2028 43fe d028 4004 202c 43fe d02c 4004     ( .C(..@, .C,..@
    a094:	2000 43fe d000 4004 2004 43fe d004 4004     . .C...@. .C...@
    a0a4:	2008 43fe d008 4004 200c 43fe d00c 4004     . .C...@. .C...@
    a0b4:	2010 43fe d010 4004 2014 43fe d014 4004     . .C...@. .C...@

0000a0c4 <usb_endpoint_config_table>:
    a0c4:	1500 1519                                   ....

0000a0c8 <usb_descriptor_list>:
    a0c8:	0100 0000 0a9b 1fff 0012 0000 0200 0000     ................
    a0d8:	0a58 1fff 0043 0000 0300 0000 0a54 1fff     X...C.......T...
    a0e8:	0000 0000 0301 0409 0a3c 1fff 0000 0000     ........<.......
    a0f8:	0302 0409 0a26 1fff 0000 0000 0303 0409     ....&...........
    a108:	0a10 1fff 0000 0000 0000 0000 0000 0000     ................
    a118:	0000 0000 ffff ffff                         ........

0000a120 <_ZTV14HardwareSerial>:
	...
    a128:	42a1 0000 42b9 0000 4289 0000 4291 0000     .B...B...B...B..
    a138:	428d 0000 4295 0000 421d 0000 4231 0000     .B...B...B..1B..
    a148:	4251 0000 4255 0000 425b 0000 4261 0000     QB..UB..[B..aB..
    a158:	4269 0000 4279 0000 4299 0000 429d 0000     iB..yB...B...B..
    a168:	41ed 0000 41f9 0000 4205 0000 4211 0000     .A...A...B...B..
    a178:	42c9 0000 42ad 0000                         .B...B..

0000a180 <_ZTV15HardwareSerial2>:
	...
    a188:	43b5 0000 43cd 0000 439d 0000 43a5 0000     .C...C...C...C..
    a198:	43a1 0000 43a9 0000 4331 0000 4345 0000     .C...C..1C..EC..
    a1a8:	4365 0000 4369 0000 436f 0000 4375 0000     eC..iC..oC..uC..
    a1b8:	437d 0000 438d 0000 43ad 0000 43b1 0000     }C...C...C...C..
    a1c8:	42ff 0000 430b 0000 4317 0000 4323 0000     .B...C...C..#C..
    a1d8:	43dd 0000 43c1 0000                         .C...C..

0000a1e0 <_ZTV15HardwareSerial3>:
	...
    a1e8:	44c9 0000 44e1 0000 44b1 0000 44b9 0000     .D...D...D...D..
    a1f8:	44b5 0000 44bd 0000 4445 0000 4459 0000     .D...D..ED..YD..
    a208:	4479 0000 447d 0000 4483 0000 4489 0000     yD..}D...D...D..
    a218:	4491 0000 44a1 0000 44c1 0000 44c5 0000     .D...D...D...D..
    a228:	4413 0000 441f 0000 442b 0000 4437 0000     .D...D..+D..7D..
    a238:	44f1 0000 44d5 0000                         .D...D..

0000a240 <_ZTV15HardwareSerial4>:
	...
    a248:	45dd 0000 45f5 0000 45c5 0000 45cd 0000     .E...E...E...E..
    a258:	45c9 0000 45d1 0000 4559 0000 456d 0000     .E...E..YE..mE..
    a268:	458d 0000 4591 0000 4597 0000 459d 0000     .E...E...E...E..
    a278:	45a5 0000 45b5 0000 45d5 0000 45d9 0000     .E...E...E...E..
    a288:	4527 0000 4533 0000 453f 0000 454b 0000     'E..3E..?E..KE..
    a298:	4605 0000 45e9 0000                         .F...E..

0000a2a0 <_ZTV15HardwareSerial5>:
	...
    a2a8:	46f1 0000 4709 0000 46d9 0000 46e1 0000     .F...G...F...F..
    a2b8:	46dd 0000 46e5 0000 466d 0000 4681 0000     .F...F..mF...F..
    a2c8:	46a1 0000 46a5 0000 46ab 0000 46b1 0000     .F...F...F...F..
    a2d8:	46b9 0000 46c9 0000 46e9 0000 46ed 0000     .F...F...F...F..
    a2e8:	463b 0000 4647 0000 4653 0000 465f 0000     ;F..GF..SF.._F..
    a2f8:	4719 0000 46fd 0000                         .G...F..

0000a300 <_ZTV15HardwareSerial6>:
	...
    a308:	47e9 0000 4801 0000 47d1 0000 47d9 0000     .G...H...G...G..
    a318:	47d5 0000 47dd 0000 477f 0000 4785 0000     .G...G...G...G..
    a328:	4799 0000 479d 0000 47a3 0000 47a9 0000     .G...G...G...G..
    a338:	47b1 0000 47c1 0000 47e1 0000 47e5 0000     .G...G...G...G..
    a348:	474f 0000 475b 0000 4767 0000 4773 0000     OG..[G..gG..sG..
    a358:	4811 0000 47f5 0000 7453 7261 6974 676e     .H...G..Starting
    a368:	6e20 776f 0a21 4800 6c65 6f6c 6620 6f72      now!..Hello fro
    a378:	206d 6f64 7453 6675 2866 2129 000a 6425     m doStuff()!..%d
    a388:	000a ffff ffff ffff 0a0d 0000 0000 0000     ................

0000a398 <_ZTV5Print>:
	...
    a3a0:	099d 0000 4901 0000 616e 006e 6e69 0066     .....I..nan.inf.
    a3b0:	766f 0066 ffff ffff                         ovf.....

0000a3b8 <_ZTV16usb_serial_class>:
	...
    a3c0:	4bc7 0000 4bcd 0000 4bb3 0000 4bb7 0000     .K...K...K...K..
    a3d0:	4bbb 0000 4bbf 0000 4bc3 0000 0000 0000     .K...K...K......
    a3e0:	0043 ffff                                   C...

0000a3e4 <_global_impure_ptr>:
    a3e4:	0ab4 1fff                                   ....

0000a3e8 <tinytens>:
    a3e8:	89bc 97d8 d2b2 3c9c a733 d5a8 f623 3949     .......<3...#.I9
    a3f8:	a73d 44f4 0ffd 32a5 979d cf8c ba08 255b     =..D...2......[%
    a408:	6f43 64ac 0628 1168                         Co.d(.h.

0000a410 <fpi.5246>:
    a410:	0035 0000 fbce ffff 03cb 0000 0001 0000     5...............
    a420:	0000 0000                                   ....

0000a424 <fpinan.5282>:
    a424:	0034 0000 fbce ffff 03cb 0000 0001 0000     4...............
    a434:	0000 0000                                   ....

0000a438 <_ctype_>:
    a438:	2000 2020 2020 2020 2020 2828 2828 2028     .         ((((( 
    a448:	2020 2020 2020 2020 2020 2020 2020 2020                     
    a458:	8820 1010 1010 1010 1010 1010 1010 1010      ...............
    a468:	0410 0404 0404 0404 0404 1004 1010 1010     ................
    a478:	1010 4141 4141 4141 0101 0101 0101 0101     ..AAAAAA........
    a488:	0101 0101 0101 0101 0101 0101 1010 1010     ................
    a498:	1010 4242 4242 4242 0202 0202 0202 0202     ..BBBBBB........
    a4a8:	0202 0202 0202 0202 0202 0202 1010 1010     ................
    a4b8:	0020 0000 0000 0000 0000 0000 0000 0000      ...............
	...
    a538:	ff00 ffff                                   ....

0000a53c <__sf_fake_stdin>:
	...

0000a55c <__sf_fake_stdout>:
	...

0000a57c <__sf_fake_stderr>:
	...
    a59c:	4f50 4953 0058 002e ffff ffff               POSIX.......

0000a5a8 <__mprec_tens>:
    a5a8:	0000 0000 0000 3ff0 0000 0000 0000 4024     .......?......$@
    a5b8:	0000 0000 0000 4059 0000 0000 4000 408f     ......Y@.....@.@
    a5c8:	0000 0000 8800 40c3 0000 0000 6a00 40f8     .......@.....j.@
    a5d8:	0000 0000 8480 412e 0000 0000 12d0 4163     .......A......cA
    a5e8:	0000 0000 d784 4197 0000 0000 cd65 41cd     .......A....e..A
    a5f8:	0000 2000 a05f 4202 0000 e800 4876 4237     ... _..B....vH7B
    a608:	0000 a200 1a94 426d 0000 e540 309c 42a2     ......mB..@..0.B
    a618:	0000 1e90 bcc4 42d6 0000 2634 6bf5 430c     .......B..4&.k.C
    a628:	8000 37e0 c379 4341 a000 85d8 3457 4376     ...7y.AC....W4vC
    a638:	c800 674e c16d 43ab 3d00 6091 58e4 43e1     ..Ngm..C.=.`.X.C
    a648:	8c40 78b5 af1d 4415 ef50 d6e2 1ae4 444b     @..x...DP.....KD
    a658:	d592 064d f0cf 4480 4af6 c7e1 2d02 44b5     ..M....D.J...-.D
    a668:	9db4 79d9 7843 44ea                         ...yCx.D

0000a670 <__mprec_bigtens>:
    a670:	8000 37e0 c379 4341 6e17 b505 b8b5 4693     ...7y.AC.n.....F
    a680:	f9f5 e93f 4f03 4d38 1d32 f930 7748 5a82     ..?..O8M2.0.Hw.Z
    a690:	bf3c 7f73 4fdd 7515                         <.s..O.u

0000a698 <p05.5281>:
    a698:	0005 0000 0019 0000 007d 0000 6e49 6966     ........}...Infi
    a6a8:	696e 7974 4e00 4e61 2300 302d 202b 6800     nity.NaN.#-0+ .h
    a6b8:	4c6c 6500 6766 4645 0047 3130 3332 3534     lL.efgEFG.012345
    a6c8:	3736 3938 4241 4443 4645 3000 3231 3433     6789ABCDEF.01234
    a6d8:	3635 3837 6139 6362 6564 0066               56789abcdef.

0000a6e4 <_init>:
    a6e4:	b5f8      	push	{r3, r4, r5, r6, r7, lr}
    a6e6:	bf00      	nop
    a6e8:	bcf8      	pop	{r3, r4, r5, r6, r7}
    a6ea:	bc08      	pop	{r3}
    a6ec:	469e      	mov	lr, r3
    a6ee:	4770      	bx	lr

0000a6f0 <__init_array_start>:
    a6f0:	00000435 	.word	0x00000435
    a6f4:	000042e1 	.word	0x000042e1
    a6f8:	000043f5 	.word	0x000043f5
    a6fc:	00004509 	.word	0x00004509
    a700:	0000461d 	.word	0x0000461d
    a704:	00004731 	.word	0x00004731
    a708:	00004829 	.word	0x00004829
    a70c:	00004bd5 	.word	0x00004bd5

Disassembly of section .data:

1fff0760 <port_E_isr>:
1fff0760:	4b08      	ldr	r3, [pc, #32]	; (1fff0784 <port_E_isr+0x24>)
1fff0762:	b510      	push	{r4, lr}
1fff0764:	681c      	ldr	r4, [r3, #0]
1fff0766:	601c      	str	r4, [r3, #0]
1fff0768:	b154      	cbz	r4, 1fff0780 <port_E_isr+0x20>
1fff076a:	fa94 f2a4 	rbit	r2, r4
1fff076e:	fab2 f282 	clz	r2, r2
1fff0772:	4b05      	ldr	r3, [pc, #20]	; (1fff0788 <port_E_isr+0x28>)
1fff0774:	f853 3022 	ldr.w	r3, [r3, r2, lsl #2]
1fff0778:	4798      	blx	r3
1fff077a:	1e63      	subs	r3, r4, #1
1fff077c:	401c      	ands	r4, r3
1fff077e:	d1f4      	bne.n	1fff076a <port_E_isr+0xa>
1fff0780:	bd10      	pop	{r4, pc}
1fff0782:	bf00      	nop
1fff0784:	4004d0a0 	.word	0x4004d0a0
1fff0788:	1fff0850 	.word	0x1fff0850

1fff078c <port_D_isr>:
1fff078c:	4b08      	ldr	r3, [pc, #32]	; (1fff07b0 <port_D_isr+0x24>)
1fff078e:	b510      	push	{r4, lr}
1fff0790:	681c      	ldr	r4, [r3, #0]
1fff0792:	601c      	str	r4, [r3, #0]
1fff0794:	b15c      	cbz	r4, 1fff07ae <port_D_isr+0x22>
1fff0796:	fa94 f3a4 	rbit	r3, r4
1fff079a:	4a06      	ldr	r2, [pc, #24]	; (1fff07b4 <port_D_isr+0x28>)
1fff079c:	fab3 f383 	clz	r3, r3
1fff07a0:	eb02 0383 	add.w	r3, r2, r3, lsl #2
1fff07a4:	6edb      	ldr	r3, [r3, #108]	; 0x6c
1fff07a6:	4798      	blx	r3
1fff07a8:	1e63      	subs	r3, r4, #1
1fff07aa:	401c      	ands	r4, r3
1fff07ac:	d1f3      	bne.n	1fff0796 <port_D_isr+0xa>
1fff07ae:	bd10      	pop	{r4, pc}
1fff07b0:	4004c0a0 	.word	0x4004c0a0
1fff07b4:	1fff0850 	.word	0x1fff0850

1fff07b8 <port_C_isr>:
1fff07b8:	4b09      	ldr	r3, [pc, #36]	; (1fff07e0 <port_C_isr+0x28>)
1fff07ba:	b510      	push	{r4, lr}
1fff07bc:	681c      	ldr	r4, [r3, #0]
1fff07be:	601c      	str	r4, [r3, #0]
1fff07c0:	b164      	cbz	r4, 1fff07dc <port_C_isr+0x24>
1fff07c2:	fa94 f3a4 	rbit	r3, r4
1fff07c6:	4a07      	ldr	r2, [pc, #28]	; (1fff07e4 <port_C_isr+0x2c>)
1fff07c8:	fab3 f383 	clz	r3, r3
1fff07cc:	eb02 0383 	add.w	r3, r2, r3, lsl #2
1fff07d0:	f8d3 30ac 	ldr.w	r3, [r3, #172]	; 0xac
1fff07d4:	4798      	blx	r3
1fff07d6:	1e63      	subs	r3, r4, #1
1fff07d8:	401c      	ands	r4, r3
1fff07da:	d1f2      	bne.n	1fff07c2 <port_C_isr+0xa>
1fff07dc:	bd10      	pop	{r4, pc}
1fff07de:	bf00      	nop
1fff07e0:	4004b0a0 	.word	0x4004b0a0
1fff07e4:	1fff0850 	.word	0x1fff0850

1fff07e8 <port_B_isr>:
1fff07e8:	4b09      	ldr	r3, [pc, #36]	; (1fff0810 <port_B_isr+0x28>)
1fff07ea:	b510      	push	{r4, lr}
1fff07ec:	681c      	ldr	r4, [r3, #0]
1fff07ee:	601c      	str	r4, [r3, #0]
1fff07f0:	b164      	cbz	r4, 1fff080c <port_B_isr+0x24>
1fff07f2:	fa94 f3a4 	rbit	r3, r4
1fff07f6:	4a07      	ldr	r2, [pc, #28]	; (1fff0814 <port_B_isr+0x2c>)
1fff07f8:	fab3 f383 	clz	r3, r3
1fff07fc:	eb02 0383 	add.w	r3, r2, r3, lsl #2
1fff0800:	f8d3 30dc 	ldr.w	r3, [r3, #220]	; 0xdc
1fff0804:	4798      	blx	r3
1fff0806:	1e63      	subs	r3, r4, #1
1fff0808:	401c      	ands	r4, r3
1fff080a:	d1f2      	bne.n	1fff07f2 <port_B_isr+0xa>
1fff080c:	bd10      	pop	{r4, pc}
1fff080e:	bf00      	nop
1fff0810:	4004a0a0 	.word	0x4004a0a0
1fff0814:	1fff0850 	.word	0x1fff0850

1fff0818 <port_A_isr>:
1fff0818:	4b09      	ldr	r3, [pc, #36]	; (1fff0840 <port_A_isr+0x28>)
1fff081a:	b510      	push	{r4, lr}
1fff081c:	681c      	ldr	r4, [r3, #0]
1fff081e:	601c      	str	r4, [r3, #0]
1fff0820:	b164      	cbz	r4, 1fff083c <port_A_isr+0x24>
1fff0822:	fa94 f3a4 	rbit	r3, r4
1fff0826:	4a07      	ldr	r2, [pc, #28]	; (1fff0844 <port_A_isr+0x2c>)
1fff0828:	fab3 f383 	clz	r3, r3
1fff082c:	eb02 0383 	add.w	r3, r2, r3, lsl #2
1fff0830:	f8d3 313c 	ldr.w	r3, [r3, #316]	; 0x13c
1fff0834:	4798      	blx	r3
1fff0836:	1e63      	subs	r3, r4, #1
1fff0838:	401c      	ands	r4, r3
1fff083a:	d1f2      	bne.n	1fff0822 <port_A_isr+0xa>
1fff083c:	bd10      	pop	{r4, pc}
1fff083e:	bf00      	nop
1fff0840:	400490a0 	.word	0x400490a0
1fff0844:	1fff0850 	.word	0x1fff0850

1fff0848 <analog_config_bits>:
1fff0848:	0000040a                                         .

1fff0849 <analog_num_average>:
1fff0849:	f4000004                                         ...

1fff084c <__brkval>:
1fff084c:	1fff10f4                                ....

1fff0850 <isr_table_portE>:
1fff0850:	00000c5d 00000c5d 00000c5d 00000c5d     ]...]...]...]...
1fff0860:	00000c5d 00000c5d 00000c5d 00000c5d     ]...]...]...]...
1fff0870:	00000c5d 00000c5d 00000c5d 00000c5d     ]...]...]...]...
1fff0880:	00000c5d 00000c5d 00000c5d 00000c5d     ]...]...]...]...
1fff0890:	00000c5d 00000c5d 00000c5d 00000c5d     ]...]...]...]...
1fff08a0:	00000c5d 00000c5d 00000c5d 00000c5d     ]...]...]...]...
1fff08b0:	00000c5d 00000c5d 00000c5d              ]...]...]...

1fff08bc <isr_table_portD>:
1fff08bc:	00000c5d 00000c5d 00000c5d 00000c5d     ]...]...]...]...
1fff08cc:	00000c5d 00000c5d 00000c5d 00000c5d     ]...]...]...]...
1fff08dc:	00000c5d 00000c5d 00000c5d 00000c5d     ]...]...]...]...
1fff08ec:	00000c5d 00000c5d 00000c5d 00000c5d     ]...]...]...]...

1fff08fc <isr_table_portC>:
1fff08fc:	00000c5d 00000c5d 00000c5d 00000c5d     ]...]...]...]...
1fff090c:	00000c5d 00000c5d 00000c5d 00000c5d     ]...]...]...]...
1fff091c:	00000c5d 00000c5d 00000c5d 00000c5d     ]...]...]...]...

1fff092c <isr_table_portB>:
1fff092c:	00000c5d 00000c5d 00000c5d 00000c5d     ]...]...]...]...
1fff093c:	00000c5d 00000c5d 00000c5d 00000c5d     ]...]...]...]...
1fff094c:	00000c5d 00000c5d 00000c5d 00000c5d     ]...]...]...]...
1fff095c:	00000c5d 00000c5d 00000c5d 00000c5d     ]...]...]...]...
1fff096c:	00000c5d 00000c5d 00000c5d 00000c5d     ]...]...]...]...
1fff097c:	00000c5d 00000c5d 00000c5d 00000c5d     ]...]...]...]...

1fff098c <isr_table_portA>:
1fff098c:	00000c5d 00000c5d 00000c5d 00000c5d     ]...]...]...]...
1fff099c:	00000c5d 00000c5d 00000c5d 00000c5d     ]...]...]...]...
1fff09ac:	00000c5d 00000c5d 00000c5d 00000c5d     ]...]...]...]...
1fff09bc:	00000c5d 00000c5d 00000c5d 00000c5d     ]...]...]...]...
1fff09cc:	00000c5d 00000c5d 00000c5d 00000c5d     ]...]...]...]...
1fff09dc:	00000c5d 00000c5d 00000c5d 00000c5d     ]...]...]...]...
1fff09ec:	00000c5d 00000c5d 00000c5d 00000c5d     ]...]...]...]...
1fff09fc:	00000c5d 00000c5d                       ]...]...

1fff0a04 <analog_write_res>:
1fff0a04:	00000008                                ....

1fff0a08 <tx_pin_num>:
1fff0a08:	080a0901                                         .

1fff0a09 <rx_pin_num>:
1fff0a09:	1f080a09                                         .

1fff0a0a <tx_pin_num>:
1fff0a0a:	201f080a                                         .

1fff0a0b <tx_pin_num>:
1fff0a0b:	21201f08                                         .

1fff0a0c <rx_pin_num>:
1fff0a0c:	3021201f                                         .

1fff0a0d <tx_pin_num>:
1fff0a0d:	0c302120                                          

1fff0a0e <tx_pin_num>:
1fff0a0e:	030c3021                                         !

1fff0a0f <tx_pin_num>:
1fff0a0f:	00030c30                                         0

1fff0a10 <usb_string_serial_number_default>:
1fff0a10:	0000030c 00000000 00000000 00000000     ................
1fff0a20:	00000000 03160000                                ......

1fff0a26 <usb_string_product_name_default>:
1fff0a26:	00550316 00420053 00530020 00720065     ..U.S.B. .S.e.r.
1fff0a36:	00610069 0318006c                                i.a.l.

1fff0a3c <usb_string_manufacturer_name_default>:
1fff0a3c:	00540318 00650065 0073006e 00640079     ..T.e.e.n.s.y.d.
1fff0a4c:	00690075 006f006e                       u.i.n.o.

1fff0a54 <string0>:
1fff0a54:	04090304                                ....

1fff0a58 <config_descriptor>:
1fff0a58:	00430209 c0000102 00040932 02020100     ..C.....2.......
1fff0a68:	24050001 05011000 01010124 06022404     ...$....$....$..
1fff0a78:	00062405 82050701 40001003 00010409     .$.........@....
1fff0a88:	00000a02 03050700 00004002 02840507     .........@......
1fff0a98:	12000040                                         @..

1fff0a9b <device_descriptor>:
1fff0a9b:	01010112 40000002 048316c0 02010200     .......@........
1fff0aab:	00000103 ffffff00                                .....

1fff0ab0 <usb_buffer_available>:
1fff0ab0:	ffffffff                                ....

1fff0ab4 <impure_data>:
1fff0ab4:	00000000 0000a53c 0000a55c 0000a57c     ....<...\...|...
	...
1fff0ad4:	0000a3e0 00000000 00000000 00000000     ................
	...

1fff0b14 <_impure_ptr>:
1fff0b14:	1fff0ab4                                ....

1fff0b18 <__ctype_ptr__>:
1fff0b18:	0000a438                                8...

1fff0b1c <lconv>:
1fff0b1c:	0000a5a2 0000a385 0000a385 0000a385     ................
1fff0b2c:	0000a385 0000a385 0000a385 0000a385     ................
1fff0b3c:	0000a385 0000a385 ffffffff ffffffff     ................
1fff0b4c:	ffffffff 0000ffff                       ........
