
main.elf:     file format elf32-littlearm


Disassembly of section .text:

00000000 <_VectorsFlash>:
$d():
       0:	00 00 03 20 d1 01 00 00 71 09 00 00 49 09 00 00     ... ....q...I...
      10:	49 09 00 00 49 09 00 00 49 09 00 00 49 09 00 00     I...I...I...I...
      20:	49 09 00 00 49 09 00 00 49 09 00 00 71 09 00 00     I...I...I...q...
      30:	71 09 00 00 49 09 00 00 71 09 00 00 39 09 00 00     q...I...q...9...
      40:	71 09 00 00 71 09 00 00 71 09 00 00 71 09 00 00     q...q...q...q...
      50:	71 09 00 00 71 09 00 00 71 09 00 00 71 09 00 00     q...q...q...q...
      60:	71 09 00 00 71 09 00 00 71 09 00 00 71 09 00 00     q...q...q...q...
      70:	71 09 00 00 71 09 00 00 71 09 00 00 71 09 00 00     q...q...q...q...
      80:	71 09 00 00 71 09 00 00 71 09 00 00 71 09 00 00     q...q...q...q...
      90:	71 09 00 00 71 09 00 00 71 09 00 00 71 09 00 00     q...q...q...q...
      a0:	71 09 00 00 71 09 00 00 71 09 00 00 71 09 00 00     q...q...q...q...
      b0:	71 09 00 00 71 09 00 00 71 09 00 00 71 1b 00 00     q...q...q...q...
      c0:	71 09 00 00 e9 21 00 00 71 09 00 00 55 26 00 00     q....!..q...U&..
      d0:	71 09 00 00 41 2b 00 00 71 09 00 00 71 09 00 00     q...A+..q...q...
      e0:	71 09 00 00 71 09 00 00 71 09 00 00 71 09 00 00     q...q...q...q...
      f0:	71 09 00 00 71 09 00 00 71 09 00 00 71 09 00 00     q...q...q...q...
     100:	71 09 00 00 71 09 00 00 71 09 00 00 71 09 00 00     q...q...q...q...
     110:	71 09 00 00 a9 37 00 00 71 09 00 00 71 09 00 00     q....7..q...q...
     120:	71 09 00 00 71 09 00 00 71 09 00 00 71 09 00 00     q...q...q...q...
     130:	71 09 00 00 71 09 00 00 71 09 00 00 71 09 00 00     q...q...q...q...
     140:	71 09 00 00 71 09 00 00 79 2f 00 00 71 09 00 00     q...q...y/..q...
     150:	71 09 00 00 71 09 00 00 71 09 00 00 71 09 00 00     q...q...q...q...
     160:	71 09 00 00 71 09 00 00 71 09 00 00 71 09 00 00     q...q...q...q...
     170:	71 09 00 00 71 09 00 00 71 09 00 00 71 09 00 00     q...q...q...q...
     180:	71 09 00 00 71 09 00 00 71 09 00 00 71 09 00 00     q...q...q...q...
     190:	71 09 00 00 71 09 00 00 85 34 00 00 71 09 00 00     q...q....4..q...
     1a0:	71 09 00 00 71 09 00 00 71 09 00 00 71 09 00 00     q...q...q...q...
     1b0:	71 09 00 00 71 09 00 00 71 09 00 00 71 09 00 00     q...q...q...q...
     1c0:	71 09 00 00 71 09 00 00 71 09 00 00 71 09 00 00     q...q...q...q...

000001d0 <ResetHandler>:
ResetHandler():
C:\Teensy\Projects\HelloWorld/mk20dx128.c:381
     1d0:	4b59      	ldr	r3, [pc, #356]	; (338 <ResetHandler+0x168>)
     1d2:	f24c 5220 	movw	r2, #50464	; 0xc520
C:\Teensy\Projects\HelloWorld/mk20dx128.c:371
     1d6:	b510      	push	{r4, lr}
C:\Teensy\Projects\HelloWorld/mk20dx128.c:381
     1d8:	801a      	strh	r2, [r3, #0]
C:\Teensy\Projects\HelloWorld/mk20dx128.c:382
     1da:	f64d 1228 	movw	r2, #55592	; 0xd928
     1de:	801a      	strh	r2, [r3, #0]
C:\Teensy\Projects\HelloWorld/mk20dx128.c:383
     1e0:	bf00      	nop
C:\Teensy\Projects\HelloWorld/mk20dx128.c:384
     1e2:	bf00      	nop
C:\Teensy\Projects\HelloWorld/mk20dx128.c:388
     1e4:	f000 fbc7 	bl	976 <startup_early_hook>
C:\Teensy\Projects\HelloWorld/mk20dx128.c:393
     1e8:	4b54      	ldr	r3, [pc, #336]	; (33c <ResetHandler+0x16c>)
     1ea:	f04f 6230 	mov.w	r2, #184549376	; 0xb000000
     1ee:	601a      	str	r2, [r3, #0]
C:\Teensy\Projects\HelloWorld/mk20dx128.c:394
     1f0:	4a53      	ldr	r2, [pc, #332]	; (340 <ResetHandler+0x170>)
     1f2:	609a      	str	r2, [r3, #8]
C:\Teensy\Projects\HelloWorld/mk20dx128.c:395
     1f4:	4a53      	ldr	r2, [pc, #332]	; (344 <ResetHandler+0x174>)
     1f6:	60da      	str	r2, [r3, #12]
C:\Teensy\Projects\HelloWorld/mk20dx128.c:402
     1f8:	4b53      	ldr	r3, [pc, #332]	; (348 <ResetHandler+0x178>)
     1fa:	f44f 0270 	mov.w	r2, #15728640	; 0xf00000
     1fe:	601a      	str	r2, [r3, #0]
C:\Teensy\Projects\HelloWorld/mk20dx128.c:404
     200:	4b52      	ldr	r3, [pc, #328]	; (34c <ResetHandler+0x17c>)
     202:	4a53      	ldr	r2, [pc, #332]	; (350 <ResetHandler+0x180>)
     204:	601a      	str	r2, [r3, #0]
C:\Teensy\Projects\HelloWorld/mk20dx128.c:409
     206:	4b53      	ldr	r3, [pc, #332]	; (354 <ResetHandler+0x184>)
     208:	681a      	ldr	r2, [r3, #0]
     20a:	f412 7280 	ands.w	r2, r2, #256	; 0x100
     20e:	d104      	bne.n	21a <ResetHandler+0x4a>
C:\Teensy\Projects\HelloWorld/mk20dx128.c:410
     210:	4951      	ldr	r1, [pc, #324]	; (358 <ResetHandler+0x188>)
     212:	600a      	str	r2, [r1, #0]
C:\Teensy\Projects\HelloWorld/mk20dx128.c:411
     214:	f44f 52a8 	mov.w	r2, #5376	; 0x1500
     218:	601a      	str	r2, [r3, #0]
C:\Teensy\Projects\HelloWorld/mk20dx128.c:415
     21a:	4b50      	ldr	r3, [pc, #320]	; (35c <ResetHandler+0x18c>)
     21c:	781a      	ldrb	r2, [r3, #0]
     21e:	0711      	lsls	r1, r2, #28
     220:	d503      	bpl.n	22a <ResetHandler+0x5a>
C:\Teensy\Projects\HelloWorld/mk20dx128.c:415 (discriminator 1)
     222:	781a      	ldrb	r2, [r3, #0]
     224:	f042 0208 	orr.w	r2, r2, #8
     228:	701a      	strb	r2, [r3, #0]
C:\Teensy\Projects\HelloWorld/mk20dx128.c:420
     22a:	4b4d      	ldr	r3, [pc, #308]	; (360 <ResetHandler+0x190>)
     22c:	22aa      	movs	r2, #170	; 0xaa
     22e:	701a      	strb	r2, [r3, #0]
C:\Teensy\Projects\HelloWorld/mk20dx128.c:423
     230:	2300      	movs	r3, #0
     232:	4a4c      	ldr	r2, [pc, #304]	; (364 <ResetHandler+0x194>)
C:\Teensy\Projects\HelloWorld/mk20dx128.c:423 (discriminator 1)
     234:	494c      	ldr	r1, [pc, #304]	; (368 <ResetHandler+0x198>)
     236:	1898      	adds	r0, r3, r2
     238:	4288      	cmp	r0, r1
     23a:	d204      	bcs.n	246 <ResetHandler+0x76>
C:\Teensy\Projects\HelloWorld/mk20dx128.c:423 (discriminator 2)
     23c:	494b      	ldr	r1, [pc, #300]	; (36c <ResetHandler+0x19c>)
     23e:	5859      	ldr	r1, [r3, r1]
     240:	5099      	str	r1, [r3, r2]
     242:	3304      	adds	r3, #4
     244:	e7f5      	b.n	232 <ResetHandler+0x62>
C:\Teensy\Projects\HelloWorld/mk20dx128.c:423
     246:	4a4a      	ldr	r2, [pc, #296]	; (370 <ResetHandler+0x1a0>)
C:\Teensy\Projects\HelloWorld/mk20dx128.c:425 (discriminator 1)
     248:	4b4a      	ldr	r3, [pc, #296]	; (374 <ResetHandler+0x1a4>)
     24a:	429a      	cmp	r2, r3
     24c:	f04f 0300 	mov.w	r3, #0
     250:	d202      	bcs.n	258 <ResetHandler+0x88>
C:\Teensy\Projects\HelloWorld/mk20dx128.c:425 (discriminator 2)
     252:	f842 3b04 	str.w	r3, [r2], #4
     256:	e7f7      	b.n	248 <ResetHandler+0x78>
C:\Teensy\Projects\HelloWorld/mk20dx128.c:428 (discriminator 2)
     258:	4947      	ldr	r1, [pc, #284]	; (378 <ResetHandler+0x1a8>)
     25a:	4a48      	ldr	r2, [pc, #288]	; (37c <ResetHandler+0x1ac>)
     25c:	5859      	ldr	r1, [r3, r1]
     25e:	5099      	str	r1, [r3, r2]
     260:	3304      	adds	r3, #4
     262:	f5b3 7fe8 	cmp.w	r3, #464	; 0x1d0
     266:	d1f7      	bne.n	258 <ResetHandler+0x88>
C:\Teensy\Projects\HelloWorld/mk20dx128.c:428
     268:	4b45      	ldr	r3, [pc, #276]	; (380 <ResetHandler+0x1b0>)
C:\Teensy\Projects\HelloWorld/mk20dx128.c:429 (discriminator 2)
     26a:	2180      	movs	r1, #128	; 0x80
     26c:	f803 1b01 	strb.w	r1, [r3], #1
     270:	4944      	ldr	r1, [pc, #272]	; (384 <ResetHandler+0x1b4>)
     272:	428b      	cmp	r3, r1
     274:	d1f9      	bne.n	26a <ResetHandler+0x9a>
C:\Teensy\Projects\HelloWorld/mk20dx128.c:430
     276:	4b44      	ldr	r3, [pc, #272]	; (388 <ResetHandler+0x1b8>)
     278:	601a      	str	r2, [r3, #0]
C:\Teensy\Projects\HelloWorld/mk20dx128.c:439
     27a:	4b44      	ldr	r3, [pc, #272]	; (38c <ResetHandler+0x1bc>)
     27c:	228a      	movs	r2, #138	; 0x8a
     27e:	701a      	strb	r2, [r3, #0]
C:\Teensy\Projects\HelloWorld/mk20dx128.c:441
     280:	f5a3 5380 	sub.w	r3, r3, #4096	; 0x1000
     284:	2224      	movs	r2, #36	; 0x24
     286:	705a      	strb	r2, [r3, #1]
C:\Teensy\Projects\HelloWorld/mk20dx128.c:443
     288:	22a0      	movs	r2, #160	; 0xa0
     28a:	701a      	strb	r2, [r3, #0]
C:\Teensy\Projects\HelloWorld/mk20dx128.c:445 (discriminator 1)
     28c:	799a      	ldrb	r2, [r3, #6]
     28e:	0792      	lsls	r2, r2, #30
     290:	d5fc      	bpl.n	28c <ResetHandler+0xbc>
C:\Teensy\Projects\HelloWorld/mk20dx128.c:447
     292:	799a      	ldrb	r2, [r3, #6]
     294:	06d4      	lsls	r4, r2, #27
     296:	d4fc      	bmi.n	292 <ResetHandler+0xc2>
C:\Teensy\Projects\HelloWorld/mk20dx128.c:449
     298:	4b3d      	ldr	r3, [pc, #244]	; (390 <ResetHandler+0x1c0>)
     29a:	799a      	ldrb	r2, [r3, #6]
     29c:	f002 020c 	and.w	r2, r2, #12
     2a0:	2a08      	cmp	r2, #8
     2a2:	d1f9      	bne.n	298 <ResetHandler+0xc8>
C:\Teensy\Projects\HelloWorld/mk20dx128.c:489
     2a4:	2201      	movs	r2, #1
     2a6:	711a      	strb	r2, [r3, #4]
C:\Teensy\Projects\HelloWorld/mk20dx128.c:490
     2a8:	224e      	movs	r2, #78	; 0x4e
     2aa:	715a      	strb	r2, [r3, #5]
C:\Teensy\Projects\HelloWorld/mk20dx128.c:501 (discriminator 1)
     2ac:	799a      	ldrb	r2, [r3, #6]
     2ae:	0690      	lsls	r0, r2, #26
     2b0:	d5fc      	bpl.n	2ac <ResetHandler+0xdc>
C:\Teensy\Projects\HelloWorld/mk20dx128.c:503
     2b2:	4b37      	ldr	r3, [pc, #220]	; (390 <ResetHandler+0x1c0>)
     2b4:	799a      	ldrb	r2, [r3, #6]
     2b6:	0651      	lsls	r1, r2, #25
     2b8:	d5fb      	bpl.n	2b2 <ResetHandler+0xe2>
C:\Teensy\Projects\HelloWorld/mk20dx128.c:574
     2ba:	4a36      	ldr	r2, [pc, #216]	; (394 <ResetHandler+0x1c4>)
     2bc:	f04f 7182 	mov.w	r1, #17039360	; 0x1040000
     2c0:	6011      	str	r1, [r2, #0]
C:\Teensy\Projects\HelloWorld/mk20dx128.c:580
     2c2:	2109      	movs	r1, #9
     2c4:	6051      	str	r1, [r2, #4]
C:\Teensy\Projects\HelloWorld/mk20dx128.c:659
     2c6:	2220      	movs	r2, #32
     2c8:	701a      	strb	r2, [r3, #0]
C:\Teensy\Projects\HelloWorld/mk20dx128.c:661 (discriminator 1)
     2ca:	4b31      	ldr	r3, [pc, #196]	; (390 <ResetHandler+0x1c0>)
     2cc:	799b      	ldrb	r3, [r3, #6]
     2ce:	f003 030c 	and.w	r3, r3, #12
     2d2:	2b0c      	cmp	r3, #12
     2d4:	d1f9      	bne.n	2ca <ResetHandler+0xfa>
C:\Teensy\Projects\HelloWorld/mk20dx128.c:668
     2d6:	4b30      	ldr	r3, [pc, #192]	; (398 <ResetHandler+0x1c8>)
     2d8:	4a30      	ldr	r2, [pc, #192]	; (39c <ResetHandler+0x1cc>)
     2da:	601a      	str	r2, [r3, #0]
C:\Teensy\Projects\HelloWorld/mk20dx128.c:690
     2dc:	4b30      	ldr	r3, [pc, #192]	; (3a0 <ResetHandler+0x1d0>)
     2de:	4a31      	ldr	r2, [pc, #196]	; (3a4 <ResetHandler+0x1d4>)
     2e0:	601a      	str	r2, [r3, #0]
C:\Teensy\Projects\HelloWorld/mk20dx128.c:691
     2e2:	2200      	movs	r2, #0
     2e4:	605a      	str	r2, [r3, #4]
C:\Teensy\Projects\HelloWorld/mk20dx128.c:692
     2e6:	2207      	movs	r2, #7
     2e8:	f843 2c04 	str.w	r2, [r3, #-4]
C:\Teensy\Projects\HelloWorld/mk20dx128.c:693
     2ec:	4a2e      	ldr	r2, [pc, #184]	; (3a8 <ResetHandler+0x1d8>)
     2ee:	f8c3 2d0c 	str.w	r2, [r3, #3340]	; 0xd0c
C:\Teensy\Projects\HelloWorld/mk20dx128.c:696
     2f2:	b662      	cpsie	i
C:\Teensy\Projects\HelloWorld/mk20dx128.c:698
     2f4:	f001 f8c9 	bl	148a <_init_Teensyduino_internal_>
C:\Teensy\Projects\HelloWorld/mk20dx128.c:702
     2f8:	4b17      	ldr	r3, [pc, #92]	; (358 <ResetHandler+0x188>)
     2fa:	681b      	ldr	r3, [r3, #0]
     2fc:	07da      	lsls	r2, r3, #31
     2fe:	d505      	bpl.n	30c <ResetHandler+0x13c>
C:\Teensy\Projects\HelloWorld/mk20dx128.c:710
     300:	482a      	ldr	r0, [pc, #168]	; (3ac <ResetHandler+0x1dc>)
     302:	f000 fd13 	bl	d2c <rtc_set>
C:\Teensy\Projects\HelloWorld/mk20dx128.c:714
     306:	4b2a      	ldr	r3, [pc, #168]	; (3b0 <ResetHandler+0x1e0>)
     308:	4a2a      	ldr	r2, [pc, #168]	; (3b4 <ResetHandler+0x1e4>)
     30a:	601a      	str	r2, [r3, #0]
C:\Teensy\Projects\HelloWorld/mk20dx128.c:716
     30c:	4b2a      	ldr	r3, [pc, #168]	; (3b8 <ResetHandler+0x1e8>)
     30e:	781b      	ldrb	r3, [r3, #0]
     310:	065b      	lsls	r3, r3, #25
     312:	d509      	bpl.n	328 <ResetHandler+0x158>
C:\Teensy\Projects\HelloWorld/mk20dx128.c:716 (discriminator 1)
     314:	4c26      	ldr	r4, [pc, #152]	; (3b0 <ResetHandler+0x1e0>)
     316:	4a27      	ldr	r2, [pc, #156]	; (3b4 <ResetHandler+0x1e4>)
     318:	6823      	ldr	r3, [r4, #0]
     31a:	4293      	cmp	r3, r2
     31c:	d104      	bne.n	328 <ResetHandler+0x158>
C:\Teensy\Projects\HelloWorld/mk20dx128.c:724
     31e:	4823      	ldr	r0, [pc, #140]	; (3ac <ResetHandler+0x1dc>)
     320:	f000 fd04 	bl	d2c <rtc_set>
C:\Teensy\Projects\HelloWorld/mk20dx128.c:728
     324:	2300      	movs	r3, #0
     326:	6023      	str	r3, [r4, #0]
C:\Teensy\Projects\HelloWorld/mk20dx128.c:732
     328:	f006 f9aa 	bl	6680 <__libc_init_array>
C:\Teensy\Projects\HelloWorld/mk20dx128.c:734
     32c:	f000 fb2a 	bl	984 <startup_late_hook>
C:\Teensy\Projects\HelloWorld/mk20dx128.c:735
     330:	f004 fa96 	bl	4860 <main>
     334:	e7fe      	b.n	334 <ResetHandler+0x164>
     336:	bf00      	nop
     338:	4005200e 	.word	0x4005200e
     33c:	40048030 	.word	0x40048030
     340:	00043f82 	.word	0x00043f82
     344:	2b000001 	.word	0x2b000001
     348:	e000ed88 	.word	0xe000ed88
     34c:	e0082000 	.word	0xe0082000
     350:	85000003 	.word	0x85000003
     354:	4003d010 	.word	0x4003d010
     358:	4003d014 	.word	0x4003d014
     35c:	4007d002 	.word	0x4007d002
     360:	4007e000 	.word	0x4007e000
     364:	1fff0760 	.word	0x1fff0760
     368:	1fff0b54 	.word	0x1fff0b54
     36c:	0000a700 	.word	0x0000a700
     370:	1fff0b54 	.word	0x1fff0b54
     374:	1fff10f4 	.word	0x1fff10f4
     378:	00000000 	.word	0x00000000
     37c:	1fff0200 	.word	0x1fff0200
     380:	e000e400 	.word	0xe000e400
     384:	e000e464 	.word	0xe000e464
     388:	e000ed08 	.word	0xe000ed08
     38c:	40065000 	.word	0x40065000
     390:	40064000 	.word	0x40064000
     394:	40048044 	.word	0x40048044
     398:	40048004 	.word	0x40048004
     39c:	000510c0 	.word	0x000510c0
     3a0:	e000e014 	.word	0xe000e014
     3a4:	0001d4bf 	.word	0x0001d4bf
     3a8:	20200000 	.word	0x20200000
     3ac:	00000000 	.word	0x00000000
     3b0:	4003e01c 	.word	0x4003e01c
     3b4:	5a94c3a5 	.word	0x5a94c3a5
     3b8:	4007f000 	.word	0x4007f000
$d():
     3bc:	ffffffff 	.word	0xffffffff
     3c0:	ffffffff 	.word	0xffffffff
     3c4:	ffffffff 	.word	0xffffffff
     3c8:	ffffffff 	.word	0xffffffff
     3cc:	ffffffff 	.word	0xffffffff
     3d0:	ffffffff 	.word	0xffffffff
     3d4:	ffffffff 	.word	0xffffffff
     3d8:	ffffffff 	.word	0xffffffff
     3dc:	ffffffff 	.word	0xffffffff
     3e0:	ffffffff 	.word	0xffffffff
     3e4:	ffffffff 	.word	0xffffffff
     3e8:	ffffffff 	.word	0xffffffff
     3ec:	ffffffff 	.word	0xffffffff
     3f0:	ffffffff 	.word	0xffffffff
     3f4:	ffffffff 	.word	0xffffffff
     3f8:	ffffffff 	.word	0xffffffff
     3fc:	ffffffff 	.word	0xffffffff

00000400 <flashconfigbytes>:
     400:	ffffffff ffffffff ffffffff fffff9de     ................

00000410 <__do_global_dtors_aux>:
$t():
     410:	b510      	push	{r4, lr}
     412:	4c05      	ldr	r4, [pc, #20]	; (428 <__do_global_dtors_aux+0x18>)
     414:	7823      	ldrb	r3, [r4, #0]
     416:	b933      	cbnz	r3, 426 <__do_global_dtors_aux+0x16>
     418:	4b04      	ldr	r3, [pc, #16]	; (42c <__do_global_dtors_aux+0x1c>)
     41a:	b113      	cbz	r3, 422 <__do_global_dtors_aux+0x12>
     41c:	4804      	ldr	r0, [pc, #16]	; (430 <__do_global_dtors_aux+0x20>)
     41e:	f3af 8000 	nop.w
     422:	2301      	movs	r3, #1
     424:	7023      	strb	r3, [r4, #0]
     426:	bd10      	pop	{r4, pc}
$d():
     428:	1fff0b54 	.word	0x1fff0b54
     42c:	00000000 	.word	0x00000000
     430:	0000a700 	.word	0x0000a700

00000434 <frame_dummy>:
$t():
     434:	b508      	push	{r3, lr}
     436:	4b06      	ldr	r3, [pc, #24]	; (450 <frame_dummy+0x1c>)
     438:	b11b      	cbz	r3, 442 <frame_dummy+0xe>
     43a:	4806      	ldr	r0, [pc, #24]	; (454 <frame_dummy+0x20>)
     43c:	4906      	ldr	r1, [pc, #24]	; (458 <frame_dummy+0x24>)
     43e:	f3af 8000 	nop.w
     442:	4806      	ldr	r0, [pc, #24]	; (45c <frame_dummy+0x28>)
     444:	6803      	ldr	r3, [r0, #0]
     446:	b113      	cbz	r3, 44e <frame_dummy+0x1a>
     448:	4b05      	ldr	r3, [pc, #20]	; (460 <frame_dummy+0x2c>)
     44a:	b103      	cbz	r3, 44e <frame_dummy+0x1a>
     44c:	4798      	blx	r3
     44e:	bd08      	pop	{r3, pc}
$d():
     450:	00000000 	.word	0x00000000
     454:	0000a700 	.word	0x0000a700
     458:	1fff0b58 	.word	0x1fff0b58
     45c:	1fff0b54 	.word	0x1fff0b54
     460:	00000000 	.word	0x00000000

00000464 <wait_for_cal>:
wait_for_cal():
C:\Teensy\Projects\HelloWorld/analog.c:209
     464:	b5f0      	push	{r4, r5, r6, r7, lr}
C:\Teensy\Projects\HelloWorld/analog.c:214 (discriminator 1)
     466:	4b30      	ldr	r3, [pc, #192]	; (528 <wait_for_cal+0xc4>)
     468:	681b      	ldr	r3, [r3, #0]
     46a:	061b      	lsls	r3, r3, #24
     46c:	d4fb      	bmi.n	466 <wait_for_cal+0x2>
C:\Teensy\Projects\HelloWorld/analog.c:214 (discriminator 2)
     46e:	4b2f      	ldr	r3, [pc, #188]	; (52c <wait_for_cal+0xc8>)
     470:	681b      	ldr	r3, [r3, #0]
     472:	f013 0280 	ands.w	r2, r3, #128	; 0x80
     476:	d1f6      	bne.n	466 <wait_for_cal+0x2>
C:\Teensy\Projects\HelloWorld/analog.c:222
     478:	b672      	cpsid	i
C:\Teensy\Projects\HelloWorld/analog.c:223
     47a:	4b2d      	ldr	r3, [pc, #180]	; (530 <wait_for_cal+0xcc>)
     47c:	7819      	ldrb	r1, [r3, #0]
     47e:	2900      	cmp	r1, #0
     480:	d050      	beq.n	524 <wait_for_cal+0xc0>
C:\Teensy\Projects\HelloWorld/analog.c:225
     482:	492c      	ldr	r1, [pc, #176]	; (534 <wait_for_cal+0xd0>)
     484:	6808      	ldr	r0, [r1, #0]
     486:	684f      	ldr	r7, [r1, #4]
     488:	688e      	ldr	r6, [r1, #8]
     48a:	68cd      	ldr	r5, [r1, #12]
     48c:	690c      	ldr	r4, [r1, #16]
     48e:	4438      	add	r0, r7
     490:	3114      	adds	r1, #20
     492:	4430      	add	r0, r6
     494:	6809      	ldr	r1, [r1, #0]
     496:	4428      	add	r0, r5
     498:	4420      	add	r0, r4
     49a:	4408      	add	r0, r1
C:\Teensy\Projects\HelloWorld/analog.c:226
     49c:	f3c0 004e 	ubfx	r0, r0, #1, #15
C:\Teensy\Projects\HelloWorld/analog.c:227
     4a0:	4925      	ldr	r1, [pc, #148]	; (538 <wait_for_cal+0xd4>)
     4a2:	f440 4000 	orr.w	r0, r0, #32768	; 0x8000
     4a6:	6008      	str	r0, [r1, #0]
C:\Teensy\Projects\HelloWorld/analog.c:231
     4a8:	6ac8      	ldr	r0, [r1, #44]	; 0x2c
     4aa:	6b0f      	ldr	r7, [r1, #48]	; 0x30
     4ac:	6b4e      	ldr	r6, [r1, #52]	; 0x34
     4ae:	6b8d      	ldr	r5, [r1, #56]	; 0x38
     4b0:	6bcc      	ldr	r4, [r1, #60]	; 0x3c
     4b2:	4438      	add	r0, r7
     4b4:	3140      	adds	r1, #64	; 0x40
     4b6:	4430      	add	r0, r6
     4b8:	6809      	ldr	r1, [r1, #0]
     4ba:	4428      	add	r0, r5
     4bc:	4420      	add	r0, r4
     4be:	4408      	add	r0, r1
C:\Teensy\Projects\HelloWorld/analog.c:232
     4c0:	f3c0 004e 	ubfx	r0, r0, #1, #15
C:\Teensy\Projects\HelloWorld/analog.c:233
     4c4:	491d      	ldr	r1, [pc, #116]	; (53c <wait_for_cal+0xd8>)
     4c6:	f440 4000 	orr.w	r0, r0, #32768	; 0x8000
     4ca:	6008      	str	r0, [r1, #0]
C:\Teensy\Projects\HelloWorld/analog.c:238
     4cc:	f101 1108 	add.w	r1, r1, #524296	; 0x80008
     4d0:	3114      	adds	r1, #20
     4d2:	f851 0c14 	ldr.w	r0, [r1, #-20]
     4d6:	f851 7c10 	ldr.w	r7, [r1, #-16]
     4da:	f851 6c0c 	ldr.w	r6, [r1, #-12]
     4de:	f851 5c08 	ldr.w	r5, [r1, #-8]
     4e2:	f851 4c04 	ldr.w	r4, [r1, #-4]
     4e6:	6809      	ldr	r1, [r1, #0]
     4e8:	4438      	add	r0, r7
     4ea:	4430      	add	r0, r6
     4ec:	4428      	add	r0, r5
     4ee:	4420      	add	r0, r4
     4f0:	4408      	add	r0, r1
C:\Teensy\Projects\HelloWorld/analog.c:239
     4f2:	f3c0 004e 	ubfx	r0, r0, #1, #15
C:\Teensy\Projects\HelloWorld/analog.c:240
     4f6:	4912      	ldr	r1, [pc, #72]	; (540 <wait_for_cal+0xdc>)
     4f8:	f440 4000 	orr.w	r0, r0, #32768	; 0x8000
     4fc:	6008      	str	r0, [r1, #0]
C:\Teensy\Projects\HelloWorld/analog.c:241
     4fe:	6ac8      	ldr	r0, [r1, #44]	; 0x2c
     500:	6b0f      	ldr	r7, [r1, #48]	; 0x30
     502:	6b4e      	ldr	r6, [r1, #52]	; 0x34
     504:	6b8d      	ldr	r5, [r1, #56]	; 0x38
     506:	6bcc      	ldr	r4, [r1, #60]	; 0x3c
     508:	4438      	add	r0, r7
     50a:	3140      	adds	r1, #64	; 0x40
     50c:	4430      	add	r0, r6
     50e:	6809      	ldr	r1, [r1, #0]
     510:	4428      	add	r0, r5
     512:	4420      	add	r0, r4
     514:	4408      	add	r0, r1
C:\Teensy\Projects\HelloWorld/analog.c:242
     516:	f3c0 004e 	ubfx	r0, r0, #1, #15
C:\Teensy\Projects\HelloWorld/analog.c:243
     51a:	490a      	ldr	r1, [pc, #40]	; (544 <wait_for_cal+0xe0>)
     51c:	f440 4000 	orr.w	r0, r0, #32768	; 0x8000
     520:	6008      	str	r0, [r1, #0]
C:\Teensy\Projects\HelloWorld/analog.c:245
     522:	701a      	strb	r2, [r3, #0]
C:\Teensy\Projects\HelloWorld/analog.c:247
     524:	b662      	cpsie	i
     526:	bdf0      	pop	{r4, r5, r6, r7, pc}
     528:	4003b024 	.word	0x4003b024
     52c:	400bb024 	.word	0x400bb024
     530:	1fff0b70 	.word	0x1fff0b70
     534:	4003b038 	.word	0x4003b038
     538:	4003b02c 	.word	0x4003b02c
     53c:	4003b030 	.word	0x4003b030
     540:	400bb02c 	.word	0x400bb02c
     544:	400bb030 	.word	0x400bb030

00000548 <analog_init>:
analog_init():
C:\Teensy\Projects\HelloWorld/analog.c:134
     548:	b530      	push	{r4, r5, lr}
C:\Teensy\Projects\HelloWorld/analog.c:137
     54a:	4b21      	ldr	r3, [pc, #132]	; (5d0 <analog_init+0x88>)
C:\Teensy\Projects\HelloWorld/analog.c:140
     54c:	4d21      	ldr	r5, [pc, #132]	; (5d4 <analog_init+0x8c>)
     54e:	4822      	ldr	r0, [pc, #136]	; (5d8 <analog_init+0x90>)
     550:	4922      	ldr	r1, [pc, #136]	; (5dc <analog_init+0x94>)
C:\Teensy\Projects\HelloWorld/analog.c:137
     552:	2260      	movs	r2, #96	; 0x60
     554:	701a      	strb	r2, [r3, #0]
C:\Teensy\Projects\HelloWorld/analog.c:138
     556:	22e1      	movs	r2, #225	; 0xe1
     558:	705a      	strb	r2, [r3, #1]
C:\Teensy\Projects\HelloWorld/analog.c:140
     55a:	782c      	ldrb	r4, [r5, #0]
     55c:	4a20      	ldr	r2, [pc, #128]	; (5e0 <analog_init+0x98>)
     55e:	f503 238e 	add.w	r3, r3, #290816	; 0x47000
     562:	2c08      	cmp	r4, #8
     564:	f103 030c 	add.w	r3, r3, #12
     568:	d101      	bne.n	56e <analog_init+0x26>
C:\Teensy\Projects\HelloWorld/analog.c:141
     56a:	2421      	movs	r4, #33	; 0x21
     56c:	e002      	b.n	574 <analog_init+0x2c>
C:\Teensy\Projects\HelloWorld/analog.c:147
     56e:	2c0a      	cmp	r4, #10
     570:	d103      	bne.n	57a <analog_init+0x32>
C:\Teensy\Projects\HelloWorld/analog.c:148
     572:	2439      	movs	r4, #57	; 0x39
     574:	6004      	str	r4, [r0, #0]
C:\Teensy\Projects\HelloWorld/analog.c:149
     576:	2013      	movs	r0, #19
     578:	e005      	b.n	586 <analog_init+0x3e>
C:\Teensy\Projects\HelloWorld/analog.c:154
     57a:	2c0c      	cmp	r4, #12
C:\Teensy\Projects\HelloWorld/analog.c:155
     57c:	bf0c      	ite	eq
     57e:	2435      	moveq	r4, #53	; 0x35
C:\Teensy\Projects\HelloWorld/analog.c:162
     580:	245d      	movne	r4, #93	; 0x5d
     582:	6004      	str	r4, [r0, #0]
C:\Teensy\Projects\HelloWorld/analog.c:163
     584:	2012      	movs	r0, #18
     586:	6008      	str	r0, [r1, #0]
C:\Teensy\Projects\HelloWorld/analog.c:165
     588:	6014      	str	r4, [r2, #0]
C:\Teensy\Projects\HelloWorld/analog.c:170
     58a:	4a16      	ldr	r2, [pc, #88]	; (5e4 <analog_init+0x9c>)
C:\Teensy\Projects\HelloWorld/analog.c:166
     58c:	6018      	str	r0, [r3, #0]
C:\Teensy\Projects\HelloWorld/analog.c:170
     58e:	7853      	ldrb	r3, [r2, #1]
     590:	4915      	ldr	r1, [pc, #84]	; (5e8 <analog_init+0xa0>)
     592:	4610      	mov	r0, r2
     594:	4a15      	ldr	r2, [pc, #84]	; (5ec <analog_init+0xa4>)
     596:	b103      	cbz	r3, 59a <analog_init+0x52>
C:\Teensy\Projects\HelloWorld/analog.c:171
     598:	2301      	movs	r3, #1
C:\Teensy\Projects\HelloWorld/analog.c:174
     59a:	600b      	str	r3, [r1, #0]
C:\Teensy\Projects\HelloWorld/analog.c:175
     59c:	6013      	str	r3, [r2, #0]
C:\Teensy\Projects\HelloWorld/analog.c:178
     59e:	7869      	ldrb	r1, [r5, #1]
     5a0:	4a13      	ldr	r2, [pc, #76]	; (5f0 <analog_init+0xa8>)
     5a2:	4b14      	ldr	r3, [pc, #80]	; (5f4 <analog_init+0xac>)
C:\Teensy\Projects\HelloWorld/analog.c:179
     5a4:	2901      	cmp	r1, #1
     5a6:	d801      	bhi.n	5ac <analog_init+0x64>
C:\Teensy\Projects\HelloWorld/analog.c:180
     5a8:	2180      	movs	r1, #128	; 0x80
     5aa:	e00b      	b.n	5c4 <analog_init+0x7c>
C:\Teensy\Projects\HelloWorld/analog.c:184
     5ac:	2904      	cmp	r1, #4
     5ae:	d801      	bhi.n	5b4 <analog_init+0x6c>
C:\Teensy\Projects\HelloWorld/analog.c:185
     5b0:	2184      	movs	r1, #132	; 0x84
     5b2:	e007      	b.n	5c4 <analog_init+0x7c>
C:\Teensy\Projects\HelloWorld/analog.c:189
     5b4:	2908      	cmp	r1, #8
     5b6:	d801      	bhi.n	5bc <analog_init+0x74>
C:\Teensy\Projects\HelloWorld/analog.c:190
     5b8:	2185      	movs	r1, #133	; 0x85
     5ba:	e003      	b.n	5c4 <analog_init+0x7c>
C:\Teensy\Projects\HelloWorld/analog.c:194
     5bc:	2910      	cmp	r1, #16
C:\Teensy\Projects\HelloWorld/analog.c:195
     5be:	bf94      	ite	ls
     5c0:	2186      	movls	r1, #134	; 0x86
C:\Teensy\Projects\HelloWorld/analog.c:200
     5c2:	2187      	movhi	r1, #135	; 0x87
     5c4:	6011      	str	r1, [r2, #0]
C:\Teensy\Projects\HelloWorld/analog.c:202
     5c6:	6019      	str	r1, [r3, #0]
C:\Teensy\Projects\HelloWorld/analog.c:205
     5c8:	2301      	movs	r3, #1
     5ca:	7003      	strb	r3, [r0, #0]
     5cc:	bd30      	pop	{r4, r5, pc}
     5ce:	bf00      	nop
     5d0:	40074000 	.word	0x40074000
     5d4:	1fff0848 	.word	0x1fff0848
     5d8:	4003b008 	.word	0x4003b008
     5dc:	4003b00c 	.word	0x4003b00c
     5e0:	400bb008 	.word	0x400bb008
     5e4:	1fff0b70 	.word	0x1fff0b70
     5e8:	4003b020 	.word	0x4003b020
     5ec:	400bb020 	.word	0x400bb020
     5f0:	4003b024 	.word	0x4003b024
     5f4:	400bb024 	.word	0x400bb024

000005f8 <analogReference>:
analogReference():
C:\Teensy\Projects\HelloWorld/analog.c:262
     5f8:	4b0d      	ldr	r3, [pc, #52]	; (630 <analogReference+0x38>)
C:\Teensy\Projects\HelloWorld/analog.c:265
     5fa:	785a      	ldrb	r2, [r3, #1]
C:\Teensy\Projects\HelloWorld/analog.c:263
     5fc:	b158      	cbz	r0, 616 <analogReference+0x1e>
C:\Teensy\Projects\HelloWorld/analog.c:265
     5fe:	b9aa      	cbnz	r2, 62c <analogReference+0x34>
C:\Teensy\Projects\HelloWorld/analog.c:266
     600:	2101      	movs	r1, #1
     602:	7059      	strb	r1, [r3, #1]
C:\Teensy\Projects\HelloWorld/analog.c:267
     604:	781b      	ldrb	r3, [r3, #0]
     606:	b123      	cbz	r3, 612 <analogReference+0x1a>
C:\Teensy\Projects\HelloWorld/analog.c:268
     608:	4b0a      	ldr	r3, [pc, #40]	; (634 <analogReference+0x3c>)
     60a:	601a      	str	r2, [r3, #0]
C:\Teensy\Projects\HelloWorld/analog.c:270
     60c:	f503 2300 	add.w	r3, r3, #524288	; 0x80000
     610:	601a      	str	r2, [r3, #0]
C:\Teensy\Projects\HelloWorld/analog.c:273
     612:	f7ff bf99 	b.w	548 <analog_init>
C:\Teensy\Projects\HelloWorld/analog.c:277
     616:	b14a      	cbz	r2, 62c <analogReference+0x34>
C:\Teensy\Projects\HelloWorld/analog.c:278
     618:	7058      	strb	r0, [r3, #1]
C:\Teensy\Projects\HelloWorld/analog.c:279
     61a:	781b      	ldrb	r3, [r3, #0]
     61c:	2b00      	cmp	r3, #0
     61e:	d0f8      	beq.n	612 <analogReference+0x1a>
C:\Teensy\Projects\HelloWorld/analog.c:280
     620:	4b04      	ldr	r3, [pc, #16]	; (634 <analogReference+0x3c>)
     622:	6018      	str	r0, [r3, #0]
C:\Teensy\Projects\HelloWorld/analog.c:282
     624:	f503 2300 	add.w	r3, r3, #524288	; 0x80000
     628:	6018      	str	r0, [r3, #0]
     62a:	e7f2      	b.n	612 <analogReference+0x1a>
     62c:	4770      	bx	lr
     62e:	bf00      	nop
     630:	1fff0b70 	.word	0x1fff0b70
     634:	4003b024 	.word	0x4003b024

00000638 <analogReadRes>:
analogReadRes():
C:\Teensy\Projects\HelloWorld/analog.c:295
     638:	280c      	cmp	r0, #12
C:\Teensy\Projects\HelloWorld/analog.c:292
     63a:	b510      	push	{r4, lr}
C:\Teensy\Projects\HelloWorld/analog.c:295
     63c:	d904      	bls.n	648 <analogReadRes+0x10>
     63e:	2810      	cmp	r0, #16
     640:	bf28      	it	cs
     642:	2010      	movcs	r0, #16
C:\Teensy\Projects\HelloWorld/analog.c:297
     644:	2310      	movs	r3, #16
     646:	e007      	b.n	658 <analogReadRes+0x20>
C:\Teensy\Projects\HelloWorld/analog.c:298
     648:	280a      	cmp	r0, #10
     64a:	d804      	bhi.n	656 <analogReadRes+0x1e>
C:\Teensy\Projects\HelloWorld/analog.c:301
     64c:	2809      	cmp	r0, #9
     64e:	bf34      	ite	cc
     650:	2308      	movcc	r3, #8
     652:	230a      	movcs	r3, #10
     654:	e000      	b.n	658 <analogReadRes+0x20>
C:\Teensy\Projects\HelloWorld/analog.c:299
     656:	230c      	movs	r3, #12
C:\Teensy\Projects\HelloWorld/analog.c:305
     658:	b2dc      	uxtb	r4, r3
     65a:	4a0a      	ldr	r2, [pc, #40]	; (684 <analogReadRes+0x4c>)
C:\Teensy\Projects\HelloWorld/analog.c:306
     65c:	490a      	ldr	r1, [pc, #40]	; (688 <analogReadRes+0x50>)
C:\Teensy\Projects\HelloWorld/analog.c:305
     65e:	1a20      	subs	r0, r4, r0
     660:	7090      	strb	r0, [r2, #2]
C:\Teensy\Projects\HelloWorld/analog.c:306
     662:	7808      	ldrb	r0, [r1, #0]
     664:	4283      	cmp	r3, r0
     666:	d00c      	beq.n	682 <analogReadRes+0x4a>
C:\Teensy\Projects\HelloWorld/analog.c:308
     668:	7813      	ldrb	r3, [r2, #0]
C:\Teensy\Projects\HelloWorld/analog.c:307
     66a:	700c      	strb	r4, [r1, #0]
C:\Teensy\Projects\HelloWorld/analog.c:308
     66c:	b12b      	cbz	r3, 67a <analogReadRes+0x42>
C:\Teensy\Projects\HelloWorld/analog.c:309
     66e:	4a07      	ldr	r2, [pc, #28]	; (68c <analogReadRes+0x54>)
     670:	2300      	movs	r3, #0
     672:	6013      	str	r3, [r2, #0]
C:\Teensy\Projects\HelloWorld/analog.c:311
     674:	f502 2200 	add.w	r2, r2, #524288	; 0x80000
     678:	6013      	str	r3, [r2, #0]
C:\Teensy\Projects\HelloWorld/analog.c:316
     67a:	e8bd 4010 	ldmia.w	sp!, {r4, lr}
C:\Teensy\Projects\HelloWorld/analog.c:314
     67e:	f7ff bf63 	b.w	548 <analog_init>
     682:	bd10      	pop	{r4, pc}
     684:	1fff0b70 	.word	0x1fff0b70
     688:	1fff0848 	.word	0x1fff0848
     68c:	4003b024 	.word	0x4003b024

00000690 <analogReadAveraging>:
analogReadAveraging():
C:\Teensy\Projects\HelloWorld/analog.c:319
     690:	b510      	push	{r4, lr}
C:\Teensy\Projects\HelloWorld/analog.c:321
     692:	4b11      	ldr	r3, [pc, #68]	; (6d8 <analogReadAveraging+0x48>)
     694:	781b      	ldrb	r3, [r3, #0]
C:\Teensy\Projects\HelloWorld/analog.c:319
     696:	4604      	mov	r4, r0
C:\Teensy\Projects\HelloWorld/analog.c:321
     698:	b10b      	cbz	r3, 69e <analogReadAveraging+0xe>
C:\Teensy\Projects\HelloWorld/analog.c:321 (discriminator 1)
     69a:	f7ff fee3 	bl	464 <wait_for_cal>
C:\Teensy\Projects\HelloWorld/analog.c:322
     69e:	2c01      	cmp	r4, #1
     6a0:	4a0e      	ldr	r2, [pc, #56]	; (6dc <analogReadAveraging+0x4c>)
     6a2:	d801      	bhi.n	6a8 <analogReadAveraging+0x18>
C:\Teensy\Projects\HelloWorld/analog.c:324
     6a4:	2300      	movs	r3, #0
     6a6:	e002      	b.n	6ae <analogReadAveraging+0x1e>
C:\Teensy\Projects\HelloWorld/analog.c:325
     6a8:	2c04      	cmp	r4, #4
     6aa:	d802      	bhi.n	6b2 <analogReadAveraging+0x22>
C:\Teensy\Projects\HelloWorld/analog.c:327
     6ac:	2304      	movs	r3, #4
     6ae:	6013      	str	r3, [r2, #0]
     6b0:	e00e      	b.n	6d0 <analogReadAveraging+0x40>
C:\Teensy\Projects\HelloWorld/analog.c:328
     6b2:	2c08      	cmp	r4, #8
     6b4:	d803      	bhi.n	6be <analogReadAveraging+0x2e>
C:\Teensy\Projects\HelloWorld/analog.c:330
     6b6:	2305      	movs	r3, #5
     6b8:	6013      	str	r3, [r2, #0]
C:\Teensy\Projects\HelloWorld/analog.c:329
     6ba:	2308      	movs	r3, #8
     6bc:	e008      	b.n	6d0 <analogReadAveraging+0x40>
C:\Teensy\Projects\HelloWorld/analog.c:331
     6be:	2c10      	cmp	r4, #16
     6c0:	d803      	bhi.n	6ca <analogReadAveraging+0x3a>
C:\Teensy\Projects\HelloWorld/analog.c:333
     6c2:	2306      	movs	r3, #6
     6c4:	6013      	str	r3, [r2, #0]
C:\Teensy\Projects\HelloWorld/analog.c:332
     6c6:	2310      	movs	r3, #16
     6c8:	e002      	b.n	6d0 <analogReadAveraging+0x40>
C:\Teensy\Projects\HelloWorld/analog.c:336
     6ca:	2307      	movs	r3, #7
     6cc:	6013      	str	r3, [r2, #0]
C:\Teensy\Projects\HelloWorld/analog.c:335
     6ce:	2320      	movs	r3, #32
C:\Teensy\Projects\HelloWorld/analog.c:338
     6d0:	4a03      	ldr	r2, [pc, #12]	; (6e0 <analogReadAveraging+0x50>)
     6d2:	7053      	strb	r3, [r2, #1]
     6d4:	bd10      	pop	{r4, pc}
     6d6:	bf00      	nop
     6d8:	1fff0b70 	.word	0x1fff0b70
     6dc:	4003b024 	.word	0x4003b024
     6e0:	1fff0848 	.word	0x1fff0848

000006e4 <analogRead>:
analogRead():
C:\Teensy\Projects\HelloWorld/analog.c:375
     6e4:	2847      	cmp	r0, #71	; 0x47
C:\Teensy\Projects\HelloWorld/analog.c:368
     6e6:	b538      	push	{r3, r4, r5, lr}
C:\Teensy\Projects\HelloWorld/analog.c:375
     6e8:	d847      	bhi.n	77a <analogRead+0x96>
C:\Teensy\Projects\HelloWorld/analog.c:376
     6ea:	4b25      	ldr	r3, [pc, #148]	; (780 <analogRead+0x9c>)
     6ec:	5c1d      	ldrb	r5, [r3, r0]
C:\Teensy\Projects\HelloWorld/analog.c:377
     6ee:	2dff      	cmp	r5, #255	; 0xff
     6f0:	d043      	beq.n	77a <analogRead+0x96>
C:\Teensy\Projects\HelloWorld/analog.c:379
     6f2:	4c24      	ldr	r4, [pc, #144]	; (784 <analogRead+0xa0>)
     6f4:	7823      	ldrb	r3, [r4, #0]
     6f6:	b10b      	cbz	r3, 6fc <analogRead+0x18>
C:\Teensy\Projects\HelloWorld/analog.c:379 (discriminator 1)
     6f8:	f7ff feb4 	bl	464 <wait_for_cal>
C:\Teensy\Projects\HelloWorld/analog.c:382
     6fc:	0629      	lsls	r1, r5, #24
     6fe:	d416      	bmi.n	72e <analogRead+0x4a>
C:\Teensy\Projects\HelloWorld/analog.c:385
     700:	b672      	cpsid	i
C:\Teensy\Projects\HelloWorld/analog.c:388
     702:	4b21      	ldr	r3, [pc, #132]	; (788 <analogRead+0xa4>)
     704:	601d      	str	r5, [r3, #0]
C:\Teensy\Projects\HelloWorld/analog.c:389
     706:	2301      	movs	r3, #1
     708:	70e3      	strb	r3, [r4, #3]
C:\Teensy\Projects\HelloWorld/analog.c:390
     70a:	b662      	cpsie	i
C:\Teensy\Projects\HelloWorld/analog.c:392
     70c:	b672      	cpsid	i
C:\Teensy\Projects\HelloWorld/analog.c:393
     70e:	4b1e      	ldr	r3, [pc, #120]	; (788 <analogRead+0xa4>)
     710:	681b      	ldr	r3, [r3, #0]
     712:	061a      	lsls	r2, r3, #24
     714:	d504      	bpl.n	720 <analogRead+0x3c>
C:\Teensy\Projects\HelloWorld/analog.c:394
     716:	4b1d      	ldr	r3, [pc, #116]	; (78c <analogRead+0xa8>)
     718:	6818      	ldr	r0, [r3, #0]
C:\Teensy\Projects\HelloWorld/analog.c:395
     71a:	2300      	movs	r3, #0
     71c:	70e3      	strb	r3, [r4, #3]
     71e:	e021      	b.n	764 <analogRead+0x80>
C:\Teensy\Projects\HelloWorld/analog.c:403
     720:	78e3      	ldrb	r3, [r4, #3]
     722:	2b00      	cmp	r3, #0
     724:	d0ed      	beq.n	702 <analogRead+0x1e>
C:\Teensy\Projects\HelloWorld/analog.c:404
     726:	b662      	cpsie	i
C:\Teensy\Projects\HelloWorld/analog.c:405
     728:	f004 ff46 	bl	55b8 <yield>
C:\Teensy\Projects\HelloWorld/analog.c:406
     72c:	e7ee      	b.n	70c <analogRead+0x28>
C:\Teensy\Projects\HelloWorld/analog.c:410
     72e:	b672      	cpsid	i
     730:	4b17      	ldr	r3, [pc, #92]	; (790 <analogRead+0xac>)
C:\Teensy\Projects\HelloWorld/analog.c:415
     732:	681a      	ldr	r2, [r3, #0]
C:\Teensy\Projects\HelloWorld/analog.c:414
     734:	f015 0f40 	tst.w	r5, #64	; 0x40
C:\Teensy\Projects\HelloWorld/analog.c:415
     738:	bf14      	ite	ne
     73a:	f022 0210 	bicne.w	r2, r2, #16
C:\Teensy\Projects\HelloWorld/analog.c:417
     73e:	f042 0210 	orreq.w	r2, r2, #16
     742:	601a      	str	r2, [r3, #0]
C:\Teensy\Projects\HelloWorld/analog.c:419
     744:	4b13      	ldr	r3, [pc, #76]	; (794 <analogRead+0xb0>)
     746:	f005 023f 	and.w	r2, r5, #63	; 0x3f
     74a:	601a      	str	r2, [r3, #0]
C:\Teensy\Projects\HelloWorld/analog.c:420
     74c:	2301      	movs	r3, #1
     74e:	7123      	strb	r3, [r4, #4]
C:\Teensy\Projects\HelloWorld/analog.c:421
     750:	b662      	cpsie	i
C:\Teensy\Projects\HelloWorld/analog.c:423
     752:	b672      	cpsid	i
C:\Teensy\Projects\HelloWorld/analog.c:424
     754:	4b0f      	ldr	r3, [pc, #60]	; (794 <analogRead+0xb0>)
     756:	681b      	ldr	r3, [r3, #0]
     758:	061b      	lsls	r3, r3, #24
     75a:	d507      	bpl.n	76c <analogRead+0x88>
C:\Teensy\Projects\HelloWorld/analog.c:425
     75c:	4b0e      	ldr	r3, [pc, #56]	; (798 <analogRead+0xb4>)
     75e:	6818      	ldr	r0, [r3, #0]
C:\Teensy\Projects\HelloWorld/analog.c:426
     760:	2300      	movs	r3, #0
     762:	7123      	strb	r3, [r4, #4]
C:\Teensy\Projects\HelloWorld/analog.c:427
     764:	b662      	cpsie	i
C:\Teensy\Projects\HelloWorld/analog.c:428
     766:	78a3      	ldrb	r3, [r4, #2]
     768:	4118      	asrs	r0, r3
C:\Teensy\Projects\HelloWorld/analog.c:429
     76a:	bd38      	pop	{r3, r4, r5, pc}
C:\Teensy\Projects\HelloWorld/analog.c:434
     76c:	7923      	ldrb	r3, [r4, #4]
     76e:	2b00      	cmp	r3, #0
     770:	d0de      	beq.n	730 <analogRead+0x4c>
C:\Teensy\Projects\HelloWorld/analog.c:435
     772:	b662      	cpsie	i
C:\Teensy\Projects\HelloWorld/analog.c:436
     774:	f004 ff20 	bl	55b8 <yield>
C:\Teensy\Projects\HelloWorld/analog.c:437
     778:	e7eb      	b.n	752 <analogRead+0x6e>
C:\Teensy\Projects\HelloWorld/analog.c:375
     77a:	2000      	movs	r0, #0
C:\Teensy\Projects\HelloWorld/analog.c:439
     77c:	bd38      	pop	{r3, r4, r5, pc}
     77e:	bf00      	nop
     780:	00009e7e 	.word	0x00009e7e
     784:	1fff0b70 	.word	0x1fff0b70
     788:	4003b000 	.word	0x4003b000
     78c:	4003b010 	.word	0x4003b010
     790:	400bb00c 	.word	0x400bb00c
     794:	400bb000 	.word	0x400bb000
     798:	400bb010 	.word	0x400bb010

0000079c <analogWriteDAC0>:
analogWriteDAC0():
C:\Teensy\Projects\HelloWorld/analog.c:445
     79c:	4b08      	ldr	r3, [pc, #32]	; (7c0 <analogWriteDAC0+0x24>)
     79e:	681a      	ldr	r2, [r3, #0]
     7a0:	f442 5280 	orr.w	r2, r2, #4096	; 0x1000
     7a4:	601a      	str	r2, [r3, #0]
C:\Teensy\Projects\HelloWorld/analog.c:446
     7a6:	4b07      	ldr	r3, [pc, #28]	; (7c4 <analogWriteDAC0+0x28>)
     7a8:	785a      	ldrb	r2, [r3, #1]
     7aa:	4b07      	ldr	r3, [pc, #28]	; (7c8 <analogWriteDAC0+0x2c>)
     7ac:	b10a      	cbz	r2, 7b2 <analogWriteDAC0+0x16>
C:\Teensy\Projects\HelloWorld/analog.c:447
     7ae:	2280      	movs	r2, #128	; 0x80
     7b0:	e000      	b.n	7b4 <analogWriteDAC0+0x18>
C:\Teensy\Projects\HelloWorld/analog.c:449
     7b2:	22c0      	movs	r2, #192	; 0xc0
     7b4:	701a      	strb	r2, [r3, #0]
C:\Teensy\Projects\HelloWorld/analog.c:453
     7b6:	4b05      	ldr	r3, [pc, #20]	; (7cc <analogWriteDAC0+0x30>)
     7b8:	f380 000c 	usat	r0, #12, r0
     7bc:	8018      	strh	r0, [r3, #0]
     7be:	4770      	bx	lr
     7c0:	4004802c 	.word	0x4004802c
     7c4:	1fff0b70 	.word	0x1fff0b70
     7c8:	400cc021 	.word	0x400cc021
     7cc:	400cc000 	.word	0x400cc000

000007d0 <analogWriteDAC1>:
analogWriteDAC1():
C:\Teensy\Projects\HelloWorld/analog.c:458
     7d0:	4b08      	ldr	r3, [pc, #32]	; (7f4 <analogWriteDAC1+0x24>)
     7d2:	681a      	ldr	r2, [r3, #0]
     7d4:	f442 5200 	orr.w	r2, r2, #8192	; 0x2000
     7d8:	601a      	str	r2, [r3, #0]
C:\Teensy\Projects\HelloWorld/analog.c:459
     7da:	4b07      	ldr	r3, [pc, #28]	; (7f8 <analogWriteDAC1+0x28>)
     7dc:	785a      	ldrb	r2, [r3, #1]
     7de:	4b07      	ldr	r3, [pc, #28]	; (7fc <analogWriteDAC1+0x2c>)
     7e0:	b10a      	cbz	r2, 7e6 <analogWriteDAC1+0x16>
C:\Teensy\Projects\HelloWorld/analog.c:460
     7e2:	2280      	movs	r2, #128	; 0x80
     7e4:	e000      	b.n	7e8 <analogWriteDAC1+0x18>
C:\Teensy\Projects\HelloWorld/analog.c:462
     7e6:	22c0      	movs	r2, #192	; 0xc0
     7e8:	701a      	strb	r2, [r3, #0]
C:\Teensy\Projects\HelloWorld/analog.c:466
     7ea:	4b05      	ldr	r3, [pc, #20]	; (800 <analogWriteDAC1+0x30>)
     7ec:	f380 000c 	usat	r0, #12, r0
     7f0:	8018      	strh	r0, [r3, #0]
     7f2:	4770      	bx	lr
     7f4:	4004802c 	.word	0x4004802c
     7f8:	1fff0b70 	.word	0x1fff0b70
     7fc:	400cd021 	.word	0x400cd021
     800:	400cd000 	.word	0x400cd000

00000804 <PrintWord>:
PrintWord():
C:\Teensy\Projects\HelloWorld/ISR_Debugger.c:12
     804:	b507      	push	{r0, r1, r2, lr}
     806:	2307      	movs	r3, #7
     808:	009a      	lsls	r2, r3, #2
     80a:	f1c2 021c 	rsb	r2, r2, #28
C:\Teensy\Projects\HelloWorld/ISR_Debugger.c:18
     80e:	fa20 f202 	lsr.w	r2, r0, r2
     812:	f002 020f 	and.w	r2, r2, #15
C:\Teensy\Projects\HelloWorld/ISR_Debugger.c:19
     816:	2a09      	cmp	r2, #9
C:\Teensy\Projects\HelloWorld/ISR_Debugger.c:20
     818:	bf94      	ite	ls
     81a:	3230      	addls	r2, #48	; 0x30
C:\Teensy\Projects\HelloWorld/ISR_Debugger.c:22
     81c:	3257      	addhi	r2, #87	; 0x57
     81e:	f80d 2003 	strb.w	r2, [sp, r3]
C:\Teensy\Projects\HelloWorld/ISR_Debugger.c:16
     822:	f113 33ff 	adds.w	r3, r3, #4294967295
     826:	d2ef      	bcs.n	808 <PrintWord+0x4>
C:\Teensy\Projects\HelloWorld/ISR_Debugger.c:25
     828:	4668      	mov	r0, sp
     82a:	2108      	movs	r1, #8
     82c:	f003 fc14 	bl	4058 <usb_serial_write>
C:\Teensy\Projects\HelloWorld/ISR_Debugger.c:26
     830:	b003      	add	sp, #12
     832:	f85d fb04 	ldr.w	pc, [sp], #4

00000836 <ConvertToHexChars>:
ConvertToHexChars():
C:\Teensy\Projects\HelloWorld/ISR_Debugger.c:35
     836:	b530      	push	{r4, r5, lr}
C:\Teensy\Projects\HelloWorld/ISR_Debugger.c:36
     838:	0904      	lsrs	r4, r0, #4
C:\Teensy\Projects\HelloWorld/ISR_Debugger.c:41
     83a:	2c09      	cmp	r4, #9
C:\Teensy\Projects\HelloWorld/ISR_Debugger.c:37
     83c:	f000 000f 	and.w	r0, r0, #15
C:\Teensy\Projects\HelloWorld/ISR_Debugger.c:41
     840:	eb01 0502 	add.w	r5, r1, r2
     844:	bf94      	ite	ls
     846:	3430      	addls	r4, #48	; 0x30
     848:	3457      	addhi	r4, #87	; 0x57
C:\Teensy\Projects\HelloWorld/ISR_Debugger.c:42
     84a:	3201      	adds	r2, #1
     84c:	2809      	cmp	r0, #9
     84e:	bf94      	ite	ls
     850:	3030      	addls	r0, #48	; 0x30
     852:	3057      	addhi	r0, #87	; 0x57
C:\Teensy\Projects\HelloWorld/ISR_Debugger.c:43
     854:	2320      	movs	r3, #32
C:\Teensy\Projects\HelloWorld/ISR_Debugger.c:41
     856:	702c      	strb	r4, [r5, #0]
C:\Teensy\Projects\HelloWorld/ISR_Debugger.c:42
     858:	5488      	strb	r0, [r1, r2]
C:\Teensy\Projects\HelloWorld/ISR_Debugger.c:43
     85a:	70ab      	strb	r3, [r5, #2]
     85c:	bd30      	pop	{r4, r5, pc}

0000085e <ScanForFlashCode>:
ScanForFlashCode():
C:\Teensy\Projects\HelloWorld/ISR_Debugger.c:50
     85e:	b5f0      	push	{r4, r5, r6, r7, lr}
C:\Teensy\Projects\HelloWorld/ISR_Debugger.c:51
     860:	4e12      	ldr	r6, [pc, #72]	; (8ac <ScanForFlashCode+0x4e>)
C:\Teensy\Projects\HelloWorld/ISR_Debugger.c:50
     862:	f5ad 7d41 	sub.w	sp, sp, #772	; 0x304
C:\Teensy\Projects\HelloWorld/ISR_Debugger.c:50 (discriminator 1)
     866:	4637      	mov	r7, r6
     868:	2400      	movs	r4, #0
     86a:	2500      	movs	r5, #0
C:\Teensy\Projects\HelloWorld/ISR_Debugger.c:71 (discriminator 2)
     86c:	4622      	mov	r2, r4
     86e:	462b      	mov	r3, r5
C:\Teensy\Projects\HelloWorld/ISR_Debugger.c:69 (discriminator 2)
     870:	f817 0b01 	ldrb.w	r0, [r7], #1
C:\Teensy\Projects\HelloWorld/ISR_Debugger.c:71 (discriminator 2)
     874:	4669      	mov	r1, sp
     876:	f7ff ffde 	bl	836 <ConvertToHexChars>
     87a:	3403      	adds	r4, #3
     87c:	f145 0500 	adc.w	r5, r5, #0
C:\Teensy\Projects\HelloWorld/ISR_Debugger.c:66 (discriminator 2)
     880:	2d00      	cmp	r5, #0
     882:	bf08      	it	eq
     884:	f5b4 7f40 	cmpeq.w	r4, #768	; 0x300
     888:	d1f0      	bne.n	86c <ScanForFlashCode+0xe>
C:\Teensy\Projects\HelloWorld/ISR_Debugger.c:75
     88a:	200a      	movs	r0, #10
     88c:	f003 fc40 	bl	4110 <usb_serial_putchar>
C:\Teensy\Projects\HelloWorld/ISR_Debugger.c:76
     890:	4668      	mov	r0, sp
     892:	f44f 7140 	mov.w	r1, #768	; 0x300
     896:	f003 fbdf 	bl	4058 <usb_serial_write>
C:\Teensy\Projects\HelloWorld/ISR_Debugger.c:62
     89a:	4b05      	ldr	r3, [pc, #20]	; (8b0 <ScanForFlashCode+0x52>)
     89c:	f506 7680 	add.w	r6, r6, #256	; 0x100
     8a0:	429e      	cmp	r6, r3
     8a2:	d1e0      	bne.n	866 <ScanForFlashCode+0x8>
C:\Teensy\Projects\HelloWorld/ISR_Debugger.c:78
     8a4:	f50d 7d41 	add.w	sp, sp, #772	; 0x304
     8a8:	bdf0      	pop	{r4, r5, r6, r7, pc}
     8aa:	bf00      	nop
     8ac:	2002ff00 	.word	0x2002ff00
     8b0:	2003ff00 	.word	0x2003ff00

000008b4 <StackAccess>:
StackAccess():
C:\Teensy\Projects\HelloWorld/ISR_Debugger.c:87
     8b4:	2300      	movs	r3, #0
C:\Teensy\Projects\HelloWorld/ISR_Debugger.c:89
     8b6:	4907      	ldr	r1, [pc, #28]	; (8d4 <StackAccess+0x20>)
     8b8:	6802      	ldr	r2, [r0, #0]
     8ba:	f841 2023 	str.w	r2, [r1, r3, lsl #2]
C:\Teensy\Projects\HelloWorld/ISR_Debugger.c:90
     8be:	f850 2b04 	ldr.w	r2, [r0], #4
     8c2:	3201      	adds	r2, #1
     8c4:	d002      	beq.n	8cc <StackAccess+0x18>
C:\Teensy\Projects\HelloWorld/ISR_Debugger.c:87
     8c6:	3301      	adds	r3, #1
     8c8:	2b40      	cmp	r3, #64	; 0x40
     8ca:	d1f4      	bne.n	8b6 <StackAccess+0x2>
C:\Teensy\Projects\HelloWorld/ISR_Debugger.c:93
     8cc:	4a02      	ldr	r2, [pc, #8]	; (8d8 <StackAccess+0x24>)
     8ce:	3301      	adds	r3, #1
     8d0:	6013      	str	r3, [r2, #0]
     8d2:	4770      	bx	lr
     8d4:	1fff0fdc 	.word	0x1fff0fdc
     8d8:	1fff0b78 	.word	0x1fff0b78

000008dc <SendData>:
SendData():
C:\Teensy\Projects\HelloWorld/ISR_Debugger.c:112
     8dc:	b538      	push	{r3, r4, r5, lr}
C:\Teensy\Projects\HelloWorld/ISR_Debugger.c:114
     8de:	f003 fb15 	bl	3f0c <usb_serial_getchar>
C:\Teensy\Projects\HelloWorld/ISR_Debugger.c:115
     8e2:	b2c4      	uxtb	r4, r0
C:\Teensy\Projects\HelloWorld/ISR_Debugger.c:114
     8e4:	4605      	mov	r5, r0
C:\Teensy\Projects\HelloWorld/ISR_Debugger.c:115
     8e6:	4620      	mov	r0, r4
     8e8:	f003 fc12 	bl	4110 <usb_serial_putchar>
C:\Teensy\Projects\HelloWorld/ISR_Debugger.c:116
     8ec:	4620      	mov	r0, r4
     8ee:	f003 fc0f 	bl	4110 <usb_serial_putchar>
C:\Teensy\Projects\HelloWorld/ISR_Debugger.c:118
     8f2:	4620      	mov	r0, r4
     8f4:	f003 fc0c 	bl	4110 <usb_serial_putchar>
C:\Teensy\Projects\HelloWorld/ISR_Debugger.c:119
     8f8:	4620      	mov	r0, r4
     8fa:	f003 fc09 	bl	4110 <usb_serial_putchar>
C:\Teensy\Projects\HelloWorld/ISR_Debugger.c:120
     8fe:	2d24      	cmp	r5, #36	; 0x24
     900:	d115      	bne.n	92e <SendData+0x52>
     902:	2400      	movs	r4, #0
C:\Teensy\Projects\HelloWorld/ISR_Debugger.c:127 (discriminator 1)
     904:	4b0a      	ldr	r3, [pc, #40]	; (930 <SendData+0x54>)
     906:	681b      	ldr	r3, [r3, #0]
     908:	429c      	cmp	r4, r3
     90a:	d209      	bcs.n	920 <SendData+0x44>
C:\Teensy\Projects\HelloWorld/ISR_Debugger.c:130 (discriminator 2)
     90c:	4b09      	ldr	r3, [pc, #36]	; (934 <SendData+0x58>)
     90e:	f853 0024 	ldr.w	r0, [r3, r4, lsl #2]
     912:	f7ff ff77 	bl	804 <PrintWord>
C:\Teensy\Projects\HelloWorld/ISR_Debugger.c:131 (discriminator 2)
     916:	2020      	movs	r0, #32
     918:	f003 fbfa 	bl	4110 <usb_serial_putchar>
C:\Teensy\Projects\HelloWorld/ISR_Debugger.c:127 (discriminator 2)
     91c:	3401      	adds	r4, #1
     91e:	e7f1      	b.n	904 <SendData+0x28>
C:\Teensy\Projects\HelloWorld/ISR_Debugger.c:133
     920:	200a      	movs	r0, #10
     922:	f003 fbf5 	bl	4110 <usb_serial_putchar>
C:\Teensy\Projects\HelloWorld/ISR_Debugger.c:136
     926:	e8bd 4038 	ldmia.w	sp!, {r3, r4, r5, lr}
C:\Teensy\Projects\HelloWorld/ISR_Debugger.c:135
     92a:	f003 bb7d 	b.w	4028 <usb_serial_flush_input>
     92e:	bd38      	pop	{r3, r4, r5, pc}
     930:	1fff0b78 	.word	0x1fff0b78
     934:	1fff0fdc 	.word	0x1fff0fdc

00000938 <systick_default_isr>:
systick_default_isr():
C:\Teensy\Projects\HelloWorld/mk20dx128.c:91
     938:	4b02      	ldr	r3, [pc, #8]	; (944 <systick_default_isr+0xc>)
     93a:	681a      	ldr	r2, [r3, #0]
     93c:	3201      	adds	r2, #1
     93e:	601a      	str	r2, [r3, #0]
     940:	4770      	bx	lr
     942:	bf00      	nop
     944:	1fff0b7c 	.word	0x1fff0b7c

00000948 <fault_isr>:
fault_isr():
C:\Teensy\Projects\HelloWorld/mk20dx128.c:71
     948:	b508      	push	{r3, lr}
C:\Teensy\Projects\HelloWorld/mk20dx128.c:77
     94a:	4c08      	ldr	r4, [pc, #32]	; (96c <fault_isr+0x24>)
     94c:	6823      	ldr	r3, [r4, #0]
     94e:	0559      	lsls	r1, r3, #21
     950:	d501      	bpl.n	956 <fault_isr+0xe>
C:\Teensy\Projects\HelloWorld/mk20dx128.c:77 (discriminator 1)
     952:	f001 f90d 	bl	1b70 <uart0_status_isr>
C:\Teensy\Projects\HelloWorld/mk20dx128.c:78
     956:	6823      	ldr	r3, [r4, #0]
     958:	051a      	lsls	r2, r3, #20
     95a:	d501      	bpl.n	960 <fault_isr+0x18>
C:\Teensy\Projects\HelloWorld/mk20dx128.c:78 (discriminator 1)
     95c:	f001 fc44 	bl	21e8 <uart1_status_isr>
C:\Teensy\Projects\HelloWorld/mk20dx128.c:79
     960:	6823      	ldr	r3, [r4, #0]
     962:	04db      	lsls	r3, r3, #19
     964:	d5f1      	bpl.n	94a <fault_isr+0x2>
C:\Teensy\Projects\HelloWorld/mk20dx128.c:79 (discriminator 1)
     966:	f001 fe75 	bl	2654 <uart2_status_isr>
     96a:	e7ee      	b.n	94a <fault_isr+0x2>
     96c:	40048034 	.word	0x40048034

00000970 <unused_isr>:
unused_isr():
C:\Teensy\Projects\HelloWorld/mk20dx128.c:84
     970:	b508      	push	{r3, lr}
C:\Teensy\Projects\HelloWorld/mk20dx128.c:85
     972:	f7ff ffe9 	bl	948 <fault_isr>

00000976 <startup_early_hook>:
startup_default_early_hook():
C:\Teensy\Projects\HelloWorld/mk20dx128.c:354
     976:	4b02      	ldr	r3, [pc, #8]	; (980 <startup_early_hook+0xa>)
     978:	2210      	movs	r2, #16
     97a:	801a      	strh	r2, [r3, #0]
     97c:	4770      	bx	lr
     97e:	bf00      	nop
     980:	40052000 	.word	0x40052000

00000984 <startup_late_hook>:
startup_default_late_hook():
C:\Teensy\Projects\HelloWorld/mk20dx128.c:359
     984:	4770      	bx	lr

00000986 <_sbrk>:
_sbrk():
C:\Teensy\Projects\HelloWorld/mk20dx128.c:743
     986:	4a03      	ldr	r2, [pc, #12]	; (994 <_sbrk+0xe>)
     988:	6813      	ldr	r3, [r2, #0]
C:\Teensy\Projects\HelloWorld/mk20dx128.c:744
     98a:	4418      	add	r0, r3
     98c:	6010      	str	r0, [r2, #0]
C:\Teensy\Projects\HelloWorld/mk20dx128.c:746
     98e:	4618      	mov	r0, r3
     990:	4770      	bx	lr
     992:	bf00      	nop
     994:	1fff084c 	.word	0x1fff084c

00000998 <_read>:
_read():
C:\Teensy\Projects\HelloWorld/mk20dx128.c:752
     998:	2000      	movs	r0, #0
     99a:	4770      	bx	lr

0000099c <_close>:
_close():
C:\Teensy\Projects\HelloWorld/mk20dx128.c:758
     99c:	f04f 30ff 	mov.w	r0, #4294967295
     9a0:	4770      	bx	lr

000009a2 <_fstat>:
_fstat():
C:\Teensy\Projects\HelloWorld/mk20dx128.c:765
     9a2:	f44f 5300 	mov.w	r3, #8192	; 0x2000
     9a6:	604b      	str	r3, [r1, #4]
C:\Teensy\Projects\HelloWorld/mk20dx128.c:767
     9a8:	2000      	movs	r0, #0
     9aa:	4770      	bx	lr

000009ac <_isatty>:
_isatty():
C:\Teensy\Projects\HelloWorld/mk20dx128.c:773
     9ac:	2001      	movs	r0, #1
     9ae:	4770      	bx	lr

000009b0 <_lseek>:
_lseek():
C:\Teensy\Projects\HelloWorld/mk20dx128.c:779
     9b0:	f04f 30ff 	mov.w	r0, #4294967295
     9b4:	4770      	bx	lr

000009b6 <_exit>:
_exit():
C:\Teensy\Projects\HelloWorld/mk20dx128.c:783
     9b6:	e7fe      	b.n	9b6 <_exit>

000009b8 <__cxa_pure_virtual>:
__cxa_pure_virtual():
C:\Teensy\Projects\HelloWorld/mk20dx128.c:789
     9b8:	e7fe      	b.n	9b8 <__cxa_pure_virtual>

000009ba <__cxa_guard_acquire>:
__cxa_guard_acquire():
C:\Teensy\Projects\HelloWorld/mk20dx128.c:796
     9ba:	7800      	ldrb	r0, [r0, #0]
C:\Teensy\Projects\HelloWorld/mk20dx128.c:797
     9bc:	f1d0 0001 	rsbs	r0, r0, #1
     9c0:	bf38      	it	cc
     9c2:	2000      	movcc	r0, #0
     9c4:	4770      	bx	lr

000009c6 <__cxa_guard_release>:
__cxa_guard_release():
C:\Teensy\Projects\HelloWorld/mk20dx128.c:802
     9c6:	2301      	movs	r3, #1
     9c8:	7003      	strb	r3, [r0, #0]
     9ca:	4770      	bx	lr

000009cc <nvic_execution_priority>:
nvic_execution_priority():
C:\Teensy\Projects\HelloWorld/mk20dx128.c:812
     9cc:	f3ef 8313 	mrs	r3, FAULTMASK
C:\Teensy\Projects\HelloWorld/mk20dx128.c:813
     9d0:	b99b      	cbnz	r3, 9fa <nvic_execution_priority+0x2e>
C:\Teensy\Projects\HelloWorld/mk20dx128.c:814
     9d2:	f3ef 8010 	mrs	r0, PRIMASK
C:\Teensy\Projects\HelloWorld/mk20dx128.c:815
     9d6:	b998      	cbnz	r0, a00 <nvic_execution_priority+0x34>
C:\Teensy\Projects\HelloWorld/mk20dx128.c:816
     9d8:	f3ef 8305 	mrs	r3, IPSR
C:\Teensy\Projects\HelloWorld/mk20dx128.c:817
     9dc:	b123      	cbz	r3, 9e8 <nvic_execution_priority+0x1c>
C:\Teensy\Projects\HelloWorld/mk20dx128.c:818
     9de:	2b0f      	cmp	r3, #15
     9e0:	d904      	bls.n	9ec <nvic_execution_priority+0x20>
C:\Teensy\Projects\HelloWorld/mk20dx128.c:819
     9e2:	4a08      	ldr	r2, [pc, #32]	; (a04 <nvic_execution_priority+0x38>)
     9e4:	5c98      	ldrb	r0, [r3, r2]
     9e6:	e001      	b.n	9ec <nvic_execution_priority+0x20>
C:\Teensy\Projects\HelloWorld/mk20dx128.c:807
     9e8:	f44f 7080 	mov.w	r0, #256	; 0x100
C:\Teensy\Projects\HelloWorld/mk20dx128.c:821
     9ec:	f3ef 8311 	mrs	r3, BASEPRI
C:\Teensy\Projects\HelloWorld/mk20dx128.c:822
     9f0:	b13b      	cbz	r3, a02 <nvic_execution_priority+0x36>
C:\Teensy\Projects\HelloWorld/mk20dx128.c:822 (discriminator 1)
     9f2:	4283      	cmp	r3, r0
     9f4:	bf38      	it	cc
     9f6:	4618      	movcc	r0, r3
     9f8:	4770      	bx	lr
C:\Teensy\Projects\HelloWorld/mk20dx128.c:813
     9fa:	f04f 30ff 	mov.w	r0, #4294967295
     9fe:	4770      	bx	lr
C:\Teensy\Projects\HelloWorld/mk20dx128.c:815
     a00:	4618      	mov	r0, r3
C:\Teensy\Projects\HelloWorld/mk20dx128.c:824
     a02:	4770      	bx	lr
     a04:	e000e3f0 	.word	0xe000e3f0

00000a08 <ultoa>:
ultoa():
C:\Teensy\Projects\HelloWorld/nonstd.c:38
     a08:	b510      	push	{r4, lr}
C:\Teensy\Projects\HelloWorld/nonstd.c:40
     a0a:	2300      	movs	r3, #0
C:\Teensy\Projects\HelloWorld/nonstd.c:44
     a0c:	fbb0 f4f2 	udiv	r4, r0, r2
     a10:	fb02 0014 	mls	r0, r2, r4, r0
C:\Teensy\Projects\HelloWorld/nonstd.c:45
     a14:	2809      	cmp	r0, #9
     a16:	bf94      	ite	ls
     a18:	3030      	addls	r0, #48	; 0x30
     a1a:	3037      	addhi	r0, #55	; 0x37
     a1c:	b2c0      	uxtb	r0, r0
     a1e:	54c8      	strb	r0, [r1, r3]
C:\Teensy\Projects\HelloWorld/nonstd.c:47
     a20:	4620      	mov	r0, r4
     a22:	b10c      	cbz	r4, a28 <ultoa+0x20>
C:\Teensy\Projects\HelloWorld/nonstd.c:48
     a24:	3301      	adds	r3, #1
C:\Teensy\Projects\HelloWorld/nonstd.c:49
     a26:	e7f1      	b.n	a0c <ultoa+0x4>
C:\Teensy\Projects\HelloWorld/nonstd.c:50
     a28:	18ca      	adds	r2, r1, r3
     a2a:	7054      	strb	r4, [r2, #1]
C:\Teensy\Projects\HelloWorld/nonstd.c:51
     a2c:	4622      	mov	r2, r4
C:\Teensy\Projects\HelloWorld/nonstd.c:51 (discriminator 1)
     a2e:	429a      	cmp	r2, r3
     a30:	da06      	bge.n	a40 <ultoa+0x38>
C:\Teensy\Projects\HelloWorld/nonstd.c:52 (discriminator 2)
     a32:	5c88      	ldrb	r0, [r1, r2]
C:\Teensy\Projects\HelloWorld/nonstd.c:53 (discriminator 2)
     a34:	5ccc      	ldrb	r4, [r1, r3]
     a36:	548c      	strb	r4, [r1, r2]
C:\Teensy\Projects\HelloWorld/nonstd.c:54 (discriminator 2)
     a38:	54c8      	strb	r0, [r1, r3]
C:\Teensy\Projects\HelloWorld/nonstd.c:51 (discriminator 2)
     a3a:	3201      	adds	r2, #1
     a3c:	3b01      	subs	r3, #1
     a3e:	e7f6      	b.n	a2e <ultoa+0x26>
C:\Teensy\Projects\HelloWorld/nonstd.c:57
     a40:	4608      	mov	r0, r1
     a42:	bd10      	pop	{r4, pc}

00000a44 <ltoa>:
ltoa():
C:\Teensy\Projects\HelloWorld/nonstd.c:61
     a44:	1e03      	subs	r3, r0, #0
C:\Teensy\Projects\HelloWorld/nonstd.c:60
     a46:	b510      	push	{r4, lr}
     a48:	460c      	mov	r4, r1
C:\Teensy\Projects\HelloWorld/nonstd.c:61
     a4a:	db03      	blt.n	a54 <ltoa+0x10>
C:\Teensy\Projects\HelloWorld/nonstd.c:68
     a4c:	e8bd 4010 	ldmia.w	sp!, {r4, lr}
C:\Teensy\Projects\HelloWorld/nonstd.c:62
     a50:	f7ff bfda 	b.w	a08 <ultoa>
C:\Teensy\Projects\HelloWorld/nonstd.c:64
     a54:	202d      	movs	r0, #45	; 0x2d
     a56:	f801 0b01 	strb.w	r0, [r1], #1
C:\Teensy\Projects\HelloWorld/nonstd.c:65
     a5a:	4258      	negs	r0, r3
     a5c:	f7ff ffd4 	bl	a08 <ultoa>
C:\Teensy\Projects\HelloWorld/nonstd.c:68
     a60:	4620      	mov	r0, r4
     a62:	bd10      	pop	{r4, pc}

00000a64 <dtostrf>:
dtostrf():
C:\Teensy\Projects\HelloWorld/nonstd.c:77
     a64:	e92d 47f3 	stmdb	sp!, {r0, r1, r4, r5, r6, r7, r8, r9, sl, lr}
     a68:	4688      	mov	r8, r1
C:\Teensy\Projects\HelloWorld/nonstd.c:82
     a6a:	ea81 75e1 	eor.w	r5, r1, r1, asr #31
     a6e:	eba5 75e1 	sub.w	r5, r5, r1, asr #31
C:\Teensy\Projects\HelloWorld/nonstd.c:83
     a72:	4601      	mov	r1, r0
C:\Teensy\Projects\HelloWorld/nonstd.c:77
     a74:	4606      	mov	r6, r0
     a76:	4691      	mov	r9, r2
     a78:	461c      	mov	r4, r3
C:\Teensy\Projects\HelloWorld/nonstd.c:83
     a7a:	f005 fdb1 	bl	65e0 <__aeabi_fcmpun>
     a7e:	b388      	cbz	r0, ae4 <dtostrf+0x80>
C:\Teensy\Projects\HelloWorld/nonstd.c:84
     a80:	4630      	mov	r0, r6
     a82:	2100      	movs	r1, #0
     a84:	f005 fd84 	bl	6590 <__aeabi_fcmplt>
     a88:	2800      	cmp	r0, #0
     a8a:	bf14      	ite	ne
     a8c:	2004      	movne	r0, #4
     a8e:	2003      	moveq	r0, #3
C:\Teensy\Projects\HelloWorld/nonstd.c:85
     a90:	4285      	cmp	r5, r0
     a92:	bfcc      	ite	gt
     a94:	ebc0 0505 	rsbgt	r5, r0, r5
     a98:	2500      	movle	r5, #0
C:\Teensy\Projects\HelloWorld/nonstd.c:86
     a9a:	f1b8 0f00 	cmp.w	r8, #0
     a9e:	da07      	bge.n	ab0 <dtostrf+0x4c>
     aa0:	4425      	add	r5, r4
C:\Teensy\Projects\HelloWorld/nonstd.c:87 (discriminator 1)
     aa2:	42ac      	cmp	r4, r5
     aa4:	d003      	beq.n	aae <dtostrf+0x4a>
C:\Teensy\Projects\HelloWorld/nonstd.c:88
     aa6:	2320      	movs	r3, #32
     aa8:	f804 3b01 	strb.w	r3, [r4], #1
     aac:	e7f9      	b.n	aa2 <dtostrf+0x3e>
     aae:	2500      	movs	r5, #0
C:\Teensy\Projects\HelloWorld/nonstd.c:92
     ab0:	2e00      	cmp	r6, #0
     ab2:	f04f 507e 	mov.w	r0, #1065353216	; 0x3f800000
     ab6:	f04f 0100 	mov.w	r1, #0
     aba:	bfb8      	it	lt
     abc:	486a      	ldrlt	r0, [pc, #424]	; (c68 <dtostrf+0x204>)
     abe:	f005 fd67 	bl	6590 <__aeabi_fcmplt>
     ac2:	b110      	cbz	r0, aca <dtostrf+0x66>
C:\Teensy\Projects\HelloWorld/nonstd.c:92 (discriminator 1)
     ac4:	232d      	movs	r3, #45	; 0x2d
     ac6:	7023      	strb	r3, [r4, #0]
     ac8:	3401      	adds	r4, #1
C:\Teensy\Projects\HelloWorld/nonstd.c:94
     aca:	2341      	movs	r3, #65	; 0x41
     acc:	224e      	movs	r2, #78	; 0x4e
     ace:	7063      	strb	r3, [r4, #1]
     ad0:	1ce3      	adds	r3, r4, #3
     ad2:	7022      	strb	r2, [r4, #0]
     ad4:	70a2      	strb	r2, [r4, #2]
     ad6:	1958      	adds	r0, r3, r5
C:\Teensy\Projects\HelloWorld/nonstd.c:98 (discriminator 1)
     ad8:	4283      	cmp	r3, r0
     ada:	d03e      	beq.n	b5a <dtostrf+0xf6>
C:\Teensy\Projects\HelloWorld/nonstd.c:99
     adc:	2220      	movs	r2, #32
     ade:	f803 2b01 	strb.w	r2, [r3], #1
     ae2:	e7f9      	b.n	ad8 <dtostrf+0x74>
C:\Teensy\Projects\HelloWorld/nonstd.c:105
     ae4:	f026 4700 	bic.w	r7, r6, #2147483648	; 0x80000000
     ae8:	4638      	mov	r0, r7
     aea:	4960      	ldr	r1, [pc, #384]	; (c6c <dtostrf+0x208>)
     aec:	f005 fd78 	bl	65e0 <__aeabi_fcmpun>
     af0:	bbb0      	cbnz	r0, b60 <dtostrf+0xfc>
     af2:	4638      	mov	r0, r7
     af4:	495d      	ldr	r1, [pc, #372]	; (c6c <dtostrf+0x208>)
     af6:	f005 fd55 	bl	65a4 <__aeabi_fcmple>
     afa:	4607      	mov	r7, r0
     afc:	bb80      	cbnz	r0, b60 <dtostrf+0xfc>
C:\Teensy\Projects\HelloWorld/nonstd.c:106
     afe:	4630      	mov	r0, r6
     b00:	2100      	movs	r1, #0
     b02:	f005 fd45 	bl	6590 <__aeabi_fcmplt>
     b06:	2800      	cmp	r0, #0
     b08:	bf14      	ite	ne
     b0a:	2004      	movne	r0, #4
     b0c:	2003      	moveq	r0, #3
C:\Teensy\Projects\HelloWorld/nonstd.c:107
     b0e:	4285      	cmp	r5, r0
     b10:	bfcc      	ite	gt
     b12:	ebc0 0505 	rsbgt	r5, r0, r5
     b16:	463d      	movle	r5, r7
C:\Teensy\Projects\HelloWorld/nonstd.c:108
     b18:	f1b8 0f00 	cmp.w	r8, #0
     b1c:	da07      	bge.n	b2e <dtostrf+0xca>
     b1e:	4425      	add	r5, r4
C:\Teensy\Projects\HelloWorld/nonstd.c:109 (discriminator 1)
     b20:	42ac      	cmp	r4, r5
     b22:	d003      	beq.n	b2c <dtostrf+0xc8>
C:\Teensy\Projects\HelloWorld/nonstd.c:110
     b24:	2320      	movs	r3, #32
     b26:	f804 3b01 	strb.w	r3, [r4], #1
     b2a:	e7f9      	b.n	b20 <dtostrf+0xbc>
     b2c:	2500      	movs	r5, #0
C:\Teensy\Projects\HelloWorld/nonstd.c:114
     b2e:	4630      	mov	r0, r6
     b30:	2100      	movs	r1, #0
     b32:	f005 fd2d 	bl	6590 <__aeabi_fcmplt>
     b36:	b110      	cbz	r0, b3e <dtostrf+0xda>
C:\Teensy\Projects\HelloWorld/nonstd.c:114 (discriminator 1)
     b38:	232d      	movs	r3, #45	; 0x2d
     b3a:	7023      	strb	r3, [r4, #0]
     b3c:	3401      	adds	r4, #1
C:\Teensy\Projects\HelloWorld/nonstd.c:116
     b3e:	2349      	movs	r3, #73	; 0x49
     b40:	7023      	strb	r3, [r4, #0]
     b42:	234e      	movs	r3, #78	; 0x4e
     b44:	7063      	strb	r3, [r4, #1]
     b46:	2246      	movs	r2, #70	; 0x46
     b48:	1ce3      	adds	r3, r4, #3
     b4a:	70a2      	strb	r2, [r4, #2]
     b4c:	1958      	adds	r0, r3, r5
C:\Teensy\Projects\HelloWorld/nonstd.c:120 (discriminator 1)
     b4e:	4283      	cmp	r3, r0
     b50:	d003      	beq.n	b5a <dtostrf+0xf6>
C:\Teensy\Projects\HelloWorld/nonstd.c:121
     b52:	2220      	movs	r2, #32
     b54:	f803 2b01 	strb.w	r2, [r3], #1
     b58:	e7f9      	b.n	b4e <dtostrf+0xea>
C:\Teensy\Projects\HelloWorld/nonstd.c:124
     b5a:	2300      	movs	r3, #0
     b5c:	7003      	strb	r3, [r0, #0]
C:\Teensy\Projects\HelloWorld/nonstd.c:125
     b5e:	e080      	b.n	c62 <dtostrf+0x1fe>
C:\Teensy\Projects\HelloWorld/nonstd.c:128
     b60:	4630      	mov	r0, r6
     b62:	4649      	mov	r1, r9
     b64:	466a      	mov	r2, sp
     b66:	ab01      	add	r3, sp, #4
     b68:	f005 fd7d 	bl	6666 <fcvtf>
     b6c:	9e00      	ldr	r6, [sp, #0]
     b6e:	4682      	mov	sl, r0
C:\Teensy\Projects\HelloWorld/nonstd.c:129
     b70:	f1b9 0f00 	cmp.w	r9, #0
     b74:	d10b      	bne.n	b8e <dtostrf+0x12a>
C:\Teensy\Projects\HelloWorld/nonstd.c:129 (discriminator 1)
     b76:	b956      	cbnz	r6, b8e <dtostrf+0x12a>
C:\Teensy\Projects\HelloWorld/nonstd.c:130
     b78:	f890 a000 	ldrb.w	sl, [r0]
     b7c:	4b3c      	ldr	r3, [pc, #240]	; (c70 <dtostrf+0x20c>)
     b7e:	4a3d      	ldr	r2, [pc, #244]	; (c74 <dtostrf+0x210>)
     b80:	2501      	movs	r5, #1
     b82:	f1ba 0f34 	cmp.w	sl, #52	; 0x34
     b86:	bf8c      	ite	hi
     b88:	4692      	movhi	sl, r2
     b8a:	469a      	movls	sl, r3
     b8c:	e008      	b.n	ba0 <dtostrf+0x13c>
C:\Teensy\Projects\HelloWorld/nonstd.c:133
     b8e:	4650      	mov	r0, sl
     b90:	f005 feb3 	bl	68fa <strlen>
C:\Teensy\Projects\HelloWorld/nonstd.c:134
     b94:	42b0      	cmp	r0, r6
C:\Teensy\Projects\HelloWorld/nonstd.c:133
     b96:	4605      	mov	r5, r0
C:\Teensy\Projects\HelloWorld/nonstd.c:134
     b98:	bfc8      	it	gt
     b9a:	1c45      	addgt	r5, r0, #1
C:\Teensy\Projects\HelloWorld/nonstd.c:135
     b9c:	b906      	cbnz	r6, ba0 <dtostrf+0x13c>
C:\Teensy\Projects\HelloWorld/nonstd.c:135 (discriminator 1)
     b9e:	3501      	adds	r5, #1
C:\Teensy\Projects\HelloWorld/nonstd.c:137
     ba0:	9901      	ldr	r1, [sp, #4]
     ba2:	b101      	cbz	r1, ba6 <dtostrf+0x142>
C:\Teensy\Projects\HelloWorld/nonstd.c:137 (discriminator 1)
     ba4:	3501      	adds	r5, #1
C:\Teensy\Projects\HelloWorld/nonstd.c:140
     ba6:	ebc5 0308 	rsb	r3, r5, r8
C:\Teensy\Projects\HelloWorld/nonstd.c:141
     baa:	2b00      	cmp	r3, #0
C:\Teensy\Projects\HelloWorld/nonstd.c:139
     bac:	eb04 0705 	add.w	r7, r4, r5
C:\Teensy\Projects\HelloWorld/nonstd.c:141
     bb0:	dd08      	ble.n	bc4 <dtostrf+0x160>
C:\Teensy\Projects\HelloWorld/nonstd.c:142
     bb2:	441f      	add	r7, r3
C:\Teensy\Projects\HelloWorld/nonstd.c:138
     bb4:	4622      	mov	r2, r4
     bb6:	4423      	add	r3, r4
C:\Teensy\Projects\HelloWorld/nonstd.c:143 (discriminator 1)
     bb8:	429a      	cmp	r2, r3
     bba:	d004      	beq.n	bc6 <dtostrf+0x162>
C:\Teensy\Projects\HelloWorld/nonstd.c:143 (discriminator 2)
     bbc:	2020      	movs	r0, #32
     bbe:	f802 0b01 	strb.w	r0, [r2], #1
     bc2:	e7f9      	b.n	bb8 <dtostrf+0x154>
C:\Teensy\Projects\HelloWorld/nonstd.c:138
     bc4:	4623      	mov	r3, r4
C:\Teensy\Projects\HelloWorld/nonstd.c:145
     bc6:	b111      	cbz	r1, bce <dtostrf+0x16a>
C:\Teensy\Projects\HelloWorld/nonstd.c:145 (discriminator 1)
     bc8:	222d      	movs	r2, #45	; 0x2d
     bca:	701a      	strb	r2, [r3, #0]
     bcc:	3301      	adds	r3, #1
C:\Teensy\Projects\HelloWorld/nonstd.c:146
     bce:	2e00      	cmp	r6, #0
     bd0:	d107      	bne.n	be2 <dtostrf+0x17e>
C:\Teensy\Projects\HelloWorld/nonstd.c:146 (discriminator 1)
     bd2:	f1b9 0f00 	cmp.w	r9, #0
     bd6:	d01e      	beq.n	c16 <dtostrf+0x1b2>
C:\Teensy\Projects\HelloWorld/nonstd.c:147
     bd8:	461a      	mov	r2, r3
     bda:	2130      	movs	r1, #48	; 0x30
     bdc:	f802 1b02 	strb.w	r1, [r2], #2
     be0:	e027      	b.n	c32 <dtostrf+0x1ce>
C:\Teensy\Projects\HelloWorld/nonstd.c:150
     be2:	da18      	bge.n	c16 <dtostrf+0x1b2>
C:\Teensy\Projects\HelloWorld/nonstd.c:150 (discriminator 1)
     be4:	f1b9 0f00 	cmp.w	r9, #0
     be8:	d015      	beq.n	c16 <dtostrf+0x1b2>
C:\Teensy\Projects\HelloWorld/nonstd.c:151
     bea:	4619      	mov	r1, r3
     bec:	2230      	movs	r2, #48	; 0x30
     bee:	f801 2b02 	strb.w	r2, [r1], #2
C:\Teensy\Projects\HelloWorld/nonstd.c:152
     bf2:	222e      	movs	r2, #46	; 0x2e
     bf4:	705a      	strb	r2, [r3, #1]
C:\Teensy\Projects\HelloWorld/nonstd.c:153
     bf6:	3701      	adds	r7, #1
C:\Teensy\Projects\HelloWorld/nonstd.c:154
     bf8:	4632      	mov	r2, r6
     bfa:	1b8b      	subs	r3, r1, r6
C:\Teensy\Projects\HelloWorld/nonstd.c:154 (discriminator 1)
     bfc:	2a00      	cmp	r2, #0
     bfe:	f1c6 0000 	rsb	r0, r6, #0
     c02:	4413      	add	r3, r2
     c04:	da04      	bge.n	c10 <dtostrf+0x1ac>
     c06:	4408      	add	r0, r1
C:\Teensy\Projects\HelloWorld/nonstd.c:156
     c08:	2330      	movs	r3, #48	; 0x30
     c0a:	5483      	strb	r3, [r0, r2]
     c0c:	3201      	adds	r2, #1
     c0e:	e7f4      	b.n	bfa <dtostrf+0x196>
     c10:	9200      	str	r2, [sp, #0]
     c12:	e000      	b.n	c16 <dtostrf+0x1b2>
C:\Teensy\Projects\HelloWorld/nonstd.c:154 (discriminator 1)
     c14:	4613      	mov	r3, r2
C:\Teensy\Projects\HelloWorld/nonstd.c:159 (discriminator 1)
     c16:	42bb      	cmp	r3, r7
     c18:	d20f      	bcs.n	c3a <dtostrf+0x1d6>
C:\Teensy\Projects\HelloWorld/nonstd.c:160
     c1a:	1c5a      	adds	r2, r3, #1
     c1c:	f81a 1b01 	ldrb.w	r1, [sl], #1
     c20:	7019      	strb	r1, [r3, #0]
C:\Teensy\Projects\HelloWorld/nonstd.c:161
     c22:	42ba      	cmp	r2, r7
     c24:	d008      	beq.n	c38 <dtostrf+0x1d4>
C:\Teensy\Projects\HelloWorld/nonstd.c:162
     c26:	9900      	ldr	r1, [sp, #0]
     c28:	3901      	subs	r1, #1
     c2a:	9100      	str	r1, [sp, #0]
     c2c:	2900      	cmp	r1, #0
     c2e:	d1f1      	bne.n	c14 <dtostrf+0x1b0>
C:\Teensy\Projects\HelloWorld/nonstd.c:162 (discriminator 1)
     c30:	1c9a      	adds	r2, r3, #2
     c32:	212e      	movs	r1, #46	; 0x2e
     c34:	7059      	strb	r1, [r3, #1]
     c36:	e7ed      	b.n	c14 <dtostrf+0x1b0>
C:\Teensy\Projects\HelloWorld/nonstd.c:160
     c38:	463b      	mov	r3, r7
C:\Teensy\Projects\HelloWorld/nonstd.c:164
     c3a:	f1b8 0f00 	cmp.w	r8, #0
     c3e:	da0d      	bge.n	c5c <dtostrf+0x1f8>
C:\Teensy\Projects\HelloWorld/nonstd.c:165
     c40:	4445      	add	r5, r8
     c42:	426d      	negs	r5, r5
C:\Teensy\Projects\HelloWorld/nonstd.c:166
     c44:	461a      	mov	r2, r3
     c46:	1959      	adds	r1, r3, r5
     c48:	1a89      	subs	r1, r1, r2
C:\Teensy\Projects\HelloWorld/nonstd.c:166 (discriminator 1)
     c4a:	2900      	cmp	r1, #0
     c4c:	dd03      	ble.n	c56 <dtostrf+0x1f2>
C:\Teensy\Projects\HelloWorld/nonstd.c:166 (discriminator 2)
     c4e:	2120      	movs	r1, #32
     c50:	f802 1b01 	strb.w	r1, [r2], #1
     c54:	e7f7      	b.n	c46 <dtostrf+0x1e2>
     c56:	2d00      	cmp	r5, #0
     c58:	bfa8      	it	ge
     c5a:	195b      	addge	r3, r3, r5
C:\Teensy\Projects\HelloWorld/nonstd.c:168
     c5c:	2200      	movs	r2, #0
     c5e:	701a      	strb	r2, [r3, #0]
C:\Teensy\Projects\HelloWorld/nonstd.c:173
     c60:	4620      	mov	r0, r4
C:\Teensy\Projects\HelloWorld/nonstd.c:174
     c62:	b002      	add	sp, #8
     c64:	e8bd 87f0 	ldmia.w	sp!, {r4, r5, r6, r7, r8, r9, sl, pc}
     c68:	bf800000 	.word	0xbf800000
     c6c:	7f7fffff 	.word	0x7f7fffff
     c70:	00009ec8 	.word	0x00009ec8
     c74:	00009ec6 	.word	0x00009ec6

00000c78 <dummy_isr>:
dummy_isr():
C:\Teensy\Projects\HelloWorld/pins_teensy.c:143
     c78:	4770      	bx	lr

00000c7a <getIsrTable>:
getIsrTable():
C:\Teensy\Projects\HelloWorld/pins_teensy.c:171
     c7a:	f100 4040 	add.w	r0, r0, #3221225472	; 0xc0000000
     c7e:	f5a0 2392 	sub.w	r3, r0, #299008	; 0x49000
     c82:	2b7c      	cmp	r3, #124	; 0x7c
     c84:	d914      	bls.n	cb0 <getIsrTable+0x36>
C:\Teensy\Projects\HelloWorld/pins_teensy.c:172
     c86:	f5a0 2394 	sub.w	r3, r0, #303104	; 0x4a000
     c8a:	2b7c      	cmp	r3, #124	; 0x7c
     c8c:	d912      	bls.n	cb4 <getIsrTable+0x3a>
C:\Teensy\Projects\HelloWorld/pins_teensy.c:173
     c8e:	f5a0 2396 	sub.w	r3, r0, #307200	; 0x4b000
     c92:	2b7c      	cmp	r3, #124	; 0x7c
     c94:	d910      	bls.n	cb8 <getIsrTable+0x3e>
C:\Teensy\Projects\HelloWorld/pins_teensy.c:174
     c96:	f5a0 2398 	sub.w	r3, r0, #311296	; 0x4c000
     c9a:	2b7c      	cmp	r3, #124	; 0x7c
     c9c:	d906      	bls.n	cac <getIsrTable+0x32>
C:\Teensy\Projects\HelloWorld/pins_teensy.c:175
     c9e:	f5a0 209a 	sub.w	r0, r0, #315392	; 0x4d000
C:\Teensy\Projects\HelloWorld/pins_teensy.c:170
     ca2:	287d      	cmp	r0, #125	; 0x7d
     ca4:	4805      	ldr	r0, [pc, #20]	; (cbc <getIsrTable+0x42>)
     ca6:	bf28      	it	cs
     ca8:	2000      	movcs	r0, #0
     caa:	4770      	bx	lr
C:\Teensy\Projects\HelloWorld/pins_teensy.c:174
     cac:	4804      	ldr	r0, [pc, #16]	; (cc0 <getIsrTable+0x46>)
     cae:	4770      	bx	lr
C:\Teensy\Projects\HelloWorld/pins_teensy.c:171
     cb0:	4804      	ldr	r0, [pc, #16]	; (cc4 <getIsrTable+0x4a>)
     cb2:	4770      	bx	lr
C:\Teensy\Projects\HelloWorld/pins_teensy.c:172
     cb4:	4804      	ldr	r0, [pc, #16]	; (cc8 <getIsrTable+0x4e>)
     cb6:	4770      	bx	lr
C:\Teensy\Projects\HelloWorld/pins_teensy.c:173
     cb8:	4804      	ldr	r0, [pc, #16]	; (ccc <getIsrTable+0x52>)
C:\Teensy\Projects\HelloWorld/pins_teensy.c:177
     cba:	4770      	bx	lr
     cbc:	1fff0850 	.word	0x1fff0850
     cc0:	1fff08bc 	.word	0x1fff08bc
     cc4:	1fff098c 	.word	0x1fff098c
     cc8:	1fff092c 	.word	0x1fff092c
     ccc:	1fff08fc 	.word	0x1fff08fc

00000cd0 <getPinIndex>:
getPinIndex():
C:\Teensy\Projects\HelloWorld/pins_teensy.c:184
     cd0:	f3c0 0084 	ubfx	r0, r0, #2, #5
     cd4:	4770      	bx	lr

00000cd6 <attachInterruptVector>:
attachInterruptVector():
C:\Teensy\Projects\HelloWorld/pins_teensy.c:193
     cd6:	3010      	adds	r0, #16
     cd8:	4b01      	ldr	r3, [pc, #4]	; (ce0 <attachInterruptVector+0xa>)
     cda:	f843 1020 	str.w	r1, [r3, r0, lsl #2]
     cde:	4770      	bx	lr
     ce0:	1fff0200 	.word	0x1fff0200

00000ce4 <detachInterrupt>:
detachInterrupt():
C:\Teensy\Projects\HelloWorld/pins_teensy.c:239
     ce4:	4b0c      	ldr	r3, [pc, #48]	; (d18 <detachInterrupt+0x34>)
     ce6:	eb03 00c0 	add.w	r0, r3, r0, lsl #3
C:\Teensy\Projects\HelloWorld/pins_teensy.c:236
     cea:	b510      	push	{r4, lr}
C:\Teensy\Projects\HelloWorld/pins_teensy.c:239
     cec:	6844      	ldr	r4, [r0, #4]
C:\Teensy\Projects\HelloWorld/pins_teensy.c:240
     cee:	4620      	mov	r0, r4
     cf0:	f7ff ffc3 	bl	c7a <getIsrTable>
C:\Teensy\Projects\HelloWorld/pins_teensy.c:241
     cf4:	b170      	cbz	r0, d14 <detachInterrupt+0x30>
C:\Teensy\Projects\HelloWorld/pins_teensy.c:243
     cf6:	b672      	cpsid	i
C:\Teensy\Projects\HelloWorld/pins_teensy.c:244
     cf8:	6823      	ldr	r3, [r4, #0]
     cfa:	f023 7387 	bic.w	r3, r3, #17694720	; 0x10e0000
     cfe:	f423 3380 	bic.w	r3, r3, #65536	; 0x10000
     d02:	f043 7380 	orr.w	r3, r3, #16777216	; 0x1000000
     d06:	6023      	str	r3, [r4, #0]
getPinIndex():
C:\Teensy\Projects\HelloWorld/pins_teensy.c:183
     d08:	f3c4 0484 	ubfx	r4, r4, #2, #5
detachInterrupt():
C:\Teensy\Projects\HelloWorld/pins_teensy.c:245
     d0c:	4b03      	ldr	r3, [pc, #12]	; (d1c <detachInterrupt+0x38>)
     d0e:	f840 3024 	str.w	r3, [r0, r4, lsl #2]
C:\Teensy\Projects\HelloWorld/pins_teensy.c:246
     d12:	b662      	cpsie	i
     d14:	bd10      	pop	{r4, pc}
     d16:	bf00      	nop
     d18:	00009ecc 	.word	0x00009ecc
     d1c:	00000c79 	.word	0x00000c79

00000d20 <rtc_get>:
rtc_get():
C:\Teensy\Projects\HelloWorld/pins_teensy.c:322
     d20:	4b01      	ldr	r3, [pc, #4]	; (d28 <rtc_get+0x8>)
     d22:	6818      	ldr	r0, [r3, #0]
C:\Teensy\Projects\HelloWorld/pins_teensy.c:323
     d24:	4770      	bx	lr
     d26:	bf00      	nop
     d28:	4003d000 	.word	0x4003d000

00000d2c <rtc_set>:
rtc_set():
C:\Teensy\Projects\HelloWorld/pins_teensy.c:327
     d2c:	4b04      	ldr	r3, [pc, #16]	; (d40 <rtc_set+0x14>)
C:\Teensy\Projects\HelloWorld/pins_teensy.c:328
     d2e:	4905      	ldr	r1, [pc, #20]	; (d44 <rtc_set+0x18>)
C:\Teensy\Projects\HelloWorld/pins_teensy.c:327
     d30:	2200      	movs	r2, #0
     d32:	601a      	str	r2, [r3, #0]
C:\Teensy\Projects\HelloWorld/pins_teensy.c:328
     d34:	600a      	str	r2, [r1, #0]
C:\Teensy\Projects\HelloWorld/pins_teensy.c:329
     d36:	4a04      	ldr	r2, [pc, #16]	; (d48 <rtc_set+0x1c>)
     d38:	6010      	str	r0, [r2, #0]
C:\Teensy\Projects\HelloWorld/pins_teensy.c:330
     d3a:	2210      	movs	r2, #16
     d3c:	601a      	str	r2, [r3, #0]
     d3e:	4770      	bx	lr
     d40:	4003d014 	.word	0x4003d014
     d44:	4003d004 	.word	0x4003d004
     d48:	4003d000 	.word	0x4003d000

00000d4c <rtc_compensate>:
rtc_compensate():
C:\Teensy\Projects\HelloWorld/pins_teensy.c:345
     d4c:	2800      	cmp	r0, #0
     d4e:	db0e      	blt.n	d6e <rtc_compensate+0x22>
     d50:	0202      	lsls	r2, r0, #8
C:\Teensy\Projects\HelloWorld/pins_teensy.c:347
     d52:	f44f 7380 	mov.w	r3, #256	; 0x100
C:\Teensy\Projects\HelloWorld/pins_teensy.c:350
     d56:	f5b2 4f00 	cmp.w	r2, #32768	; 0x8000
     d5a:	d306      	bcc.n	d6a <rtc_compensate+0x1e>
C:\Teensy\Projects\HelloWorld/pins_teensy.c:351
     d5c:	3b01      	subs	r3, #1
     d5e:	2b01      	cmp	r3, #1
     d60:	ebc0 0102 	rsb	r1, r0, r2
     d64:	d001      	beq.n	d6a <rtc_compensate+0x1e>
     d66:	460a      	mov	r2, r1
     d68:	e7f5      	b.n	d56 <rtc_compensate+0xa>
C:\Teensy\Projects\HelloWorld/pins_teensy.c:353
     d6a:	0a12      	lsrs	r2, r2, #8
     d6c:	e010      	b.n	d90 <rtc_compensate+0x44>
C:\Teensy\Projects\HelloWorld/pins_teensy.c:355
     d6e:	4240      	negs	r0, r0
     d70:	0202      	lsls	r2, r0, #8
C:\Teensy\Projects\HelloWorld/pins_teensy.c:356
     d72:	f44f 7380 	mov.w	r3, #256	; 0x100
C:\Teensy\Projects\HelloWorld/pins_teensy.c:359
     d76:	f5b2 4f01 	cmp.w	r2, #33024	; 0x8100
     d7a:	d306      	bcc.n	d8a <rtc_compensate+0x3e>
C:\Teensy\Projects\HelloWorld/pins_teensy.c:360
     d7c:	3b01      	subs	r3, #1
     d7e:	2b01      	cmp	r3, #1
     d80:	ebc0 0102 	rsb	r1, r0, r2
     d84:	d001      	beq.n	d8a <rtc_compensate+0x3e>
     d86:	460a      	mov	r2, r1
     d88:	e7f5      	b.n	d76 <rtc_compensate+0x2a>
C:\Teensy\Projects\HelloWorld/pins_teensy.c:362
     d8a:	0a12      	lsrs	r2, r2, #8
C:\Teensy\Projects\HelloWorld/pins_teensy.c:363
     d8c:	f5c2 7280 	rsb	r2, r2, #256	; 0x100
C:\Teensy\Projects\HelloWorld/pins_teensy.c:365
     d90:	3b01      	subs	r3, #1
     d92:	4902      	ldr	r1, [pc, #8]	; (d9c <rtc_compensate+0x50>)
     d94:	ea42 2203 	orr.w	r2, r2, r3, lsl #8
     d98:	600a      	str	r2, [r1, #0]
     d9a:	4770      	bx	lr
     d9c:	4003d00c 	.word	0x4003d00c

00000da0 <analogWriteRes>:
analogWriteRes():
C:\Teensy\Projects\HelloWorld/pins_teensy.c:748
     da0:	b118      	cbz	r0, daa <analogWriteRes+0xa>
     da2:	2810      	cmp	r0, #16
     da4:	bf28      	it	cs
     da6:	2010      	movcs	r0, #16
     da8:	e000      	b.n	dac <analogWriteRes+0xc>
C:\Teensy\Projects\HelloWorld/pins_teensy.c:749
     daa:	2001      	movs	r0, #1
C:\Teensy\Projects\HelloWorld/pins_teensy.c:753
     dac:	4b01      	ldr	r3, [pc, #4]	; (db4 <analogWriteRes+0x14>)
     dae:	f883 01b4 	strb.w	r0, [r3, #436]	; 0x1b4
     db2:	4770      	bx	lr
     db4:	1fff0850 	.word	0x1fff0850

00000db8 <analogWriteFrequency>:
analogWriteFrequency():
C:\Teensy\Projects\HelloWorld/pins_teensy.c:758
     db8:	e92d 43f8 	stmdb	sp!, {r3, r4, r5, r6, r7, r8, r9, lr}
C:\Teensy\Projects\HelloWorld/pins_teensy.c:769
     dbc:	f1a0 0910 	sub.w	r9, r0, #16
     dc0:	fa5f f989 	uxtb.w	r9, r9
     dc4:	f1b9 0f01 	cmp.w	r9, #1
C:\Teensy\Projects\HelloWorld/pins_teensy.c:758
     dc8:	4605      	mov	r5, r0
     dca:	460f      	mov	r7, r1
C:\Teensy\Projects\HelloWorld/pins_teensy.c:769
     dcc:	d90d      	bls.n	dea <analogWriteFrequency+0x32>
C:\Teensy\Projects\HelloWorld/pins_teensy.c:774
     dce:	4608      	mov	r0, r1
     dd0:	493d      	ldr	r1, [pc, #244]	; (ec8 <analogWriteFrequency+0x110>)
     dd2:	f005 fbdd 	bl	6590 <__aeabi_fcmplt>
C:\Teensy\Projects\HelloWorld/pins_teensy.c:779
     dd6:	4b3d      	ldr	r3, [pc, #244]	; (ecc <analogWriteFrequency+0x114>)
     dd8:	2800      	cmp	r0, #0
     dda:	f647 2812 	movw	r8, #31250	; 0x7a12
     dde:	bf14      	ite	ne
     de0:	2602      	movne	r6, #2
     de2:	2601      	moveq	r6, #1
     de4:	bf08      	it	eq
     de6:	4698      	moveq	r8, r3
     de8:	e002      	b.n	df0 <analogWriteFrequency+0x38>
C:\Teensy\Projects\HelloWorld/pins_teensy.c:771
     dea:	f8df 8120 	ldr.w	r8, [pc, #288]	; f0c <analogWriteFrequency+0x154>
C:\Teensy\Projects\HelloWorld/pins_teensy.c:770
     dee:	2601      	movs	r6, #1
C:\Teensy\Projects\HelloWorld/pins_teensy.c:784
     df0:	2400      	movs	r4, #0
C:\Teensy\Projects\HelloWorld/pins_teensy.c:785
     df2:	fa28 f004 	lsr.w	r0, r8, r4
     df6:	f005 f9d5 	bl	61a4 <__aeabi_ui2f>
     dfa:	f04f 515e 	mov.w	r1, #931135488	; 0x37800000
     dfe:	f005 fa29 	bl	6254 <__aeabi_fmul>
     e02:	4601      	mov	r1, r0
C:\Teensy\Projects\HelloWorld/pins_teensy.c:786
     e04:	4638      	mov	r0, r7
     e06:	f005 fbd7 	bl	65b8 <__aeabi_fcmpge>
     e0a:	b910      	cbnz	r0, e12 <analogWriteFrequency+0x5a>
C:\Teensy\Projects\HelloWorld/pins_teensy.c:784
     e0c:	3401      	adds	r4, #1
     e0e:	2c07      	cmp	r4, #7
     e10:	d1ef      	bne.n	df2 <analogWriteFrequency+0x3a>
C:\Teensy\Projects\HelloWorld/pins_teensy.c:794
     e12:	fa28 f004 	lsr.w	r0, r8, r4
     e16:	f005 f9c5 	bl	61a4 <__aeabi_ui2f>
     e1a:	4639      	mov	r1, r7
     e1c:	f005 face 	bl	63bc <__aeabi_fdiv>
     e20:	f04f 517c 	mov.w	r1, #1056964608	; 0x3f000000
     e24:	f005 f90c 	bl	6040 <__aeabi_fsub>
     e28:	f005 fbf0 	bl	660c <__aeabi_f2uiz>
     e2c:	f64f 73ff 	movw	r3, #65535	; 0xffff
     e30:	4298      	cmp	r0, r3
     e32:	bf28      	it	cs
     e34:	4618      	movcs	r0, r3
C:\Teensy\Projects\HelloWorld/pins_teensy.c:799
     e36:	1eeb      	subs	r3, r5, #3
     e38:	2b01      	cmp	r3, #1
     e3a:	d806      	bhi.n	e4a <analogWriteFrequency+0x92>
C:\Teensy\Projects\HelloWorld/pins_teensy.c:800
     e3c:	4b24      	ldr	r3, [pc, #144]	; (ed0 <analogWriteFrequency+0x118>)
C:\Teensy\Projects\HelloWorld/pins_teensy.c:801
     e3e:	4925      	ldr	r1, [pc, #148]	; (ed4 <analogWriteFrequency+0x11c>)
C:\Teensy\Projects\HelloWorld/pins_teensy.c:800
     e40:	2200      	movs	r2, #0
     e42:	601a      	str	r2, [r3, #0]
C:\Teensy\Projects\HelloWorld/pins_teensy.c:801
     e44:	600a      	str	r2, [r1, #0]
C:\Teensy\Projects\HelloWorld/pins_teensy.c:802
     e46:	4a24      	ldr	r2, [pc, #144]	; (ed8 <analogWriteFrequency+0x120>)
     e48:	e036      	b.n	eb8 <analogWriteFrequency+0x100>
C:\Teensy\Projects\HelloWorld/pins_teensy.c:805
     e4a:	f1a5 0309 	sub.w	r3, r5, #9
     e4e:	2b01      	cmp	r3, #1
     e50:	d906      	bls.n	e60 <analogWriteFrequency+0xa8>
C:\Teensy\Projects\HelloWorld/pins_teensy.c:806 (discriminator 1)
     e52:	f1a5 0314 	sub.w	r3, r5, #20
     e56:	2b03      	cmp	r3, #3
     e58:	d902      	bls.n	e60 <analogWriteFrequency+0xa8>
C:\Teensy\Projects\HelloWorld/pins_teensy.c:808 (discriminator 1)
     e5a:	1f6b      	subs	r3, r5, #5
     e5c:	2b01      	cmp	r3, #1
     e5e:	d806      	bhi.n	e6e <analogWriteFrequency+0xb6>
C:\Teensy\Projects\HelloWorld/pins_teensy.c:811
     e60:	4b1e      	ldr	r3, [pc, #120]	; (edc <analogWriteFrequency+0x124>)
C:\Teensy\Projects\HelloWorld/pins_teensy.c:812
     e62:	491f      	ldr	r1, [pc, #124]	; (ee0 <analogWriteFrequency+0x128>)
C:\Teensy\Projects\HelloWorld/pins_teensy.c:811
     e64:	2200      	movs	r2, #0
     e66:	601a      	str	r2, [r3, #0]
C:\Teensy\Projects\HelloWorld/pins_teensy.c:812
     e68:	600a      	str	r2, [r1, #0]
C:\Teensy\Projects\HelloWorld/pins_teensy.c:813
     e6a:	4a1e      	ldr	r2, [pc, #120]	; (ee4 <analogWriteFrequency+0x12c>)
     e6c:	e024      	b.n	eb8 <analogWriteFrequency+0x100>
C:\Teensy\Projects\HelloWorld/pins_teensy.c:817
     e6e:	f1a5 031d 	sub.w	r3, r5, #29
     e72:	2b01      	cmp	r3, #1
     e74:	d806      	bhi.n	e84 <analogWriteFrequency+0xcc>
C:\Teensy\Projects\HelloWorld/pins_teensy.c:818
     e76:	4b1c      	ldr	r3, [pc, #112]	; (ee8 <analogWriteFrequency+0x130>)
C:\Teensy\Projects\HelloWorld/pins_teensy.c:819
     e78:	491c      	ldr	r1, [pc, #112]	; (eec <analogWriteFrequency+0x134>)
C:\Teensy\Projects\HelloWorld/pins_teensy.c:818
     e7a:	2200      	movs	r2, #0
     e7c:	601a      	str	r2, [r3, #0]
C:\Teensy\Projects\HelloWorld/pins_teensy.c:819
     e7e:	600a      	str	r2, [r1, #0]
C:\Teensy\Projects\HelloWorld/pins_teensy.c:820
     e80:	4a1b      	ldr	r2, [pc, #108]	; (ef0 <analogWriteFrequency+0x138>)
     e82:	e019      	b.n	eb8 <analogWriteFrequency+0x100>
C:\Teensy\Projects\HelloWorld/pins_teensy.c:825
     e84:	2d02      	cmp	r5, #2
     e86:	d007      	beq.n	e98 <analogWriteFrequency+0xe0>
C:\Teensy\Projects\HelloWorld/pins_teensy.c:825 (discriminator 1)
     e88:	2d0e      	cmp	r5, #14
     e8a:	d005      	beq.n	e98 <analogWriteFrequency+0xe0>
C:\Teensy\Projects\HelloWorld/pins_teensy.c:826
     e8c:	1feb      	subs	r3, r5, #7
     e8e:	2b01      	cmp	r3, #1
     e90:	d902      	bls.n	e98 <analogWriteFrequency+0xe0>
C:\Teensy\Projects\HelloWorld/pins_teensy.c:827
     e92:	3d23      	subs	r5, #35	; 0x23
     e94:	2d03      	cmp	r5, #3
     e96:	d806      	bhi.n	ea6 <analogWriteFrequency+0xee>
C:\Teensy\Projects\HelloWorld/pins_teensy.c:829
     e98:	4b16      	ldr	r3, [pc, #88]	; (ef4 <analogWriteFrequency+0x13c>)
C:\Teensy\Projects\HelloWorld/pins_teensy.c:830
     e9a:	4917      	ldr	r1, [pc, #92]	; (ef8 <analogWriteFrequency+0x140>)
C:\Teensy\Projects\HelloWorld/pins_teensy.c:829
     e9c:	2200      	movs	r2, #0
     e9e:	601a      	str	r2, [r3, #0]
C:\Teensy\Projects\HelloWorld/pins_teensy.c:830
     ea0:	600a      	str	r2, [r1, #0]
C:\Teensy\Projects\HelloWorld/pins_teensy.c:831
     ea2:	4a16      	ldr	r2, [pc, #88]	; (efc <analogWriteFrequency+0x144>)
     ea4:	e008      	b.n	eb8 <analogWriteFrequency+0x100>
C:\Teensy\Projects\HelloWorld/pins_teensy.c:836
     ea6:	f1b9 0f01 	cmp.w	r9, #1
     eaa:	d80b      	bhi.n	ec4 <analogWriteFrequency+0x10c>
C:\Teensy\Projects\HelloWorld/pins_teensy.c:837
     eac:	4b14      	ldr	r3, [pc, #80]	; (f00 <analogWriteFrequency+0x148>)
C:\Teensy\Projects\HelloWorld/pins_teensy.c:838
     eae:	4915      	ldr	r1, [pc, #84]	; (f04 <analogWriteFrequency+0x14c>)
C:\Teensy\Projects\HelloWorld/pins_teensy.c:837
     eb0:	2200      	movs	r2, #0
     eb2:	601a      	str	r2, [r3, #0]
C:\Teensy\Projects\HelloWorld/pins_teensy.c:838
     eb4:	600a      	str	r2, [r1, #0]
C:\Teensy\Projects\HelloWorld/pins_teensy.c:839
     eb6:	4a14      	ldr	r2, [pc, #80]	; (f08 <analogWriteFrequency+0x150>)
C:\Teensy\Projects\HelloWorld/pins_teensy.c:840
     eb8:	f004 0407 	and.w	r4, r4, #7
     ebc:	ea44 06c6 	orr.w	r6, r4, r6, lsl #3
C:\Teensy\Projects\HelloWorld/pins_teensy.c:839
     ec0:	6010      	str	r0, [r2, #0]
C:\Teensy\Projects\HelloWorld/pins_teensy.c:840
     ec2:	601e      	str	r6, [r3, #0]
     ec4:	e8bd 83f8 	ldmia.w	sp!, {r3, r4, r5, r6, r7, r8, r9, pc}
     ec8:	40e4e1c0 	.word	0x40e4e1c0
     ecc:	03938700 	.word	0x03938700
     ed0:	40039000 	.word	0x40039000
     ed4:	40039004 	.word	0x40039004
     ed8:	40039008 	.word	0x40039008
     edc:	40038000 	.word	0x40038000
     ee0:	40038004 	.word	0x40038004
     ee4:	40038008 	.word	0x40038008
     ee8:	400b8000 	.word	0x400b8000
     eec:	400b8004 	.word	0x400b8004
     ef0:	400b8008 	.word	0x400b8008
     ef4:	400b9000 	.word	0x400b9000
     ef8:	400b9004 	.word	0x400b9004
     efc:	400b9008 	.word	0x400b9008
     f00:	400c9000 	.word	0x400c9000
     f04:	400c9004 	.word	0x400c9004
     f08:	400c9008 	.word	0x400c9008
     f0c:	00f42400 	.word	0x00f42400

00000f10 <digitalWrite>:
digitalWrite():
C:\Teensy\Projects\HelloWorld/pins_teensy.c:851
     f10:	283f      	cmp	r0, #63	; 0x3f
C:\Teensy\Projects\HelloWorld/pins_teensy.c:850
     f12:	b510      	push	{r4, lr}
C:\Teensy\Projects\HelloWorld/pins_teensy.c:851
     f14:	d818      	bhi.n	f48 <digitalWrite+0x38>
C:\Teensy\Projects\HelloWorld/pins_teensy.c:852
     f16:	4a0d      	ldr	r2, [pc, #52]	; (f4c <digitalWrite+0x3c>)
     f18:	f852 3030 	ldr.w	r3, [r2, r0, lsl #3]
     f1c:	f893 4280 	ldrb.w	r4, [r3, #640]	; 0x280
     f20:	b13c      	cbz	r4, f32 <digitalWrite+0x22>
     f22:	2201      	movs	r2, #1
C:\Teensy\Projects\HelloWorld/pins_teensy.c:853
     f24:	b111      	cbz	r1, f2c <digitalWrite+0x1c>
C:\Teensy\Projects\HelloWorld/pins_teensy.c:854
     f26:	f883 2080 	strb.w	r2, [r3, #128]	; 0x80
     f2a:	bd10      	pop	{r4, pc}
C:\Teensy\Projects\HelloWorld/pins_teensy.c:856
     f2c:	f883 2100 	strb.w	r2, [r3, #256]	; 0x100
     f30:	bd10      	pop	{r4, pc}
C:\Teensy\Projects\HelloWorld/pins_teensy.c:859
     f32:	eb02 00c0 	add.w	r0, r2, r0, lsl #3
     f36:	6843      	ldr	r3, [r0, #4]
C:\Teensy\Projects\HelloWorld/pins_teensy.c:862
     f38:	681a      	ldr	r2, [r3, #0]
C:\Teensy\Projects\HelloWorld/pins_teensy.c:860
     f3a:	b111      	cbz	r1, f42 <digitalWrite+0x32>
C:\Teensy\Projects\HelloWorld/pins_teensy.c:862
     f3c:	f042 0203 	orr.w	r2, r2, #3
     f40:	e001      	b.n	f46 <digitalWrite+0x36>
C:\Teensy\Projects\HelloWorld/pins_teensy.c:866
     f42:	f022 0202 	bic.w	r2, r2, #2
     f46:	601a      	str	r2, [r3, #0]
     f48:	bd10      	pop	{r4, pc}
     f4a:	bf00      	nop
     f4c:	00009ecc 	.word	0x00009ecc

00000f50 <digitalRead>:
digitalRead():
C:\Teensy\Projects\HelloWorld/pins_teensy.c:875
     f50:	283f      	cmp	r0, #63	; 0x3f
     f52:	d806      	bhi.n	f62 <digitalRead+0x12>
C:\Teensy\Projects\HelloWorld/pins_teensy.c:877
     f54:	4b04      	ldr	r3, [pc, #16]	; (f68 <digitalRead+0x18>)
     f56:	f853 3030 	ldr.w	r3, [r3, r0, lsl #3]
     f5a:	f893 0200 	ldrb.w	r0, [r3, #512]	; 0x200
     f5e:	b2c0      	uxtb	r0, r0
     f60:	4770      	bx	lr
C:\Teensy\Projects\HelloWorld/pins_teensy.c:875
     f62:	2000      	movs	r0, #0
C:\Teensy\Projects\HelloWorld/pins_teensy.c:878
     f64:	4770      	bx	lr
     f66:	bf00      	nop
     f68:	00009ecc 	.word	0x00009ecc

00000f6c <pinMode>:
pinMode():
C:\Teensy\Projects\HelloWorld/pins_teensy.c:886
     f6c:	283f      	cmp	r0, #63	; 0x3f
C:\Teensy\Projects\HelloWorld/pins_teensy.c:883
     f6e:	b510      	push	{r4, lr}
C:\Teensy\Projects\HelloWorld/pins_teensy.c:886
     f70:	d82b      	bhi.n	fca <pinMode+0x5e>
C:\Teensy\Projects\HelloWorld/pins_teensy.c:887
     f72:	4a16      	ldr	r2, [pc, #88]	; (fcc <pinMode+0x60>)
     f74:	eb02 03c0 	add.w	r3, r2, r0, lsl #3
C:\Teensy\Projects\HelloWorld/pins_teensy.c:889
     f78:	2901      	cmp	r1, #1
C:\Teensy\Projects\HelloWorld/pins_teensy.c:887
     f7a:	685b      	ldr	r3, [r3, #4]
     f7c:	4614      	mov	r4, r2
C:\Teensy\Projects\HelloWorld/pins_teensy.c:889
     f7e:	d001      	beq.n	f84 <pinMode+0x18>
     f80:	2904      	cmp	r1, #4
     f82:	d10f      	bne.n	fa4 <pinMode+0x38>
C:\Teensy\Projects\HelloWorld/pins_teensy.c:890
     f84:	f854 2030 	ldr.w	r2, [r4, r0, lsl #3]
     f88:	2001      	movs	r0, #1
     f8a:	f882 0280 	strb.w	r0, [r2, #640]	; 0x280
C:\Teensy\Projects\HelloWorld/pins_teensy.c:892
     f8e:	f44f 72a2 	mov.w	r2, #324	; 0x144
     f92:	601a      	str	r2, [r3, #0]
C:\Teensy\Projects\HelloWorld/pins_teensy.c:894
     f94:	681a      	ldr	r2, [r3, #0]
C:\Teensy\Projects\HelloWorld/pins_teensy.c:893
     f96:	2904      	cmp	r1, #4
C:\Teensy\Projects\HelloWorld/pins_teensy.c:894
     f98:	bf0c      	ite	eq
     f9a:	f042 0220 	orreq.w	r2, r2, #32
C:\Teensy\Projects\HelloWorld/pins_teensy.c:896
     f9e:	f022 0220 	bicne.w	r2, r2, #32
     fa2:	e011      	b.n	fc8 <pinMode+0x5c>
C:\Teensy\Projects\HelloWorld/pins_teensy.c:899
     fa4:	f852 0030 	ldr.w	r0, [r2, r0, lsl #3]
     fa8:	2200      	movs	r2, #0
     faa:	f880 2280 	strb.w	r2, [r0, #640]	; 0x280
C:\Teensy\Projects\HelloWorld/pins_teensy.c:901
     fae:	b911      	cbnz	r1, fb6 <pinMode+0x4a>
C:\Teensy\Projects\HelloWorld/pins_teensy.c:902
     fb0:	f44f 7280 	mov.w	r2, #256	; 0x100
     fb4:	e008      	b.n	fc8 <pinMode+0x5c>
C:\Teensy\Projects\HelloWorld/pins_teensy.c:903
     fb6:	2902      	cmp	r1, #2
     fb8:	d102      	bne.n	fc0 <pinMode+0x54>
C:\Teensy\Projects\HelloWorld/pins_teensy.c:904
     fba:	f240 1203 	movw	r2, #259	; 0x103
     fbe:	e003      	b.n	fc8 <pinMode+0x5c>
C:\Teensy\Projects\HelloWorld/pins_teensy.c:905
     fc0:	2903      	cmp	r1, #3
C:\Teensy\Projects\HelloWorld/pins_teensy.c:906
     fc2:	bf08      	it	eq
     fc4:	f44f 7281 	moveq.w	r2, #258	; 0x102
C:\Teensy\Projects\HelloWorld/pins_teensy.c:908
     fc8:	601a      	str	r2, [r3, #0]
     fca:	bd10      	pop	{r4, pc}
     fcc:	00009ecc 	.word	0x00009ecc

00000fd0 <attachInterrupt>:
attachInterrupt():
C:\Teensy\Projects\HelloWorld/pins_teensy.c:201
     fd0:	283f      	cmp	r0, #63	; 0x3f
C:\Teensy\Projects\HelloWorld/pins_teensy.c:197
     fd2:	b570      	push	{r4, r5, r6, lr}
     fd4:	460d      	mov	r5, r1
C:\Teensy\Projects\HelloWorld/pins_teensy.c:201
     fd6:	d83c      	bhi.n	1052 <attachInterrupt+0x82>
C:\Teensy\Projects\HelloWorld/pins_teensy.c:202
     fd8:	2a04      	cmp	r2, #4
     fda:	d83a      	bhi.n	1052 <attachInterrupt+0x82>
     fdc:	e8df f002 	tbb	[pc, r2]
     fe0:	0b050907 	.word	0x0b050907
     fe4:	03          	.byte	0x03
     fe5:	00          	.byte	0x00
C:\Teensy\Projects\HelloWorld/pins_teensy.c:203
     fe6:	230b      	movs	r3, #11
     fe8:	e006      	b.n	ff8 <attachInterrupt+0x28>
C:\Teensy\Projects\HelloWorld/pins_teensy.c:205
     fea:	230a      	movs	r3, #10
     fec:	e004      	b.n	ff8 <attachInterrupt+0x28>
C:\Teensy\Projects\HelloWorld/pins_teensy.c:206
     fee:	2308      	movs	r3, #8
     ff0:	e002      	b.n	ff8 <attachInterrupt+0x28>
C:\Teensy\Projects\HelloWorld/pins_teensy.c:207
     ff2:	230c      	movs	r3, #12
     ff4:	e000      	b.n	ff8 <attachInterrupt+0x28>
C:\Teensy\Projects\HelloWorld/pins_teensy.c:204
     ff6:	2309      	movs	r3, #9
C:\Teensy\Projects\HelloWorld/pins_teensy.c:210
     ff8:	041e      	lsls	r6, r3, #16
C:\Teensy\Projects\HelloWorld/pins_teensy.c:211
     ffa:	4b16      	ldr	r3, [pc, #88]	; (1054 <attachInterrupt+0x84>)
     ffc:	eb03 03c0 	add.w	r3, r3, r0, lsl #3
    1000:	685c      	ldr	r4, [r3, #4]
C:\Teensy\Projects\HelloWorld/pins_teensy.c:212
    1002:	6821      	ldr	r1, [r4, #0]
    1004:	f411 61e0 	ands.w	r1, r1, #1792	; 0x700
    1008:	d101      	bne.n	100e <attachInterrupt+0x3e>
C:\Teensy\Projects\HelloWorld/pins_teensy.c:215
    100a:	f7ff ffaf 	bl	f6c <pinMode>
attachInterruptVector():
C:\Teensy\Projects\HelloWorld/pins_teensy.c:193
    100e:	4b12      	ldr	r3, [pc, #72]	; (1058 <attachInterrupt+0x88>)
    1010:	4a12      	ldr	r2, [pc, #72]	; (105c <attachInterrupt+0x8c>)
    1012:	f8c3 212c 	str.w	r2, [r3, #300]	; 0x12c
    1016:	4a12      	ldr	r2, [pc, #72]	; (1060 <attachInterrupt+0x90>)
    1018:	f8c3 2130 	str.w	r2, [r3, #304]	; 0x130
    101c:	4a11      	ldr	r2, [pc, #68]	; (1064 <attachInterrupt+0x94>)
    101e:	f8c3 2134 	str.w	r2, [r3, #308]	; 0x134
    1022:	4a11      	ldr	r2, [pc, #68]	; (1068 <attachInterrupt+0x98>)
    1024:	f8c3 2138 	str.w	r2, [r3, #312]	; 0x138
attachInterrupt():
C:\Teensy\Projects\HelloWorld/pins_teensy.c:222
    1028:	4620      	mov	r0, r4
attachInterruptVector():
C:\Teensy\Projects\HelloWorld/pins_teensy.c:193
    102a:	4a10      	ldr	r2, [pc, #64]	; (106c <attachInterrupt+0x9c>)
    102c:	f8c3 213c 	str.w	r2, [r3, #316]	; 0x13c
attachInterrupt():
C:\Teensy\Projects\HelloWorld/pins_teensy.c:222
    1030:	f7ff fe23 	bl	c7a <getIsrTable>
C:\Teensy\Projects\HelloWorld/pins_teensy.c:223
    1034:	b168      	cbz	r0, 1052 <attachInterrupt+0x82>
C:\Teensy\Projects\HelloWorld/pins_teensy.c:225
    1036:	b672      	cpsid	i
C:\Teensy\Projects\HelloWorld/pins_teensy.c:226
    1038:	6822      	ldr	r2, [r4, #0]
C:\Teensy\Projects\HelloWorld/pins_teensy.c:227
    103a:	f422 2270 	bic.w	r2, r2, #983040	; 0xf0000
C:\Teensy\Projects\HelloWorld/pins_teensy.c:228
    103e:	6022      	str	r2, [r4, #0]
getPinIndex():
C:\Teensy\Projects\HelloWorld/pins_teensy.c:183
    1040:	f3c4 0384 	ubfx	r3, r4, #2, #5
attachInterrupt():
C:\Teensy\Projects\HelloWorld/pins_teensy.c:210
    1044:	f042 7280 	orr.w	r2, r2, #16777216	; 0x1000000
C:\Teensy\Projects\HelloWorld/pins_teensy.c:230
    1048:	4316      	orrs	r6, r2
C:\Teensy\Projects\HelloWorld/pins_teensy.c:229
    104a:	f840 5023 	str.w	r5, [r0, r3, lsl #2]
C:\Teensy\Projects\HelloWorld/pins_teensy.c:231
    104e:	6026      	str	r6, [r4, #0]
C:\Teensy\Projects\HelloWorld/pins_teensy.c:232
    1050:	b662      	cpsie	i
    1052:	bd70      	pop	{r4, r5, r6, pc}
    1054:	00009ecc 	.word	0x00009ecc
    1058:	1fff0200 	.word	0x1fff0200
    105c:	1fff0819 	.word	0x1fff0819
    1060:	1fff07e9 	.word	0x1fff07e9
    1064:	1fff07b9 	.word	0x1fff07b9
    1068:	1fff078d 	.word	0x1fff078d
    106c:	1fff0761 	.word	0x1fff0761

00001070 <analogWrite>:
analogWrite():
C:\Teensy\Projects\HelloWorld/pins_teensy.c:553
    1070:	f1a0 0342 	sub.w	r3, r0, #66	; 0x42
    1074:	2b01      	cmp	r3, #1
C:\Teensy\Projects\HelloWorld/pins_teensy.c:549
    1076:	b570      	push	{r4, r5, r6, lr}
    1078:	460a      	mov	r2, r1
    107a:	4604      	mov	r4, r0
    107c:	4b7c      	ldr	r3, [pc, #496]	; (1270 <analogWrite+0x200>)
C:\Teensy\Projects\HelloWorld/pins_teensy.c:553
    107e:	d818      	bhi.n	10b2 <analogWrite+0x42>
C:\Teensy\Projects\HelloWorld/pins_teensy.c:554
    1080:	f893 31b4 	ldrb.w	r3, [r3, #436]	; 0x1b4
C:\Teensy\Projects\HelloWorld/pins_teensy.c:555
    1084:	2b0b      	cmp	r3, #11
    1086:	d804      	bhi.n	1092 <analogWrite+0x22>
C:\Teensy\Projects\HelloWorld/pins_teensy.c:556
    1088:	f1c3 030c 	rsb	r3, r3, #12
    108c:	fa01 f203 	lsl.w	r2, r1, r3
    1090:	e004      	b.n	109c <analogWrite+0x2c>
C:\Teensy\Projects\HelloWorld/pins_teensy.c:557
    1092:	2b0c      	cmp	r3, #12
C:\Teensy\Projects\HelloWorld/pins_teensy.c:558
    1094:	bf1c      	itt	ne
    1096:	3b0c      	subne	r3, #12
    1098:	fa41 f203 	asrne.w	r2, r1, r3
C:\Teensy\Projects\HelloWorld/pins_teensy.c:560
    109c:	2c42      	cmp	r4, #66	; 0x42
    109e:	4610      	mov	r0, r2
    10a0:	d103      	bne.n	10aa <analogWrite+0x3a>
C:\Teensy\Projects\HelloWorld/pins_teensy.c:743 (discriminator 1)
    10a2:	e8bd 4070 	ldmia.w	sp!, {r4, r5, r6, lr}
C:\Teensy\Projects\HelloWorld/pins_teensy.c:560 (discriminator 1)
    10a6:	f7ff bb79 	b.w	79c <analogWriteDAC0>
C:\Teensy\Projects\HelloWorld/pins_teensy.c:743
    10aa:	e8bd 4070 	ldmia.w	sp!, {r4, r5, r6, lr}
C:\Teensy\Projects\HelloWorld/pins_teensy.c:561
    10ae:	f7ff bb8f 	b.w	7d0 <analogWriteDAC1>
C:\Teensy\Projects\HelloWorld/pins_teensy.c:566
    10b2:	f893 51b4 	ldrb.w	r5, [r3, #436]	; 0x1b4
    10b6:	2601      	movs	r6, #1
C:\Teensy\Projects\HelloWorld/pins_teensy.c:567
    10b8:	2900      	cmp	r1, #0
C:\Teensy\Projects\HelloWorld/pins_teensy.c:566
    10ba:	fa06 f305 	lsl.w	r3, r6, r5
C:\Teensy\Projects\HelloWorld/pins_teensy.c:568
    10be:	bfd8      	it	le
    10c0:	2100      	movle	r1, #0
C:\Teensy\Projects\HelloWorld/pins_teensy.c:567
    10c2:	dd02      	ble.n	10ca <analogWrite+0x5a>
C:\Teensy\Projects\HelloWorld/pins_teensy.c:571
    10c4:	429a      	cmp	r2, r3
    10c6:	d305      	bcc.n	10d4 <analogWrite+0x64>
C:\Teensy\Projects\HelloWorld/pins_teensy.c:572
    10c8:	4631      	mov	r1, r6
    10ca:	f7ff ff21 	bl	f10 <digitalWrite>
C:\Teensy\Projects\HelloWorld/pins_teensy.c:573
    10ce:	4620      	mov	r0, r4
    10d0:	4631      	mov	r1, r6
    10d2:	e0c8      	b.n	1266 <analogWrite+0x1f6>
C:\Teensy\Projects\HelloWorld/pins_teensy.c:584
    10d4:	1ec3      	subs	r3, r0, #3
    10d6:	2b01      	cmp	r3, #1
    10d8:	d801      	bhi.n	10de <analogWrite+0x6e>
C:\Teensy\Projects\HelloWorld/pins_teensy.c:585
    10da:	4b66      	ldr	r3, [pc, #408]	; (1274 <analogWrite+0x204>)
    10dc:	e018      	b.n	1110 <analogWrite+0xa0>
C:\Teensy\Projects\HelloWorld/pins_teensy.c:587
    10de:	f1a0 031d 	sub.w	r3, r0, #29
    10e2:	2b01      	cmp	r3, #1
    10e4:	d801      	bhi.n	10ea <analogWrite+0x7a>
C:\Teensy\Projects\HelloWorld/pins_teensy.c:588
    10e6:	4b64      	ldr	r3, [pc, #400]	; (1278 <analogWrite+0x208>)
    10e8:	e012      	b.n	1110 <analogWrite+0xa0>
C:\Teensy\Projects\HelloWorld/pins_teensy.c:591
    10ea:	2802      	cmp	r0, #2
    10ec:	d008      	beq.n	1100 <analogWrite+0x90>
C:\Teensy\Projects\HelloWorld/pins_teensy.c:591 (discriminator 1)
    10ee:	280e      	cmp	r0, #14
    10f0:	d006      	beq.n	1100 <analogWrite+0x90>
    10f2:	1fc3      	subs	r3, r0, #7
    10f4:	2b01      	cmp	r3, #1
    10f6:	d903      	bls.n	1100 <analogWrite+0x90>
C:\Teensy\Projects\HelloWorld/pins_teensy.c:592 (discriminator 1)
    10f8:	f1a0 0323 	sub.w	r3, r0, #35	; 0x23
    10fc:	2b03      	cmp	r3, #3
    10fe:	d801      	bhi.n	1104 <analogWrite+0x94>
C:\Teensy\Projects\HelloWorld/pins_teensy.c:594
    1100:	4b5e      	ldr	r3, [pc, #376]	; (127c <analogWrite+0x20c>)
    1102:	e005      	b.n	1110 <analogWrite+0xa0>
C:\Teensy\Projects\HelloWorld/pins_teensy.c:597
    1104:	f1a0 0310 	sub.w	r3, r0, #16
    1108:	2b01      	cmp	r3, #1
C:\Teensy\Projects\HelloWorld/pins_teensy.c:598
    110a:	bf94      	ite	ls
    110c:	4b5c      	ldrls	r3, [pc, #368]	; (1280 <analogWrite+0x210>)
C:\Teensy\Projects\HelloWorld/pins_teensy.c:601
    110e:	4b5d      	ldrhi	r3, [pc, #372]	; (1284 <analogWrite+0x214>)
    1110:	681b      	ldr	r3, [r3, #0]
C:\Teensy\Projects\HelloWorld/pins_teensy.c:606
    1112:	1ea1      	subs	r1, r4, #2
C:\Teensy\Projects\HelloWorld/pins_teensy.c:601
    1114:	fb03 2302 	mla	r3, r3, r2, r2
    1118:	40eb      	lsrs	r3, r5
C:\Teensy\Projects\HelloWorld/pins_teensy.c:606
    111a:	2924      	cmp	r1, #36	; 0x24
    111c:	f200 809a 	bhi.w	1254 <analogWrite+0x1e4>
    1120:	e8df f001 	tbb	[pc, r1]
    1124:	3d49435b 	.word	0x3d49435b
    1128:	1f6d672b 	.word	0x1f6d672b
    112c:	98989825 	.word	0x98989825
    1130:	918b9861 	.word	0x918b9861
    1134:	37319898 	.word	0x37319898
    1138:	98981913 	.word	0x98981913
    113c:	4f989898 	.word	0x4f989898
    1140:	98989855 	.word	0x98989855
    1144:	7f797398 	.word	0x7f797398
    1148:	85          	.byte	0x85
    1149:	00          	.byte	0x00
C:\Teensy\Projects\HelloWorld/pins_teensy.c:609
    114a:	4a4f      	ldr	r2, [pc, #316]	; (1288 <analogWrite+0x218>)
    114c:	6013      	str	r3, [r2, #0]
C:\Teensy\Projects\HelloWorld/pins_teensy.c:610
    114e:	f240 4244 	movw	r2, #1092	; 0x444
    1152:	4b4e      	ldr	r3, [pc, #312]	; (128c <analogWrite+0x21c>)
    1154:	e07c      	b.n	1250 <analogWrite+0x1e0>
C:\Teensy\Projects\HelloWorld/pins_teensy.c:615
    1156:	4a4e      	ldr	r2, [pc, #312]	; (1290 <analogWrite+0x220>)
    1158:	6013      	str	r3, [r2, #0]
C:\Teensy\Projects\HelloWorld/pins_teensy.c:616
    115a:	f240 4244 	movw	r2, #1092	; 0x444
    115e:	4b4d      	ldr	r3, [pc, #308]	; (1294 <analogWrite+0x224>)
    1160:	e076      	b.n	1250 <analogWrite+0x1e0>
C:\Teensy\Projects\HelloWorld/pins_teensy.c:621
    1162:	4a4d      	ldr	r2, [pc, #308]	; (1298 <analogWrite+0x228>)
    1164:	6013      	str	r3, [r2, #0]
C:\Teensy\Projects\HelloWorld/pins_teensy.c:622
    1166:	f240 4244 	movw	r2, #1092	; 0x444
    116a:	4b4c      	ldr	r3, [pc, #304]	; (129c <analogWrite+0x22c>)
    116c:	e070      	b.n	1250 <analogWrite+0x1e0>
C:\Teensy\Projects\HelloWorld/pins_teensy.c:627
    116e:	4a4c      	ldr	r2, [pc, #304]	; (12a0 <analogWrite+0x230>)
    1170:	6013      	str	r3, [r2, #0]
C:\Teensy\Projects\HelloWorld/pins_teensy.c:628
    1172:	f240 4244 	movw	r2, #1092	; 0x444
    1176:	4b4b      	ldr	r3, [pc, #300]	; (12a4 <analogWrite+0x234>)
    1178:	e06a      	b.n	1250 <analogWrite+0x1e0>
C:\Teensy\Projects\HelloWorld/pins_teensy.c:633
    117a:	4a4b      	ldr	r2, [pc, #300]	; (12a8 <analogWrite+0x238>)
    117c:	6013      	str	r3, [r2, #0]
C:\Teensy\Projects\HelloWorld/pins_teensy.c:634
    117e:	f240 4244 	movw	r2, #1092	; 0x444
    1182:	4b4a      	ldr	r3, [pc, #296]	; (12ac <analogWrite+0x23c>)
    1184:	e064      	b.n	1250 <analogWrite+0x1e0>
C:\Teensy\Projects\HelloWorld/pins_teensy.c:639
    1186:	4a4a      	ldr	r2, [pc, #296]	; (12b0 <analogWrite+0x240>)
    1188:	6013      	str	r3, [r2, #0]
C:\Teensy\Projects\HelloWorld/pins_teensy.c:640
    118a:	f240 4244 	movw	r2, #1092	; 0x444
    118e:	4b49      	ldr	r3, [pc, #292]	; (12b4 <analogWrite+0x244>)
    1190:	e05e      	b.n	1250 <analogWrite+0x1e0>
C:\Teensy\Projects\HelloWorld/pins_teensy.c:645
    1192:	4a49      	ldr	r2, [pc, #292]	; (12b8 <analogWrite+0x248>)
    1194:	6013      	str	r3, [r2, #0]
C:\Teensy\Projects\HelloWorld/pins_teensy.c:646
    1196:	f240 4244 	movw	r2, #1092	; 0x444
    119a:	4b48      	ldr	r3, [pc, #288]	; (12bc <analogWrite+0x24c>)
    119c:	e058      	b.n	1250 <analogWrite+0x1e0>
C:\Teensy\Projects\HelloWorld/pins_teensy.c:651
    119e:	4a48      	ldr	r2, [pc, #288]	; (12c0 <analogWrite+0x250>)
    11a0:	6013      	str	r3, [r2, #0]
C:\Teensy\Projects\HelloWorld/pins_teensy.c:652
    11a2:	f240 4244 	movw	r2, #1092	; 0x444
    11a6:	4b47      	ldr	r3, [pc, #284]	; (12c4 <analogWrite+0x254>)
    11a8:	e052      	b.n	1250 <analogWrite+0x1e0>
C:\Teensy\Projects\HelloWorld/pins_teensy.c:657
    11aa:	4a47      	ldr	r2, [pc, #284]	; (12c8 <analogWrite+0x258>)
    11ac:	6013      	str	r3, [r2, #0]
C:\Teensy\Projects\HelloWorld/pins_teensy.c:658
    11ae:	f44f 7251 	mov.w	r2, #836	; 0x344
    11b2:	4b46      	ldr	r3, [pc, #280]	; (12cc <analogWrite+0x25c>)
    11b4:	e04c      	b.n	1250 <analogWrite+0x1e0>
C:\Teensy\Projects\HelloWorld/pins_teensy.c:663
    11b6:	4a46      	ldr	r2, [pc, #280]	; (12d0 <analogWrite+0x260>)
    11b8:	6013      	str	r3, [r2, #0]
C:\Teensy\Projects\HelloWorld/pins_teensy.c:664
    11ba:	f44f 7251 	mov.w	r2, #836	; 0x344
    11be:	4b45      	ldr	r3, [pc, #276]	; (12d4 <analogWrite+0x264>)
    11c0:	e046      	b.n	1250 <analogWrite+0x1e0>
C:\Teensy\Projects\HelloWorld/pins_teensy.c:669
    11c2:	4a45      	ldr	r2, [pc, #276]	; (12d8 <analogWrite+0x268>)
    11c4:	6013      	str	r3, [r2, #0]
C:\Teensy\Projects\HelloWorld/pins_teensy.c:670
    11c6:	f44f 7251 	mov.w	r2, #836	; 0x344
    11ca:	4b44      	ldr	r3, [pc, #272]	; (12dc <analogWrite+0x26c>)
    11cc:	e040      	b.n	1250 <analogWrite+0x1e0>
C:\Teensy\Projects\HelloWorld/pins_teensy.c:675
    11ce:	4a44      	ldr	r2, [pc, #272]	; (12e0 <analogWrite+0x270>)
    11d0:	6013      	str	r3, [r2, #0]
C:\Teensy\Projects\HelloWorld/pins_teensy.c:676
    11d2:	f44f 7251 	mov.w	r2, #836	; 0x344
    11d6:	4b43      	ldr	r3, [pc, #268]	; (12e4 <analogWrite+0x274>)
    11d8:	e03a      	b.n	1250 <analogWrite+0x1e0>
C:\Teensy\Projects\HelloWorld/pins_teensy.c:681
    11da:	4a43      	ldr	r2, [pc, #268]	; (12e8 <analogWrite+0x278>)
    11dc:	6013      	str	r3, [r2, #0]
C:\Teensy\Projects\HelloWorld/pins_teensy.c:682
    11de:	f240 4244 	movw	r2, #1092	; 0x444
    11e2:	4b42      	ldr	r3, [pc, #264]	; (12ec <analogWrite+0x27c>)
    11e4:	e034      	b.n	1250 <analogWrite+0x1e0>
C:\Teensy\Projects\HelloWorld/pins_teensy.c:687
    11e6:	4a42      	ldr	r2, [pc, #264]	; (12f0 <analogWrite+0x280>)
    11e8:	6013      	str	r3, [r2, #0]
C:\Teensy\Projects\HelloWorld/pins_teensy.c:688
    11ea:	f240 4244 	movw	r2, #1092	; 0x444
    11ee:	4b41      	ldr	r3, [pc, #260]	; (12f4 <analogWrite+0x284>)
    11f0:	e02e      	b.n	1250 <analogWrite+0x1e0>
C:\Teensy\Projects\HelloWorld/pins_teensy.c:693
    11f2:	4a41      	ldr	r2, [pc, #260]	; (12f8 <analogWrite+0x288>)
    11f4:	6013      	str	r3, [r2, #0]
C:\Teensy\Projects\HelloWorld/pins_teensy.c:694
    11f6:	f240 4244 	movw	r2, #1092	; 0x444
    11fa:	4b40      	ldr	r3, [pc, #256]	; (12fc <analogWrite+0x28c>)
    11fc:	e028      	b.n	1250 <analogWrite+0x1e0>
C:\Teensy\Projects\HelloWorld/pins_teensy.c:699
    11fe:	4a40      	ldr	r2, [pc, #256]	; (1300 <analogWrite+0x290>)
    1200:	6013      	str	r3, [r2, #0]
C:\Teensy\Projects\HelloWorld/pins_teensy.c:700
    1202:	f240 4244 	movw	r2, #1092	; 0x444
    1206:	4b3f      	ldr	r3, [pc, #252]	; (1304 <analogWrite+0x294>)
    1208:	e022      	b.n	1250 <analogWrite+0x1e0>
C:\Teensy\Projects\HelloWorld/pins_teensy.c:705
    120a:	4a3f      	ldr	r2, [pc, #252]	; (1308 <analogWrite+0x298>)
    120c:	6013      	str	r3, [r2, #0]
C:\Teensy\Projects\HelloWorld/pins_teensy.c:706
    120e:	f44f 7251 	mov.w	r2, #836	; 0x344
    1212:	4b3e      	ldr	r3, [pc, #248]	; (130c <analogWrite+0x29c>)
    1214:	e01c      	b.n	1250 <analogWrite+0x1e0>
C:\Teensy\Projects\HelloWorld/pins_teensy.c:711
    1216:	4a3e      	ldr	r2, [pc, #248]	; (1310 <analogWrite+0x2a0>)
    1218:	6013      	str	r3, [r2, #0]
C:\Teensy\Projects\HelloWorld/pins_teensy.c:712
    121a:	f44f 7251 	mov.w	r2, #836	; 0x344
    121e:	4b3d      	ldr	r3, [pc, #244]	; (1314 <analogWrite+0x2a4>)
    1220:	e016      	b.n	1250 <analogWrite+0x1e0>
C:\Teensy\Projects\HelloWorld/pins_teensy.c:717
    1222:	4a3d      	ldr	r2, [pc, #244]	; (1318 <analogWrite+0x2a8>)
    1224:	6013      	str	r3, [r2, #0]
C:\Teensy\Projects\HelloWorld/pins_teensy.c:718
    1226:	f44f 7251 	mov.w	r2, #836	; 0x344
    122a:	4b3c      	ldr	r3, [pc, #240]	; (131c <analogWrite+0x2ac>)
    122c:	e010      	b.n	1250 <analogWrite+0x1e0>
C:\Teensy\Projects\HelloWorld/pins_teensy.c:723
    122e:	4a3c      	ldr	r2, [pc, #240]	; (1320 <analogWrite+0x2b0>)
    1230:	6013      	str	r3, [r2, #0]
C:\Teensy\Projects\HelloWorld/pins_teensy.c:724
    1232:	f44f 7251 	mov.w	r2, #836	; 0x344
    1236:	4b3b      	ldr	r3, [pc, #236]	; (1324 <analogWrite+0x2b4>)
    1238:	e00a      	b.n	1250 <analogWrite+0x1e0>
C:\Teensy\Projects\HelloWorld/pins_teensy.c:729
    123a:	4a3b      	ldr	r2, [pc, #236]	; (1328 <analogWrite+0x2b8>)
    123c:	6013      	str	r3, [r2, #0]
C:\Teensy\Projects\HelloWorld/pins_teensy.c:730
    123e:	f240 6244 	movw	r2, #1604	; 0x644
    1242:	4b3a      	ldr	r3, [pc, #232]	; (132c <analogWrite+0x2bc>)
    1244:	e004      	b.n	1250 <analogWrite+0x1e0>
C:\Teensy\Projects\HelloWorld/pins_teensy.c:735
    1246:	4a3a      	ldr	r2, [pc, #232]	; (1330 <analogWrite+0x2c0>)
    1248:	6013      	str	r3, [r2, #0]
C:\Teensy\Projects\HelloWorld/pins_teensy.c:736
    124a:	4b3a      	ldr	r3, [pc, #232]	; (1334 <analogWrite+0x2c4>)
    124c:	f240 6244 	movw	r2, #1604	; 0x644
    1250:	601a      	str	r2, [r3, #0]
C:\Teensy\Projects\HelloWorld/pins_teensy.c:737
    1252:	bd70      	pop	{r4, r5, r6, pc}
C:\Teensy\Projects\HelloWorld/pins_teensy.c:740
    1254:	2a7f      	cmp	r2, #127	; 0x7f
    1256:	4620      	mov	r0, r4
    1258:	bfd4      	ite	le
    125a:	2100      	movle	r1, #0
    125c:	2101      	movgt	r1, #1
    125e:	f7ff fe57 	bl	f10 <digitalWrite>
C:\Teensy\Projects\HelloWorld/pins_teensy.c:741
    1262:	4620      	mov	r0, r4
    1264:	2101      	movs	r1, #1
C:\Teensy\Projects\HelloWorld/pins_teensy.c:743
    1266:	e8bd 4070 	ldmia.w	sp!, {r4, r5, r6, lr}
C:\Teensy\Projects\HelloWorld/pins_teensy.c:741
    126a:	f7ff be7f 	b.w	f6c <pinMode>
    126e:	bf00      	nop
    1270:	1fff0850 	.word	0x1fff0850
    1274:	40039008 	.word	0x40039008
    1278:	400b8008 	.word	0x400b8008
    127c:	400b9008 	.word	0x400b9008
    1280:	400c9008 	.word	0x400c9008
    1284:	40038008 	.word	0x40038008
    1288:	40038010 	.word	0x40038010
    128c:	4004b004 	.word	0x4004b004
    1290:	40038018 	.word	0x40038018
    1294:	4004b008 	.word	0x4004b008
    1298:	40038020 	.word	0x40038020
    129c:	4004b00c 	.word	0x4004b00c
    12a0:	40038028 	.word	0x40038028
    12a4:	4004b010 	.word	0x4004b010
    12a8:	40038030 	.word	0x40038030
    12ac:	4004c010 	.word	0x4004c010
    12b0:	40038038 	.word	0x40038038
    12b4:	4004c014 	.word	0x4004c014
    12b8:	40038040 	.word	0x40038040
    12bc:	4004c018 	.word	0x4004c018
    12c0:	40038048 	.word	0x40038048
    12c4:	4004c01c 	.word	0x4004c01c
    12c8:	40039010 	.word	0x40039010
    12cc:	40049030 	.word	0x40049030
    12d0:	40039018 	.word	0x40039018
    12d4:	40049034 	.word	0x40049034
    12d8:	400b8010 	.word	0x400b8010
    12dc:	4004a048 	.word	0x4004a048
    12e0:	400b8018 	.word	0x400b8018
    12e4:	4004a04c 	.word	0x4004a04c
    12e8:	400b9010 	.word	0x400b9010
    12ec:	4004c000 	.word	0x4004c000
    12f0:	400b9018 	.word	0x400b9018
    12f4:	4004c004 	.word	0x4004c004
    12f8:	400b9020 	.word	0x400b9020
    12fc:	4004c008 	.word	0x4004c008
    1300:	400b9028 	.word	0x400b9028
    1304:	4004c00c 	.word	0x4004c00c
    1308:	400b9030 	.word	0x400b9030
    130c:	4004b020 	.word	0x4004b020
    1310:	400b9038 	.word	0x400b9038
    1314:	4004b024 	.word	0x4004b024
    1318:	400b9040 	.word	0x400b9040
    131c:	4004b028 	.word	0x4004b028
    1320:	400b9048 	.word	0x400b9048
    1324:	4004b02c 	.word	0x4004b02c
    1328:	400c9010 	.word	0x400c9010
    132c:	4004a000 	.word	0x4004a000
    1330:	400c9018 	.word	0x400c9018
    1334:	4004a004 	.word	0x4004a004

00001338 <shiftOut_lsbFirst>:
shiftOut_lsbFirst():
C:\Teensy\Projects\HelloWorld/pins_teensy.c:924
    1338:	e92d 41f0 	stmdb	sp!, {r4, r5, r6, r7, r8, lr}
    133c:	4607      	mov	r7, r0
    133e:	460e      	mov	r6, r1
    1340:	4690      	mov	r8, r2
    1342:	2408      	movs	r4, #8
C:\Teensy\Projects\HelloWorld/pins_teensy.c:926
    1344:	2501      	movs	r5, #1
C:\Teensy\Projects\HelloWorld/pins_teensy.c:927 (discriminator 2)
    1346:	ea05 0108 	and.w	r1, r5, r8
    134a:	4638      	mov	r0, r7
    134c:	f7ff fde0 	bl	f10 <digitalWrite>
C:\Teensy\Projects\HelloWorld/pins_teensy.c:928 (discriminator 2)
    1350:	4630      	mov	r0, r6
    1352:	2101      	movs	r1, #1
    1354:	f7ff fddc 	bl	f10 <digitalWrite>
C:\Teensy\Projects\HelloWorld/pins_teensy.c:929 (discriminator 2)
    1358:	4630      	mov	r0, r6
    135a:	2100      	movs	r1, #0
    135c:	f7ff fdd8 	bl	f10 <digitalWrite>
C:\Teensy\Projects\HelloWorld/pins_teensy.c:926 (discriminator 2)
    1360:	006d      	lsls	r5, r5, #1
    1362:	3c01      	subs	r4, #1
    1364:	b2ed      	uxtb	r5, r5
    1366:	d1ee      	bne.n	1346 <shiftOut_lsbFirst+0xe>
C:\Teensy\Projects\HelloWorld/pins_teensy.c:931
    1368:	e8bd 81f0 	ldmia.w	sp!, {r4, r5, r6, r7, r8, pc}

0000136c <shiftOut_msbFirst>:
shiftOut_msbFirst():
C:\Teensy\Projects\HelloWorld/pins_teensy.c:934
    136c:	e92d 41f0 	stmdb	sp!, {r4, r5, r6, r7, r8, lr}
    1370:	4607      	mov	r7, r0
    1372:	460e      	mov	r6, r1
    1374:	4690      	mov	r8, r2
    1376:	2408      	movs	r4, #8
C:\Teensy\Projects\HelloWorld/pins_teensy.c:936
    1378:	2580      	movs	r5, #128	; 0x80
C:\Teensy\Projects\HelloWorld/pins_teensy.c:937 (discriminator 2)
    137a:	ea05 0108 	and.w	r1, r5, r8
    137e:	4638      	mov	r0, r7
    1380:	f7ff fdc6 	bl	f10 <digitalWrite>
C:\Teensy\Projects\HelloWorld/pins_teensy.c:938 (discriminator 2)
    1384:	4630      	mov	r0, r6
    1386:	2101      	movs	r1, #1
    1388:	f7ff fdc2 	bl	f10 <digitalWrite>
C:\Teensy\Projects\HelloWorld/pins_teensy.c:939 (discriminator 2)
    138c:	4630      	mov	r0, r6
    138e:	2100      	movs	r1, #0
    1390:	f7ff fdbe 	bl	f10 <digitalWrite>
C:\Teensy\Projects\HelloWorld/pins_teensy.c:936 (discriminator 2)
    1394:	3c01      	subs	r4, #1
    1396:	ea4f 0555 	mov.w	r5, r5, lsr #1
    139a:	d1ee      	bne.n	137a <shiftOut_msbFirst+0xe>
C:\Teensy\Projects\HelloWorld/pins_teensy.c:941
    139c:	e8bd 81f0 	ldmia.w	sp!, {r4, r5, r6, r7, r8, pc}

000013a0 <_shiftOut>:
_shiftOut():
C:\Teensy\Projects\HelloWorld/pins_teensy.c:916
    13a0:	b912      	cbnz	r2, 13a8 <_shiftOut+0x8>
C:\Teensy\Projects\HelloWorld/pins_teensy.c:917
    13a2:	461a      	mov	r2, r3
    13a4:	f7ff bfc8 	b.w	1338 <shiftOut_lsbFirst>
C:\Teensy\Projects\HelloWorld/pins_teensy.c:919
    13a8:	461a      	mov	r2, r3
    13aa:	f7ff bfdf 	b.w	136c <shiftOut_msbFirst>

000013ae <shiftIn_lsbFirst>:
shiftIn_lsbFirst():
C:\Teensy\Projects\HelloWorld/pins_teensy.c:953
    13ae:	e92d 41f0 	stmdb	sp!, {r4, r5, r6, r7, r8, lr}
    13b2:	4680      	mov	r8, r0
    13b4:	460f      	mov	r7, r1
    13b6:	2408      	movs	r4, #8
C:\Teensy\Projects\HelloWorld/pins_teensy.c:954
    13b8:	2500      	movs	r5, #0
C:\Teensy\Projects\HelloWorld/pins_teensy.c:955
    13ba:	2601      	movs	r6, #1
C:\Teensy\Projects\HelloWorld/pins_teensy.c:956
    13bc:	4638      	mov	r0, r7
    13be:	2101      	movs	r1, #1
    13c0:	f7ff fda6 	bl	f10 <digitalWrite>
C:\Teensy\Projects\HelloWorld/pins_teensy.c:957
    13c4:	4640      	mov	r0, r8
    13c6:	f7ff fdc3 	bl	f50 <digitalRead>
    13ca:	b100      	cbz	r0, 13ce <shiftIn_lsbFirst+0x20>
C:\Teensy\Projects\HelloWorld/pins_teensy.c:957 (discriminator 1)
    13cc:	4335      	orrs	r5, r6
C:\Teensy\Projects\HelloWorld/pins_teensy.c:958
    13ce:	4638      	mov	r0, r7
    13d0:	2100      	movs	r1, #0
    13d2:	f7ff fd9d 	bl	f10 <digitalWrite>
C:\Teensy\Projects\HelloWorld/pins_teensy.c:955
    13d6:	0076      	lsls	r6, r6, #1
    13d8:	3c01      	subs	r4, #1
    13da:	b2f6      	uxtb	r6, r6
    13dc:	d1ee      	bne.n	13bc <shiftIn_lsbFirst+0xe>
C:\Teensy\Projects\HelloWorld/pins_teensy.c:961
    13de:	4628      	mov	r0, r5
    13e0:	e8bd 81f0 	ldmia.w	sp!, {r4, r5, r6, r7, r8, pc}

000013e4 <shiftIn_msbFirst>:
shiftIn_msbFirst():
C:\Teensy\Projects\HelloWorld/pins_teensy.c:964
    13e4:	e92d 41f0 	stmdb	sp!, {r4, r5, r6, r7, r8, lr}
    13e8:	4680      	mov	r8, r0
    13ea:	460f      	mov	r7, r1
    13ec:	2408      	movs	r4, #8
C:\Teensy\Projects\HelloWorld/pins_teensy.c:965
    13ee:	2500      	movs	r5, #0
C:\Teensy\Projects\HelloWorld/pins_teensy.c:966
    13f0:	2680      	movs	r6, #128	; 0x80
C:\Teensy\Projects\HelloWorld/pins_teensy.c:967
    13f2:	4638      	mov	r0, r7
    13f4:	2101      	movs	r1, #1
    13f6:	f7ff fd8b 	bl	f10 <digitalWrite>
C:\Teensy\Projects\HelloWorld/pins_teensy.c:968
    13fa:	4640      	mov	r0, r8
    13fc:	f7ff fda8 	bl	f50 <digitalRead>
    1400:	b100      	cbz	r0, 1404 <shiftIn_msbFirst+0x20>
C:\Teensy\Projects\HelloWorld/pins_teensy.c:968 (discriminator 1)
    1402:	4335      	orrs	r5, r6
C:\Teensy\Projects\HelloWorld/pins_teensy.c:969
    1404:	4638      	mov	r0, r7
    1406:	2100      	movs	r1, #0
    1408:	f7ff fd82 	bl	f10 <digitalWrite>
C:\Teensy\Projects\HelloWorld/pins_teensy.c:966
    140c:	3c01      	subs	r4, #1
    140e:	ea4f 0656 	mov.w	r6, r6, lsr #1
    1412:	d1ee      	bne.n	13f2 <shiftIn_msbFirst+0xe>
C:\Teensy\Projects\HelloWorld/pins_teensy.c:972
    1414:	4628      	mov	r0, r5
    1416:	e8bd 81f0 	ldmia.w	sp!, {r4, r5, r6, r7, r8, pc}

0000141a <_shiftIn>:
_shiftIn():
C:\Teensy\Projects\HelloWorld/pins_teensy.c:945
    141a:	b90a      	cbnz	r2, 1420 <_shiftIn+0x6>
C:\Teensy\Projects\HelloWorld/pins_teensy.c:946
    141c:	f7ff bfc7 	b.w	13ae <shiftIn_lsbFirst>
C:\Teensy\Projects\HelloWorld/pins_teensy.c:948
    1420:	f7ff bfe0 	b.w	13e4 <shiftIn_msbFirst>

00001424 <micros>:
micros():
C:\Teensy\Projects\HelloWorld/pins_teensy.c:985
    1424:	b672      	cpsid	i
C:\Teensy\Projects\HelloWorld/pins_teensy.c:986
    1426:	4b0b      	ldr	r3, [pc, #44]	; (1454 <micros+0x30>)
C:\Teensy\Projects\HelloWorld/pins_teensy.c:988
    1428:	490b      	ldr	r1, [pc, #44]	; (1458 <micros+0x34>)
C:\Teensy\Projects\HelloWorld/pins_teensy.c:986
    142a:	681a      	ldr	r2, [r3, #0]
C:\Teensy\Projects\HelloWorld/pins_teensy.c:987
    142c:	4b0b      	ldr	r3, [pc, #44]	; (145c <micros+0x38>)
    142e:	681b      	ldr	r3, [r3, #0]
C:\Teensy\Projects\HelloWorld/pins_teensy.c:988
    1430:	6809      	ldr	r1, [r1, #0]
C:\Teensy\Projects\HelloWorld/pins_teensy.c:989
    1432:	b662      	cpsie	i
C:\Teensy\Projects\HelloWorld/pins_teensy.c:993
    1434:	0149      	lsls	r1, r1, #5
    1436:	d502      	bpl.n	143e <micros+0x1a>
C:\Teensy\Projects\HelloWorld/pins_teensy.c:993 (discriminator 1)
    1438:	2a32      	cmp	r2, #50	; 0x32
    143a:	bf88      	it	hi
    143c:	3301      	addhi	r3, #1
C:\Teensy\Projects\HelloWorld/pins_teensy.c:994
    143e:	f5c2 32ea 	rsb	r2, r2, #119808	; 0x1d400
C:\Teensy\Projects\HelloWorld/pins_teensy.c:999
    1442:	2178      	movs	r1, #120	; 0x78
C:\Teensy\Projects\HelloWorld/pins_teensy.c:994
    1444:	32bf      	adds	r2, #191	; 0xbf
C:\Teensy\Projects\HelloWorld/pins_teensy.c:999
    1446:	fbb2 f2f1 	udiv	r2, r2, r1
C:\Teensy\Projects\HelloWorld/pins_teensy.c:1000
    144a:	f44f 707a 	mov.w	r0, #1000	; 0x3e8
    144e:	fb00 2003 	mla	r0, r0, r3, r2
    1452:	4770      	bx	lr
    1454:	e000e018 	.word	0xe000e018
    1458:	e000ed04 	.word	0xe000ed04
    145c:	1fff0b7c 	.word	0x1fff0b7c

00001460 <delay>:
delay():
C:\Teensy\Projects\HelloWorld/pins_teensy.c:1003
    1460:	b538      	push	{r3, r4, r5, lr}
    1462:	4604      	mov	r4, r0
C:\Teensy\Projects\HelloWorld/pins_teensy.c:1004
    1464:	f7ff ffde 	bl	1424 <micros>
    1468:	4605      	mov	r5, r0
C:\Teensy\Projects\HelloWorld/pins_teensy.c:1006
    146a:	b924      	cbnz	r4, 1476 <delay+0x16>
    146c:	bd38      	pop	{r3, r4, r5, pc}
C:\Teensy\Projects\HelloWorld/pins_teensy.c:1010
    146e:	3c01      	subs	r4, #1
    1470:	d00a      	beq.n	1488 <delay+0x28>
C:\Teensy\Projects\HelloWorld/pins_teensy.c:1011
    1472:	f505 757a 	add.w	r5, r5, #1000	; 0x3e8
C:\Teensy\Projects\HelloWorld/pins_teensy.c:1008 (discriminator 1)
    1476:	f7ff ffd5 	bl	1424 <micros>
    147a:	1b40      	subs	r0, r0, r5
    147c:	f5b0 7f7a 	cmp.w	r0, #1000	; 0x3e8
    1480:	d2f5      	bcs.n	146e <delay+0xe>
C:\Teensy\Projects\HelloWorld/pins_teensy.c:1013
    1482:	f004 f899 	bl	55b8 <yield>
C:\Teensy\Projects\HelloWorld/pins_teensy.c:1014
    1486:	e7f6      	b.n	1476 <delay+0x16>
    1488:	bd38      	pop	{r3, r4, r5, pc}

0000148a <_init_Teensyduino_internal_>:
_init_Teensyduino_internal_():
C:\Teensy\Projects\HelloWorld/pins_teensy.c:450
    148a:	4b36      	ldr	r3, [pc, #216]	; (1564 <_init_Teensyduino_internal_+0xda>)
C:\Teensy\Projects\HelloWorld/pins_teensy.c:460
    148c:	4936      	ldr	r1, [pc, #216]	; (1568 <_init_Teensyduino_internal_+0xde>)
C:\Teensy\Projects\HelloWorld/pins_teensy.c:450
    148e:	f04f 6200 	mov.w	r2, #134217728	; 0x8000000
C:\Teensy\Projects\HelloWorld/pins_teensy.c:448
    1492:	b570      	push	{r4, r5, r6, lr}
C:\Teensy\Projects\HelloWorld/pins_teensy.c:450
    1494:	601a      	str	r2, [r3, #0]
C:\Teensy\Projects\HelloWorld/pins_teensy.c:451
    1496:	f04f 5280 	mov.w	r2, #268435456	; 0x10000000
    149a:	601a      	str	r2, [r3, #0]
C:\Teensy\Projects\HelloWorld/pins_teensy.c:452
    149c:	f04f 5200 	mov.w	r2, #536870912	; 0x20000000
    14a0:	601a      	str	r2, [r3, #0]
C:\Teensy\Projects\HelloWorld/pins_teensy.c:453
    14a2:	f04f 4280 	mov.w	r2, #1073741824	; 0x40000000
    14a6:	601a      	str	r2, [r3, #0]
C:\Teensy\Projects\HelloWorld/pins_teensy.c:454
    14a8:	f04f 4200 	mov.w	r2, #2147483648	; 0x80000000
    14ac:	601a      	str	r2, [r3, #0]
C:\Teensy\Projects\HelloWorld/pins_teensy.c:458
    14ae:	4b2f      	ldr	r3, [pc, #188]	; (156c <_init_Teensyduino_internal_+0xe2>)
C:\Teensy\Projects\HelloWorld/pins_teensy.c:471
    14b0:	4d2f      	ldr	r5, [pc, #188]	; (1570 <_init_Teensyduino_internal_+0xe6>)
C:\Teensy\Projects\HelloWorld/pins_teensy.c:472
    14b2:	4c30      	ldr	r4, [pc, #192]	; (1574 <_init_Teensyduino_internal_+0xea>)
C:\Teensy\Projects\HelloWorld/pins_teensy.c:480
    14b4:	4e30      	ldr	r6, [pc, #192]	; (1578 <_init_Teensyduino_internal_+0xee>)
C:\Teensy\Projects\HelloWorld/pins_teensy.c:458
    14b6:	2200      	movs	r2, #0
C:\Teensy\Projects\HelloWorld/pins_teensy.c:459
    14b8:	f64e 70ff 	movw	r0, #61439	; 0xefff
C:\Teensy\Projects\HelloWorld/pins_teensy.c:458
    14bc:	601a      	str	r2, [r3, #0]
C:\Teensy\Projects\HelloWorld/pins_teensy.c:459
    14be:	6058      	str	r0, [r3, #4]
C:\Teensy\Projects\HelloWorld/pins_teensy.c:460
    14c0:	2328      	movs	r3, #40	; 0x28
    14c2:	600b      	str	r3, [r1, #0]
C:\Teensy\Projects\HelloWorld/pins_teensy.c:461
    14c4:	608b      	str	r3, [r1, #8]
C:\Teensy\Projects\HelloWorld/pins_teensy.c:462
    14c6:	610b      	str	r3, [r1, #16]
C:\Teensy\Projects\HelloWorld/pins_teensy.c:463
    14c8:	618b      	str	r3, [r1, #24]
C:\Teensy\Projects\HelloWorld/pins_teensy.c:464
    14ca:	620b      	str	r3, [r1, #32]
C:\Teensy\Projects\HelloWorld/pins_teensy.c:465
    14cc:	628b      	str	r3, [r1, #40]	; 0x28
C:\Teensy\Projects\HelloWorld/pins_teensy.c:467
    14ce:	630b      	str	r3, [r1, #48]	; 0x30
C:\Teensy\Projects\HelloWorld/pins_teensy.c:468
    14d0:	638b      	str	r3, [r1, #56]	; 0x38
C:\Teensy\Projects\HelloWorld/pins_teensy.c:462
    14d2:	3110      	adds	r1, #16
C:\Teensy\Projects\HelloWorld/pins_teensy.c:473
    14d4:	f501 2101 	add.w	r1, r1, #528384	; 0x81000
C:\Teensy\Projects\HelloWorld/pins_teensy.c:471
    14d8:	602b      	str	r3, [r5, #0]
C:\Teensy\Projects\HelloWorld/pins_teensy.c:472
    14da:	6023      	str	r3, [r4, #0]
C:\Teensy\Projects\HelloWorld/pins_teensy.c:473
    14dc:	600b      	str	r3, [r1, #0]
C:\Teensy\Projects\HelloWorld/pins_teensy.c:474
    14de:	608b      	str	r3, [r1, #8]
C:\Teensy\Projects\HelloWorld/pins_teensy.c:475
    14e0:	610b      	str	r3, [r1, #16]
C:\Teensy\Projects\HelloWorld/pins_teensy.c:476
    14e2:	618b      	str	r3, [r1, #24]
C:\Teensy\Projects\HelloWorld/pins_teensy.c:477
    14e4:	620b      	str	r3, [r1, #32]
C:\Teensy\Projects\HelloWorld/pins_teensy.c:478
    14e6:	628b      	str	r3, [r1, #40]	; 0x28
C:\Teensy\Projects\HelloWorld/pins_teensy.c:480
    14e8:	2109      	movs	r1, #9
    14ea:	6031      	str	r1, [r6, #0]
C:\Teensy\Projects\HelloWorld/pins_teensy.c:481
    14ec:	f506 5680 	add.w	r6, r6, #4096	; 0x1000
    14f0:	3604      	adds	r6, #4
    14f2:	6032      	str	r2, [r6, #0]
C:\Teensy\Projects\HelloWorld/pins_teensy.c:482
    14f4:	6070      	str	r0, [r6, #4]
C:\Teensy\Projects\HelloWorld/pins_teensy.c:483
    14f6:	60b3      	str	r3, [r6, #8]
C:\Teensy\Projects\HelloWorld/pins_teensy.c:484
    14f8:	6133      	str	r3, [r6, #16]
C:\Teensy\Projects\HelloWorld/pins_teensy.c:485
    14fa:	f846 1c04 	str.w	r1, [r6, #-4]
C:\Teensy\Projects\HelloWorld/pins_teensy.c:487
    14fe:	f506 26fe 	add.w	r6, r6, #520192	; 0x7f000
    1502:	6032      	str	r2, [r6, #0]
C:\Teensy\Projects\HelloWorld/pins_teensy.c:488
    1504:	6070      	str	r0, [r6, #4]
C:\Teensy\Projects\HelloWorld/pins_teensy.c:489
    1506:	60b3      	str	r3, [r6, #8]
C:\Teensy\Projects\HelloWorld/pins_teensy.c:490
    1508:	6133      	str	r3, [r6, #16]
C:\Teensy\Projects\HelloWorld/pins_teensy.c:491
    150a:	f846 1c04 	str.w	r1, [r6, #-4]
C:\Teensy\Projects\HelloWorld/pins_teensy.c:493
    150e:	f506 5680 	add.w	r6, r6, #4096	; 0x1000
    1512:	6032      	str	r2, [r6, #0]
C:\Teensy\Projects\HelloWorld/pins_teensy.c:494
    1514:	6070      	str	r0, [r6, #4]
C:\Teensy\Projects\HelloWorld/pins_teensy.c:497
    1516:	4819      	ldr	r0, [pc, #100]	; (157c <_init_Teensyduino_internal_+0xf2>)
C:\Teensy\Projects\HelloWorld/pins_teensy.c:495
    1518:	602b      	str	r3, [r5, #0]
C:\Teensy\Projects\HelloWorld/pins_teensy.c:496
    151a:	6023      	str	r3, [r4, #0]
C:\Teensy\Projects\HelloWorld/pins_teensy.c:497
    151c:	6001      	str	r1, [r0, #0]
C:\Teensy\Projects\HelloWorld/pins_teensy.c:499
    151e:	4918      	ldr	r1, [pc, #96]	; (1580 <_init_Teensyduino_internal_+0xf6>)
    1520:	6808      	ldr	r0, [r1, #0]
    1522:	f440 7000 	orr.w	r0, r0, #512	; 0x200
    1526:	6008      	str	r0, [r1, #0]
C:\Teensy\Projects\HelloWorld/pins_teensy.c:500
    1528:	f851 0c28 	ldr.w	r0, [r1, #-40]
    152c:	f040 7000 	orr.w	r0, r0, #33554432	; 0x2000000
    1530:	f841 0c28 	str.w	r0, [r1, #-40]
    1534:	3928      	subs	r1, #40	; 0x28
C:\Teensy\Projects\HelloWorld/pins_teensy.c:501
    1536:	f501 2101 	add.w	r1, r1, #528384	; 0x81000
    153a:	600a      	str	r2, [r1, #0]
C:\Teensy\Projects\HelloWorld/pins_teensy.c:502
    153c:	4a11      	ldr	r2, [pc, #68]	; (1584 <_init_Teensyduino_internal_+0xfa>)
    153e:	f647 71ff 	movw	r1, #32767	; 0x7fff
    1542:	6011      	str	r1, [r2, #0]
C:\Teensy\Projects\HelloWorld/pins_teensy.c:503
    1544:	6053      	str	r3, [r2, #4]
C:\Teensy\Projects\HelloWorld/pins_teensy.c:504
    1546:	60d3      	str	r3, [r2, #12]
C:\Teensy\Projects\HelloWorld/pins_teensy.c:505
    1548:	4b0f      	ldr	r3, [pc, #60]	; (1588 <_init_Teensyduino_internal_+0xfe>)
    154a:	2208      	movs	r2, #8
    154c:	601a      	str	r2, [r3, #0]
C:\Teensy\Projects\HelloWorld/pins_teensy.c:507
    154e:	f7fe fffb 	bl	548 <analog_init>
C:\Teensy\Projects\HelloWorld/pins_teensy.c:511
    1552:	f44f 70c8 	mov.w	r0, #400	; 0x190
    1556:	f7ff ff83 	bl	1460 <delay>
C:\Teensy\Projects\HelloWorld/pins_teensy.c:513
    155a:	e8bd 4070 	ldmia.w	sp!, {r4, r5, r6, lr}
C:\Teensy\Projects\HelloWorld/pins_teensy.c:512
    155e:	f002 bc4f 	b.w	3e00 <usb_init>
    1562:	bf00      	nop
    1564:	e000e104 	.word	0xe000e104
    1568:	4003800c 	.word	0x4003800c
    156c:	40038004 	.word	0x40038004
    1570:	400b900c 	.word	0x400b900c
    1574:	400b9014 	.word	0x400b9014
    1578:	40038000 	.word	0x40038000
    157c:	400b9000 	.word	0x400b9000
    1580:	4004802c 	.word	0x4004802c
    1584:	400c9008 	.word	0x400c9008
    1588:	400c9000 	.word	0x400c9000

0000158c <pulseIn_high>:
pulseIn_high():
C:\Teensy\Projects\HelloWorld/pins_teensy.c:1052
    158c:	b570      	push	{r4, r5, r6, lr}
C:\Teensy\Projects\HelloWorld/pins_teensy.c:1053
    158e:	2412      	movs	r4, #18
C:\Teensy\Projects\HelloWorld/pins_teensy.c:1052
    1590:	4605      	mov	r5, r0
C:\Teensy\Projects\HelloWorld/pins_teensy.c:1053
    1592:	434c      	muls	r4, r1
C:\Teensy\Projects\HelloWorld/pins_teensy.c:1057 (discriminator 1)
    1594:	782b      	ldrb	r3, [r5, #0]
    1596:	b12b      	cbz	r3, 15a4 <pulseIn_high+0x18>
C:\Teensy\Projects\HelloWorld/pins_teensy.c:1058
    1598:	3c01      	subs	r4, #1
    159a:	d1fb      	bne.n	1594 <pulseIn_high+0x8>
    159c:	2000      	movs	r0, #0
    159e:	bd70      	pop	{r4, r5, r6, pc}
C:\Teensy\Projects\HelloWorld/pins_teensy.c:1062
    15a0:	3c01      	subs	r4, #1
    15a2:	d0fb      	beq.n	159c <pulseIn_high+0x10>
C:\Teensy\Projects\HelloWorld/pins_teensy.c:1061 (discriminator 1)
    15a4:	782b      	ldrb	r3, [r5, #0]
    15a6:	2b00      	cmp	r3, #0
    15a8:	d0fa      	beq.n	15a0 <pulseIn_high+0x14>
C:\Teensy\Projects\HelloWorld/pins_teensy.c:1064
    15aa:	f7ff ff3b 	bl	1424 <micros>
    15ae:	4606      	mov	r6, r0
C:\Teensy\Projects\HelloWorld/pins_teensy.c:1066 (discriminator 1)
    15b0:	782b      	ldrb	r3, [r5, #0]
    15b2:	b113      	cbz	r3, 15ba <pulseIn_high+0x2e>
C:\Teensy\Projects\HelloWorld/pins_teensy.c:1067
    15b4:	3c01      	subs	r4, #1
    15b6:	d1fb      	bne.n	15b0 <pulseIn_high+0x24>
    15b8:	e7f0      	b.n	159c <pulseIn_high+0x10>
C:\Teensy\Projects\HelloWorld/pins_teensy.c:1069
    15ba:	f7ff ff33 	bl	1424 <micros>
C:\Teensy\Projects\HelloWorld/pins_teensy.c:1070
    15be:	1b80      	subs	r0, r0, r6
C:\Teensy\Projects\HelloWorld/pins_teensy.c:1071
    15c0:	bd70      	pop	{r4, r5, r6, pc}

000015c2 <pulseIn_low>:
pulseIn_low():
C:\Teensy\Projects\HelloWorld/pins_teensy.c:1074
    15c2:	b570      	push	{r4, r5, r6, lr}
C:\Teensy\Projects\HelloWorld/pins_teensy.c:1075
    15c4:	2412      	movs	r4, #18
C:\Teensy\Projects\HelloWorld/pins_teensy.c:1074
    15c6:	4605      	mov	r5, r0
C:\Teensy\Projects\HelloWorld/pins_teensy.c:1075
    15c8:	434c      	muls	r4, r1
C:\Teensy\Projects\HelloWorld/pins_teensy.c:1079 (discriminator 1)
    15ca:	782b      	ldrb	r3, [r5, #0]
    15cc:	b92b      	cbnz	r3, 15da <pulseIn_low+0x18>
C:\Teensy\Projects\HelloWorld/pins_teensy.c:1080
    15ce:	3c01      	subs	r4, #1
    15d0:	d1fb      	bne.n	15ca <pulseIn_low+0x8>
    15d2:	2000      	movs	r0, #0
    15d4:	bd70      	pop	{r4, r5, r6, pc}
C:\Teensy\Projects\HelloWorld/pins_teensy.c:1084
    15d6:	3c01      	subs	r4, #1
    15d8:	d0fb      	beq.n	15d2 <pulseIn_low+0x10>
C:\Teensy\Projects\HelloWorld/pins_teensy.c:1083 (discriminator 1)
    15da:	782b      	ldrb	r3, [r5, #0]
    15dc:	2b00      	cmp	r3, #0
    15de:	d1fa      	bne.n	15d6 <pulseIn_low+0x14>
C:\Teensy\Projects\HelloWorld/pins_teensy.c:1086
    15e0:	f7ff ff20 	bl	1424 <micros>
    15e4:	4606      	mov	r6, r0
C:\Teensy\Projects\HelloWorld/pins_teensy.c:1088 (discriminator 1)
    15e6:	782b      	ldrb	r3, [r5, #0]
    15e8:	b913      	cbnz	r3, 15f0 <pulseIn_low+0x2e>
C:\Teensy\Projects\HelloWorld/pins_teensy.c:1089
    15ea:	3c01      	subs	r4, #1
    15ec:	d1fb      	bne.n	15e6 <pulseIn_low+0x24>
    15ee:	e7f0      	b.n	15d2 <pulseIn_low+0x10>
C:\Teensy\Projects\HelloWorld/pins_teensy.c:1091
    15f0:	f7ff ff18 	bl	1424 <micros>
C:\Teensy\Projects\HelloWorld/pins_teensy.c:1092
    15f4:	1b80      	subs	r0, r0, r6
C:\Teensy\Projects\HelloWorld/pins_teensy.c:1093
    15f6:	bd70      	pop	{r4, r5, r6, pc}

000015f8 <pulseIn>:
pulseIn():
C:\Teensy\Projects\HelloWorld/pins_teensy.c:1098
    15f8:	283f      	cmp	r0, #63	; 0x3f
    15fa:	d80b      	bhi.n	1614 <pulseIn+0x1c>
    15fc:	4b06      	ldr	r3, [pc, #24]	; (1618 <pulseIn+0x20>)
C:\Teensy\Projects\HelloWorld/pins_teensy.c:1099
    15fe:	f853 0030 	ldr.w	r0, [r3, r0, lsl #3]
    1602:	f500 7000 	add.w	r0, r0, #512	; 0x200
    1606:	b111      	cbz	r1, 160e <pulseIn+0x16>
C:\Teensy\Projects\HelloWorld/pins_teensy.c:1099 (discriminator 1)
    1608:	4611      	mov	r1, r2
    160a:	f7ff bfbf 	b.w	158c <pulseIn_high>
C:\Teensy\Projects\HelloWorld/pins_teensy.c:1100
    160e:	4611      	mov	r1, r2
    1610:	f7ff bfd7 	b.w	15c2 <pulseIn_low>
C:\Teensy\Projects\HelloWorld/pins_teensy.c:1101
    1614:	2000      	movs	r0, #0
    1616:	4770      	bx	lr
    1618:	00009ecc 	.word	0x00009ecc

0000161c <serial_begin>:
serial_begin():
C:\Teensy\Projects\HelloWorld/serial1.c:113
    161c:	4b26      	ldr	r3, [pc, #152]	; (16b8 <serial_begin+0x9c>)
    161e:	681a      	ldr	r2, [r3, #0]
    1620:	f442 6280 	orr.w	r2, r2, #1024	; 0x400
    1624:	601a      	str	r2, [r3, #0]
C:\Teensy\Projects\HelloWorld/serial1.c:114
    1626:	4b25      	ldr	r3, [pc, #148]	; (16bc <serial_begin+0xa0>)
    1628:	2200      	movs	r2, #0
    162a:	701a      	strb	r2, [r3, #0]
C:\Teensy\Projects\HelloWorld/serial1.c:115
    162c:	705a      	strb	r2, [r3, #1]
C:\Teensy\Projects\HelloWorld/serial1.c:116
    162e:	709a      	strb	r2, [r3, #2]
C:\Teensy\Projects\HelloWorld/serial1.c:117
    1630:	70da      	strb	r2, [r3, #3]
C:\Teensy\Projects\HelloWorld/serial1.c:118
    1632:	711a      	strb	r2, [r3, #4]
C:\Teensy\Projects\HelloWorld/serial1.c:119
    1634:	795b      	ldrb	r3, [r3, #5]
    1636:	2b15      	cmp	r3, #21
    1638:	d006      	beq.n	1648 <serial_begin+0x2c>
    163a:	2b1b      	cmp	r3, #27
    163c:	d008      	beq.n	1650 <serial_begin+0x34>
    163e:	b95b      	cbnz	r3, 1658 <serial_begin+0x3c>
C:\Teensy\Projects\HelloWorld/serial1.c:120
    1640:	f240 3213 	movw	r2, #787	; 0x313
    1644:	4b1e      	ldr	r3, [pc, #120]	; (16c0 <serial_begin+0xa4>)
    1646:	e006      	b.n	1656 <serial_begin+0x3a>
C:\Teensy\Projects\HelloWorld/serial1.c:121
    1648:	f240 3213 	movw	r2, #787	; 0x313
    164c:	4b1d      	ldr	r3, [pc, #116]	; (16c4 <serial_begin+0xa8>)
    164e:	e002      	b.n	1656 <serial_begin+0x3a>
C:\Teensy\Projects\HelloWorld/serial1.c:126
    1650:	4b1d      	ldr	r3, [pc, #116]	; (16c8 <serial_begin+0xac>)
    1652:	f240 3213 	movw	r2, #787	; 0x313
    1656:	601a      	str	r2, [r3, #0]
C:\Teensy\Projects\HelloWorld/serial1.c:129
    1658:	4b1c      	ldr	r3, [pc, #112]	; (16cc <serial_begin+0xb0>)
    165a:	781b      	ldrb	r3, [r3, #0]
    165c:	2b05      	cmp	r3, #5
    165e:	d007      	beq.n	1670 <serial_begin+0x54>
    1660:	2b1a      	cmp	r3, #26
    1662:	d009      	beq.n	1678 <serial_begin+0x5c>
    1664:	2b01      	cmp	r3, #1
    1666:	d10b      	bne.n	1680 <serial_begin+0x64>
C:\Teensy\Projects\HelloWorld/serial1.c:130
    1668:	f44f 7251 	mov.w	r2, #836	; 0x344
    166c:	4b18      	ldr	r3, [pc, #96]	; (16d0 <serial_begin+0xb4>)
    166e:	e006      	b.n	167e <serial_begin+0x62>
C:\Teensy\Projects\HelloWorld/serial1.c:131
    1670:	f44f 7251 	mov.w	r2, #836	; 0x344
    1674:	4b17      	ldr	r3, [pc, #92]	; (16d4 <serial_begin+0xb8>)
    1676:	e002      	b.n	167e <serial_begin+0x62>
C:\Teensy\Projects\HelloWorld/serial1.c:136
    1678:	4b17      	ldr	r3, [pc, #92]	; (16d8 <serial_begin+0xbc>)
    167a:	f44f 7251 	mov.w	r2, #836	; 0x344
    167e:	601a      	str	r2, [r3, #0]
C:\Teensy\Projects\HelloWorld/serial1.c:140
    1680:	4b16      	ldr	r3, [pc, #88]	; (16dc <serial_begin+0xc0>)
    1682:	f3c0 3244 	ubfx	r2, r0, #13, #5
    1686:	701a      	strb	r2, [r3, #0]
C:\Teensy\Projects\HelloWorld/serial1.c:141
    1688:	f3c0 1247 	ubfx	r2, r0, #5, #8
    168c:	705a      	strb	r2, [r3, #1]
C:\Teensy\Projects\HelloWorld/serial1.c:142
    168e:	f000 001f 	and.w	r0, r0, #31
C:\Teensy\Projects\HelloWorld/serial1.c:144
    1692:	2204      	movs	r2, #4
C:\Teensy\Projects\HelloWorld/serial1.c:145
    1694:	2102      	movs	r1, #2
C:\Teensy\Projects\HelloWorld/serial1.c:142
    1696:	7298      	strb	r0, [r3, #10]
C:\Teensy\Projects\HelloWorld/serial1.c:144
    1698:	709a      	strb	r2, [r3, #2]
C:\Teensy\Projects\HelloWorld/serial1.c:145
    169a:	74d9      	strb	r1, [r3, #19]
C:\Teensy\Projects\HelloWorld/serial1.c:146
    169c:	755a      	strb	r2, [r3, #21]
C:\Teensy\Projects\HelloWorld/serial1.c:147
    169e:	2288      	movs	r2, #136	; 0x88
    16a0:	741a      	strb	r2, [r3, #16]
C:\Teensy\Projects\HelloWorld/serial1.c:157
    16a2:	223c      	movs	r2, #60	; 0x3c
    16a4:	70da      	strb	r2, [r3, #3]
C:\Teensy\Projects\HelloWorld/serial1.c:158
    16a6:	4b0e      	ldr	r3, [pc, #56]	; (16e0 <serial_begin+0xc4>)
    16a8:	2240      	movs	r2, #64	; 0x40
    16aa:	701a      	strb	r2, [r3, #0]
C:\Teensy\Projects\HelloWorld/serial1.c:159
    16ac:	f2a3 331f 	subw	r3, r3, #799	; 0x31f
    16b0:	f04f 4200 	mov.w	r2, #2147483648	; 0x80000000
    16b4:	601a      	str	r2, [r3, #0]
    16b6:	4770      	bx	lr
    16b8:	40048034 	.word	0x40048034
    16bc:	1fff0b80 	.word	0x1fff0b80
    16c0:	4004a040 	.word	0x4004a040
    16c4:	4004c018 	.word	0x4004c018
    16c8:	4004903c 	.word	0x4004903c
    16cc:	1fff0a08 	.word	0x1fff0a08
    16d0:	4004a044 	.word	0x4004a044
    16d4:	4004c01c 	.word	0x4004c01c
    16d8:	40049038 	.word	0x40049038
    16dc:	4006a000 	.word	0x4006a000
    16e0:	e000e41f 	.word	0xe000e41f

000016e4 <serial_format>:
serial_format():
C:\Teensy\Projects\HelloWorld/serial1.c:166
    16e4:	4a19      	ldr	r2, [pc, #100]	; (174c <serial_format+0x68>)
    16e6:	7893      	ldrb	r3, [r2, #2]
C:\Teensy\Projects\HelloWorld/serial1.c:167
    16e8:	f000 0103 	and.w	r1, r0, #3
    16ec:	f003 03ec 	and.w	r3, r3, #236	; 0xec
    16f0:	430b      	orrs	r3, r1
C:\Teensy\Projects\HelloWorld/serial1.c:168
    16f2:	0741      	lsls	r1, r0, #29
    16f4:	bf48      	it	mi
    16f6:	f043 0310 	orrmi.w	r3, r3, #16
C:\Teensy\Projects\HelloWorld/serial1.c:169
    16fa:	7093      	strb	r3, [r2, #2]
C:\Teensy\Projects\HelloWorld/serial1.c:170
    16fc:	f000 030f 	and.w	r3, r0, #15
    1700:	2b04      	cmp	r3, #4
C:\Teensy\Projects\HelloWorld/serial1.c:169
    1702:	4912      	ldr	r1, [pc, #72]	; (174c <serial_format+0x68>)
C:\Teensy\Projects\HelloWorld/serial1.c:170
    1704:	d103      	bne.n	170e <serial_format+0x2a>
C:\Teensy\Projects\HelloWorld/serial1.c:170 (discriminator 1)
    1706:	798b      	ldrb	r3, [r1, #6]
    1708:	f043 0340 	orr.w	r3, r3, #64	; 0x40
    170c:	718b      	strb	r3, [r1, #6]
C:\Teensy\Projects\HelloWorld/serial1.c:171
    170e:	7952      	ldrb	r2, [r2, #5]
C:\Teensy\Projects\HelloWorld/serial1.c:173
    1710:	4b0e      	ldr	r3, [pc, #56]	; (174c <serial_format+0x68>)
C:\Teensy\Projects\HelloWorld/serial1.c:171
    1712:	f002 02ef 	and.w	r2, r2, #239	; 0xef
C:\Teensy\Projects\HelloWorld/serial1.c:172
    1716:	06c1      	lsls	r1, r0, #27
    1718:	bf48      	it	mi
    171a:	f042 0210 	orrmi.w	r2, r2, #16
C:\Teensy\Projects\HelloWorld/serial1.c:173
    171e:	715a      	strb	r2, [r3, #5]
C:\Teensy\Projects\HelloWorld/serial1.c:174
    1720:	799a      	ldrb	r2, [r3, #6]
C:\Teensy\Projects\HelloWorld/serial1.c:175
    1722:	f010 0f20 	tst.w	r0, #32
C:\Teensy\Projects\HelloWorld/serial1.c:174
    1726:	f002 02ef 	and.w	r2, r2, #239	; 0xef
    172a:	4619      	mov	r1, r3
C:\Teensy\Projects\HelloWorld/serial1.c:175
    172c:	bf18      	it	ne
    172e:	f042 0210 	orrne.w	r2, r2, #16
C:\Teensy\Projects\HelloWorld/serial1.c:176
    1732:	718a      	strb	r2, [r1, #6]
C:\Teensy\Projects\HelloWorld/serial1.c:185
    1734:	05c2      	lsls	r2, r0, #23
C:\Teensy\Projects\HelloWorld/serial1.c:176
    1736:	4b05      	ldr	r3, [pc, #20]	; (174c <serial_format+0x68>)
C:\Teensy\Projects\HelloWorld/serial1.c:185
    1738:	d506      	bpl.n	1748 <serial_format+0x64>
C:\Teensy\Projects\HelloWorld/serial1.c:186
    173a:	785a      	ldrb	r2, [r3, #1]
C:\Teensy\Projects\HelloWorld/serial1.c:187
    173c:	7819      	ldrb	r1, [r3, #0]
C:\Teensy\Projects\HelloWorld/serial1.c:186
    173e:	b2d2      	uxtb	r2, r2
C:\Teensy\Projects\HelloWorld/serial1.c:187
    1740:	f041 0120 	orr.w	r1, r1, #32
    1744:	7019      	strb	r1, [r3, #0]
C:\Teensy\Projects\HelloWorld/serial1.c:188
    1746:	705a      	strb	r2, [r3, #1]
    1748:	4770      	bx	lr
    174a:	bf00      	nop
    174c:	4006a000 	.word	0x4006a000

00001750 <serial_end>:
serial_end():
C:\Teensy\Projects\HelloWorld/serial1.c:194
    1750:	b508      	push	{r3, lr}
C:\Teensy\Projects\HelloWorld/serial1.c:195
    1752:	4b0f      	ldr	r3, [pc, #60]	; (1790 <serial_end+0x40>)
    1754:	681b      	ldr	r3, [r3, #0]
    1756:	055b      	lsls	r3, r3, #21
    1758:	d400      	bmi.n	175c <serial_end+0xc>
    175a:	bd08      	pop	{r3, pc}
C:\Teensy\Projects\HelloWorld/serial1.c:196 (discriminator 1)
    175c:	4b0d      	ldr	r3, [pc, #52]	; (1794 <serial_end+0x44>)
    175e:	7919      	ldrb	r1, [r3, #4]
    1760:	f001 02ff 	and.w	r2, r1, #255	; 0xff
    1764:	b111      	cbz	r1, 176c <serial_end+0x1c>
C:\Teensy\Projects\HelloWorld/serial1.c:196 (discriminator 2)
    1766:	f003 ff27 	bl	55b8 <yield>
    176a:	e7f7      	b.n	175c <serial_end+0xc>
C:\Teensy\Projects\HelloWorld/serial1.c:197
    176c:	490a      	ldr	r1, [pc, #40]	; (1798 <serial_end+0x48>)
    176e:	f04f 4000 	mov.w	r0, #2147483648	; 0x80000000
    1772:	6008      	str	r0, [r1, #0]
C:\Teensy\Projects\HelloWorld/serial1.c:198
    1774:	4909      	ldr	r1, [pc, #36]	; (179c <serial_end+0x4c>)
C:\Teensy\Projects\HelloWorld/serial1.c:199
    1776:	480a      	ldr	r0, [pc, #40]	; (17a0 <serial_end+0x50>)
C:\Teensy\Projects\HelloWorld/serial1.c:198
    1778:	70ca      	strb	r2, [r1, #3]
C:\Teensy\Projects\HelloWorld/serial1.c:199
    177a:	f240 1103 	movw	r1, #259	; 0x103
    177e:	6001      	str	r1, [r0, #0]
C:\Teensy\Projects\HelloWorld/serial1.c:200
    1780:	6041      	str	r1, [r0, #4]
C:\Teensy\Projects\HelloWorld/serial1.c:201
    1782:	701a      	strb	r2, [r3, #0]
C:\Teensy\Projects\HelloWorld/serial1.c:202
    1784:	705a      	strb	r2, [r3, #1]
C:\Teensy\Projects\HelloWorld/serial1.c:203
    1786:	689b      	ldr	r3, [r3, #8]
    1788:	b10b      	cbz	r3, 178e <serial_end+0x3e>
C:\Teensy\Projects\HelloWorld/serial1.c:203 (discriminator 1)
    178a:	2201      	movs	r2, #1
    178c:	701a      	strb	r2, [r3, #0]
    178e:	bd08      	pop	{r3, pc}
    1790:	40048034 	.word	0x40048034
    1794:	1fff0b80 	.word	0x1fff0b80
    1798:	e000e180 	.word	0xe000e180
    179c:	4006a000 	.word	0x4006a000
    17a0:	4004a040 	.word	0x4004a040

000017a4 <serial_set_transmit_pin>:
serial_set_transmit_pin():
C:\Teensy\Projects\HelloWorld/serial1.c:207
    17a4:	b570      	push	{r4, r5, r6, lr}
    17a6:	4604      	mov	r4, r0
C:\Teensy\Projects\HelloWorld/serial1.c:208 (discriminator 1)
    17a8:	4d09      	ldr	r5, [pc, #36]	; (17d0 <serial_set_transmit_pin+0x2c>)
    17aa:	792b      	ldrb	r3, [r5, #4]
    17ac:	f003 06ff 	and.w	r6, r3, #255	; 0xff
    17b0:	2b00      	cmp	r3, #0
    17b2:	d1f9      	bne.n	17a8 <serial_set_transmit_pin+0x4>
C:\Teensy\Projects\HelloWorld/serial1.c:209
    17b4:	4620      	mov	r0, r4
    17b6:	2101      	movs	r1, #1
    17b8:	f7ff fbd8 	bl	f6c <pinMode>
C:\Teensy\Projects\HelloWorld/serial1.c:210
    17bc:	4620      	mov	r0, r4
    17be:	4631      	mov	r1, r6
    17c0:	f7ff fba6 	bl	f10 <digitalWrite>
C:\Teensy\Projects\HelloWorld/serial1.c:211
    17c4:	4b03      	ldr	r3, [pc, #12]	; (17d4 <serial_set_transmit_pin+0x30>)
    17c6:	f853 3034 	ldr.w	r3, [r3, r4, lsl #3]
    17ca:	60eb      	str	r3, [r5, #12]
    17cc:	bd70      	pop	{r4, r5, r6, pc}
    17ce:	bf00      	nop
    17d0:	1fff0b80 	.word	0x1fff0b80
    17d4:	00009ecc 	.word	0x00009ecc

000017d8 <serial_set_tx>:
serial_set_tx():
C:\Teensy\Projects\HelloWorld/serial1.c:218
    17d8:	b510      	push	{r4, lr}
C:\Teensy\Projects\HelloWorld/serial1.c:221
    17da:	b109      	cbz	r1, 17e0 <serial_set_tx+0x8>
C:\Teensy\Projects\HelloWorld/serial1.c:221 (discriminator 1)
    17dc:	f040 0080 	orr.w	r0, r0, #128	; 0x80
C:\Teensy\Projects\HelloWorld/serial1.c:222
    17e0:	4a19      	ldr	r2, [pc, #100]	; (1848 <serial_set_tx+0x70>)
    17e2:	7813      	ldrb	r3, [r2, #0]
    17e4:	4298      	cmp	r0, r3
    17e6:	4614      	mov	r4, r2
    17e8:	d02d      	beq.n	1846 <serial_set_tx+0x6e>
C:\Teensy\Projects\HelloWorld/serial1.c:223
    17ea:	4a18      	ldr	r2, [pc, #96]	; (184c <serial_set_tx+0x74>)
    17ec:	6812      	ldr	r2, [r2, #0]
    17ee:	0552      	lsls	r2, r2, #21
    17f0:	d528      	bpl.n	1844 <serial_set_tx+0x6c>
C:\Teensy\Projects\HelloWorld/serial1.c:224
    17f2:	f003 037f 	and.w	r3, r3, #127	; 0x7f
    17f6:	2b05      	cmp	r3, #5
    17f8:	d006      	beq.n	1808 <serial_set_tx+0x30>
    17fa:	2b1a      	cmp	r3, #26
    17fc:	d007      	beq.n	180e <serial_set_tx+0x36>
    17fe:	2b01      	cmp	r3, #1
    1800:	d108      	bne.n	1814 <serial_set_tx+0x3c>
C:\Teensy\Projects\HelloWorld/serial1.c:225
    1802:	2200      	movs	r2, #0
    1804:	4b12      	ldr	r3, [pc, #72]	; (1850 <serial_set_tx+0x78>)
    1806:	e004      	b.n	1812 <serial_set_tx+0x3a>
C:\Teensy\Projects\HelloWorld/serial1.c:226
    1808:	2200      	movs	r2, #0
    180a:	4b12      	ldr	r3, [pc, #72]	; (1854 <serial_set_tx+0x7c>)
    180c:	e001      	b.n	1812 <serial_set_tx+0x3a>
C:\Teensy\Projects\HelloWorld/serial1.c:232
    180e:	4b12      	ldr	r3, [pc, #72]	; (1858 <serial_set_tx+0x80>)
    1810:	2200      	movs	r2, #0
    1812:	601a      	str	r2, [r3, #0]
C:\Teensy\Projects\HelloWorld/serial1.c:236
    1814:	2900      	cmp	r1, #0
C:\Teensy\Projects\HelloWorld/serial1.c:240
    1816:	f000 027f 	and.w	r2, r0, #127	; 0x7f
C:\Teensy\Projects\HelloWorld/serial1.c:236
    181a:	bf0c      	ite	eq
    181c:	2344      	moveq	r3, #68	; 0x44
    181e:	2360      	movne	r3, #96	; 0x60
C:\Teensy\Projects\HelloWorld/serial1.c:240
    1820:	2a05      	cmp	r2, #5
    1822:	d007      	beq.n	1834 <serial_set_tx+0x5c>
    1824:	2a1a      	cmp	r2, #26
    1826:	d009      	beq.n	183c <serial_set_tx+0x64>
    1828:	2a01      	cmp	r2, #1
    182a:	d10b      	bne.n	1844 <serial_set_tx+0x6c>
C:\Teensy\Projects\HelloWorld/serial1.c:241
    182c:	f443 7340 	orr.w	r3, r3, #768	; 0x300
    1830:	4a07      	ldr	r2, [pc, #28]	; (1850 <serial_set_tx+0x78>)
    1832:	e006      	b.n	1842 <serial_set_tx+0x6a>
C:\Teensy\Projects\HelloWorld/serial1.c:242
    1834:	f443 7340 	orr.w	r3, r3, #768	; 0x300
    1838:	4a06      	ldr	r2, [pc, #24]	; (1854 <serial_set_tx+0x7c>)
    183a:	e002      	b.n	1842 <serial_set_tx+0x6a>
C:\Teensy\Projects\HelloWorld/serial1.c:248
    183c:	4a06      	ldr	r2, [pc, #24]	; (1858 <serial_set_tx+0x80>)
    183e:	f443 7340 	orr.w	r3, r3, #768	; 0x300
    1842:	6013      	str	r3, [r2, #0]
C:\Teensy\Projects\HelloWorld/serial1.c:252
    1844:	7020      	strb	r0, [r4, #0]
    1846:	bd10      	pop	{r4, pc}
    1848:	1fff0a08 	.word	0x1fff0a08
    184c:	40048034 	.word	0x40048034
    1850:	4004a044 	.word	0x4004a044
    1854:	4004c01c 	.word	0x4004c01c
    1858:	40049038 	.word	0x40049038

0000185c <serial_set_rx>:
serial_set_rx():
C:\Teensy\Projects\HelloWorld/serial1.c:257
    185c:	4a14      	ldr	r2, [pc, #80]	; (18b0 <serial_set_rx+0x54>)
    185e:	7953      	ldrb	r3, [r2, #5]
    1860:	4298      	cmp	r0, r3
    1862:	d023      	beq.n	18ac <serial_set_rx+0x50>
C:\Teensy\Projects\HelloWorld/serial1.c:258
    1864:	4913      	ldr	r1, [pc, #76]	; (18b4 <serial_set_rx+0x58>)
    1866:	6809      	ldr	r1, [r1, #0]
    1868:	0549      	lsls	r1, r1, #21
    186a:	d51e      	bpl.n	18aa <serial_set_rx+0x4e>
C:\Teensy\Projects\HelloWorld/serial1.c:259
    186c:	2b15      	cmp	r3, #21
    186e:	d005      	beq.n	187c <serial_set_rx+0x20>
    1870:	2b1b      	cmp	r3, #27
    1872:	d006      	beq.n	1882 <serial_set_rx+0x26>
    1874:	b943      	cbnz	r3, 1888 <serial_set_rx+0x2c>
C:\Teensy\Projects\HelloWorld/serial1.c:260
    1876:	4910      	ldr	r1, [pc, #64]	; (18b8 <serial_set_rx+0x5c>)
    1878:	600b      	str	r3, [r1, #0]
    187a:	e005      	b.n	1888 <serial_set_rx+0x2c>
C:\Teensy\Projects\HelloWorld/serial1.c:261
    187c:	2100      	movs	r1, #0
    187e:	4b0f      	ldr	r3, [pc, #60]	; (18bc <serial_set_rx+0x60>)
    1880:	e001      	b.n	1886 <serial_set_rx+0x2a>
C:\Teensy\Projects\HelloWorld/serial1.c:267
    1882:	4b0f      	ldr	r3, [pc, #60]	; (18c0 <serial_set_rx+0x64>)
    1884:	2100      	movs	r1, #0
    1886:	6019      	str	r1, [r3, #0]
C:\Teensy\Projects\HelloWorld/serial1.c:270
    1888:	2815      	cmp	r0, #21
    188a:	d006      	beq.n	189a <serial_set_rx+0x3e>
    188c:	281b      	cmp	r0, #27
    188e:	d008      	beq.n	18a2 <serial_set_rx+0x46>
    1890:	b958      	cbnz	r0, 18aa <serial_set_rx+0x4e>
C:\Teensy\Projects\HelloWorld/serial1.c:271
    1892:	f240 3113 	movw	r1, #787	; 0x313
    1896:	4b08      	ldr	r3, [pc, #32]	; (18b8 <serial_set_rx+0x5c>)
    1898:	e006      	b.n	18a8 <serial_set_rx+0x4c>
C:\Teensy\Projects\HelloWorld/serial1.c:272
    189a:	f240 3113 	movw	r1, #787	; 0x313
    189e:	4b07      	ldr	r3, [pc, #28]	; (18bc <serial_set_rx+0x60>)
    18a0:	e002      	b.n	18a8 <serial_set_rx+0x4c>
C:\Teensy\Projects\HelloWorld/serial1.c:278
    18a2:	4b07      	ldr	r3, [pc, #28]	; (18c0 <serial_set_rx+0x64>)
    18a4:	f240 3113 	movw	r1, #787	; 0x313
    18a8:	6019      	str	r1, [r3, #0]
C:\Teensy\Projects\HelloWorld/serial1.c:282
    18aa:	7150      	strb	r0, [r2, #5]
    18ac:	4770      	bx	lr
    18ae:	bf00      	nop
    18b0:	1fff0b80 	.word	0x1fff0b80
    18b4:	40048034 	.word	0x40048034
    18b8:	4004a040 	.word	0x4004a040
    18bc:	4004c018 	.word	0x4004c018
    18c0:	4004903c 	.word	0x4004903c

000018c4 <serial_set_rts>:
serial_set_rts():
C:\Teensy\Projects\HelloWorld/serial1.c:289
    18c4:	4a0d      	ldr	r2, [pc, #52]	; (18fc <serial_set_rts+0x38>)
C:\Teensy\Projects\HelloWorld/serial1.c:288
    18c6:	b538      	push	{r3, r4, r5, lr}
C:\Teensy\Projects\HelloWorld/serial1.c:289
    18c8:	6814      	ldr	r4, [r2, #0]
    18ca:	f414 6280 	ands.w	r2, r4, #1024	; 0x400
    18ce:	f04f 0400 	mov.w	r4, #0
    18d2:	d010      	beq.n	18f6 <serial_set_rts+0x32>
C:\Teensy\Projects\HelloWorld/serial1.c:290
    18d4:	283f      	cmp	r0, #63	; 0x3f
    18d6:	4d0a      	ldr	r5, [pc, #40]	; (1900 <serial_set_rts+0x3c>)
    18d8:	d80a      	bhi.n	18f0 <serial_set_rts+0x2c>
C:\Teensy\Projects\HelloWorld/serial1.c:291
    18da:	4a0a      	ldr	r2, [pc, #40]	; (1904 <serial_set_rts+0x40>)
C:\Teensy\Projects\HelloWorld/serial1.c:295
    18dc:	2101      	movs	r1, #1
C:\Teensy\Projects\HelloWorld/serial1.c:291
    18de:	f852 3030 	ldr.w	r3, [r2, r0, lsl #3]
    18e2:	60ab      	str	r3, [r5, #8]
C:\Teensy\Projects\HelloWorld/serial1.c:295
    18e4:	f7ff fb42 	bl	f6c <pinMode>
C:\Teensy\Projects\HelloWorld/serial1.c:296
    18e8:	68ab      	ldr	r3, [r5, #8]
    18ea:	701c      	strb	r4, [r3, #0]
C:\Teensy\Projects\HelloWorld/serial1.c:312
    18ec:	2001      	movs	r0, #1
    18ee:	bd38      	pop	{r3, r4, r5, pc}
C:\Teensy\Projects\HelloWorld/serial1.c:298
    18f0:	60ac      	str	r4, [r5, #8]
C:\Teensy\Projects\HelloWorld/serial1.c:299
    18f2:	4620      	mov	r0, r4
    18f4:	bd38      	pop	{r3, r4, r5, pc}
C:\Teensy\Projects\HelloWorld/serial1.c:289
    18f6:	4610      	mov	r0, r2
C:\Teensy\Projects\HelloWorld/serial1.c:313
    18f8:	bd38      	pop	{r3, r4, r5, pc}
    18fa:	bf00      	nop
    18fc:	40048034 	.word	0x40048034
    1900:	1fff0b80 	.word	0x1fff0b80
    1904:	00009ecc 	.word	0x00009ecc

00001908 <serial_set_cts>:
serial_set_cts():
C:\Teensy\Projects\HelloWorld/serial1.c:318
    1908:	4b0e      	ldr	r3, [pc, #56]	; (1944 <serial_set_cts+0x3c>)
    190a:	681b      	ldr	r3, [r3, #0]
    190c:	f413 6380 	ands.w	r3, r3, #1024	; 0x400
    1910:	d016      	beq.n	1940 <serial_set_cts+0x38>
C:\Teensy\Projects\HelloWorld/serial1.c:319
    1912:	2812      	cmp	r0, #18
    1914:	4b0c      	ldr	r3, [pc, #48]	; (1948 <serial_set_cts+0x40>)
    1916:	d103      	bne.n	1920 <serial_set_cts+0x18>
C:\Teensy\Projects\HelloWorld/serial1.c:320
    1918:	f240 3102 	movw	r1, #770	; 0x302
    191c:	4a0b      	ldr	r2, [pc, #44]	; (194c <serial_set_cts+0x44>)
    191e:	e004      	b.n	192a <serial_set_cts+0x22>
C:\Teensy\Projects\HelloWorld/serial1.c:321
    1920:	2814      	cmp	r0, #20
    1922:	d109      	bne.n	1938 <serial_set_cts+0x30>
C:\Teensy\Projects\HelloWorld/serial1.c:322
    1924:	4a0a      	ldr	r2, [pc, #40]	; (1950 <serial_set_cts+0x48>)
    1926:	f240 3102 	movw	r1, #770	; 0x302
    192a:	6011      	str	r1, [r2, #0]
C:\Teensy\Projects\HelloWorld/serial1.c:327
    192c:	7b5a      	ldrb	r2, [r3, #13]
    192e:	f042 0201 	orr.w	r2, r2, #1
    1932:	735a      	strb	r2, [r3, #13]
C:\Teensy\Projects\HelloWorld/serial1.c:328
    1934:	2001      	movs	r0, #1
    1936:	4770      	bx	lr
C:\Teensy\Projects\HelloWorld/serial1.c:324
    1938:	7b5a      	ldrb	r2, [r3, #13]
    193a:	f002 02fe 	and.w	r2, r2, #254	; 0xfe
    193e:	735a      	strb	r2, [r3, #13]
C:\Teensy\Projects\HelloWorld/serial1.c:325
    1940:	2000      	movs	r0, #0
    1942:	4770      	bx	lr
    1944:	40048034 	.word	0x40048034
    1948:	4006a000 	.word	0x4006a000
    194c:	4004a00c 	.word	0x4004a00c
    1950:	4004c014 	.word	0x4004c014

00001954 <serial_putchar>:
serial_putchar():
C:\Teensy\Projects\HelloWorld/serial1.c:335
    1954:	b5f8      	push	{r3, r4, r5, r6, r7, lr}
C:\Teensy\Projects\HelloWorld/serial1.c:338
    1956:	4b1b      	ldr	r3, [pc, #108]	; (19c4 <serial_putchar+0x70>)
    1958:	681b      	ldr	r3, [r3, #0]
    195a:	055a      	lsls	r2, r3, #21
C:\Teensy\Projects\HelloWorld/serial1.c:335
    195c:	4607      	mov	r7, r0
C:\Teensy\Projects\HelloWorld/serial1.c:338
    195e:	d530      	bpl.n	19c2 <serial_putchar+0x6e>
C:\Teensy\Projects\HelloWorld/serial1.c:339
    1960:	4e19      	ldr	r6, [pc, #100]	; (19c8 <serial_putchar+0x74>)
    1962:	68f3      	ldr	r3, [r6, #12]
    1964:	b10b      	cbz	r3, 196a <serial_putchar+0x16>
    1966:	2201      	movs	r2, #1
    1968:	701a      	strb	r2, [r3, #0]
C:\Teensy\Projects\HelloWorld/serial1.c:340
    196a:	78b4      	ldrb	r4, [r6, #2]
C:\Teensy\Projects\HelloWorld/serial1.c:341
    196c:	3401      	adds	r4, #1
    196e:	2c40      	cmp	r4, #64	; 0x40
    1970:	bf28      	it	cs
    1972:	2400      	movcs	r4, #0
C:\Teensy\Projects\HelloWorld/serial1.c:342
    1974:	78f3      	ldrb	r3, [r6, #3]
    1976:	4d14      	ldr	r5, [pc, #80]	; (19c8 <serial_putchar+0x74>)
    1978:	42a3      	cmp	r3, r4
    197a:	d118      	bne.n	19ae <serial_putchar+0x5a>
C:\Teensy\Projects\HelloWorld/serial1.c:343
    197c:	f7ff f826 	bl	9cc <nvic_execution_priority>
C:\Teensy\Projects\HelloWorld/serial1.c:344
    1980:	2840      	cmp	r0, #64	; 0x40
    1982:	dc0f      	bgt.n	19a4 <serial_putchar+0x50>
C:\Teensy\Projects\HelloWorld/serial1.c:345
    1984:	4a11      	ldr	r2, [pc, #68]	; (19cc <serial_putchar+0x78>)
    1986:	7913      	ldrb	r3, [r2, #4]
    1988:	061b      	lsls	r3, r3, #24
    198a:	d5f3      	bpl.n	1974 <serial_putchar+0x20>
C:\Teensy\Projects\HelloWorld/serial1.c:346
    198c:	78eb      	ldrb	r3, [r5, #3]
C:\Teensy\Projects\HelloWorld/serial1.c:347
    198e:	3301      	adds	r3, #1
    1990:	2b40      	cmp	r3, #64	; 0x40
    1992:	bf28      	it	cs
    1994:	2300      	movcs	r3, #0
C:\Teensy\Projects\HelloWorld/serial1.c:348
    1996:	18f1      	adds	r1, r6, r3
C:\Teensy\Projects\HelloWorld/serial1.c:351
    1998:	b2db      	uxtb	r3, r3
C:\Teensy\Projects\HelloWorld/serial1.c:348
    199a:	7c09      	ldrb	r1, [r1, #16]
    199c:	b2c9      	uxtb	r1, r1
C:\Teensy\Projects\HelloWorld/serial1.c:350
    199e:	71d1      	strb	r1, [r2, #7]
C:\Teensy\Projects\HelloWorld/serial1.c:351
    19a0:	70f3      	strb	r3, [r6, #3]
    19a2:	e7e7      	b.n	1974 <serial_putchar+0x20>
C:\Teensy\Projects\HelloWorld/serial1.c:353
    19a4:	28ff      	cmp	r0, #255	; 0xff
    19a6:	dde5      	ble.n	1974 <serial_putchar+0x20>
C:\Teensy\Projects\HelloWorld/serial1.c:354
    19a8:	f003 fe06 	bl	55b8 <yield>
    19ac:	e7e2      	b.n	1974 <serial_putchar+0x20>
C:\Teensy\Projects\HelloWorld/serial1.c:357
    19ae:	192b      	adds	r3, r5, r4
    19b0:	b2ff      	uxtb	r7, r7
    19b2:	741f      	strb	r7, [r3, #16]
C:\Teensy\Projects\HelloWorld/serial1.c:358
    19b4:	2301      	movs	r3, #1
    19b6:	712b      	strb	r3, [r5, #4]
C:\Teensy\Projects\HelloWorld/serial1.c:360
    19b8:	4b04      	ldr	r3, [pc, #16]	; (19cc <serial_putchar+0x78>)
C:\Teensy\Projects\HelloWorld/serial1.c:359
    19ba:	b2e4      	uxtb	r4, r4
C:\Teensy\Projects\HelloWorld/serial1.c:360
    19bc:	22bc      	movs	r2, #188	; 0xbc
C:\Teensy\Projects\HelloWorld/serial1.c:359
    19be:	70ac      	strb	r4, [r5, #2]
C:\Teensy\Projects\HelloWorld/serial1.c:360
    19c0:	70da      	strb	r2, [r3, #3]
    19c2:	bdf8      	pop	{r3, r4, r5, r6, r7, pc}
    19c4:	40048034 	.word	0x40048034
    19c8:	1fff0b80 	.word	0x1fff0b80
    19cc:	4006a000 	.word	0x4006a000

000019d0 <serial_phex1>:
serial_phex1():
C:\Teensy\Projects\HelloWorld/serial1.c:601
    19d0:	f000 000f 	and.w	r0, r0, #15
C:\Teensy\Projects\HelloWorld/serial1.c:602
    19d4:	2809      	cmp	r0, #9
C:\Teensy\Projects\HelloWorld/serial1.c:603
    19d6:	bf94      	ite	ls
    19d8:	3030      	addls	r0, #48	; 0x30
C:\Teensy\Projects\HelloWorld/serial1.c:605
    19da:	3037      	addhi	r0, #55	; 0x37
    19dc:	f7ff bfba 	b.w	1954 <serial_putchar>

000019e0 <serial_write>:
serial_write():
C:\Teensy\Projects\HelloWorld/serial1.c:365
    19e0:	e92d 43f8 	stmdb	sp!, {r3, r4, r5, r6, r7, r8, r9, lr}
C:\Teensy\Projects\HelloWorld/serial1.c:370
    19e4:	4b23      	ldr	r3, [pc, #140]	; (1a74 <serial_write+0x94>)
    19e6:	681b      	ldr	r3, [r3, #0]
    19e8:	055a      	lsls	r2, r3, #21
C:\Teensy\Projects\HelloWorld/serial1.c:365
    19ea:	4607      	mov	r7, r0
    19ec:	4689      	mov	r9, r1
C:\Teensy\Projects\HelloWorld/serial1.c:370
    19ee:	d53e      	bpl.n	1a6e <serial_write+0x8e>
C:\Teensy\Projects\HelloWorld/serial1.c:371
    19f0:	4c21      	ldr	r4, [pc, #132]	; (1a78 <serial_write+0x98>)
    19f2:	68e3      	ldr	r3, [r4, #12]
    19f4:	b10b      	cbz	r3, 19fa <serial_write+0x1a>
C:\Teensy\Projects\HelloWorld/serial1.c:371 (discriminator 1)
    19f6:	2201      	movs	r2, #1
    19f8:	701a      	strb	r2, [r3, #0]
C:\Teensy\Projects\HelloWorld/serial1.c:382 (discriminator 1)
    19fa:	463e      	mov	r6, r7
C:\Teensy\Projects\HelloWorld/serial1.c:367 (discriminator 1)
    19fc:	eb07 0309 	add.w	r3, r7, r9
C:\Teensy\Projects\HelloWorld/serial1.c:372 (discriminator 1)
    1a00:	429e      	cmp	r6, r3
    1a02:	d231      	bcs.n	1a68 <serial_write+0x88>
C:\Teensy\Projects\HelloWorld/serial1.c:373
    1a04:	78a5      	ldrb	r5, [r4, #2]
C:\Teensy\Projects\HelloWorld/serial1.c:375
    1a06:	f894 8003 	ldrb.w	r8, [r4, #3]
C:\Teensy\Projects\HelloWorld/serial1.c:374
    1a0a:	3501      	adds	r5, #1
    1a0c:	2d40      	cmp	r5, #64	; 0x40
    1a0e:	bf28      	it	cs
    1a10:	2500      	movcs	r5, #0
C:\Teensy\Projects\HelloWorld/serial1.c:375
    1a12:	fa5f f888 	uxtb.w	r8, r8
    1a16:	45a8      	cmp	r8, r5
    1a18:	d11d      	bne.n	1a56 <serial_write+0x76>
C:\Teensy\Projects\HelloWorld/serial1.c:376
    1a1a:	4b18      	ldr	r3, [pc, #96]	; (1a7c <serial_write+0x9c>)
    1a1c:	22bc      	movs	r2, #188	; 0xbc
    1a1e:	70da      	strb	r2, [r3, #3]
C:\Teensy\Projects\HelloWorld/serial1.c:378
    1a20:	f7fe ffd4 	bl	9cc <nvic_execution_priority>
C:\Teensy\Projects\HelloWorld/serial1.c:379
    1a24:	2840      	cmp	r0, #64	; 0x40
    1a26:	dc0f      	bgt.n	1a48 <serial_write+0x68>
C:\Teensy\Projects\HelloWorld/serial1.c:380
    1a28:	4a14      	ldr	r2, [pc, #80]	; (1a7c <serial_write+0x9c>)
    1a2a:	7913      	ldrb	r3, [r2, #4]
    1a2c:	061b      	lsls	r3, r3, #24
    1a2e:	d50f      	bpl.n	1a50 <serial_write+0x70>
C:\Teensy\Projects\HelloWorld/serial1.c:381
    1a30:	78e3      	ldrb	r3, [r4, #3]
C:\Teensy\Projects\HelloWorld/serial1.c:382
    1a32:	3301      	adds	r3, #1
    1a34:	2b40      	cmp	r3, #64	; 0x40
    1a36:	bf28      	it	cs
    1a38:	2300      	movcs	r3, #0
C:\Teensy\Projects\HelloWorld/serial1.c:383
    1a3a:	18e1      	adds	r1, r4, r3
C:\Teensy\Projects\HelloWorld/serial1.c:386
    1a3c:	b2db      	uxtb	r3, r3
C:\Teensy\Projects\HelloWorld/serial1.c:383
    1a3e:	7c09      	ldrb	r1, [r1, #16]
    1a40:	b2c9      	uxtb	r1, r1
C:\Teensy\Projects\HelloWorld/serial1.c:385
    1a42:	71d1      	strb	r1, [r2, #7]
C:\Teensy\Projects\HelloWorld/serial1.c:386
    1a44:	70e3      	strb	r3, [r4, #3]
    1a46:	e003      	b.n	1a50 <serial_write+0x70>
C:\Teensy\Projects\HelloWorld/serial1.c:388
    1a48:	28ff      	cmp	r0, #255	; 0xff
    1a4a:	dd01      	ble.n	1a50 <serial_write+0x70>
C:\Teensy\Projects\HelloWorld/serial1.c:389
    1a4c:	f003 fdb4 	bl	55b8 <yield>
C:\Teensy\Projects\HelloWorld/serial1.c:391
    1a50:	78e3      	ldrb	r3, [r4, #3]
    1a52:	4543      	cmp	r3, r8
    1a54:	d0e4      	beq.n	1a20 <serial_write+0x40>
C:\Teensy\Projects\HelloWorld/serial1.c:393
    1a56:	1963      	adds	r3, r4, r5
    1a58:	f816 2b01 	ldrb.w	r2, [r6], #1
    1a5c:	741a      	strb	r2, [r3, #16]
C:\Teensy\Projects\HelloWorld/serial1.c:395
    1a5e:	b2ed      	uxtb	r5, r5
C:\Teensy\Projects\HelloWorld/serial1.c:394
    1a60:	2301      	movs	r3, #1
    1a62:	7123      	strb	r3, [r4, #4]
C:\Teensy\Projects\HelloWorld/serial1.c:395
    1a64:	70a5      	strb	r5, [r4, #2]
    1a66:	e7c9      	b.n	19fc <serial_write+0x1c>
C:\Teensy\Projects\HelloWorld/serial1.c:397
    1a68:	4b04      	ldr	r3, [pc, #16]	; (1a7c <serial_write+0x9c>)
    1a6a:	22bc      	movs	r2, #188	; 0xbc
    1a6c:	70da      	strb	r2, [r3, #3]
    1a6e:	e8bd 83f8 	ldmia.w	sp!, {r3, r4, r5, r6, r7, r8, r9, pc}
    1a72:	bf00      	nop
    1a74:	40048034 	.word	0x40048034
    1a78:	1fff0b80 	.word	0x1fff0b80
    1a7c:	4006a000 	.word	0x4006a000

00001a80 <serial_flush>:
serial_flush():
C:\Teensy\Projects\HelloWorld/serial1.c:408
    1a80:	b508      	push	{r3, lr}
C:\Teensy\Projects\HelloWorld/serial1.c:409 (discriminator 1)
    1a82:	4b03      	ldr	r3, [pc, #12]	; (1a90 <serial_flush+0x10>)
    1a84:	791b      	ldrb	r3, [r3, #4]
    1a86:	b113      	cbz	r3, 1a8e <serial_flush+0xe>
C:\Teensy\Projects\HelloWorld/serial1.c:409 (discriminator 2)
    1a88:	f003 fd96 	bl	55b8 <yield>
    1a8c:	e7f9      	b.n	1a82 <serial_flush+0x2>
C:\Teensy\Projects\HelloWorld/serial1.c:410
    1a8e:	bd08      	pop	{r3, pc}
    1a90:	1fff0b80 	.word	0x1fff0b80

00001a94 <serial_write_buffer_free>:
serial_write_buffer_free():
C:\Teensy\Projects\HelloWorld/serial1.c:416
    1a94:	4a05      	ldr	r2, [pc, #20]	; (1aac <serial_write_buffer_free+0x18>)
    1a96:	7893      	ldrb	r3, [r2, #2]
C:\Teensy\Projects\HelloWorld/serial1.c:417
    1a98:	78d0      	ldrb	r0, [r2, #3]
C:\Teensy\Projects\HelloWorld/serial1.c:416
    1a9a:	b2db      	uxtb	r3, r3
C:\Teensy\Projects\HelloWorld/serial1.c:417
    1a9c:	b2c0      	uxtb	r0, r0
C:\Teensy\Projects\HelloWorld/serial1.c:418
    1a9e:	4283      	cmp	r3, r0
    1aa0:	bf2c      	ite	cs
    1aa2:	303f      	addcs	r0, #63	; 0x3f
C:\Teensy\Projects\HelloWorld/serial1.c:419
    1aa4:	f100 30ff 	addcc.w	r0, r0, #4294967295
    1aa8:	1ac0      	subs	r0, r0, r3
C:\Teensy\Projects\HelloWorld/serial1.c:420
    1aaa:	4770      	bx	lr
    1aac:	1fff0b80 	.word	0x1fff0b80

00001ab0 <serial_available>:
serial_available():
C:\Teensy\Projects\HelloWorld/serial1.c:426
    1ab0:	4a04      	ldr	r2, [pc, #16]	; (1ac4 <serial_available+0x14>)
    1ab2:	7810      	ldrb	r0, [r2, #0]
C:\Teensy\Projects\HelloWorld/serial1.c:427
    1ab4:	7853      	ldrb	r3, [r2, #1]
C:\Teensy\Projects\HelloWorld/serial1.c:426
    1ab6:	b2c0      	uxtb	r0, r0
C:\Teensy\Projects\HelloWorld/serial1.c:427
    1ab8:	b2db      	uxtb	r3, r3
C:\Teensy\Projects\HelloWorld/serial1.c:428
    1aba:	4298      	cmp	r0, r3
C:\Teensy\Projects\HelloWorld/serial1.c:429
    1abc:	bf38      	it	cc
    1abe:	3040      	addcc	r0, #64	; 0x40
    1ac0:	1ac0      	subs	r0, r0, r3
C:\Teensy\Projects\HelloWorld/serial1.c:430
    1ac2:	4770      	bx	lr
    1ac4:	1fff0b80 	.word	0x1fff0b80

00001ac8 <serial_getchar>:
serial_getchar():
C:\Teensy\Projects\HelloWorld/serial1.c:433
    1ac8:	b510      	push	{r4, lr}
C:\Teensy\Projects\HelloWorld/serial1.c:437
    1aca:	4a0f      	ldr	r2, [pc, #60]	; (1b08 <serial_getchar+0x40>)
    1acc:	7811      	ldrb	r1, [r2, #0]
C:\Teensy\Projects\HelloWorld/serial1.c:438
    1ace:	7853      	ldrb	r3, [r2, #1]
C:\Teensy\Projects\HelloWorld/serial1.c:437
    1ad0:	b2c9      	uxtb	r1, r1
C:\Teensy\Projects\HelloWorld/serial1.c:438
    1ad2:	b2db      	uxtb	r3, r3
C:\Teensy\Projects\HelloWorld/serial1.c:439
    1ad4:	4299      	cmp	r1, r3
    1ad6:	d014      	beq.n	1b02 <serial_getchar+0x3a>
C:\Teensy\Projects\HelloWorld/serial1.c:440
    1ad8:	3301      	adds	r3, #1
    1ada:	2b40      	cmp	r3, #64	; 0x40
    1adc:	bf28      	it	cs
    1ade:	2300      	movcs	r3, #0
C:\Teensy\Projects\HelloWorld/serial1.c:441
    1ae0:	18d0      	adds	r0, r2, r3
C:\Teensy\Projects\HelloWorld/serial1.c:442
    1ae2:	b2dc      	uxtb	r4, r3
C:\Teensy\Projects\HelloWorld/serial1.c:441
    1ae4:	f890 0050 	ldrb.w	r0, [r0, #80]	; 0x50
C:\Teensy\Projects\HelloWorld/serial1.c:442
    1ae8:	7054      	strb	r4, [r2, #1]
C:\Teensy\Projects\HelloWorld/serial1.c:443
    1aea:	6892      	ldr	r2, [r2, #8]
C:\Teensy\Projects\HelloWorld/serial1.c:441
    1aec:	b2c0      	uxtb	r0, r0
C:\Teensy\Projects\HelloWorld/serial1.c:443
    1aee:	b152      	cbz	r2, 1b06 <serial_getchar+0x3e>
C:\Teensy\Projects\HelloWorld/serial1.c:445
    1af0:	4299      	cmp	r1, r3
C:\Teensy\Projects\HelloWorld/serial1.c:446
    1af2:	bf38      	it	cc
    1af4:	3140      	addcc	r1, #64	; 0x40
    1af6:	1acb      	subs	r3, r1, r3
C:\Teensy\Projects\HelloWorld/serial1.c:447
    1af8:	2b1a      	cmp	r3, #26
    1afa:	dc04      	bgt.n	1b06 <serial_getchar+0x3e>
C:\Teensy\Projects\HelloWorld/serial1.c:447 (discriminator 1)
    1afc:	2300      	movs	r3, #0
    1afe:	7013      	strb	r3, [r2, #0]
    1b00:	bd10      	pop	{r4, pc}
C:\Teensy\Projects\HelloWorld/serial1.c:439
    1b02:	f04f 30ff 	mov.w	r0, #4294967295
C:\Teensy\Projects\HelloWorld/serial1.c:450
    1b06:	bd10      	pop	{r4, pc}
    1b08:	1fff0b80 	.word	0x1fff0b80

00001b0c <serial_peek>:
serial_peek():
C:\Teensy\Projects\HelloWorld/serial1.c:456
    1b0c:	4a08      	ldr	r2, [pc, #32]	; (1b30 <serial_peek+0x24>)
    1b0e:	7811      	ldrb	r1, [r2, #0]
C:\Teensy\Projects\HelloWorld/serial1.c:457
    1b10:	7853      	ldrb	r3, [r2, #1]
    1b12:	b2db      	uxtb	r3, r3
C:\Teensy\Projects\HelloWorld/serial1.c:458
    1b14:	4299      	cmp	r1, r3
    1b16:	d008      	beq.n	1b2a <serial_peek+0x1e>
C:\Teensy\Projects\HelloWorld/serial1.c:459
    1b18:	3301      	adds	r3, #1
    1b1a:	2b40      	cmp	r3, #64	; 0x40
    1b1c:	bf28      	it	cs
    1b1e:	2300      	movcs	r3, #0
C:\Teensy\Projects\HelloWorld/serial1.c:460
    1b20:	4413      	add	r3, r2
    1b22:	f893 0050 	ldrb.w	r0, [r3, #80]	; 0x50
    1b26:	b2c0      	uxtb	r0, r0
    1b28:	4770      	bx	lr
C:\Teensy\Projects\HelloWorld/serial1.c:458
    1b2a:	f04f 30ff 	mov.w	r0, #4294967295
C:\Teensy\Projects\HelloWorld/serial1.c:461
    1b2e:	4770      	bx	lr
    1b30:	1fff0b80 	.word	0x1fff0b80

00001b34 <serial_clear>:
serial_clear():
C:\Teensy\Projects\HelloWorld/serial1.c:466
    1b34:	4b0b      	ldr	r3, [pc, #44]	; (1b64 <serial_clear+0x30>)
    1b36:	681b      	ldr	r3, [r3, #0]
    1b38:	055b      	lsls	r3, r3, #21
    1b3a:	d512      	bpl.n	1b62 <serial_clear+0x2e>
C:\Teensy\Projects\HelloWorld/serial1.c:467
    1b3c:	4b0a      	ldr	r3, [pc, #40]	; (1b68 <serial_clear+0x34>)
    1b3e:	78da      	ldrb	r2, [r3, #3]
    1b40:	f002 02cb 	and.w	r2, r2, #203	; 0xcb
    1b44:	70da      	strb	r2, [r3, #3]
C:\Teensy\Projects\HelloWorld/serial1.c:468
    1b46:	2240      	movs	r2, #64	; 0x40
    1b48:	745a      	strb	r2, [r3, #17]
C:\Teensy\Projects\HelloWorld/serial1.c:469
    1b4a:	78da      	ldrb	r2, [r3, #3]
    1b4c:	f042 0234 	orr.w	r2, r2, #52	; 0x34
    1b50:	70da      	strb	r2, [r3, #3]
C:\Teensy\Projects\HelloWorld/serial1.c:471
    1b52:	4b06      	ldr	r3, [pc, #24]	; (1b6c <serial_clear+0x38>)
    1b54:	785a      	ldrb	r2, [r3, #1]
    1b56:	b2d2      	uxtb	r2, r2
    1b58:	701a      	strb	r2, [r3, #0]
C:\Teensy\Projects\HelloWorld/serial1.c:472
    1b5a:	689b      	ldr	r3, [r3, #8]
    1b5c:	b10b      	cbz	r3, 1b62 <serial_clear+0x2e>
C:\Teensy\Projects\HelloWorld/serial1.c:472 (discriminator 1)
    1b5e:	2200      	movs	r2, #0
    1b60:	701a      	strb	r2, [r3, #0]
    1b62:	4770      	bx	lr
    1b64:	40048034 	.word	0x40048034
    1b68:	4006a000 	.word	0x4006a000
    1b6c:	1fff0b80 	.word	0x1fff0b80

00001b70 <uart0_status_isr>:
uart0_status_isr():
C:\Teensy\Projects\HelloWorld/serial1.c:484
    1b70:	b530      	push	{r4, r5, lr}
C:\Teensy\Projects\HelloWorld/serial1.c:491
    1b72:	4b35      	ldr	r3, [pc, #212]	; (1c48 <uart0_status_isr+0xd8>)
    1b74:	791a      	ldrb	r2, [r3, #4]
    1b76:	f012 0f30 	tst.w	r2, #48	; 0x30
    1b7a:	d02f      	beq.n	1bdc <uart0_status_isr+0x6c>
C:\Teensy\Projects\HelloWorld/serial1.c:492
    1b7c:	b672      	cpsid	i
C:\Teensy\Projects\HelloWorld/serial1.c:493
    1b7e:	7d9a      	ldrb	r2, [r3, #22]
C:\Teensy\Projects\HelloWorld/serial1.c:494
    1b80:	f002 04ff 	and.w	r4, r2, #255	; 0xff
    1b84:	b922      	cbnz	r2, 1b90 <uart0_status_isr+0x20>
C:\Teensy\Projects\HelloWorld/serial1.c:501
    1b86:	79da      	ldrb	r2, [r3, #7]
C:\Teensy\Projects\HelloWorld/serial1.c:511
    1b88:	2240      	movs	r2, #64	; 0x40
    1b8a:	745a      	strb	r2, [r3, #17]
C:\Teensy\Projects\HelloWorld/serial1.c:512
    1b8c:	b662      	cpsie	i
    1b8e:	e025      	b.n	1bdc <uart0_status_isr+0x6c>
C:\Teensy\Projects\HelloWorld/serial1.c:514
    1b90:	b662      	cpsie	i
C:\Teensy\Projects\HelloWorld/serial1.c:515
    1b92:	482e      	ldr	r0, [pc, #184]	; (1c4c <uart0_status_isr+0xdc>)
    1b94:	7803      	ldrb	r3, [r0, #0]
C:\Teensy\Projects\HelloWorld/serial1.c:516
    1b96:	7841      	ldrb	r1, [r0, #1]
C:\Teensy\Projects\HelloWorld/serial1.c:515
    1b98:	b2db      	uxtb	r3, r3
C:\Teensy\Projects\HelloWorld/serial1.c:516
    1b9a:	b2c9      	uxtb	r1, r1
C:\Teensy\Projects\HelloWorld/serial1.c:521
    1b9c:	4a2a      	ldr	r2, [pc, #168]	; (1c48 <uart0_status_isr+0xd8>)
    1b9e:	79d5      	ldrb	r5, [r2, #7]
C:\Teensy\Projects\HelloWorld/serial1.c:523
    1ba0:	1c5a      	adds	r2, r3, #1
C:\Teensy\Projects\HelloWorld/serial1.c:524
    1ba2:	2a40      	cmp	r2, #64	; 0x40
    1ba4:	bf28      	it	cs
    1ba6:	2200      	movcs	r2, #0
C:\Teensy\Projects\HelloWorld/serial1.c:525
    1ba8:	428a      	cmp	r2, r1
C:\Teensy\Projects\HelloWorld/serial1.c:521
    1baa:	b2ed      	uxtb	r5, r5
C:\Teensy\Projects\HelloWorld/serial1.c:525
    1bac:	d003      	beq.n	1bb6 <uart0_status_isr+0x46>
C:\Teensy\Projects\HelloWorld/serial1.c:527
    1bae:	1883      	adds	r3, r0, r2
    1bb0:	f883 5050 	strb.w	r5, [r3, #80]	; 0x50
    1bb4:	4613      	mov	r3, r2
C:\Teensy\Projects\HelloWorld/serial1.c:529
    1bb6:	1e62      	subs	r2, r4, #1
    1bb8:	f012 04ff 	ands.w	r4, r2, #255	; 0xff
    1bbc:	d1ee      	bne.n	1b9c <uart0_status_isr+0x2c>
C:\Teensy\Projects\HelloWorld/serial1.c:530
    1bbe:	b2da      	uxtb	r2, r3
    1bc0:	7002      	strb	r2, [r0, #0]
C:\Teensy\Projects\HelloWorld/serial1.c:531
    1bc2:	6882      	ldr	r2, [r0, #8]
    1bc4:	b152      	cbz	r2, 1bdc <uart0_status_isr+0x6c>
C:\Teensy\Projects\HelloWorld/serial1.c:533
    1bc6:	428b      	cmp	r3, r1
C:\Teensy\Projects\HelloWorld/serial1.c:534
    1bc8:	bf36      	itet	cc
    1bca:	f1c1 0140 	rsbcc	r1, r1, #64	; 0x40
C:\Teensy\Projects\HelloWorld/serial1.c:533
    1bce:	ebc1 0303 	rsbcs	r3, r1, r3
C:\Teensy\Projects\HelloWorld/serial1.c:534
    1bd2:	185b      	addcc	r3, r3, r1
C:\Teensy\Projects\HelloWorld/serial1.c:535
    1bd4:	2b27      	cmp	r3, #39	; 0x27
    1bd6:	bfc4      	itt	gt
    1bd8:	2301      	movgt	r3, #1
    1bda:	7013      	strbgt	r3, [r2, #0]
C:\Teensy\Projects\HelloWorld/serial1.c:539
    1bdc:	4b1a      	ldr	r3, [pc, #104]	; (1c48 <uart0_status_isr+0xd8>)
    1bde:	78d9      	ldrb	r1, [r3, #3]
    1be0:	b2c9      	uxtb	r1, r1
C:\Teensy\Projects\HelloWorld/serial1.c:540
    1be2:	060c      	lsls	r4, r1, #24
    1be4:	d51f      	bpl.n	1c26 <uart0_status_isr+0xb6>
C:\Teensy\Projects\HelloWorld/serial1.c:540 (discriminator 1)
    1be6:	791b      	ldrb	r3, [r3, #4]
    1be8:	0618      	lsls	r0, r3, #24
    1bea:	d51c      	bpl.n	1c26 <uart0_status_isr+0xb6>
C:\Teensy\Projects\HelloWorld/serial1.c:541
    1bec:	4a17      	ldr	r2, [pc, #92]	; (1c4c <uart0_status_isr+0xdc>)
    1bee:	7895      	ldrb	r5, [r2, #2]
C:\Teensy\Projects\HelloWorld/serial1.c:542
    1bf0:	78d3      	ldrb	r3, [r2, #3]
C:\Teensy\Projects\HelloWorld/serial1.c:541
    1bf2:	b2ed      	uxtb	r5, r5
C:\Teensy\Projects\HelloWorld/serial1.c:542
    1bf4:	b2db      	uxtb	r3, r3
    1bf6:	4610      	mov	r0, r2
C:\Teensy\Projects\HelloWorld/serial1.c:544
    1bf8:	42ab      	cmp	r3, r5
    1bfa:	d00c      	beq.n	1c16 <uart0_status_isr+0xa6>
C:\Teensy\Projects\HelloWorld/serial1.c:545
    1bfc:	3301      	adds	r3, #1
C:\Teensy\Projects\HelloWorld/serial1.c:546
    1bfe:	4a12      	ldr	r2, [pc, #72]	; (1c48 <uart0_status_isr+0xd8>)
C:\Teensy\Projects\HelloWorld/serial1.c:545
    1c00:	2b40      	cmp	r3, #64	; 0x40
    1c02:	bf28      	it	cs
    1c04:	2300      	movcs	r3, #0
C:\Teensy\Projects\HelloWorld/serial1.c:546
    1c06:	7914      	ldrb	r4, [r2, #4]
C:\Teensy\Projects\HelloWorld/serial1.c:547
    1c08:	18c4      	adds	r4, r0, r3
    1c0a:	7c24      	ldrb	r4, [r4, #16]
    1c0c:	b2e4      	uxtb	r4, r4
C:\Teensy\Projects\HelloWorld/serial1.c:549
    1c0e:	71d4      	strb	r4, [r2, #7]
C:\Teensy\Projects\HelloWorld/serial1.c:550
    1c10:	7d12      	ldrb	r2, [r2, #20]
    1c12:	2a07      	cmp	r2, #7
    1c14:	d9f0      	bls.n	1bf8 <uart0_status_isr+0x88>
C:\Teensy\Projects\HelloWorld/serial1.c:551
    1c16:	b2db      	uxtb	r3, r3
    1c18:	70c3      	strb	r3, [r0, #3]
C:\Teensy\Projects\HelloWorld/serial1.c:552
    1c1a:	4b0b      	ldr	r3, [pc, #44]	; (1c48 <uart0_status_isr+0xd8>)
    1c1c:	791a      	ldrb	r2, [r3, #4]
    1c1e:	0612      	lsls	r2, r2, #24
    1c20:	bf44      	itt	mi
    1c22:	227c      	movmi	r2, #124	; 0x7c
    1c24:	70da      	strbmi	r2, [r3, #3]
C:\Teensy\Projects\HelloWorld/serial1.c:580
    1c26:	064b      	lsls	r3, r1, #25
    1c28:	d50d      	bpl.n	1c46 <uart0_status_isr+0xd6>
C:\Teensy\Projects\HelloWorld/serial1.c:580 (discriminator 1)
    1c2a:	4b07      	ldr	r3, [pc, #28]	; (1c48 <uart0_status_isr+0xd8>)
    1c2c:	791a      	ldrb	r2, [r3, #4]
    1c2e:	f012 0f40 	tst.w	r2, #64	; 0x40
    1c32:	4619      	mov	r1, r3
    1c34:	d007      	beq.n	1c46 <uart0_status_isr+0xd6>
C:\Teensy\Projects\HelloWorld/serial1.c:581
    1c36:	4b05      	ldr	r3, [pc, #20]	; (1c4c <uart0_status_isr+0xdc>)
    1c38:	2200      	movs	r2, #0
    1c3a:	711a      	strb	r2, [r3, #4]
C:\Teensy\Projects\HelloWorld/serial1.c:582
    1c3c:	68db      	ldr	r3, [r3, #12]
    1c3e:	b103      	cbz	r3, 1c42 <uart0_status_isr+0xd2>
C:\Teensy\Projects\HelloWorld/serial1.c:582 (discriminator 1)
    1c40:	701a      	strb	r2, [r3, #0]
C:\Teensy\Projects\HelloWorld/serial1.c:583
    1c42:	233c      	movs	r3, #60	; 0x3c
    1c44:	70cb      	strb	r3, [r1, #3]
    1c46:	bd30      	pop	{r4, r5, pc}
    1c48:	4006a000 	.word	0x4006a000
    1c4c:	1fff0b80 	.word	0x1fff0b80

00001c50 <serial_print>:
serial_print():
C:\Teensy\Projects\HelloWorld/serial1.c:591
    1c50:	b538      	push	{r3, r4, r5, lr}
    1c52:	1e45      	subs	r5, r0, #1
C:\Teensy\Projects\HelloWorld/serial1.c:592 (discriminator 1)
    1c54:	f815 4f01 	ldrb.w	r4, [r5, #1]!
    1c58:	b144      	cbz	r4, 1c6c <serial_print+0x1c>
C:\Teensy\Projects\HelloWorld/serial1.c:594
    1c5a:	2c0a      	cmp	r4, #10
    1c5c:	d102      	bne.n	1c64 <serial_print+0x14>
C:\Teensy\Projects\HelloWorld/serial1.c:594 (discriminator 1)
    1c5e:	200d      	movs	r0, #13
    1c60:	f7ff fe78 	bl	1954 <serial_putchar>
C:\Teensy\Projects\HelloWorld/serial1.c:595
    1c64:	4620      	mov	r0, r4
    1c66:	f7ff fe75 	bl	1954 <serial_putchar>
    1c6a:	e7f3      	b.n	1c54 <serial_print+0x4>
C:\Teensy\Projects\HelloWorld/serial1.c:597
    1c6c:	bd38      	pop	{r3, r4, r5, pc}

00001c6e <serial_phex>:
serial_phex():
C:\Teensy\Projects\HelloWorld/serial1.c:610
    1c6e:	b510      	push	{r4, lr}
    1c70:	4604      	mov	r4, r0
C:\Teensy\Projects\HelloWorld/serial1.c:611
    1c72:	0900      	lsrs	r0, r0, #4
    1c74:	f7ff feac 	bl	19d0 <serial_phex1>
C:\Teensy\Projects\HelloWorld/serial1.c:612
    1c78:	4620      	mov	r0, r4
C:\Teensy\Projects\HelloWorld/serial1.c:613
    1c7a:	e8bd 4010 	ldmia.w	sp!, {r4, lr}
C:\Teensy\Projects\HelloWorld/serial1.c:612
    1c7e:	f7ff bea7 	b.w	19d0 <serial_phex1>

00001c82 <serial_phex16>:
serial_phex16():
C:\Teensy\Projects\HelloWorld/serial1.c:616
    1c82:	b510      	push	{r4, lr}
    1c84:	4604      	mov	r4, r0
C:\Teensy\Projects\HelloWorld/serial1.c:617
    1c86:	0a00      	lsrs	r0, r0, #8
    1c88:	f7ff fff1 	bl	1c6e <serial_phex>
C:\Teensy\Projects\HelloWorld/serial1.c:618
    1c8c:	4620      	mov	r0, r4
C:\Teensy\Projects\HelloWorld/serial1.c:619
    1c8e:	e8bd 4010 	ldmia.w	sp!, {r4, lr}
C:\Teensy\Projects\HelloWorld/serial1.c:618
    1c92:	f7ff bfec 	b.w	1c6e <serial_phex>

00001c96 <serial_phex32>:
serial_phex32():
C:\Teensy\Projects\HelloWorld/serial1.c:622
    1c96:	b510      	push	{r4, lr}
    1c98:	4604      	mov	r4, r0
C:\Teensy\Projects\HelloWorld/serial1.c:623
    1c9a:	0e00      	lsrs	r0, r0, #24
    1c9c:	f7ff ffe7 	bl	1c6e <serial_phex>
C:\Teensy\Projects\HelloWorld/serial1.c:624
    1ca0:	0c20      	lsrs	r0, r4, #16
    1ca2:	f7ff ffe4 	bl	1c6e <serial_phex>
C:\Teensy\Projects\HelloWorld/serial1.c:625
    1ca6:	0a20      	lsrs	r0, r4, #8
    1ca8:	f7ff ffe1 	bl	1c6e <serial_phex>
C:\Teensy\Projects\HelloWorld/serial1.c:626
    1cac:	4620      	mov	r0, r4
C:\Teensy\Projects\HelloWorld/serial1.c:627
    1cae:	e8bd 4010 	ldmia.w	sp!, {r4, lr}
C:\Teensy\Projects\HelloWorld/serial1.c:626
    1cb2:	f7ff bfdc 	b.w	1c6e <serial_phex>
    1cb6:	bf00      	nop

00001cb8 <serial2_begin>:
serial2_begin():
C:\Teensy\Projects\HelloWorld/serial2.c:114
    1cb8:	4b20      	ldr	r3, [pc, #128]	; (1d3c <serial2_begin+0x84>)
    1cba:	681a      	ldr	r2, [r3, #0]
    1cbc:	f442 6200 	orr.w	r2, r2, #2048	; 0x800
    1cc0:	601a      	str	r2, [r3, #0]
C:\Teensy\Projects\HelloWorld/serial2.c:115
    1cc2:	4b1f      	ldr	r3, [pc, #124]	; (1d40 <serial2_begin+0x88>)
    1cc4:	2200      	movs	r2, #0
    1cc6:	701a      	strb	r2, [r3, #0]
C:\Teensy\Projects\HelloWorld/serial2.c:116
    1cc8:	705a      	strb	r2, [r3, #1]
C:\Teensy\Projects\HelloWorld/serial2.c:117
    1cca:	709a      	strb	r2, [r3, #2]
C:\Teensy\Projects\HelloWorld/serial2.c:118
    1ccc:	70da      	strb	r2, [r3, #3]
C:\Teensy\Projects\HelloWorld/serial2.c:119
    1cce:	711a      	strb	r2, [r3, #4]
C:\Teensy\Projects\HelloWorld/serial2.c:121
    1cd0:	4a1c      	ldr	r2, [pc, #112]	; (1d44 <serial2_begin+0x8c>)
    1cd2:	7813      	ldrb	r3, [r2, #0]
    1cd4:	2b09      	cmp	r3, #9
    1cd6:	d005      	beq.n	1ce4 <serial2_begin+0x2c>
    1cd8:	2b3b      	cmp	r3, #59	; 0x3b
    1cda:	d107      	bne.n	1cec <serial2_begin+0x34>
C:\Teensy\Projects\HelloWorld/serial2.c:126
    1cdc:	f240 3113 	movw	r1, #787	; 0x313
    1ce0:	4b19      	ldr	r3, [pc, #100]	; (1d48 <serial2_begin+0x90>)
    1ce2:	e002      	b.n	1cea <serial2_begin+0x32>
C:\Teensy\Projects\HelloWorld/serial2.c:122
    1ce4:	4b19      	ldr	r3, [pc, #100]	; (1d4c <serial2_begin+0x94>)
    1ce6:	f240 3113 	movw	r1, #787	; 0x313
C:\Teensy\Projects\HelloWorld/serial2.c:126
    1cea:	6019      	str	r1, [r3, #0]
C:\Teensy\Projects\HelloWorld/serial2.c:129
    1cec:	7853      	ldrb	r3, [r2, #1]
    1cee:	2b0a      	cmp	r3, #10
    1cf0:	d005      	beq.n	1cfe <serial2_begin+0x46>
    1cf2:	2b3a      	cmp	r3, #58	; 0x3a
    1cf4:	d107      	bne.n	1d06 <serial2_begin+0x4e>
C:\Teensy\Projects\HelloWorld/serial2.c:134
    1cf6:	f44f 7251 	mov.w	r2, #836	; 0x344
    1cfa:	4b15      	ldr	r3, [pc, #84]	; (1d50 <serial2_begin+0x98>)
    1cfc:	e002      	b.n	1d04 <serial2_begin+0x4c>
C:\Teensy\Projects\HelloWorld/serial2.c:130
    1cfe:	4b15      	ldr	r3, [pc, #84]	; (1d54 <serial2_begin+0x9c>)
    1d00:	f44f 7251 	mov.w	r2, #836	; 0x344
C:\Teensy\Projects\HelloWorld/serial2.c:134
    1d04:	601a      	str	r2, [r3, #0]
C:\Teensy\Projects\HelloWorld/serial2.c:142
    1d06:	4b14      	ldr	r3, [pc, #80]	; (1d58 <serial2_begin+0xa0>)
    1d08:	f3c0 3244 	ubfx	r2, r0, #13, #5
    1d0c:	701a      	strb	r2, [r3, #0]
C:\Teensy\Projects\HelloWorld/serial2.c:143
    1d0e:	f3c0 1247 	ubfx	r2, r0, #5, #8
    1d12:	705a      	strb	r2, [r3, #1]
C:\Teensy\Projects\HelloWorld/serial2.c:146
    1d14:	2104      	movs	r1, #4
C:\Teensy\Projects\HelloWorld/serial2.c:147
    1d16:	2202      	movs	r2, #2
C:\Teensy\Projects\HelloWorld/serial2.c:144
    1d18:	f000 001f 	and.w	r0, r0, #31
    1d1c:	7298      	strb	r0, [r3, #10]
C:\Teensy\Projects\HelloWorld/serial2.c:146
    1d1e:	7099      	strb	r1, [r3, #2]
C:\Teensy\Projects\HelloWorld/serial2.c:147
    1d20:	74da      	strb	r2, [r3, #19]
C:\Teensy\Projects\HelloWorld/serial2.c:148
    1d22:	7559      	strb	r1, [r3, #21]
C:\Teensy\Projects\HelloWorld/serial2.c:149
    1d24:	2188      	movs	r1, #136	; 0x88
    1d26:	7419      	strb	r1, [r3, #16]
C:\Teensy\Projects\HelloWorld/serial2.c:159
    1d28:	213c      	movs	r1, #60	; 0x3c
    1d2a:	70d9      	strb	r1, [r3, #3]
C:\Teensy\Projects\HelloWorld/serial2.c:160
    1d2c:	4b0b      	ldr	r3, [pc, #44]	; (1d5c <serial2_begin+0xa4>)
    1d2e:	2140      	movs	r1, #64	; 0x40
    1d30:	7019      	strb	r1, [r3, #0]
C:\Teensy\Projects\HelloWorld/serial2.c:161
    1d32:	f46f 7147 	mvn.w	r1, #796	; 0x31c
    1d36:	440b      	add	r3, r1
    1d38:	601a      	str	r2, [r3, #0]
    1d3a:	4770      	bx	lr
    1d3c:	40048034 	.word	0x40048034
    1d40:	1fff0c10 	.word	0x1fff0c10
    1d44:	1fff0a09 	.word	0x1fff0a09
    1d48:	4004d004 	.word	0x4004d004
    1d4c:	4004b00c 	.word	0x4004b00c
    1d50:	4004d000 	.word	0x4004d000
    1d54:	4004b010 	.word	0x4004b010
    1d58:	4006b000 	.word	0x4006b000
    1d5c:	e000e421 	.word	0xe000e421

00001d60 <serial2_format>:
serial2_format():
C:\Teensy\Projects\HelloWorld/serial2.c:168
    1d60:	4a19      	ldr	r2, [pc, #100]	; (1dc8 <serial2_format+0x68>)
    1d62:	7893      	ldrb	r3, [r2, #2]
C:\Teensy\Projects\HelloWorld/serial2.c:169
    1d64:	f000 0103 	and.w	r1, r0, #3
    1d68:	f003 03ec 	and.w	r3, r3, #236	; 0xec
    1d6c:	430b      	orrs	r3, r1
C:\Teensy\Projects\HelloWorld/serial2.c:170
    1d6e:	0741      	lsls	r1, r0, #29
    1d70:	bf48      	it	mi
    1d72:	f043 0310 	orrmi.w	r3, r3, #16
C:\Teensy\Projects\HelloWorld/serial2.c:171
    1d76:	7093      	strb	r3, [r2, #2]
C:\Teensy\Projects\HelloWorld/serial2.c:172
    1d78:	f000 030f 	and.w	r3, r0, #15
    1d7c:	2b04      	cmp	r3, #4
C:\Teensy\Projects\HelloWorld/serial2.c:171
    1d7e:	4912      	ldr	r1, [pc, #72]	; (1dc8 <serial2_format+0x68>)
C:\Teensy\Projects\HelloWorld/serial2.c:172
    1d80:	d103      	bne.n	1d8a <serial2_format+0x2a>
C:\Teensy\Projects\HelloWorld/serial2.c:172 (discriminator 1)
    1d82:	798b      	ldrb	r3, [r1, #6]
    1d84:	f043 0340 	orr.w	r3, r3, #64	; 0x40
    1d88:	718b      	strb	r3, [r1, #6]
C:\Teensy\Projects\HelloWorld/serial2.c:173
    1d8a:	7952      	ldrb	r2, [r2, #5]
C:\Teensy\Projects\HelloWorld/serial2.c:175
    1d8c:	4b0e      	ldr	r3, [pc, #56]	; (1dc8 <serial2_format+0x68>)
C:\Teensy\Projects\HelloWorld/serial2.c:173
    1d8e:	f002 02ef 	and.w	r2, r2, #239	; 0xef
C:\Teensy\Projects\HelloWorld/serial2.c:174
    1d92:	06c1      	lsls	r1, r0, #27
    1d94:	bf48      	it	mi
    1d96:	f042 0210 	orrmi.w	r2, r2, #16
C:\Teensy\Projects\HelloWorld/serial2.c:175
    1d9a:	715a      	strb	r2, [r3, #5]
C:\Teensy\Projects\HelloWorld/serial2.c:176
    1d9c:	799a      	ldrb	r2, [r3, #6]
C:\Teensy\Projects\HelloWorld/serial2.c:177
    1d9e:	f010 0f20 	tst.w	r0, #32
C:\Teensy\Projects\HelloWorld/serial2.c:176
    1da2:	f002 02ef 	and.w	r2, r2, #239	; 0xef
    1da6:	4619      	mov	r1, r3
C:\Teensy\Projects\HelloWorld/serial2.c:177
    1da8:	bf18      	it	ne
    1daa:	f042 0210 	orrne.w	r2, r2, #16
C:\Teensy\Projects\HelloWorld/serial2.c:178
    1dae:	718a      	strb	r2, [r1, #6]
C:\Teensy\Projects\HelloWorld/serial2.c:187
    1db0:	05c2      	lsls	r2, r0, #23
C:\Teensy\Projects\HelloWorld/serial2.c:178
    1db2:	4b05      	ldr	r3, [pc, #20]	; (1dc8 <serial2_format+0x68>)
C:\Teensy\Projects\HelloWorld/serial2.c:187
    1db4:	d506      	bpl.n	1dc4 <serial2_format+0x64>
C:\Teensy\Projects\HelloWorld/serial2.c:188
    1db6:	785a      	ldrb	r2, [r3, #1]
C:\Teensy\Projects\HelloWorld/serial2.c:189
    1db8:	7819      	ldrb	r1, [r3, #0]
C:\Teensy\Projects\HelloWorld/serial2.c:188
    1dba:	b2d2      	uxtb	r2, r2
C:\Teensy\Projects\HelloWorld/serial2.c:189
    1dbc:	f041 0120 	orr.w	r1, r1, #32
    1dc0:	7019      	strb	r1, [r3, #0]
C:\Teensy\Projects\HelloWorld/serial2.c:190
    1dc2:	705a      	strb	r2, [r3, #1]
    1dc4:	4770      	bx	lr
    1dc6:	bf00      	nop
    1dc8:	4006b000 	.word	0x4006b000

00001dcc <serial2_end>:
serial2_end():
C:\Teensy\Projects\HelloWorld/serial2.c:196
    1dcc:	b508      	push	{r3, lr}
C:\Teensy\Projects\HelloWorld/serial2.c:197
    1dce:	4b1a      	ldr	r3, [pc, #104]	; (1e38 <serial2_end+0x6c>)
    1dd0:	681b      	ldr	r3, [r3, #0]
    1dd2:	051b      	lsls	r3, r3, #20
    1dd4:	d400      	bmi.n	1dd8 <serial2_end+0xc>
    1dd6:	bd08      	pop	{r3, pc}
C:\Teensy\Projects\HelloWorld/serial2.c:198 (discriminator 1)
    1dd8:	4b18      	ldr	r3, [pc, #96]	; (1e3c <serial2_end+0x70>)
    1dda:	7919      	ldrb	r1, [r3, #4]
    1ddc:	f001 02ff 	and.w	r2, r1, #255	; 0xff
    1de0:	b111      	cbz	r1, 1de8 <serial2_end+0x1c>
C:\Teensy\Projects\HelloWorld/serial2.c:198 (discriminator 2)
    1de2:	f003 fbe9 	bl	55b8 <yield>
    1de6:	e7f7      	b.n	1dd8 <serial2_end+0xc>
C:\Teensy\Projects\HelloWorld/serial2.c:199
    1de8:	4915      	ldr	r1, [pc, #84]	; (1e40 <serial2_end+0x74>)
    1dea:	2002      	movs	r0, #2
    1dec:	6008      	str	r0, [r1, #0]
C:\Teensy\Projects\HelloWorld/serial2.c:200
    1dee:	4915      	ldr	r1, [pc, #84]	; (1e44 <serial2_end+0x78>)
C:\Teensy\Projects\HelloWorld/serial2.c:202
    1df0:	4815      	ldr	r0, [pc, #84]	; (1e48 <serial2_end+0x7c>)
C:\Teensy\Projects\HelloWorld/serial2.c:200
    1df2:	70ca      	strb	r2, [r1, #3]
C:\Teensy\Projects\HelloWorld/serial2.c:202
    1df4:	7801      	ldrb	r1, [r0, #0]
    1df6:	2909      	cmp	r1, #9
    1df8:	d004      	beq.n	1e04 <serial2_end+0x38>
    1dfa:	293b      	cmp	r1, #59	; 0x3b
    1dfc:	d106      	bne.n	1e0c <serial2_end+0x40>
C:\Teensy\Projects\HelloWorld/serial2.c:207
    1dfe:	4913      	ldr	r1, [pc, #76]	; (1e4c <serial2_end+0x80>)
    1e00:	600a      	str	r2, [r1, #0]
    1e02:	e003      	b.n	1e0c <serial2_end+0x40>
C:\Teensy\Projects\HelloWorld/serial2.c:203
    1e04:	4a12      	ldr	r2, [pc, #72]	; (1e50 <serial2_end+0x84>)
    1e06:	f240 1103 	movw	r1, #259	; 0x103
    1e0a:	6011      	str	r1, [r2, #0]
C:\Teensy\Projects\HelloWorld/serial2.c:210
    1e0c:	7842      	ldrb	r2, [r0, #1]
    1e0e:	f002 027f 	and.w	r2, r2, #127	; 0x7f
    1e12:	2a0a      	cmp	r2, #10
    1e14:	d004      	beq.n	1e20 <serial2_end+0x54>
    1e16:	2a3a      	cmp	r2, #58	; 0x3a
    1e18:	d106      	bne.n	1e28 <serial2_end+0x5c>
C:\Teensy\Projects\HelloWorld/serial2.c:215
    1e1a:	2100      	movs	r1, #0
    1e1c:	4a0d      	ldr	r2, [pc, #52]	; (1e54 <serial2_end+0x88>)
    1e1e:	e002      	b.n	1e26 <serial2_end+0x5a>
C:\Teensy\Projects\HelloWorld/serial2.c:211
    1e20:	4a0d      	ldr	r2, [pc, #52]	; (1e58 <serial2_end+0x8c>)
    1e22:	f240 1103 	movw	r1, #259	; 0x103
C:\Teensy\Projects\HelloWorld/serial2.c:215
    1e26:	6011      	str	r1, [r2, #0]
C:\Teensy\Projects\HelloWorld/serial2.c:222
    1e28:	2200      	movs	r2, #0
    1e2a:	701a      	strb	r2, [r3, #0]
C:\Teensy\Projects\HelloWorld/serial2.c:223
    1e2c:	705a      	strb	r2, [r3, #1]
C:\Teensy\Projects\HelloWorld/serial2.c:224
    1e2e:	689b      	ldr	r3, [r3, #8]
    1e30:	b10b      	cbz	r3, 1e36 <serial2_end+0x6a>
C:\Teensy\Projects\HelloWorld/serial2.c:224 (discriminator 1)
    1e32:	2201      	movs	r2, #1
    1e34:	701a      	strb	r2, [r3, #0]
    1e36:	bd08      	pop	{r3, pc}
    1e38:	40048034 	.word	0x40048034
    1e3c:	1fff0c10 	.word	0x1fff0c10
    1e40:	e000e184 	.word	0xe000e184
    1e44:	4006b000 	.word	0x4006b000
    1e48:	1fff0a09 	.word	0x1fff0a09
    1e4c:	4004d004 	.word	0x4004d004
    1e50:	4004b00c 	.word	0x4004b00c
    1e54:	4004d000 	.word	0x4004d000
    1e58:	4004b010 	.word	0x4004b010

00001e5c <serial2_set_transmit_pin>:
serial2_set_transmit_pin():
C:\Teensy\Projects\HelloWorld/serial2.c:228
    1e5c:	b570      	push	{r4, r5, r6, lr}
    1e5e:	4604      	mov	r4, r0
C:\Teensy\Projects\HelloWorld/serial2.c:229 (discriminator 1)
    1e60:	4d09      	ldr	r5, [pc, #36]	; (1e88 <serial2_set_transmit_pin+0x2c>)
    1e62:	792b      	ldrb	r3, [r5, #4]
    1e64:	f003 06ff 	and.w	r6, r3, #255	; 0xff
    1e68:	2b00      	cmp	r3, #0
    1e6a:	d1f9      	bne.n	1e60 <serial2_set_transmit_pin+0x4>
C:\Teensy\Projects\HelloWorld/serial2.c:230
    1e6c:	4620      	mov	r0, r4
    1e6e:	2101      	movs	r1, #1
    1e70:	f7ff f87c 	bl	f6c <pinMode>
C:\Teensy\Projects\HelloWorld/serial2.c:231
    1e74:	4620      	mov	r0, r4
    1e76:	4631      	mov	r1, r6
    1e78:	f7ff f84a 	bl	f10 <digitalWrite>
C:\Teensy\Projects\HelloWorld/serial2.c:232
    1e7c:	4b03      	ldr	r3, [pc, #12]	; (1e8c <serial2_set_transmit_pin+0x30>)
    1e7e:	f853 3034 	ldr.w	r3, [r3, r4, lsl #3]
    1e82:	60eb      	str	r3, [r5, #12]
    1e84:	bd70      	pop	{r4, r5, r6, pc}
    1e86:	bf00      	nop
    1e88:	1fff0c10 	.word	0x1fff0c10
    1e8c:	00009ecc 	.word	0x00009ecc

00001e90 <serial2_set_tx>:
serial2_set_tx():
C:\Teensy\Projects\HelloWorld/serial2.c:239
    1e90:	b510      	push	{r4, lr}
C:\Teensy\Projects\HelloWorld/serial2.c:243
    1e92:	b109      	cbz	r1, 1e98 <serial2_set_tx+0x8>
C:\Teensy\Projects\HelloWorld/serial2.c:243 (discriminator 1)
    1e94:	f040 0080 	orr.w	r0, r0, #128	; 0x80
C:\Teensy\Projects\HelloWorld/serial2.c:244
    1e98:	4a14      	ldr	r2, [pc, #80]	; (1eec <serial2_set_tx+0x5c>)
    1e9a:	7853      	ldrb	r3, [r2, #1]
    1e9c:	4298      	cmp	r0, r3
    1e9e:	4614      	mov	r4, r2
    1ea0:	d022      	beq.n	1ee8 <serial2_set_tx+0x58>
C:\Teensy\Projects\HelloWorld/serial2.c:245
    1ea2:	4a13      	ldr	r2, [pc, #76]	; (1ef0 <serial2_set_tx+0x60>)
    1ea4:	6812      	ldr	r2, [r2, #0]
    1ea6:	0512      	lsls	r2, r2, #20
    1ea8:	d51d      	bpl.n	1ee6 <serial2_set_tx+0x56>
C:\Teensy\Projects\HelloWorld/serial2.c:246
    1eaa:	f003 037f 	and.w	r3, r3, #127	; 0x7f
    1eae:	2b0a      	cmp	r3, #10
    1eb0:	d004      	beq.n	1ebc <serial2_set_tx+0x2c>
    1eb2:	2b3a      	cmp	r3, #58	; 0x3a
    1eb4:	d105      	bne.n	1ec2 <serial2_set_tx+0x32>
C:\Teensy\Projects\HelloWorld/serial2.c:251
    1eb6:	2200      	movs	r2, #0
    1eb8:	4b0e      	ldr	r3, [pc, #56]	; (1ef4 <serial2_set_tx+0x64>)
    1eba:	e001      	b.n	1ec0 <serial2_set_tx+0x30>
C:\Teensy\Projects\HelloWorld/serial2.c:247
    1ebc:	4b0e      	ldr	r3, [pc, #56]	; (1ef8 <serial2_set_tx+0x68>)
    1ebe:	2200      	movs	r2, #0
C:\Teensy\Projects\HelloWorld/serial2.c:251
    1ec0:	601a      	str	r2, [r3, #0]
C:\Teensy\Projects\HelloWorld/serial2.c:255
    1ec2:	2900      	cmp	r1, #0
C:\Teensy\Projects\HelloWorld/serial2.c:259
    1ec4:	f000 027f 	and.w	r2, r0, #127	; 0x7f
C:\Teensy\Projects\HelloWorld/serial2.c:255
    1ec8:	bf0c      	ite	eq
    1eca:	2344      	moveq	r3, #68	; 0x44
    1ecc:	2360      	movne	r3, #96	; 0x60
C:\Teensy\Projects\HelloWorld/serial2.c:259
    1ece:	2a0a      	cmp	r2, #10
    1ed0:	d005      	beq.n	1ede <serial2_set_tx+0x4e>
    1ed2:	2a3a      	cmp	r2, #58	; 0x3a
    1ed4:	d107      	bne.n	1ee6 <serial2_set_tx+0x56>
C:\Teensy\Projects\HelloWorld/serial2.c:264
    1ed6:	f443 7340 	orr.w	r3, r3, #768	; 0x300
    1eda:	4a06      	ldr	r2, [pc, #24]	; (1ef4 <serial2_set_tx+0x64>)
    1edc:	e002      	b.n	1ee4 <serial2_set_tx+0x54>
C:\Teensy\Projects\HelloWorld/serial2.c:260
    1ede:	4a06      	ldr	r2, [pc, #24]	; (1ef8 <serial2_set_tx+0x68>)
    1ee0:	f443 7340 	orr.w	r3, r3, #768	; 0x300
C:\Teensy\Projects\HelloWorld/serial2.c:264
    1ee4:	6013      	str	r3, [r2, #0]
C:\Teensy\Projects\HelloWorld/serial2.c:268
    1ee6:	7060      	strb	r0, [r4, #1]
    1ee8:	bd10      	pop	{r4, pc}
    1eea:	bf00      	nop
    1eec:	1fff0a09 	.word	0x1fff0a09
    1ef0:	40048034 	.word	0x40048034
    1ef4:	4004d000 	.word	0x4004d000
    1ef8:	4004b010 	.word	0x4004b010

00001efc <serial2_set_rx>:
serial2_set_rx():
C:\Teensy\Projects\HelloWorld/serial2.c:275
    1efc:	4a0f      	ldr	r2, [pc, #60]	; (1f3c <serial2_set_rx+0x40>)
    1efe:	7813      	ldrb	r3, [r2, #0]
    1f00:	4298      	cmp	r0, r3
    1f02:	d01a      	beq.n	1f3a <serial2_set_rx+0x3e>
C:\Teensy\Projects\HelloWorld/serial2.c:276
    1f04:	490e      	ldr	r1, [pc, #56]	; (1f40 <serial2_set_rx+0x44>)
    1f06:	6809      	ldr	r1, [r1, #0]
    1f08:	0509      	lsls	r1, r1, #20
    1f0a:	d515      	bpl.n	1f38 <serial2_set_rx+0x3c>
C:\Teensy\Projects\HelloWorld/serial2.c:277
    1f0c:	2b09      	cmp	r3, #9
    1f0e:	d004      	beq.n	1f1a <serial2_set_rx+0x1e>
    1f10:	2b3b      	cmp	r3, #59	; 0x3b
    1f12:	d105      	bne.n	1f20 <serial2_set_rx+0x24>
C:\Teensy\Projects\HelloWorld/serial2.c:282
    1f14:	2100      	movs	r1, #0
    1f16:	4b0b      	ldr	r3, [pc, #44]	; (1f44 <serial2_set_rx+0x48>)
    1f18:	e001      	b.n	1f1e <serial2_set_rx+0x22>
C:\Teensy\Projects\HelloWorld/serial2.c:278
    1f1a:	4b0b      	ldr	r3, [pc, #44]	; (1f48 <serial2_set_rx+0x4c>)
    1f1c:	2100      	movs	r1, #0
C:\Teensy\Projects\HelloWorld/serial2.c:282
    1f1e:	6019      	str	r1, [r3, #0]
C:\Teensy\Projects\HelloWorld/serial2.c:285
    1f20:	2809      	cmp	r0, #9
    1f22:	d005      	beq.n	1f30 <serial2_set_rx+0x34>
    1f24:	283b      	cmp	r0, #59	; 0x3b
    1f26:	d107      	bne.n	1f38 <serial2_set_rx+0x3c>
C:\Teensy\Projects\HelloWorld/serial2.c:290
    1f28:	f240 3113 	movw	r1, #787	; 0x313
    1f2c:	4b05      	ldr	r3, [pc, #20]	; (1f44 <serial2_set_rx+0x48>)
    1f2e:	e002      	b.n	1f36 <serial2_set_rx+0x3a>
C:\Teensy\Projects\HelloWorld/serial2.c:286
    1f30:	4b05      	ldr	r3, [pc, #20]	; (1f48 <serial2_set_rx+0x4c>)
    1f32:	f240 3113 	movw	r1, #787	; 0x313
C:\Teensy\Projects\HelloWorld/serial2.c:290
    1f36:	6019      	str	r1, [r3, #0]
C:\Teensy\Projects\HelloWorld/serial2.c:294
    1f38:	7010      	strb	r0, [r2, #0]
    1f3a:	4770      	bx	lr
    1f3c:	1fff0a09 	.word	0x1fff0a09
    1f40:	40048034 	.word	0x40048034
    1f44:	4004d004 	.word	0x4004d004
    1f48:	4004b00c 	.word	0x4004b00c

00001f4c <serial2_set_rts>:
serial2_set_rts():
C:\Teensy\Projects\HelloWorld/serial2.c:300
    1f4c:	4a0d      	ldr	r2, [pc, #52]	; (1f84 <serial2_set_rts+0x38>)
C:\Teensy\Projects\HelloWorld/serial2.c:299
    1f4e:	b538      	push	{r3, r4, r5, lr}
C:\Teensy\Projects\HelloWorld/serial2.c:300
    1f50:	6814      	ldr	r4, [r2, #0]
    1f52:	f414 6200 	ands.w	r2, r4, #2048	; 0x800
    1f56:	f04f 0400 	mov.w	r4, #0
    1f5a:	d010      	beq.n	1f7e <serial2_set_rts+0x32>
C:\Teensy\Projects\HelloWorld/serial2.c:301
    1f5c:	283f      	cmp	r0, #63	; 0x3f
    1f5e:	4d0a      	ldr	r5, [pc, #40]	; (1f88 <serial2_set_rts+0x3c>)
    1f60:	d80a      	bhi.n	1f78 <serial2_set_rts+0x2c>
C:\Teensy\Projects\HelloWorld/serial2.c:302
    1f62:	4a0a      	ldr	r2, [pc, #40]	; (1f8c <serial2_set_rts+0x40>)
C:\Teensy\Projects\HelloWorld/serial2.c:306
    1f64:	2101      	movs	r1, #1
C:\Teensy\Projects\HelloWorld/serial2.c:302
    1f66:	f852 3030 	ldr.w	r3, [r2, r0, lsl #3]
    1f6a:	60ab      	str	r3, [r5, #8]
C:\Teensy\Projects\HelloWorld/serial2.c:306
    1f6c:	f7fe fffe 	bl	f6c <pinMode>
C:\Teensy\Projects\HelloWorld/serial2.c:307
    1f70:	68ab      	ldr	r3, [r5, #8]
    1f72:	701c      	strb	r4, [r3, #0]
C:\Teensy\Projects\HelloWorld/serial2.c:322
    1f74:	2001      	movs	r0, #1
    1f76:	bd38      	pop	{r3, r4, r5, pc}
C:\Teensy\Projects\HelloWorld/serial2.c:309
    1f78:	60ac      	str	r4, [r5, #8]
C:\Teensy\Projects\HelloWorld/serial2.c:310
    1f7a:	4620      	mov	r0, r4
    1f7c:	bd38      	pop	{r3, r4, r5, pc}
C:\Teensy\Projects\HelloWorld/serial2.c:300
    1f7e:	4610      	mov	r0, r2
C:\Teensy\Projects\HelloWorld/serial2.c:323
    1f80:	bd38      	pop	{r3, r4, r5, pc}
    1f82:	bf00      	nop
    1f84:	40048034 	.word	0x40048034
    1f88:	1fff0c10 	.word	0x1fff0c10
    1f8c:	00009ecc 	.word	0x00009ecc

00001f90 <serial2_set_cts>:
serial2_set_cts():
C:\Teensy\Projects\HelloWorld/serial2.c:328
    1f90:	4b0e      	ldr	r3, [pc, #56]	; (1fcc <serial2_set_cts+0x3c>)
    1f92:	681b      	ldr	r3, [r3, #0]
    1f94:	f413 6300 	ands.w	r3, r3, #2048	; 0x800
    1f98:	d016      	beq.n	1fc8 <serial2_set_cts+0x38>
C:\Teensy\Projects\HelloWorld/serial2.c:329
    1f9a:	2817      	cmp	r0, #23
    1f9c:	4b0c      	ldr	r3, [pc, #48]	; (1fd0 <serial2_set_cts+0x40>)
    1f9e:	d103      	bne.n	1fa8 <serial2_set_cts+0x18>
C:\Teensy\Projects\HelloWorld/serial2.c:330
    1fa0:	f240 3102 	movw	r1, #770	; 0x302
    1fa4:	4a0b      	ldr	r2, [pc, #44]	; (1fd4 <serial2_set_cts+0x44>)
    1fa6:	e004      	b.n	1fb2 <serial2_set_cts+0x22>
C:\Teensy\Projects\HelloWorld/serial2.c:332
    1fa8:	283c      	cmp	r0, #60	; 0x3c
    1faa:	d109      	bne.n	1fc0 <serial2_set_cts+0x30>
C:\Teensy\Projects\HelloWorld/serial2.c:333
    1fac:	4a0a      	ldr	r2, [pc, #40]	; (1fd8 <serial2_set_cts+0x48>)
    1fae:	f240 3102 	movw	r1, #770	; 0x302
    1fb2:	6011      	str	r1, [r2, #0]
C:\Teensy\Projects\HelloWorld/serial2.c:339
    1fb4:	7b5a      	ldrb	r2, [r3, #13]
    1fb6:	f042 0201 	orr.w	r2, r2, #1
    1fba:	735a      	strb	r2, [r3, #13]
C:\Teensy\Projects\HelloWorld/serial2.c:340
    1fbc:	2001      	movs	r0, #1
    1fbe:	4770      	bx	lr
C:\Teensy\Projects\HelloWorld/serial2.c:336
    1fc0:	7b5a      	ldrb	r2, [r3, #13]
    1fc2:	f002 02fe 	and.w	r2, r2, #254	; 0xfe
    1fc6:	735a      	strb	r2, [r3, #13]
C:\Teensy\Projects\HelloWorld/serial2.c:337
    1fc8:	2000      	movs	r0, #0
    1fca:	4770      	bx	lr
    1fcc:	40048034 	.word	0x40048034
    1fd0:	4006b000 	.word	0x4006b000
    1fd4:	4004b008 	.word	0x4004b008
    1fd8:	4004d008 	.word	0x4004d008

00001fdc <serial2_putchar>:
serial2_putchar():
C:\Teensy\Projects\HelloWorld/serial2.c:347
    1fdc:	b5f8      	push	{r3, r4, r5, r6, r7, lr}
C:\Teensy\Projects\HelloWorld/serial2.c:350
    1fde:	4b1b      	ldr	r3, [pc, #108]	; (204c <serial2_putchar+0x70>)
    1fe0:	681b      	ldr	r3, [r3, #0]
    1fe2:	051a      	lsls	r2, r3, #20
C:\Teensy\Projects\HelloWorld/serial2.c:347
    1fe4:	4607      	mov	r7, r0
C:\Teensy\Projects\HelloWorld/serial2.c:350
    1fe6:	d530      	bpl.n	204a <serial2_putchar+0x6e>
C:\Teensy\Projects\HelloWorld/serial2.c:351
    1fe8:	4e19      	ldr	r6, [pc, #100]	; (2050 <serial2_putchar+0x74>)
    1fea:	68f3      	ldr	r3, [r6, #12]
    1fec:	b10b      	cbz	r3, 1ff2 <serial2_putchar+0x16>
C:\Teensy\Projects\HelloWorld/serial2.c:351 (discriminator 1)
    1fee:	2201      	movs	r2, #1
    1ff0:	701a      	strb	r2, [r3, #0]
C:\Teensy\Projects\HelloWorld/serial2.c:352
    1ff2:	78b4      	ldrb	r4, [r6, #2]
C:\Teensy\Projects\HelloWorld/serial2.c:353
    1ff4:	3401      	adds	r4, #1
    1ff6:	2c28      	cmp	r4, #40	; 0x28
    1ff8:	bf28      	it	cs
    1ffa:	2400      	movcs	r4, #0
C:\Teensy\Projects\HelloWorld/serial2.c:354 (discriminator 1)
    1ffc:	78f3      	ldrb	r3, [r6, #3]
    1ffe:	4d14      	ldr	r5, [pc, #80]	; (2050 <serial2_putchar+0x74>)
    2000:	42a3      	cmp	r3, r4
    2002:	d118      	bne.n	2036 <serial2_putchar+0x5a>
C:\Teensy\Projects\HelloWorld/serial2.c:355
    2004:	f7fe fce2 	bl	9cc <nvic_execution_priority>
C:\Teensy\Projects\HelloWorld/serial2.c:356
    2008:	2840      	cmp	r0, #64	; 0x40
    200a:	dc0f      	bgt.n	202c <serial2_putchar+0x50>
C:\Teensy\Projects\HelloWorld/serial2.c:357
    200c:	4a11      	ldr	r2, [pc, #68]	; (2054 <serial2_putchar+0x78>)
    200e:	7913      	ldrb	r3, [r2, #4]
    2010:	061b      	lsls	r3, r3, #24
    2012:	d5f3      	bpl.n	1ffc <serial2_putchar+0x20>
C:\Teensy\Projects\HelloWorld/serial2.c:358
    2014:	78eb      	ldrb	r3, [r5, #3]
C:\Teensy\Projects\HelloWorld/serial2.c:359
    2016:	3301      	adds	r3, #1
    2018:	2b28      	cmp	r3, #40	; 0x28
    201a:	bf28      	it	cs
    201c:	2300      	movcs	r3, #0
C:\Teensy\Projects\HelloWorld/serial2.c:360
    201e:	18f1      	adds	r1, r6, r3
C:\Teensy\Projects\HelloWorld/serial2.c:363
    2020:	b2db      	uxtb	r3, r3
C:\Teensy\Projects\HelloWorld/serial2.c:360
    2022:	7c09      	ldrb	r1, [r1, #16]
    2024:	b2c9      	uxtb	r1, r1
C:\Teensy\Projects\HelloWorld/serial2.c:362
    2026:	71d1      	strb	r1, [r2, #7]
C:\Teensy\Projects\HelloWorld/serial2.c:363
    2028:	70f3      	strb	r3, [r6, #3]
    202a:	e7e7      	b.n	1ffc <serial2_putchar+0x20>
C:\Teensy\Projects\HelloWorld/serial2.c:365
    202c:	28ff      	cmp	r0, #255	; 0xff
    202e:	dde5      	ble.n	1ffc <serial2_putchar+0x20>
C:\Teensy\Projects\HelloWorld/serial2.c:366
    2030:	f003 fac2 	bl	55b8 <yield>
    2034:	e7e2      	b.n	1ffc <serial2_putchar+0x20>
C:\Teensy\Projects\HelloWorld/serial2.c:369
    2036:	192b      	adds	r3, r5, r4
    2038:	b2ff      	uxtb	r7, r7
    203a:	741f      	strb	r7, [r3, #16]
C:\Teensy\Projects\HelloWorld/serial2.c:370
    203c:	2301      	movs	r3, #1
    203e:	712b      	strb	r3, [r5, #4]
C:\Teensy\Projects\HelloWorld/serial2.c:372
    2040:	4b04      	ldr	r3, [pc, #16]	; (2054 <serial2_putchar+0x78>)
C:\Teensy\Projects\HelloWorld/serial2.c:371
    2042:	b2e4      	uxtb	r4, r4
C:\Teensy\Projects\HelloWorld/serial2.c:372
    2044:	22bc      	movs	r2, #188	; 0xbc
C:\Teensy\Projects\HelloWorld/serial2.c:371
    2046:	70ac      	strb	r4, [r5, #2]
C:\Teensy\Projects\HelloWorld/serial2.c:372
    2048:	70da      	strb	r2, [r3, #3]
    204a:	bdf8      	pop	{r3, r4, r5, r6, r7, pc}
    204c:	40048034 	.word	0x40048034
    2050:	1fff0c10 	.word	0x1fff0c10
    2054:	4006b000 	.word	0x4006b000

00002058 <serial2_write>:
serial2_write():
C:\Teensy\Projects\HelloWorld/serial2.c:377
    2058:	e92d 43f8 	stmdb	sp!, {r3, r4, r5, r6, r7, r8, r9, lr}
C:\Teensy\Projects\HelloWorld/serial2.c:382
    205c:	4b23      	ldr	r3, [pc, #140]	; (20ec <serial2_write+0x94>)
    205e:	681b      	ldr	r3, [r3, #0]
    2060:	051a      	lsls	r2, r3, #20
C:\Teensy\Projects\HelloWorld/serial2.c:377
    2062:	4607      	mov	r7, r0
    2064:	4689      	mov	r9, r1
C:\Teensy\Projects\HelloWorld/serial2.c:382
    2066:	d53e      	bpl.n	20e6 <serial2_write+0x8e>
C:\Teensy\Projects\HelloWorld/serial2.c:383
    2068:	4c21      	ldr	r4, [pc, #132]	; (20f0 <serial2_write+0x98>)
    206a:	68e3      	ldr	r3, [r4, #12]
    206c:	b10b      	cbz	r3, 2072 <serial2_write+0x1a>
C:\Teensy\Projects\HelloWorld/serial2.c:383 (discriminator 1)
    206e:	2201      	movs	r2, #1
    2070:	701a      	strb	r2, [r3, #0]
C:\Teensy\Projects\HelloWorld/serial2.c:394 (discriminator 1)
    2072:	463e      	mov	r6, r7
C:\Teensy\Projects\HelloWorld/serial2.c:379 (discriminator 1)
    2074:	eb07 0309 	add.w	r3, r7, r9
C:\Teensy\Projects\HelloWorld/serial2.c:384 (discriminator 1)
    2078:	429e      	cmp	r6, r3
    207a:	d231      	bcs.n	20e0 <serial2_write+0x88>
C:\Teensy\Projects\HelloWorld/serial2.c:385
    207c:	78a5      	ldrb	r5, [r4, #2]
C:\Teensy\Projects\HelloWorld/serial2.c:387
    207e:	f894 8003 	ldrb.w	r8, [r4, #3]
C:\Teensy\Projects\HelloWorld/serial2.c:386
    2082:	3501      	adds	r5, #1
    2084:	2d28      	cmp	r5, #40	; 0x28
    2086:	bf28      	it	cs
    2088:	2500      	movcs	r5, #0
C:\Teensy\Projects\HelloWorld/serial2.c:387
    208a:	fa5f f888 	uxtb.w	r8, r8
    208e:	45a8      	cmp	r8, r5
    2090:	d11d      	bne.n	20ce <serial2_write+0x76>
C:\Teensy\Projects\HelloWorld/serial2.c:388
    2092:	4b18      	ldr	r3, [pc, #96]	; (20f4 <serial2_write+0x9c>)
    2094:	22bc      	movs	r2, #188	; 0xbc
    2096:	70da      	strb	r2, [r3, #3]
C:\Teensy\Projects\HelloWorld/serial2.c:390
    2098:	f7fe fc98 	bl	9cc <nvic_execution_priority>
C:\Teensy\Projects\HelloWorld/serial2.c:391
    209c:	2840      	cmp	r0, #64	; 0x40
    209e:	dc0f      	bgt.n	20c0 <serial2_write+0x68>
C:\Teensy\Projects\HelloWorld/serial2.c:392
    20a0:	4a14      	ldr	r2, [pc, #80]	; (20f4 <serial2_write+0x9c>)
    20a2:	7913      	ldrb	r3, [r2, #4]
    20a4:	061b      	lsls	r3, r3, #24
    20a6:	d50f      	bpl.n	20c8 <serial2_write+0x70>
C:\Teensy\Projects\HelloWorld/serial2.c:393
    20a8:	78e3      	ldrb	r3, [r4, #3]
C:\Teensy\Projects\HelloWorld/serial2.c:394
    20aa:	3301      	adds	r3, #1
    20ac:	2b28      	cmp	r3, #40	; 0x28
    20ae:	bf28      	it	cs
    20b0:	2300      	movcs	r3, #0
C:\Teensy\Projects\HelloWorld/serial2.c:395
    20b2:	18e1      	adds	r1, r4, r3
C:\Teensy\Projects\HelloWorld/serial2.c:398
    20b4:	b2db      	uxtb	r3, r3
C:\Teensy\Projects\HelloWorld/serial2.c:395
    20b6:	7c09      	ldrb	r1, [r1, #16]
    20b8:	b2c9      	uxtb	r1, r1
C:\Teensy\Projects\HelloWorld/serial2.c:397
    20ba:	71d1      	strb	r1, [r2, #7]
C:\Teensy\Projects\HelloWorld/serial2.c:398
    20bc:	70e3      	strb	r3, [r4, #3]
    20be:	e003      	b.n	20c8 <serial2_write+0x70>
C:\Teensy\Projects\HelloWorld/serial2.c:400
    20c0:	28ff      	cmp	r0, #255	; 0xff
    20c2:	dd01      	ble.n	20c8 <serial2_write+0x70>
C:\Teensy\Projects\HelloWorld/serial2.c:401
    20c4:	f003 fa78 	bl	55b8 <yield>
C:\Teensy\Projects\HelloWorld/serial2.c:403
    20c8:	78e3      	ldrb	r3, [r4, #3]
    20ca:	4543      	cmp	r3, r8
    20cc:	d0e4      	beq.n	2098 <serial2_write+0x40>
C:\Teensy\Projects\HelloWorld/serial2.c:405
    20ce:	1963      	adds	r3, r4, r5
    20d0:	f816 2b01 	ldrb.w	r2, [r6], #1
    20d4:	741a      	strb	r2, [r3, #16]
C:\Teensy\Projects\HelloWorld/serial2.c:407
    20d6:	b2ed      	uxtb	r5, r5
C:\Teensy\Projects\HelloWorld/serial2.c:406
    20d8:	2301      	movs	r3, #1
    20da:	7123      	strb	r3, [r4, #4]
C:\Teensy\Projects\HelloWorld/serial2.c:407
    20dc:	70a5      	strb	r5, [r4, #2]
    20de:	e7c9      	b.n	2074 <serial2_write+0x1c>
C:\Teensy\Projects\HelloWorld/serial2.c:409
    20e0:	4b04      	ldr	r3, [pc, #16]	; (20f4 <serial2_write+0x9c>)
    20e2:	22bc      	movs	r2, #188	; 0xbc
    20e4:	70da      	strb	r2, [r3, #3]
    20e6:	e8bd 83f8 	ldmia.w	sp!, {r3, r4, r5, r6, r7, r8, r9, pc}
    20ea:	bf00      	nop
    20ec:	40048034 	.word	0x40048034
    20f0:	1fff0c10 	.word	0x1fff0c10
    20f4:	4006b000 	.word	0x4006b000

000020f8 <serial2_flush>:
serial2_flush():
C:\Teensy\Projects\HelloWorld/serial2.c:420
    20f8:	b508      	push	{r3, lr}
C:\Teensy\Projects\HelloWorld/serial2.c:421 (discriminator 1)
    20fa:	4b03      	ldr	r3, [pc, #12]	; (2108 <serial2_flush+0x10>)
    20fc:	791b      	ldrb	r3, [r3, #4]
    20fe:	b113      	cbz	r3, 2106 <serial2_flush+0xe>
C:\Teensy\Projects\HelloWorld/serial2.c:421 (discriminator 2)
    2100:	f003 fa5a 	bl	55b8 <yield>
    2104:	e7f9      	b.n	20fa <serial2_flush+0x2>
C:\Teensy\Projects\HelloWorld/serial2.c:422
    2106:	bd08      	pop	{r3, pc}
    2108:	1fff0c10 	.word	0x1fff0c10

0000210c <serial2_write_buffer_free>:
serial2_write_buffer_free():
C:\Teensy\Projects\HelloWorld/serial2.c:428
    210c:	4a05      	ldr	r2, [pc, #20]	; (2124 <serial2_write_buffer_free+0x18>)
    210e:	7893      	ldrb	r3, [r2, #2]
C:\Teensy\Projects\HelloWorld/serial2.c:429
    2110:	78d0      	ldrb	r0, [r2, #3]
C:\Teensy\Projects\HelloWorld/serial2.c:428
    2112:	b2db      	uxtb	r3, r3
C:\Teensy\Projects\HelloWorld/serial2.c:429
    2114:	b2c0      	uxtb	r0, r0
C:\Teensy\Projects\HelloWorld/serial2.c:430
    2116:	4283      	cmp	r3, r0
    2118:	bf2c      	ite	cs
    211a:	3027      	addcs	r0, #39	; 0x27
C:\Teensy\Projects\HelloWorld/serial2.c:431
    211c:	f100 30ff 	addcc.w	r0, r0, #4294967295
    2120:	1ac0      	subs	r0, r0, r3
C:\Teensy\Projects\HelloWorld/serial2.c:432
    2122:	4770      	bx	lr
    2124:	1fff0c10 	.word	0x1fff0c10

00002128 <serial2_available>:
serial2_available():
C:\Teensy\Projects\HelloWorld/serial2.c:438
    2128:	4a04      	ldr	r2, [pc, #16]	; (213c <serial2_available+0x14>)
    212a:	7810      	ldrb	r0, [r2, #0]
C:\Teensy\Projects\HelloWorld/serial2.c:439
    212c:	7853      	ldrb	r3, [r2, #1]
C:\Teensy\Projects\HelloWorld/serial2.c:438
    212e:	b2c0      	uxtb	r0, r0
C:\Teensy\Projects\HelloWorld/serial2.c:439
    2130:	b2db      	uxtb	r3, r3
C:\Teensy\Projects\HelloWorld/serial2.c:440
    2132:	4298      	cmp	r0, r3
C:\Teensy\Projects\HelloWorld/serial2.c:441
    2134:	bf38      	it	cc
    2136:	3040      	addcc	r0, #64	; 0x40
    2138:	1ac0      	subs	r0, r0, r3
C:\Teensy\Projects\HelloWorld/serial2.c:442
    213a:	4770      	bx	lr
    213c:	1fff0c10 	.word	0x1fff0c10

00002140 <serial2_getchar>:
serial2_getchar():
C:\Teensy\Projects\HelloWorld/serial2.c:445
    2140:	b510      	push	{r4, lr}
C:\Teensy\Projects\HelloWorld/serial2.c:449
    2142:	4a0f      	ldr	r2, [pc, #60]	; (2180 <serial2_getchar+0x40>)
    2144:	7811      	ldrb	r1, [r2, #0]
C:\Teensy\Projects\HelloWorld/serial2.c:450
    2146:	7853      	ldrb	r3, [r2, #1]
C:\Teensy\Projects\HelloWorld/serial2.c:449
    2148:	b2c9      	uxtb	r1, r1
C:\Teensy\Projects\HelloWorld/serial2.c:450
    214a:	b2db      	uxtb	r3, r3
C:\Teensy\Projects\HelloWorld/serial2.c:451
    214c:	4299      	cmp	r1, r3
    214e:	d014      	beq.n	217a <serial2_getchar+0x3a>
C:\Teensy\Projects\HelloWorld/serial2.c:452
    2150:	3301      	adds	r3, #1
    2152:	2b40      	cmp	r3, #64	; 0x40
    2154:	bf28      	it	cs
    2156:	2300      	movcs	r3, #0
C:\Teensy\Projects\HelloWorld/serial2.c:453
    2158:	18d0      	adds	r0, r2, r3
C:\Teensy\Projects\HelloWorld/serial2.c:454
    215a:	b2dc      	uxtb	r4, r3
C:\Teensy\Projects\HelloWorld/serial2.c:453
    215c:	f890 0038 	ldrb.w	r0, [r0, #56]	; 0x38
C:\Teensy\Projects\HelloWorld/serial2.c:454
    2160:	7054      	strb	r4, [r2, #1]
C:\Teensy\Projects\HelloWorld/serial2.c:455
    2162:	6892      	ldr	r2, [r2, #8]
C:\Teensy\Projects\HelloWorld/serial2.c:453
    2164:	b2c0      	uxtb	r0, r0
C:\Teensy\Projects\HelloWorld/serial2.c:455
    2166:	b152      	cbz	r2, 217e <serial2_getchar+0x3e>
C:\Teensy\Projects\HelloWorld/serial2.c:457
    2168:	4299      	cmp	r1, r3
C:\Teensy\Projects\HelloWorld/serial2.c:458
    216a:	bf38      	it	cc
    216c:	3140      	addcc	r1, #64	; 0x40
    216e:	1acb      	subs	r3, r1, r3
C:\Teensy\Projects\HelloWorld/serial2.c:459
    2170:	2b1a      	cmp	r3, #26
    2172:	dc04      	bgt.n	217e <serial2_getchar+0x3e>
C:\Teensy\Projects\HelloWorld/serial2.c:459 (discriminator 1)
    2174:	2300      	movs	r3, #0
    2176:	7013      	strb	r3, [r2, #0]
    2178:	bd10      	pop	{r4, pc}
C:\Teensy\Projects\HelloWorld/serial2.c:451
    217a:	f04f 30ff 	mov.w	r0, #4294967295
C:\Teensy\Projects\HelloWorld/serial2.c:462
    217e:	bd10      	pop	{r4, pc}
    2180:	1fff0c10 	.word	0x1fff0c10

00002184 <serial2_peek>:
serial2_peek():
C:\Teensy\Projects\HelloWorld/serial2.c:468
    2184:	4a08      	ldr	r2, [pc, #32]	; (21a8 <serial2_peek+0x24>)
    2186:	7811      	ldrb	r1, [r2, #0]
C:\Teensy\Projects\HelloWorld/serial2.c:469
    2188:	7853      	ldrb	r3, [r2, #1]
    218a:	b2db      	uxtb	r3, r3
C:\Teensy\Projects\HelloWorld/serial2.c:470
    218c:	4299      	cmp	r1, r3
    218e:	d008      	beq.n	21a2 <serial2_peek+0x1e>
C:\Teensy\Projects\HelloWorld/serial2.c:471
    2190:	3301      	adds	r3, #1
    2192:	2b40      	cmp	r3, #64	; 0x40
    2194:	bf28      	it	cs
    2196:	2300      	movcs	r3, #0
C:\Teensy\Projects\HelloWorld/serial2.c:472
    2198:	4413      	add	r3, r2
    219a:	f893 0038 	ldrb.w	r0, [r3, #56]	; 0x38
    219e:	b2c0      	uxtb	r0, r0
    21a0:	4770      	bx	lr
C:\Teensy\Projects\HelloWorld/serial2.c:470
    21a2:	f04f 30ff 	mov.w	r0, #4294967295
C:\Teensy\Projects\HelloWorld/serial2.c:473
    21a6:	4770      	bx	lr
    21a8:	1fff0c10 	.word	0x1fff0c10

000021ac <serial2_clear>:
serial2_clear():
C:\Teensy\Projects\HelloWorld/serial2.c:478
    21ac:	4b0b      	ldr	r3, [pc, #44]	; (21dc <serial2_clear+0x30>)
    21ae:	681b      	ldr	r3, [r3, #0]
    21b0:	051b      	lsls	r3, r3, #20
    21b2:	d512      	bpl.n	21da <serial2_clear+0x2e>
C:\Teensy\Projects\HelloWorld/serial2.c:479
    21b4:	4b0a      	ldr	r3, [pc, #40]	; (21e0 <serial2_clear+0x34>)
    21b6:	78da      	ldrb	r2, [r3, #3]
    21b8:	f002 02cb 	and.w	r2, r2, #203	; 0xcb
    21bc:	70da      	strb	r2, [r3, #3]
C:\Teensy\Projects\HelloWorld/serial2.c:480
    21be:	2240      	movs	r2, #64	; 0x40
    21c0:	745a      	strb	r2, [r3, #17]
C:\Teensy\Projects\HelloWorld/serial2.c:481
    21c2:	78da      	ldrb	r2, [r3, #3]
    21c4:	f042 0234 	orr.w	r2, r2, #52	; 0x34
    21c8:	70da      	strb	r2, [r3, #3]
C:\Teensy\Projects\HelloWorld/serial2.c:483
    21ca:	4b06      	ldr	r3, [pc, #24]	; (21e4 <serial2_clear+0x38>)
    21cc:	785a      	ldrb	r2, [r3, #1]
    21ce:	b2d2      	uxtb	r2, r2
    21d0:	701a      	strb	r2, [r3, #0]
C:\Teensy\Projects\HelloWorld/serial2.c:484
    21d2:	689b      	ldr	r3, [r3, #8]
    21d4:	b10b      	cbz	r3, 21da <serial2_clear+0x2e>
C:\Teensy\Projects\HelloWorld/serial2.c:484 (discriminator 1)
    21d6:	2200      	movs	r2, #0
    21d8:	701a      	strb	r2, [r3, #0]
    21da:	4770      	bx	lr
    21dc:	40048034 	.word	0x40048034
    21e0:	4006b000 	.word	0x4006b000
    21e4:	1fff0c10 	.word	0x1fff0c10

000021e8 <uart1_status_isr>:
uart1_status_isr():
C:\Teensy\Projects\HelloWorld/serial2.c:496
    21e8:	b530      	push	{r4, r5, lr}
C:\Teensy\Projects\HelloWorld/serial2.c:503
    21ea:	4b35      	ldr	r3, [pc, #212]	; (22c0 <uart1_status_isr+0xd8>)
    21ec:	791a      	ldrb	r2, [r3, #4]
    21ee:	f012 0f30 	tst.w	r2, #48	; 0x30
    21f2:	d02f      	beq.n	2254 <uart1_status_isr+0x6c>
C:\Teensy\Projects\HelloWorld/serial2.c:504
    21f4:	b672      	cpsid	i
C:\Teensy\Projects\HelloWorld/serial2.c:505
    21f6:	7d9a      	ldrb	r2, [r3, #22]
C:\Teensy\Projects\HelloWorld/serial2.c:506
    21f8:	f002 04ff 	and.w	r4, r2, #255	; 0xff
    21fc:	b922      	cbnz	r2, 2208 <uart1_status_isr+0x20>
C:\Teensy\Projects\HelloWorld/serial2.c:513
    21fe:	79da      	ldrb	r2, [r3, #7]
C:\Teensy\Projects\HelloWorld/serial2.c:523
    2200:	2240      	movs	r2, #64	; 0x40
    2202:	745a      	strb	r2, [r3, #17]
C:\Teensy\Projects\HelloWorld/serial2.c:524
    2204:	b662      	cpsie	i
    2206:	e025      	b.n	2254 <uart1_status_isr+0x6c>
C:\Teensy\Projects\HelloWorld/serial2.c:526
    2208:	b662      	cpsie	i
C:\Teensy\Projects\HelloWorld/serial2.c:527
    220a:	482e      	ldr	r0, [pc, #184]	; (22c4 <uart1_status_isr+0xdc>)
    220c:	7803      	ldrb	r3, [r0, #0]
C:\Teensy\Projects\HelloWorld/serial2.c:528
    220e:	7841      	ldrb	r1, [r0, #1]
C:\Teensy\Projects\HelloWorld/serial2.c:527
    2210:	b2db      	uxtb	r3, r3
C:\Teensy\Projects\HelloWorld/serial2.c:528
    2212:	b2c9      	uxtb	r1, r1
C:\Teensy\Projects\HelloWorld/serial2.c:533
    2214:	4a2a      	ldr	r2, [pc, #168]	; (22c0 <uart1_status_isr+0xd8>)
    2216:	79d5      	ldrb	r5, [r2, #7]
C:\Teensy\Projects\HelloWorld/serial2.c:535
    2218:	1c5a      	adds	r2, r3, #1
C:\Teensy\Projects\HelloWorld/serial2.c:536
    221a:	2a40      	cmp	r2, #64	; 0x40
    221c:	bf28      	it	cs
    221e:	2200      	movcs	r2, #0
C:\Teensy\Projects\HelloWorld/serial2.c:537
    2220:	428a      	cmp	r2, r1
C:\Teensy\Projects\HelloWorld/serial2.c:533
    2222:	b2ed      	uxtb	r5, r5
C:\Teensy\Projects\HelloWorld/serial2.c:537
    2224:	d003      	beq.n	222e <uart1_status_isr+0x46>
C:\Teensy\Projects\HelloWorld/serial2.c:539
    2226:	1883      	adds	r3, r0, r2
    2228:	f883 5038 	strb.w	r5, [r3, #56]	; 0x38
    222c:	4613      	mov	r3, r2
C:\Teensy\Projects\HelloWorld/serial2.c:541
    222e:	1e62      	subs	r2, r4, #1
    2230:	f012 04ff 	ands.w	r4, r2, #255	; 0xff
    2234:	d1ee      	bne.n	2214 <uart1_status_isr+0x2c>
C:\Teensy\Projects\HelloWorld/serial2.c:542
    2236:	b2da      	uxtb	r2, r3
    2238:	7002      	strb	r2, [r0, #0]
C:\Teensy\Projects\HelloWorld/serial2.c:543
    223a:	6882      	ldr	r2, [r0, #8]
    223c:	b152      	cbz	r2, 2254 <uart1_status_isr+0x6c>
C:\Teensy\Projects\HelloWorld/serial2.c:545
    223e:	428b      	cmp	r3, r1
C:\Teensy\Projects\HelloWorld/serial2.c:546
    2240:	bf36      	itet	cc
    2242:	f1c1 0140 	rsbcc	r1, r1, #64	; 0x40
C:\Teensy\Projects\HelloWorld/serial2.c:545
    2246:	ebc1 0303 	rsbcs	r3, r1, r3
C:\Teensy\Projects\HelloWorld/serial2.c:546
    224a:	185b      	addcc	r3, r3, r1
C:\Teensy\Projects\HelloWorld/serial2.c:547
    224c:	2b27      	cmp	r3, #39	; 0x27
    224e:	bfc4      	itt	gt
    2250:	2301      	movgt	r3, #1
    2252:	7013      	strbgt	r3, [r2, #0]
C:\Teensy\Projects\HelloWorld/serial2.c:551
    2254:	4b1a      	ldr	r3, [pc, #104]	; (22c0 <uart1_status_isr+0xd8>)
    2256:	78d9      	ldrb	r1, [r3, #3]
    2258:	b2c9      	uxtb	r1, r1
C:\Teensy\Projects\HelloWorld/serial2.c:552
    225a:	060c      	lsls	r4, r1, #24
    225c:	d51f      	bpl.n	229e <uart1_status_isr+0xb6>
C:\Teensy\Projects\HelloWorld/serial2.c:552 (discriminator 1)
    225e:	791b      	ldrb	r3, [r3, #4]
    2260:	0618      	lsls	r0, r3, #24
    2262:	d51c      	bpl.n	229e <uart1_status_isr+0xb6>
C:\Teensy\Projects\HelloWorld/serial2.c:553
    2264:	4a17      	ldr	r2, [pc, #92]	; (22c4 <uart1_status_isr+0xdc>)
    2266:	7895      	ldrb	r5, [r2, #2]
C:\Teensy\Projects\HelloWorld/serial2.c:554
    2268:	78d3      	ldrb	r3, [r2, #3]
C:\Teensy\Projects\HelloWorld/serial2.c:553
    226a:	b2ed      	uxtb	r5, r5
C:\Teensy\Projects\HelloWorld/serial2.c:554
    226c:	b2db      	uxtb	r3, r3
    226e:	4610      	mov	r0, r2
C:\Teensy\Projects\HelloWorld/serial2.c:556
    2270:	42ab      	cmp	r3, r5
    2272:	d00c      	beq.n	228e <uart1_status_isr+0xa6>
C:\Teensy\Projects\HelloWorld/serial2.c:557
    2274:	3301      	adds	r3, #1
C:\Teensy\Projects\HelloWorld/serial2.c:558
    2276:	4a12      	ldr	r2, [pc, #72]	; (22c0 <uart1_status_isr+0xd8>)
C:\Teensy\Projects\HelloWorld/serial2.c:557
    2278:	2b28      	cmp	r3, #40	; 0x28
    227a:	bf28      	it	cs
    227c:	2300      	movcs	r3, #0
C:\Teensy\Projects\HelloWorld/serial2.c:558
    227e:	7914      	ldrb	r4, [r2, #4]
C:\Teensy\Projects\HelloWorld/serial2.c:559
    2280:	18c4      	adds	r4, r0, r3
    2282:	7c24      	ldrb	r4, [r4, #16]
    2284:	b2e4      	uxtb	r4, r4
C:\Teensy\Projects\HelloWorld/serial2.c:561
    2286:	71d4      	strb	r4, [r2, #7]
C:\Teensy\Projects\HelloWorld/serial2.c:562
    2288:	7d12      	ldrb	r2, [r2, #20]
    228a:	2a07      	cmp	r2, #7
    228c:	d9f0      	bls.n	2270 <uart1_status_isr+0x88>
C:\Teensy\Projects\HelloWorld/serial2.c:563
    228e:	b2db      	uxtb	r3, r3
    2290:	70c3      	strb	r3, [r0, #3]
C:\Teensy\Projects\HelloWorld/serial2.c:564
    2292:	4b0b      	ldr	r3, [pc, #44]	; (22c0 <uart1_status_isr+0xd8>)
    2294:	791a      	ldrb	r2, [r3, #4]
    2296:	0612      	lsls	r2, r2, #24
    2298:	bf44      	itt	mi
    229a:	227c      	movmi	r2, #124	; 0x7c
    229c:	70da      	strbmi	r2, [r3, #3]
C:\Teensy\Projects\HelloWorld/serial2.c:592
    229e:	064b      	lsls	r3, r1, #25
    22a0:	d50d      	bpl.n	22be <uart1_status_isr+0xd6>
C:\Teensy\Projects\HelloWorld/serial2.c:592 (discriminator 1)
    22a2:	4b07      	ldr	r3, [pc, #28]	; (22c0 <uart1_status_isr+0xd8>)
    22a4:	791a      	ldrb	r2, [r3, #4]
    22a6:	f012 0f40 	tst.w	r2, #64	; 0x40
    22aa:	4619      	mov	r1, r3
    22ac:	d007      	beq.n	22be <uart1_status_isr+0xd6>
C:\Teensy\Projects\HelloWorld/serial2.c:593
    22ae:	4b05      	ldr	r3, [pc, #20]	; (22c4 <uart1_status_isr+0xdc>)
    22b0:	2200      	movs	r2, #0
    22b2:	711a      	strb	r2, [r3, #4]
C:\Teensy\Projects\HelloWorld/serial2.c:594
    22b4:	68db      	ldr	r3, [r3, #12]
    22b6:	b103      	cbz	r3, 22ba <uart1_status_isr+0xd2>
C:\Teensy\Projects\HelloWorld/serial2.c:594 (discriminator 1)
    22b8:	701a      	strb	r2, [r3, #0]
C:\Teensy\Projects\HelloWorld/serial2.c:595
    22ba:	233c      	movs	r3, #60	; 0x3c
    22bc:	70cb      	strb	r3, [r1, #3]
    22be:	bd30      	pop	{r4, r5, pc}
    22c0:	4006b000 	.word	0x4006b000
    22c4:	1fff0c10 	.word	0x1fff0c10

000022c8 <serial3_begin>:
serial3_begin():
C:\Teensy\Projects\HelloWorld/serial3.c:111
    22c8:	4b14      	ldr	r3, [pc, #80]	; (231c <serial3_begin+0x54>)
    22ca:	681a      	ldr	r2, [r3, #0]
    22cc:	f442 5280 	orr.w	r2, r2, #4096	; 0x1000
    22d0:	601a      	str	r2, [r3, #0]
C:\Teensy\Projects\HelloWorld/serial3.c:112
    22d2:	4a13      	ldr	r2, [pc, #76]	; (2320 <serial3_begin+0x58>)
    22d4:	2300      	movs	r3, #0
    22d6:	7013      	strb	r3, [r2, #0]
C:\Teensy\Projects\HelloWorld/serial3.c:113
    22d8:	7053      	strb	r3, [r2, #1]
C:\Teensy\Projects\HelloWorld/serial3.c:114
    22da:	7093      	strb	r3, [r2, #2]
C:\Teensy\Projects\HelloWorld/serial3.c:115
    22dc:	70d3      	strb	r3, [r2, #3]
C:\Teensy\Projects\HelloWorld/serial3.c:116
    22de:	7113      	strb	r3, [r2, #4]
C:\Teensy\Projects\HelloWorld/serial3.c:118
    22e0:	4a10      	ldr	r2, [pc, #64]	; (2324 <serial3_begin+0x5c>)
    22e2:	f240 3113 	movw	r1, #787	; 0x313
    22e6:	6011      	str	r1, [r2, #0]
C:\Teensy\Projects\HelloWorld/serial3.c:119
    22e8:	f44f 7151 	mov.w	r1, #836	; 0x344
    22ec:	6051      	str	r1, [r2, #4]
C:\Teensy\Projects\HelloWorld/serial3.c:131
    22ee:	4a0e      	ldr	r2, [pc, #56]	; (2328 <serial3_begin+0x60>)
    22f0:	f3c0 3144 	ubfx	r1, r0, #13, #5
    22f4:	7011      	strb	r1, [r2, #0]
C:\Teensy\Projects\HelloWorld/serial3.c:132
    22f6:	f3c0 1147 	ubfx	r1, r0, #5, #8
C:\Teensy\Projects\HelloWorld/serial3.c:133
    22fa:	f000 001f 	and.w	r0, r0, #31
C:\Teensy\Projects\HelloWorld/serial3.c:132
    22fe:	7051      	strb	r1, [r2, #1]
C:\Teensy\Projects\HelloWorld/serial3.c:133
    2300:	7290      	strb	r0, [r2, #10]
C:\Teensy\Projects\HelloWorld/serial3.c:134
    2302:	7093      	strb	r3, [r2, #2]
C:\Teensy\Projects\HelloWorld/serial3.c:135
    2304:	7413      	strb	r3, [r2, #16]
C:\Teensy\Projects\HelloWorld/serial3.c:141
    2306:	232c      	movs	r3, #44	; 0x2c
    2308:	70d3      	strb	r3, [r2, #3]
C:\Teensy\Projects\HelloWorld/serial3.c:142
    230a:	4b08      	ldr	r3, [pc, #32]	; (232c <serial3_begin+0x64>)
    230c:	2240      	movs	r2, #64	; 0x40
    230e:	701a      	strb	r2, [r3, #0]
C:\Teensy\Projects\HelloWorld/serial3.c:143
    2310:	f2a3 331f 	subw	r3, r3, #799	; 0x31f
    2314:	2208      	movs	r2, #8
    2316:	601a      	str	r2, [r3, #0]
    2318:	4770      	bx	lr
    231a:	bf00      	nop
    231c:	40048034 	.word	0x40048034
    2320:	1fff0c88 	.word	0x1fff0c88
    2324:	4004c008 	.word	0x4004c008
    2328:	4006c000 	.word	0x4006c000
    232c:	e000e423 	.word	0xe000e423

00002330 <serial3_format>:
serial3_format():
C:\Teensy\Projects\HelloWorld/serial3.c:150
    2330:	4a19      	ldr	r2, [pc, #100]	; (2398 <serial3_format+0x68>)
    2332:	7893      	ldrb	r3, [r2, #2]
C:\Teensy\Projects\HelloWorld/serial3.c:151
    2334:	f000 0103 	and.w	r1, r0, #3
    2338:	f003 03ec 	and.w	r3, r3, #236	; 0xec
    233c:	430b      	orrs	r3, r1
C:\Teensy\Projects\HelloWorld/serial3.c:152
    233e:	0741      	lsls	r1, r0, #29
    2340:	bf48      	it	mi
    2342:	f043 0310 	orrmi.w	r3, r3, #16
C:\Teensy\Projects\HelloWorld/serial3.c:153
    2346:	7093      	strb	r3, [r2, #2]
C:\Teensy\Projects\HelloWorld/serial3.c:154
    2348:	f000 030f 	and.w	r3, r0, #15
    234c:	2b04      	cmp	r3, #4
C:\Teensy\Projects\HelloWorld/serial3.c:153
    234e:	4912      	ldr	r1, [pc, #72]	; (2398 <serial3_format+0x68>)
C:\Teensy\Projects\HelloWorld/serial3.c:154
    2350:	d103      	bne.n	235a <serial3_format+0x2a>
C:\Teensy\Projects\HelloWorld/serial3.c:154 (discriminator 1)
    2352:	798b      	ldrb	r3, [r1, #6]
    2354:	f043 0340 	orr.w	r3, r3, #64	; 0x40
    2358:	718b      	strb	r3, [r1, #6]
C:\Teensy\Projects\HelloWorld/serial3.c:155
    235a:	7952      	ldrb	r2, [r2, #5]
C:\Teensy\Projects\HelloWorld/serial3.c:157
    235c:	4b0e      	ldr	r3, [pc, #56]	; (2398 <serial3_format+0x68>)
C:\Teensy\Projects\HelloWorld/serial3.c:155
    235e:	f002 02ef 	and.w	r2, r2, #239	; 0xef
C:\Teensy\Projects\HelloWorld/serial3.c:156
    2362:	06c1      	lsls	r1, r0, #27
    2364:	bf48      	it	mi
    2366:	f042 0210 	orrmi.w	r2, r2, #16
C:\Teensy\Projects\HelloWorld/serial3.c:157
    236a:	715a      	strb	r2, [r3, #5]
C:\Teensy\Projects\HelloWorld/serial3.c:158
    236c:	799a      	ldrb	r2, [r3, #6]
C:\Teensy\Projects\HelloWorld/serial3.c:159
    236e:	f010 0f20 	tst.w	r0, #32
C:\Teensy\Projects\HelloWorld/serial3.c:158
    2372:	f002 02ef 	and.w	r2, r2, #239	; 0xef
    2376:	4619      	mov	r1, r3
C:\Teensy\Projects\HelloWorld/serial3.c:159
    2378:	bf18      	it	ne
    237a:	f042 0210 	orrne.w	r2, r2, #16
C:\Teensy\Projects\HelloWorld/serial3.c:160
    237e:	718a      	strb	r2, [r1, #6]
C:\Teensy\Projects\HelloWorld/serial3.c:169
    2380:	05c2      	lsls	r2, r0, #23
C:\Teensy\Projects\HelloWorld/serial3.c:160
    2382:	4b05      	ldr	r3, [pc, #20]	; (2398 <serial3_format+0x68>)
C:\Teensy\Projects\HelloWorld/serial3.c:169
    2384:	d506      	bpl.n	2394 <serial3_format+0x64>
C:\Teensy\Projects\HelloWorld/serial3.c:170
    2386:	785a      	ldrb	r2, [r3, #1]
C:\Teensy\Projects\HelloWorld/serial3.c:171
    2388:	7819      	ldrb	r1, [r3, #0]
C:\Teensy\Projects\HelloWorld/serial3.c:170
    238a:	b2d2      	uxtb	r2, r2
C:\Teensy\Projects\HelloWorld/serial3.c:171
    238c:	f041 0120 	orr.w	r1, r1, #32
    2390:	7019      	strb	r1, [r3, #0]
C:\Teensy\Projects\HelloWorld/serial3.c:172
    2392:	705a      	strb	r2, [r3, #1]
    2394:	4770      	bx	lr
    2396:	bf00      	nop
    2398:	4006c000 	.word	0x4006c000

0000239c <serial3_end>:
serial3_end():
C:\Teensy\Projects\HelloWorld/serial3.c:179
    239c:	b508      	push	{r3, lr}
C:\Teensy\Projects\HelloWorld/serial3.c:180
    239e:	4b10      	ldr	r3, [pc, #64]	; (23e0 <serial3_end+0x44>)
    23a0:	681b      	ldr	r3, [r3, #0]
    23a2:	04db      	lsls	r3, r3, #19
    23a4:	d400      	bmi.n	23a8 <serial3_end+0xc>
    23a6:	bd08      	pop	{r3, pc}
C:\Teensy\Projects\HelloWorld/serial3.c:181 (discriminator 1)
    23a8:	4b0e      	ldr	r3, [pc, #56]	; (23e4 <serial3_end+0x48>)
    23aa:	7919      	ldrb	r1, [r3, #4]
    23ac:	f001 02ff 	and.w	r2, r1, #255	; 0xff
    23b0:	b111      	cbz	r1, 23b8 <serial3_end+0x1c>
C:\Teensy\Projects\HelloWorld/serial3.c:181 (discriminator 2)
    23b2:	f003 f901 	bl	55b8 <yield>
    23b6:	e7f7      	b.n	23a8 <serial3_end+0xc>
C:\Teensy\Projects\HelloWorld/serial3.c:182
    23b8:	490b      	ldr	r1, [pc, #44]	; (23e8 <serial3_end+0x4c>)
    23ba:	2008      	movs	r0, #8
    23bc:	6008      	str	r0, [r1, #0]
C:\Teensy\Projects\HelloWorld/serial3.c:183
    23be:	490b      	ldr	r1, [pc, #44]	; (23ec <serial3_end+0x50>)
C:\Teensy\Projects\HelloWorld/serial3.c:184
    23c0:	f100 4080 	add.w	r0, r0, #1073741824	; 0x40000000
    23c4:	f500 2098 	add.w	r0, r0, #311296	; 0x4c000
C:\Teensy\Projects\HelloWorld/serial3.c:183
    23c8:	70ca      	strb	r2, [r1, #3]
C:\Teensy\Projects\HelloWorld/serial3.c:184
    23ca:	f240 1103 	movw	r1, #259	; 0x103
    23ce:	6001      	str	r1, [r0, #0]
C:\Teensy\Projects\HelloWorld/serial3.c:185
    23d0:	6041      	str	r1, [r0, #4]
C:\Teensy\Projects\HelloWorld/serial3.c:186
    23d2:	701a      	strb	r2, [r3, #0]
C:\Teensy\Projects\HelloWorld/serial3.c:187
    23d4:	705a      	strb	r2, [r3, #1]
C:\Teensy\Projects\HelloWorld/serial3.c:188
    23d6:	689b      	ldr	r3, [r3, #8]
    23d8:	b10b      	cbz	r3, 23de <serial3_end+0x42>
C:\Teensy\Projects\HelloWorld/serial3.c:188 (discriminator 1)
    23da:	2201      	movs	r2, #1
    23dc:	701a      	strb	r2, [r3, #0]
    23de:	bd08      	pop	{r3, pc}
    23e0:	40048034 	.word	0x40048034
    23e4:	1fff0c88 	.word	0x1fff0c88
    23e8:	e000e184 	.word	0xe000e184
    23ec:	4006c000 	.word	0x4006c000

000023f0 <serial3_set_transmit_pin>:
serial3_set_transmit_pin():
C:\Teensy\Projects\HelloWorld/serial3.c:192
    23f0:	b570      	push	{r4, r5, r6, lr}
    23f2:	4604      	mov	r4, r0
C:\Teensy\Projects\HelloWorld/serial3.c:193 (discriminator 1)
    23f4:	4d09      	ldr	r5, [pc, #36]	; (241c <serial3_set_transmit_pin+0x2c>)
    23f6:	792b      	ldrb	r3, [r5, #4]
    23f8:	f003 06ff 	and.w	r6, r3, #255	; 0xff
    23fc:	2b00      	cmp	r3, #0
    23fe:	d1f9      	bne.n	23f4 <serial3_set_transmit_pin+0x4>
C:\Teensy\Projects\HelloWorld/serial3.c:194
    2400:	4620      	mov	r0, r4
    2402:	2101      	movs	r1, #1
    2404:	f7fe fdb2 	bl	f6c <pinMode>
C:\Teensy\Projects\HelloWorld/serial3.c:195
    2408:	4620      	mov	r0, r4
    240a:	4631      	mov	r1, r6
    240c:	f7fe fd80 	bl	f10 <digitalWrite>
C:\Teensy\Projects\HelloWorld/serial3.c:196
    2410:	4b03      	ldr	r3, [pc, #12]	; (2420 <serial3_set_transmit_pin+0x30>)
    2412:	f853 3034 	ldr.w	r3, [r3, r4, lsl #3]
    2416:	60eb      	str	r3, [r5, #12]
    2418:	bd70      	pop	{r4, r5, r6, pc}
    241a:	bf00      	nop
    241c:	1fff0c88 	.word	0x1fff0c88
    2420:	00009ecc 	.word	0x00009ecc

00002424 <serial3_set_tx>:
serial3_set_tx():
C:\Teensy\Projects\HelloWorld/serial3.c:203
    2424:	b510      	push	{r4, lr}
C:\Teensy\Projects\HelloWorld/serial3.c:206
    2426:	b109      	cbz	r1, 242c <serial3_set_tx+0x8>
C:\Teensy\Projects\HelloWorld/serial3.c:206 (discriminator 1)
    2428:	f040 0080 	orr.w	r0, r0, #128	; 0x80
C:\Teensy\Projects\HelloWorld/serial3.c:207
    242c:	4a0e      	ldr	r2, [pc, #56]	; (2468 <serial3_set_tx+0x44>)
    242e:	7813      	ldrb	r3, [r2, #0]
    2430:	4298      	cmp	r0, r3
    2432:	d017      	beq.n	2464 <serial3_set_tx+0x40>
C:\Teensy\Projects\HelloWorld/serial3.c:208
    2434:	4c0d      	ldr	r4, [pc, #52]	; (246c <serial3_set_tx+0x48>)
    2436:	6824      	ldr	r4, [r4, #0]
    2438:	04e4      	lsls	r4, r4, #19
    243a:	d512      	bpl.n	2462 <serial3_set_tx+0x3e>
C:\Teensy\Projects\HelloWorld/serial3.c:209
    243c:	f003 037f 	and.w	r3, r3, #127	; 0x7f
    2440:	2b08      	cmp	r3, #8
    2442:	d102      	bne.n	244a <serial3_set_tx+0x26>
C:\Teensy\Projects\HelloWorld/serial3.c:210
    2444:	4b0a      	ldr	r3, [pc, #40]	; (2470 <serial3_set_tx+0x4c>)
    2446:	2400      	movs	r4, #0
    2448:	601c      	str	r4, [r3, #0]
C:\Teensy\Projects\HelloWorld/serial3.c:216
    244a:	2900      	cmp	r1, #0
C:\Teensy\Projects\HelloWorld/serial3.c:220
    244c:	f000 037f 	and.w	r3, r0, #127	; 0x7f
C:\Teensy\Projects\HelloWorld/serial3.c:216
    2450:	bf0c      	ite	eq
    2452:	2144      	moveq	r1, #68	; 0x44
    2454:	2160      	movne	r1, #96	; 0x60
C:\Teensy\Projects\HelloWorld/serial3.c:220
    2456:	2b08      	cmp	r3, #8
    2458:	d103      	bne.n	2462 <serial3_set_tx+0x3e>
C:\Teensy\Projects\HelloWorld/serial3.c:221
    245a:	4b05      	ldr	r3, [pc, #20]	; (2470 <serial3_set_tx+0x4c>)
    245c:	f441 7140 	orr.w	r1, r1, #768	; 0x300
    2460:	6019      	str	r1, [r3, #0]
C:\Teensy\Projects\HelloWorld/serial3.c:227
    2462:	7010      	strb	r0, [r2, #0]
    2464:	bd10      	pop	{r4, pc}
    2466:	bf00      	nop
    2468:	1fff0a0b 	.word	0x1fff0a0b
    246c:	40048034 	.word	0x40048034
    2470:	4004c00c 	.word	0x4004c00c

00002474 <serial3_set_rx>:
serial3_set_rx():
C:\Teensy\Projects\HelloWorld/serial3.c:231
    2474:	4770      	bx	lr

00002476 <serial3_set_rts>:
serial3_set_rts():
C:\Teensy\Projects\HelloWorld/serial3.c:250
    2476:	4a0d      	ldr	r2, [pc, #52]	; (24ac <serial3_set_rts+0x36>)
C:\Teensy\Projects\HelloWorld/serial3.c:249
    2478:	b538      	push	{r3, r4, r5, lr}
C:\Teensy\Projects\HelloWorld/serial3.c:250
    247a:	6814      	ldr	r4, [r2, #0]
    247c:	f414 5280 	ands.w	r2, r4, #4096	; 0x1000
    2480:	f04f 0400 	mov.w	r4, #0
    2484:	d010      	beq.n	24a8 <serial3_set_rts+0x32>
C:\Teensy\Projects\HelloWorld/serial3.c:251
    2486:	283f      	cmp	r0, #63	; 0x3f
    2488:	4d09      	ldr	r5, [pc, #36]	; (24b0 <serial3_set_rts+0x3a>)
    248a:	d80a      	bhi.n	24a2 <serial3_set_rts+0x2c>
C:\Teensy\Projects\HelloWorld/serial3.c:252
    248c:	4a09      	ldr	r2, [pc, #36]	; (24b4 <serial3_set_rts+0x3e>)
C:\Teensy\Projects\HelloWorld/serial3.c:256
    248e:	2101      	movs	r1, #1
C:\Teensy\Projects\HelloWorld/serial3.c:252
    2490:	f852 3030 	ldr.w	r3, [r2, r0, lsl #3]
    2494:	60ab      	str	r3, [r5, #8]
C:\Teensy\Projects\HelloWorld/serial3.c:256
    2496:	f7fe fd69 	bl	f6c <pinMode>
C:\Teensy\Projects\HelloWorld/serial3.c:257
    249a:	68ab      	ldr	r3, [r5, #8]
    249c:	701c      	strb	r4, [r3, #0]
C:\Teensy\Projects\HelloWorld/serial3.c:271
    249e:	2001      	movs	r0, #1
    24a0:	bd38      	pop	{r3, r4, r5, pc}
C:\Teensy\Projects\HelloWorld/serial3.c:259
    24a2:	60ac      	str	r4, [r5, #8]
C:\Teensy\Projects\HelloWorld/serial3.c:260
    24a4:	4620      	mov	r0, r4
    24a6:	bd38      	pop	{r3, r4, r5, pc}
C:\Teensy\Projects\HelloWorld/serial3.c:250
    24a8:	4610      	mov	r0, r2
C:\Teensy\Projects\HelloWorld/serial3.c:272
    24aa:	bd38      	pop	{r3, r4, r5, pc}
    24ac:	40048034 	.word	0x40048034
    24b0:	1fff0c88 	.word	0x1fff0c88
    24b4:	00009ecc 	.word	0x00009ecc

000024b8 <serial3_set_cts>:
serial3_set_cts():
C:\Teensy\Projects\HelloWorld/serial3.c:277
    24b8:	4b0b      	ldr	r3, [pc, #44]	; (24e8 <serial3_set_cts+0x30>)
    24ba:	681b      	ldr	r3, [r3, #0]
    24bc:	f413 5380 	ands.w	r3, r3, #4096	; 0x1000
    24c0:	d010      	beq.n	24e4 <serial3_set_cts+0x2c>
C:\Teensy\Projects\HelloWorld/serial3.c:278
    24c2:	280e      	cmp	r0, #14
    24c4:	4b09      	ldr	r3, [pc, #36]	; (24ec <serial3_set_cts+0x34>)
    24c6:	d109      	bne.n	24dc <serial3_set_cts+0x24>
C:\Teensy\Projects\HelloWorld/serial3.c:279
    24c8:	4a09      	ldr	r2, [pc, #36]	; (24f0 <serial3_set_cts+0x38>)
    24ca:	f240 3102 	movw	r1, #770	; 0x302
    24ce:	6011      	str	r1, [r2, #0]
C:\Teensy\Projects\HelloWorld/serial3.c:284
    24d0:	7b5a      	ldrb	r2, [r3, #13]
    24d2:	f042 0201 	orr.w	r2, r2, #1
    24d6:	735a      	strb	r2, [r3, #13]
C:\Teensy\Projects\HelloWorld/serial3.c:285
    24d8:	2001      	movs	r0, #1
    24da:	4770      	bx	lr
C:\Teensy\Projects\HelloWorld/serial3.c:281
    24dc:	7b5a      	ldrb	r2, [r3, #13]
    24de:	f002 02fe 	and.w	r2, r2, #254	; 0xfe
    24e2:	735a      	strb	r2, [r3, #13]
C:\Teensy\Projects\HelloWorld/serial3.c:282
    24e4:	2000      	movs	r0, #0
    24e6:	4770      	bx	lr
    24e8:	40048034 	.word	0x40048034
    24ec:	4006c000 	.word	0x4006c000
    24f0:	4004c004 	.word	0x4004c004

000024f4 <serial3_putchar>:
serial3_putchar():
C:\Teensy\Projects\HelloWorld/serial3.c:292
    24f4:	b5f8      	push	{r3, r4, r5, r6, r7, lr}
C:\Teensy\Projects\HelloWorld/serial3.c:295
    24f6:	4b1b      	ldr	r3, [pc, #108]	; (2564 <serial3_putchar+0x70>)
    24f8:	681b      	ldr	r3, [r3, #0]
    24fa:	04da      	lsls	r2, r3, #19
C:\Teensy\Projects\HelloWorld/serial3.c:292
    24fc:	4607      	mov	r7, r0
C:\Teensy\Projects\HelloWorld/serial3.c:295
    24fe:	d530      	bpl.n	2562 <serial3_putchar+0x6e>
C:\Teensy\Projects\HelloWorld/serial3.c:296
    2500:	4e19      	ldr	r6, [pc, #100]	; (2568 <serial3_putchar+0x74>)
    2502:	68f3      	ldr	r3, [r6, #12]
    2504:	b10b      	cbz	r3, 250a <serial3_putchar+0x16>
C:\Teensy\Projects\HelloWorld/serial3.c:296 (discriminator 1)
    2506:	2201      	movs	r2, #1
    2508:	701a      	strb	r2, [r3, #0]
C:\Teensy\Projects\HelloWorld/serial3.c:297
    250a:	78b4      	ldrb	r4, [r6, #2]
C:\Teensy\Projects\HelloWorld/serial3.c:298
    250c:	3401      	adds	r4, #1
    250e:	2c28      	cmp	r4, #40	; 0x28
    2510:	bf28      	it	cs
    2512:	2400      	movcs	r4, #0
C:\Teensy\Projects\HelloWorld/serial3.c:299 (discriminator 1)
    2514:	78f3      	ldrb	r3, [r6, #3]
    2516:	4d14      	ldr	r5, [pc, #80]	; (2568 <serial3_putchar+0x74>)
    2518:	42a3      	cmp	r3, r4
    251a:	d118      	bne.n	254e <serial3_putchar+0x5a>
C:\Teensy\Projects\HelloWorld/serial3.c:300
    251c:	f7fe fa56 	bl	9cc <nvic_execution_priority>
C:\Teensy\Projects\HelloWorld/serial3.c:301
    2520:	2840      	cmp	r0, #64	; 0x40
    2522:	dc0f      	bgt.n	2544 <serial3_putchar+0x50>
C:\Teensy\Projects\HelloWorld/serial3.c:302
    2524:	4a11      	ldr	r2, [pc, #68]	; (256c <serial3_putchar+0x78>)
    2526:	7913      	ldrb	r3, [r2, #4]
    2528:	061b      	lsls	r3, r3, #24
    252a:	d5f3      	bpl.n	2514 <serial3_putchar+0x20>
C:\Teensy\Projects\HelloWorld/serial3.c:303
    252c:	78eb      	ldrb	r3, [r5, #3]
C:\Teensy\Projects\HelloWorld/serial3.c:304
    252e:	3301      	adds	r3, #1
    2530:	2b28      	cmp	r3, #40	; 0x28
    2532:	bf28      	it	cs
    2534:	2300      	movcs	r3, #0
C:\Teensy\Projects\HelloWorld/serial3.c:305
    2536:	18f1      	adds	r1, r6, r3
C:\Teensy\Projects\HelloWorld/serial3.c:308
    2538:	b2db      	uxtb	r3, r3
C:\Teensy\Projects\HelloWorld/serial3.c:305
    253a:	7c09      	ldrb	r1, [r1, #16]
    253c:	b2c9      	uxtb	r1, r1
C:\Teensy\Projects\HelloWorld/serial3.c:307
    253e:	71d1      	strb	r1, [r2, #7]
C:\Teensy\Projects\HelloWorld/serial3.c:308
    2540:	70f3      	strb	r3, [r6, #3]
    2542:	e7e7      	b.n	2514 <serial3_putchar+0x20>
C:\Teensy\Projects\HelloWorld/serial3.c:310
    2544:	28ff      	cmp	r0, #255	; 0xff
    2546:	dde5      	ble.n	2514 <serial3_putchar+0x20>
C:\Teensy\Projects\HelloWorld/serial3.c:311
    2548:	f003 f836 	bl	55b8 <yield>
    254c:	e7e2      	b.n	2514 <serial3_putchar+0x20>
C:\Teensy\Projects\HelloWorld/serial3.c:314
    254e:	192b      	adds	r3, r5, r4
    2550:	b2ff      	uxtb	r7, r7
    2552:	741f      	strb	r7, [r3, #16]
C:\Teensy\Projects\HelloWorld/serial3.c:315
    2554:	2301      	movs	r3, #1
    2556:	712b      	strb	r3, [r5, #4]
C:\Teensy\Projects\HelloWorld/serial3.c:317
    2558:	4b04      	ldr	r3, [pc, #16]	; (256c <serial3_putchar+0x78>)
C:\Teensy\Projects\HelloWorld/serial3.c:316
    255a:	b2e4      	uxtb	r4, r4
C:\Teensy\Projects\HelloWorld/serial3.c:317
    255c:	22ac      	movs	r2, #172	; 0xac
C:\Teensy\Projects\HelloWorld/serial3.c:316
    255e:	70ac      	strb	r4, [r5, #2]
C:\Teensy\Projects\HelloWorld/serial3.c:317
    2560:	70da      	strb	r2, [r3, #3]
    2562:	bdf8      	pop	{r3, r4, r5, r6, r7, pc}
    2564:	40048034 	.word	0x40048034
    2568:	1fff0c88 	.word	0x1fff0c88
    256c:	4006c000 	.word	0x4006c000

00002570 <serial3_write>:
serial3_write():
C:\Teensy\Projects\HelloWorld/serial3.c:321
    2570:	b538      	push	{r3, r4, r5, lr}
    2572:	4604      	mov	r4, r0
    2574:	1845      	adds	r5, r0, r1
C:\Teensy\Projects\HelloWorld/serial3.c:323 (discriminator 1)
    2576:	42ac      	cmp	r4, r5
    2578:	d004      	beq.n	2584 <serial3_write+0x14>
C:\Teensy\Projects\HelloWorld/serial3.c:323 (discriminator 2)
    257a:	f814 0b01 	ldrb.w	r0, [r4], #1
    257e:	f7ff ffb9 	bl	24f4 <serial3_putchar>
    2582:	e7f8      	b.n	2576 <serial3_write+0x6>
C:\Teensy\Projects\HelloWorld/serial3.c:324
    2584:	bd38      	pop	{r3, r4, r5, pc}

00002586 <serial3_flush>:
serial3_flush():
C:\Teensy\Projects\HelloWorld/serial3.c:327
    2586:	b508      	push	{r3, lr}
C:\Teensy\Projects\HelloWorld/serial3.c:328 (discriminator 1)
    2588:	4b03      	ldr	r3, [pc, #12]	; (2598 <serial3_flush+0x12>)
    258a:	791b      	ldrb	r3, [r3, #4]
    258c:	b113      	cbz	r3, 2594 <serial3_flush+0xe>
C:\Teensy\Projects\HelloWorld/serial3.c:328 (discriminator 2)
    258e:	f003 f813 	bl	55b8 <yield>
    2592:	e7f9      	b.n	2588 <serial3_flush+0x2>
C:\Teensy\Projects\HelloWorld/serial3.c:329
    2594:	bd08      	pop	{r3, pc}
    2596:	bf00      	nop
    2598:	1fff0c88 	.word	0x1fff0c88

0000259c <serial3_write_buffer_free>:
serial3_write_buffer_free():
C:\Teensy\Projects\HelloWorld/serial3.c:335
    259c:	4a05      	ldr	r2, [pc, #20]	; (25b4 <serial3_write_buffer_free+0x18>)
    259e:	7893      	ldrb	r3, [r2, #2]
C:\Teensy\Projects\HelloWorld/serial3.c:336
    25a0:	78d0      	ldrb	r0, [r2, #3]
C:\Teensy\Projects\HelloWorld/serial3.c:335
    25a2:	b2db      	uxtb	r3, r3
C:\Teensy\Projects\HelloWorld/serial3.c:336
    25a4:	b2c0      	uxtb	r0, r0
C:\Teensy\Projects\HelloWorld/serial3.c:337
    25a6:	4283      	cmp	r3, r0
    25a8:	bf2c      	ite	cs
    25aa:	3027      	addcs	r0, #39	; 0x27
C:\Teensy\Projects\HelloWorld/serial3.c:338
    25ac:	f100 30ff 	addcc.w	r0, r0, #4294967295
    25b0:	1ac0      	subs	r0, r0, r3
C:\Teensy\Projects\HelloWorld/serial3.c:339
    25b2:	4770      	bx	lr
    25b4:	1fff0c88 	.word	0x1fff0c88

000025b8 <serial3_available>:
serial3_available():
C:\Teensy\Projects\HelloWorld/serial3.c:345
    25b8:	4a04      	ldr	r2, [pc, #16]	; (25cc <serial3_available+0x14>)
    25ba:	7810      	ldrb	r0, [r2, #0]
C:\Teensy\Projects\HelloWorld/serial3.c:346
    25bc:	7853      	ldrb	r3, [r2, #1]
C:\Teensy\Projects\HelloWorld/serial3.c:345
    25be:	b2c0      	uxtb	r0, r0
C:\Teensy\Projects\HelloWorld/serial3.c:346
    25c0:	b2db      	uxtb	r3, r3
C:\Teensy\Projects\HelloWorld/serial3.c:347
    25c2:	4298      	cmp	r0, r3
C:\Teensy\Projects\HelloWorld/serial3.c:348
    25c4:	bf38      	it	cc
    25c6:	3040      	addcc	r0, #64	; 0x40
    25c8:	1ac0      	subs	r0, r0, r3
C:\Teensy\Projects\HelloWorld/serial3.c:349
    25ca:	4770      	bx	lr
    25cc:	1fff0c88 	.word	0x1fff0c88

000025d0 <serial3_getchar>:
serial3_getchar():
C:\Teensy\Projects\HelloWorld/serial3.c:352
    25d0:	b510      	push	{r4, lr}
C:\Teensy\Projects\HelloWorld/serial3.c:356
    25d2:	4a0f      	ldr	r2, [pc, #60]	; (2610 <serial3_getchar+0x40>)
    25d4:	7811      	ldrb	r1, [r2, #0]
C:\Teensy\Projects\HelloWorld/serial3.c:357
    25d6:	7853      	ldrb	r3, [r2, #1]
C:\Teensy\Projects\HelloWorld/serial3.c:356
    25d8:	b2c9      	uxtb	r1, r1
C:\Teensy\Projects\HelloWorld/serial3.c:357
    25da:	b2db      	uxtb	r3, r3
C:\Teensy\Projects\HelloWorld/serial3.c:358
    25dc:	4299      	cmp	r1, r3
    25de:	d014      	beq.n	260a <serial3_getchar+0x3a>
C:\Teensy\Projects\HelloWorld/serial3.c:359
    25e0:	3301      	adds	r3, #1
    25e2:	2b40      	cmp	r3, #64	; 0x40
    25e4:	bf28      	it	cs
    25e6:	2300      	movcs	r3, #0
C:\Teensy\Projects\HelloWorld/serial3.c:360
    25e8:	18d0      	adds	r0, r2, r3
C:\Teensy\Projects\HelloWorld/serial3.c:361
    25ea:	b2dc      	uxtb	r4, r3
C:\Teensy\Projects\HelloWorld/serial3.c:360
    25ec:	f890 0038 	ldrb.w	r0, [r0, #56]	; 0x38
C:\Teensy\Projects\HelloWorld/serial3.c:361
    25f0:	7054      	strb	r4, [r2, #1]
C:\Teensy\Projects\HelloWorld/serial3.c:362
    25f2:	6892      	ldr	r2, [r2, #8]
C:\Teensy\Projects\HelloWorld/serial3.c:360
    25f4:	b2c0      	uxtb	r0, r0
C:\Teensy\Projects\HelloWorld/serial3.c:362
    25f6:	b152      	cbz	r2, 260e <serial3_getchar+0x3e>
C:\Teensy\Projects\HelloWorld/serial3.c:364
    25f8:	4299      	cmp	r1, r3
C:\Teensy\Projects\HelloWorld/serial3.c:365
    25fa:	bf38      	it	cc
    25fc:	3140      	addcc	r1, #64	; 0x40
    25fe:	1acb      	subs	r3, r1, r3
C:\Teensy\Projects\HelloWorld/serial3.c:366
    2600:	2b1a      	cmp	r3, #26
    2602:	dc04      	bgt.n	260e <serial3_getchar+0x3e>
C:\Teensy\Projects\HelloWorld/serial3.c:366 (discriminator 1)
    2604:	2300      	movs	r3, #0
    2606:	7013      	strb	r3, [r2, #0]
    2608:	bd10      	pop	{r4, pc}
C:\Teensy\Projects\HelloWorld/serial3.c:358
    260a:	f04f 30ff 	mov.w	r0, #4294967295
C:\Teensy\Projects\HelloWorld/serial3.c:369
    260e:	bd10      	pop	{r4, pc}
    2610:	1fff0c88 	.word	0x1fff0c88

00002614 <serial3_peek>:
serial3_peek():
C:\Teensy\Projects\HelloWorld/serial3.c:375
    2614:	4a08      	ldr	r2, [pc, #32]	; (2638 <serial3_peek+0x24>)
    2616:	7811      	ldrb	r1, [r2, #0]
C:\Teensy\Projects\HelloWorld/serial3.c:376
    2618:	7853      	ldrb	r3, [r2, #1]
    261a:	b2db      	uxtb	r3, r3
C:\Teensy\Projects\HelloWorld/serial3.c:377
    261c:	4299      	cmp	r1, r3
    261e:	d008      	beq.n	2632 <serial3_peek+0x1e>
C:\Teensy\Projects\HelloWorld/serial3.c:378
    2620:	3301      	adds	r3, #1
    2622:	2b40      	cmp	r3, #64	; 0x40
    2624:	bf28      	it	cs
    2626:	2300      	movcs	r3, #0
C:\Teensy\Projects\HelloWorld/serial3.c:379
    2628:	4413      	add	r3, r2
    262a:	f893 0038 	ldrb.w	r0, [r3, #56]	; 0x38
    262e:	b2c0      	uxtb	r0, r0
    2630:	4770      	bx	lr
C:\Teensy\Projects\HelloWorld/serial3.c:377
    2632:	f04f 30ff 	mov.w	r0, #4294967295
C:\Teensy\Projects\HelloWorld/serial3.c:380
    2636:	4770      	bx	lr
    2638:	1fff0c88 	.word	0x1fff0c88

0000263c <serial3_clear>:
serial3_clear():
C:\Teensy\Projects\HelloWorld/serial3.c:384
    263c:	4b04      	ldr	r3, [pc, #16]	; (2650 <serial3_clear+0x14>)
    263e:	785a      	ldrb	r2, [r3, #1]
    2640:	b2d2      	uxtb	r2, r2
    2642:	701a      	strb	r2, [r3, #0]
C:\Teensy\Projects\HelloWorld/serial3.c:385
    2644:	689b      	ldr	r3, [r3, #8]
    2646:	b10b      	cbz	r3, 264c <serial3_clear+0x10>
C:\Teensy\Projects\HelloWorld/serial3.c:385 (discriminator 1)
    2648:	2200      	movs	r2, #0
    264a:	701a      	strb	r2, [r3, #0]
    264c:	4770      	bx	lr
    264e:	bf00      	nop
    2650:	1fff0c88 	.word	0x1fff0c88

00002654 <uart2_status_isr>:
uart2_status_isr():
C:\Teensy\Projects\HelloWorld/serial3.c:397
    2654:	b510      	push	{r4, lr}
C:\Teensy\Projects\HelloWorld/serial3.c:401
    2656:	4b28      	ldr	r3, [pc, #160]	; (26f8 <uart2_status_isr+0xa4>)
    2658:	791a      	ldrb	r2, [r3, #4]
    265a:	0692      	lsls	r2, r2, #26
    265c:	d51f      	bpl.n	269e <uart2_status_isr+0x4a>
C:\Teensy\Projects\HelloWorld/serial3.c:407
    265e:	4a27      	ldr	r2, [pc, #156]	; (26fc <uart2_status_isr+0xa8>)
C:\Teensy\Projects\HelloWorld/serial3.c:405
    2660:	79d8      	ldrb	r0, [r3, #7]
C:\Teensy\Projects\HelloWorld/serial3.c:407
    2662:	7813      	ldrb	r3, [r2, #0]
C:\Teensy\Projects\HelloWorld/serial3.c:409
    2664:	7851      	ldrb	r1, [r2, #1]
C:\Teensy\Projects\HelloWorld/serial3.c:407
    2666:	3301      	adds	r3, #1
C:\Teensy\Projects\HelloWorld/serial3.c:408
    2668:	2b40      	cmp	r3, #64	; 0x40
    266a:	bf28      	it	cs
    266c:	2300      	movcs	r3, #0
C:\Teensy\Projects\HelloWorld/serial3.c:409
    266e:	428b      	cmp	r3, r1
C:\Teensy\Projects\HelloWorld/serial3.c:405
    2670:	b2c0      	uxtb	r0, r0
C:\Teensy\Projects\HelloWorld/serial3.c:409
    2672:	d004      	beq.n	267e <uart2_status_isr+0x2a>
C:\Teensy\Projects\HelloWorld/serial3.c:410
    2674:	18d1      	adds	r1, r2, r3
    2676:	f881 0038 	strb.w	r0, [r1, #56]	; 0x38
C:\Teensy\Projects\HelloWorld/serial3.c:411
    267a:	b2d9      	uxtb	r1, r3
    267c:	7011      	strb	r1, [r2, #0]
C:\Teensy\Projects\HelloWorld/serial3.c:413
    267e:	6891      	ldr	r1, [r2, #8]
    2680:	b169      	cbz	r1, 269e <uart2_status_isr+0x4a>
C:\Teensy\Projects\HelloWorld/serial3.c:415
    2682:	4a1e      	ldr	r2, [pc, #120]	; (26fc <uart2_status_isr+0xa8>)
    2684:	78d2      	ldrb	r2, [r2, #3]
    2686:	b2d2      	uxtb	r2, r2
C:\Teensy\Projects\HelloWorld/serial3.c:416
    2688:	4293      	cmp	r3, r2
C:\Teensy\Projects\HelloWorld/serial3.c:417
    268a:	bf36      	itet	cc
    268c:	f1c2 0240 	rsbcc	r2, r2, #64	; 0x40
C:\Teensy\Projects\HelloWorld/serial3.c:416
    2690:	ebc2 0303 	rsbcs	r3, r2, r3
C:\Teensy\Projects\HelloWorld/serial3.c:417
    2694:	189b      	addcc	r3, r3, r2
C:\Teensy\Projects\HelloWorld/serial3.c:418
    2696:	2b27      	cmp	r3, #39	; 0x27
    2698:	bfc4      	itt	gt
    269a:	2301      	movgt	r3, #1
    269c:	700b      	strbgt	r3, [r1, #0]
C:\Teensy\Projects\HelloWorld/serial3.c:421
    269e:	4916      	ldr	r1, [pc, #88]	; (26f8 <uart2_status_isr+0xa4>)
    26a0:	78c8      	ldrb	r0, [r1, #3]
    26a2:	b2c0      	uxtb	r0, r0
C:\Teensy\Projects\HelloWorld/serial3.c:422
    26a4:	0604      	lsls	r4, r0, #24
    26a6:	d515      	bpl.n	26d4 <uart2_status_isr+0x80>
C:\Teensy\Projects\HelloWorld/serial3.c:422 (discriminator 1)
    26a8:	790b      	ldrb	r3, [r1, #4]
    26aa:	061a      	lsls	r2, r3, #24
    26ac:	d512      	bpl.n	26d4 <uart2_status_isr+0x80>
C:\Teensy\Projects\HelloWorld/serial3.c:423
    26ae:	4a13      	ldr	r2, [pc, #76]	; (26fc <uart2_status_isr+0xa8>)
    26b0:	7894      	ldrb	r4, [r2, #2]
C:\Teensy\Projects\HelloWorld/serial3.c:424
    26b2:	78d3      	ldrb	r3, [r2, #3]
    26b4:	b2db      	uxtb	r3, r3
C:\Teensy\Projects\HelloWorld/serial3.c:425
    26b6:	429c      	cmp	r4, r3
    26b8:	d102      	bne.n	26c0 <uart2_status_isr+0x6c>
C:\Teensy\Projects\HelloWorld/serial3.c:426
    26ba:	236c      	movs	r3, #108	; 0x6c
    26bc:	70cb      	strb	r3, [r1, #3]
    26be:	e009      	b.n	26d4 <uart2_status_isr+0x80>
C:\Teensy\Projects\HelloWorld/serial3.c:428
    26c0:	3301      	adds	r3, #1
    26c2:	2b28      	cmp	r3, #40	; 0x28
    26c4:	bf28      	it	cs
    26c6:	2300      	movcs	r3, #0
C:\Teensy\Projects\HelloWorld/serial3.c:429
    26c8:	18d4      	adds	r4, r2, r3
C:\Teensy\Projects\HelloWorld/serial3.c:432
    26ca:	b2db      	uxtb	r3, r3
C:\Teensy\Projects\HelloWorld/serial3.c:429
    26cc:	7c24      	ldrb	r4, [r4, #16]
    26ce:	b2e4      	uxtb	r4, r4
C:\Teensy\Projects\HelloWorld/serial3.c:431
    26d0:	71cc      	strb	r4, [r1, #7]
C:\Teensy\Projects\HelloWorld/serial3.c:432
    26d2:	70d3      	strb	r3, [r2, #3]
C:\Teensy\Projects\HelloWorld/serial3.c:435
    26d4:	0643      	lsls	r3, r0, #25
    26d6:	d50d      	bpl.n	26f4 <uart2_status_isr+0xa0>
C:\Teensy\Projects\HelloWorld/serial3.c:435 (discriminator 1)
    26d8:	4b07      	ldr	r3, [pc, #28]	; (26f8 <uart2_status_isr+0xa4>)
    26da:	791a      	ldrb	r2, [r3, #4]
    26dc:	f012 0f40 	tst.w	r2, #64	; 0x40
    26e0:	4619      	mov	r1, r3
    26e2:	d007      	beq.n	26f4 <uart2_status_isr+0xa0>
C:\Teensy\Projects\HelloWorld/serial3.c:436
    26e4:	4b05      	ldr	r3, [pc, #20]	; (26fc <uart2_status_isr+0xa8>)
    26e6:	2200      	movs	r2, #0
    26e8:	711a      	strb	r2, [r3, #4]
C:\Teensy\Projects\HelloWorld/serial3.c:437
    26ea:	68db      	ldr	r3, [r3, #12]
    26ec:	b103      	cbz	r3, 26f0 <uart2_status_isr+0x9c>
C:\Teensy\Projects\HelloWorld/serial3.c:437 (discriminator 1)
    26ee:	701a      	strb	r2, [r3, #0]
C:\Teensy\Projects\HelloWorld/serial3.c:438
    26f0:	232c      	movs	r3, #44	; 0x2c
    26f2:	70cb      	strb	r3, [r1, #3]
    26f4:	bd10      	pop	{r4, pc}
    26f6:	bf00      	nop
    26f8:	4006c000 	.word	0x4006c000
    26fc:	1fff0c88 	.word	0x1fff0c88

00002700 <serial4_begin>:
serial4_begin():
C:\Teensy\Projects\HelloWorld/serial4.c:101
    2700:	4b1f      	ldr	r3, [pc, #124]	; (2780 <serial4_begin+0x80>)
    2702:	681a      	ldr	r2, [r3, #0]
    2704:	f442 5200 	orr.w	r2, r2, #8192	; 0x2000
    2708:	601a      	str	r2, [r3, #0]
C:\Teensy\Projects\HelloWorld/serial4.c:102
    270a:	4b1e      	ldr	r3, [pc, #120]	; (2784 <serial4_begin+0x84>)
    270c:	2200      	movs	r2, #0
    270e:	701a      	strb	r2, [r3, #0]
C:\Teensy\Projects\HelloWorld/serial4.c:103
    2710:	705a      	strb	r2, [r3, #1]
C:\Teensy\Projects\HelloWorld/serial4.c:104
    2712:	709a      	strb	r2, [r3, #2]
C:\Teensy\Projects\HelloWorld/serial4.c:105
    2714:	70da      	strb	r2, [r3, #3]
C:\Teensy\Projects\HelloWorld/serial4.c:106
    2716:	711a      	strb	r2, [r3, #4]
C:\Teensy\Projects\HelloWorld/serial4.c:107
    2718:	4a1b      	ldr	r2, [pc, #108]	; (2788 <serial4_begin+0x88>)
    271a:	7813      	ldrb	r3, [r2, #0]
    271c:	2b1f      	cmp	r3, #31
    271e:	d005      	beq.n	272c <serial4_begin+0x2c>
    2720:	2b3f      	cmp	r3, #63	; 0x3f
    2722:	d107      	bne.n	2734 <serial4_begin+0x34>
C:\Teensy\Projects\HelloWorld/serial4.c:109
    2724:	f240 3113 	movw	r1, #787	; 0x313
    2728:	4b18      	ldr	r3, [pc, #96]	; (278c <serial4_begin+0x8c>)
    272a:	e002      	b.n	2732 <serial4_begin+0x32>
C:\Teensy\Projects\HelloWorld/serial4.c:108
    272c:	4b18      	ldr	r3, [pc, #96]	; (2790 <serial4_begin+0x90>)
    272e:	f240 3113 	movw	r1, #787	; 0x313
C:\Teensy\Projects\HelloWorld/serial4.c:109
    2732:	6019      	str	r1, [r3, #0]
C:\Teensy\Projects\HelloWorld/serial4.c:111
    2734:	7853      	ldrb	r3, [r2, #1]
    2736:	2b20      	cmp	r3, #32
    2738:	d005      	beq.n	2746 <serial4_begin+0x46>
    273a:	2b3e      	cmp	r3, #62	; 0x3e
    273c:	d107      	bne.n	274e <serial4_begin+0x4e>
C:\Teensy\Projects\HelloWorld/serial4.c:113
    273e:	f44f 7251 	mov.w	r2, #836	; 0x344
    2742:	4b14      	ldr	r3, [pc, #80]	; (2794 <serial4_begin+0x94>)
    2744:	e002      	b.n	274c <serial4_begin+0x4c>
C:\Teensy\Projects\HelloWorld/serial4.c:112
    2746:	4b14      	ldr	r3, [pc, #80]	; (2798 <serial4_begin+0x98>)
    2748:	f44f 7251 	mov.w	r2, #836	; 0x344
C:\Teensy\Projects\HelloWorld/serial4.c:113
    274c:	601a      	str	r2, [r3, #0]
C:\Teensy\Projects\HelloWorld/serial4.c:115
    274e:	4b13      	ldr	r3, [pc, #76]	; (279c <serial4_begin+0x9c>)
    2750:	f3c0 3244 	ubfx	r2, r0, #13, #5
    2754:	701a      	strb	r2, [r3, #0]
C:\Teensy\Projects\HelloWorld/serial4.c:116
    2756:	f3c0 1247 	ubfx	r2, r0, #5, #8
    275a:	705a      	strb	r2, [r3, #1]
C:\Teensy\Projects\HelloWorld/serial4.c:117
    275c:	f000 001f 	and.w	r0, r0, #31
C:\Teensy\Projects\HelloWorld/serial4.c:118
    2760:	2200      	movs	r2, #0
C:\Teensy\Projects\HelloWorld/serial4.c:117
    2762:	7298      	strb	r0, [r3, #10]
C:\Teensy\Projects\HelloWorld/serial4.c:118
    2764:	709a      	strb	r2, [r3, #2]
C:\Teensy\Projects\HelloWorld/serial4.c:119
    2766:	741a      	strb	r2, [r3, #16]
C:\Teensy\Projects\HelloWorld/serial4.c:120
    2768:	222c      	movs	r2, #44	; 0x2c
    276a:	70da      	strb	r2, [r3, #3]
C:\Teensy\Projects\HelloWorld/serial4.c:121
    276c:	4b0c      	ldr	r3, [pc, #48]	; (27a0 <serial4_begin+0xa0>)
    276e:	2240      	movs	r2, #64	; 0x40
C:\Teensy\Projects\HelloWorld/serial4.c:122
    2770:	f46f 7148 	mvn.w	r1, #800	; 0x320
C:\Teensy\Projects\HelloWorld/serial4.c:121
    2774:	701a      	strb	r2, [r3, #0]
C:\Teensy\Projects\HelloWorld/serial4.c:122
    2776:	440b      	add	r3, r1
    2778:	2220      	movs	r2, #32
    277a:	601a      	str	r2, [r3, #0]
    277c:	4770      	bx	lr
    277e:	bf00      	nop
    2780:	40048034 	.word	0x40048034
    2784:	1fff0d00 	.word	0x1fff0d00
    2788:	1fff0a0c 	.word	0x1fff0a0c
    278c:	4004d014 	.word	0x4004d014
    2790:	4004a028 	.word	0x4004a028
    2794:	4004d010 	.word	0x4004d010
    2798:	4004a02c 	.word	0x4004a02c
    279c:	4006d000 	.word	0x4006d000
    27a0:	e000e425 	.word	0xe000e425

000027a4 <serial4_format>:
serial4_format():
C:\Teensy\Projects\HelloWorld/serial4.c:129
    27a4:	4a19      	ldr	r2, [pc, #100]	; (280c <serial4_format+0x68>)
    27a6:	7893      	ldrb	r3, [r2, #2]
C:\Teensy\Projects\HelloWorld/serial4.c:130
    27a8:	f000 0103 	and.w	r1, r0, #3
    27ac:	f003 03ec 	and.w	r3, r3, #236	; 0xec
    27b0:	430b      	orrs	r3, r1
C:\Teensy\Projects\HelloWorld/serial4.c:131
    27b2:	0741      	lsls	r1, r0, #29
    27b4:	bf48      	it	mi
    27b6:	f043 0310 	orrmi.w	r3, r3, #16
C:\Teensy\Projects\HelloWorld/serial4.c:132
    27ba:	7093      	strb	r3, [r2, #2]
C:\Teensy\Projects\HelloWorld/serial4.c:133
    27bc:	f000 030f 	and.w	r3, r0, #15
    27c0:	2b04      	cmp	r3, #4
C:\Teensy\Projects\HelloWorld/serial4.c:132
    27c2:	4912      	ldr	r1, [pc, #72]	; (280c <serial4_format+0x68>)
C:\Teensy\Projects\HelloWorld/serial4.c:133
    27c4:	d103      	bne.n	27ce <serial4_format+0x2a>
C:\Teensy\Projects\HelloWorld/serial4.c:133 (discriminator 1)
    27c6:	798b      	ldrb	r3, [r1, #6]
    27c8:	f043 0340 	orr.w	r3, r3, #64	; 0x40
    27cc:	718b      	strb	r3, [r1, #6]
C:\Teensy\Projects\HelloWorld/serial4.c:134
    27ce:	7952      	ldrb	r2, [r2, #5]
C:\Teensy\Projects\HelloWorld/serial4.c:136
    27d0:	4b0e      	ldr	r3, [pc, #56]	; (280c <serial4_format+0x68>)
C:\Teensy\Projects\HelloWorld/serial4.c:134
    27d2:	f002 02ef 	and.w	r2, r2, #239	; 0xef
C:\Teensy\Projects\HelloWorld/serial4.c:135
    27d6:	06c1      	lsls	r1, r0, #27
    27d8:	bf48      	it	mi
    27da:	f042 0210 	orrmi.w	r2, r2, #16
C:\Teensy\Projects\HelloWorld/serial4.c:136
    27de:	715a      	strb	r2, [r3, #5]
C:\Teensy\Projects\HelloWorld/serial4.c:137
    27e0:	799a      	ldrb	r2, [r3, #6]
C:\Teensy\Projects\HelloWorld/serial4.c:138
    27e2:	f010 0f20 	tst.w	r0, #32
C:\Teensy\Projects\HelloWorld/serial4.c:137
    27e6:	f002 02ef 	and.w	r2, r2, #239	; 0xef
    27ea:	4619      	mov	r1, r3
C:\Teensy\Projects\HelloWorld/serial4.c:138
    27ec:	bf18      	it	ne
    27ee:	f042 0210 	orrne.w	r2, r2, #16
C:\Teensy\Projects\HelloWorld/serial4.c:139
    27f2:	718a      	strb	r2, [r1, #6]
C:\Teensy\Projects\HelloWorld/serial4.c:148
    27f4:	05c2      	lsls	r2, r0, #23
C:\Teensy\Projects\HelloWorld/serial4.c:139
    27f6:	4b05      	ldr	r3, [pc, #20]	; (280c <serial4_format+0x68>)
C:\Teensy\Projects\HelloWorld/serial4.c:148
    27f8:	d506      	bpl.n	2808 <serial4_format+0x64>
C:\Teensy\Projects\HelloWorld/serial4.c:149
    27fa:	785a      	ldrb	r2, [r3, #1]
C:\Teensy\Projects\HelloWorld/serial4.c:150
    27fc:	7819      	ldrb	r1, [r3, #0]
C:\Teensy\Projects\HelloWorld/serial4.c:149
    27fe:	b2d2      	uxtb	r2, r2
C:\Teensy\Projects\HelloWorld/serial4.c:150
    2800:	f041 0120 	orr.w	r1, r1, #32
    2804:	7019      	strb	r1, [r3, #0]
C:\Teensy\Projects\HelloWorld/serial4.c:151
    2806:	705a      	strb	r2, [r3, #1]
    2808:	4770      	bx	lr
    280a:	bf00      	nop
    280c:	4006d000 	.word	0x4006d000

00002810 <serial4_end>:
serial4_end():
C:\Teensy\Projects\HelloWorld/serial4.c:158
    2810:	4b1c      	ldr	r3, [pc, #112]	; (2884 <serial4_end+0x74>)
    2812:	681b      	ldr	r3, [r3, #0]
    2814:	049b      	lsls	r3, r3, #18
C:\Teensy\Projects\HelloWorld/serial4.c:157
    2816:	b570      	push	{r4, r5, r6, lr}
C:\Teensy\Projects\HelloWorld/serial4.c:158
    2818:	d400      	bmi.n	281c <serial4_end+0xc>
    281a:	bd70      	pop	{r4, r5, r6, pc}
C:\Teensy\Projects\HelloWorld/serial4.c:159 (discriminator 1)
    281c:	4b1a      	ldr	r3, [pc, #104]	; (2888 <serial4_end+0x78>)
    281e:	791a      	ldrb	r2, [r3, #4]
    2820:	f002 01ff 	and.w	r1, r2, #255	; 0xff
    2824:	b112      	cbz	r2, 282c <serial4_end+0x1c>
C:\Teensy\Projects\HelloWorld/serial4.c:159 (discriminator 2)
    2826:	f002 fec7 	bl	55b8 <yield>
    282a:	e7f7      	b.n	281c <serial4_end+0xc>
C:\Teensy\Projects\HelloWorld/serial4.c:160
    282c:	4a17      	ldr	r2, [pc, #92]	; (288c <serial4_end+0x7c>)
C:\Teensy\Projects\HelloWorld/serial4.c:163
    282e:	4e18      	ldr	r6, [pc, #96]	; (2890 <serial4_end+0x80>)
C:\Teensy\Projects\HelloWorld/serial4.c:164
    2830:	4d18      	ldr	r5, [pc, #96]	; (2894 <serial4_end+0x84>)
C:\Teensy\Projects\HelloWorld/serial4.c:160
    2832:	2020      	movs	r0, #32
    2834:	6010      	str	r0, [r2, #0]
C:\Teensy\Projects\HelloWorld/serial4.c:161
    2836:	4a18      	ldr	r2, [pc, #96]	; (2898 <serial4_end+0x88>)
C:\Teensy\Projects\HelloWorld/serial4.c:162
    2838:	4818      	ldr	r0, [pc, #96]	; (289c <serial4_end+0x8c>)
C:\Teensy\Projects\HelloWorld/serial4.c:161
    283a:	70d1      	strb	r1, [r2, #3]
C:\Teensy\Projects\HelloWorld/serial4.c:162
    283c:	f240 1203 	movw	r2, #259	; 0x103
    2840:	6002      	str	r2, [r0, #0]
C:\Teensy\Projects\HelloWorld/serial4.c:163
    2842:	6032      	str	r2, [r6, #0]
C:\Teensy\Projects\HelloWorld/serial4.c:164
    2844:	782c      	ldrb	r4, [r5, #0]
    2846:	2c1f      	cmp	r4, #31
    2848:	d004      	beq.n	2854 <serial4_end+0x44>
    284a:	2c3f      	cmp	r4, #63	; 0x3f
    284c:	d103      	bne.n	2856 <serial4_end+0x46>
C:\Teensy\Projects\HelloWorld/serial4.c:166
    284e:	4a14      	ldr	r2, [pc, #80]	; (28a0 <serial4_end+0x90>)
    2850:	6011      	str	r1, [r2, #0]
    2852:	e000      	b.n	2856 <serial4_end+0x46>
C:\Teensy\Projects\HelloWorld/serial4.c:165
    2854:	6002      	str	r2, [r0, #0]
C:\Teensy\Projects\HelloWorld/serial4.c:168
    2856:	786a      	ldrb	r2, [r5, #1]
    2858:	f002 027f 	and.w	r2, r2, #127	; 0x7f
    285c:	2a20      	cmp	r2, #32
    285e:	d005      	beq.n	286c <serial4_end+0x5c>
    2860:	2a3e      	cmp	r2, #62	; 0x3e
    2862:	d106      	bne.n	2872 <serial4_end+0x62>
C:\Teensy\Projects\HelloWorld/serial4.c:170
    2864:	4a0f      	ldr	r2, [pc, #60]	; (28a4 <serial4_end+0x94>)
    2866:	2100      	movs	r1, #0
    2868:	6011      	str	r1, [r2, #0]
    286a:	e002      	b.n	2872 <serial4_end+0x62>
C:\Teensy\Projects\HelloWorld/serial4.c:169
    286c:	f240 1203 	movw	r2, #259	; 0x103
    2870:	6032      	str	r2, [r6, #0]
C:\Teensy\Projects\HelloWorld/serial4.c:172
    2872:	2200      	movs	r2, #0
    2874:	701a      	strb	r2, [r3, #0]
C:\Teensy\Projects\HelloWorld/serial4.c:173
    2876:	705a      	strb	r2, [r3, #1]
C:\Teensy\Projects\HelloWorld/serial4.c:174
    2878:	689b      	ldr	r3, [r3, #8]
    287a:	b10b      	cbz	r3, 2880 <serial4_end+0x70>
C:\Teensy\Projects\HelloWorld/serial4.c:174 (discriminator 1)
    287c:	2201      	movs	r2, #1
    287e:	701a      	strb	r2, [r3, #0]
    2880:	bd70      	pop	{r4, r5, r6, pc}
    2882:	bf00      	nop
    2884:	40048034 	.word	0x40048034
    2888:	1fff0d00 	.word	0x1fff0d00
    288c:	e000e184 	.word	0xe000e184
    2890:	4004a02c 	.word	0x4004a02c
    2894:	1fff0a0c 	.word	0x1fff0a0c
    2898:	4006d000 	.word	0x4006d000
    289c:	4004a028 	.word	0x4004a028
    28a0:	4004d014 	.word	0x4004d014
    28a4:	4004d010 	.word	0x4004d010

000028a8 <serial4_set_transmit_pin>:
serial4_set_transmit_pin():
C:\Teensy\Projects\HelloWorld/serial4.c:178
    28a8:	b570      	push	{r4, r5, r6, lr}
    28aa:	4604      	mov	r4, r0
C:\Teensy\Projects\HelloWorld/serial4.c:179 (discriminator 1)
    28ac:	4d09      	ldr	r5, [pc, #36]	; (28d4 <serial4_set_transmit_pin+0x2c>)
    28ae:	792b      	ldrb	r3, [r5, #4]
    28b0:	f003 06ff 	and.w	r6, r3, #255	; 0xff
    28b4:	2b00      	cmp	r3, #0
    28b6:	d1f9      	bne.n	28ac <serial4_set_transmit_pin+0x4>
C:\Teensy\Projects\HelloWorld/serial4.c:180
    28b8:	4620      	mov	r0, r4
    28ba:	2101      	movs	r1, #1
    28bc:	f7fe fb56 	bl	f6c <pinMode>
C:\Teensy\Projects\HelloWorld/serial4.c:181
    28c0:	4620      	mov	r0, r4
    28c2:	4631      	mov	r1, r6
    28c4:	f7fe fb24 	bl	f10 <digitalWrite>
C:\Teensy\Projects\HelloWorld/serial4.c:182
    28c8:	4b03      	ldr	r3, [pc, #12]	; (28d8 <serial4_set_transmit_pin+0x30>)
    28ca:	f853 3034 	ldr.w	r3, [r3, r4, lsl #3]
    28ce:	60eb      	str	r3, [r5, #12]
    28d0:	bd70      	pop	{r4, r5, r6, pc}
    28d2:	bf00      	nop
    28d4:	1fff0d00 	.word	0x1fff0d00
    28d8:	00009ecc 	.word	0x00009ecc

000028dc <serial4_set_tx>:
serial4_set_tx():
C:\Teensy\Projects\HelloWorld/serial4.c:186
    28dc:	b510      	push	{r4, lr}
C:\Teensy\Projects\HelloWorld/serial4.c:189
    28de:	b109      	cbz	r1, 28e4 <serial4_set_tx+0x8>
C:\Teensy\Projects\HelloWorld/serial4.c:189 (discriminator 1)
    28e0:	f040 0080 	orr.w	r0, r0, #128	; 0x80
C:\Teensy\Projects\HelloWorld/serial4.c:190
    28e4:	4a14      	ldr	r2, [pc, #80]	; (2938 <serial4_set_tx+0x5c>)
    28e6:	7853      	ldrb	r3, [r2, #1]
    28e8:	4298      	cmp	r0, r3
    28ea:	4614      	mov	r4, r2
    28ec:	d022      	beq.n	2934 <serial4_set_tx+0x58>
C:\Teensy\Projects\HelloWorld/serial4.c:191
    28ee:	4a13      	ldr	r2, [pc, #76]	; (293c <serial4_set_tx+0x60>)
    28f0:	6812      	ldr	r2, [r2, #0]
    28f2:	0492      	lsls	r2, r2, #18
    28f4:	d51d      	bpl.n	2932 <serial4_set_tx+0x56>
C:\Teensy\Projects\HelloWorld/serial4.c:192
    28f6:	f003 037f 	and.w	r3, r3, #127	; 0x7f
    28fa:	2b20      	cmp	r3, #32
    28fc:	d004      	beq.n	2908 <serial4_set_tx+0x2c>
    28fe:	2b3e      	cmp	r3, #62	; 0x3e
    2900:	d105      	bne.n	290e <serial4_set_tx+0x32>
C:\Teensy\Projects\HelloWorld/serial4.c:194
    2902:	2200      	movs	r2, #0
    2904:	4b0e      	ldr	r3, [pc, #56]	; (2940 <serial4_set_tx+0x64>)
    2906:	e001      	b.n	290c <serial4_set_tx+0x30>
C:\Teensy\Projects\HelloWorld/serial4.c:193
    2908:	4b0e      	ldr	r3, [pc, #56]	; (2944 <serial4_set_tx+0x68>)
    290a:	2200      	movs	r2, #0
C:\Teensy\Projects\HelloWorld/serial4.c:194
    290c:	601a      	str	r2, [r3, #0]
C:\Teensy\Projects\HelloWorld/serial4.c:197
    290e:	2900      	cmp	r1, #0
C:\Teensy\Projects\HelloWorld/serial4.c:201
    2910:	f000 027f 	and.w	r2, r0, #127	; 0x7f
C:\Teensy\Projects\HelloWorld/serial4.c:197
    2914:	bf0c      	ite	eq
    2916:	2344      	moveq	r3, #68	; 0x44
    2918:	2360      	movne	r3, #96	; 0x60
C:\Teensy\Projects\HelloWorld/serial4.c:201
    291a:	2a20      	cmp	r2, #32
    291c:	d005      	beq.n	292a <serial4_set_tx+0x4e>
    291e:	2a3e      	cmp	r2, #62	; 0x3e
    2920:	d107      	bne.n	2932 <serial4_set_tx+0x56>
C:\Teensy\Projects\HelloWorld/serial4.c:203
    2922:	f443 7340 	orr.w	r3, r3, #768	; 0x300
    2926:	4a06      	ldr	r2, [pc, #24]	; (2940 <serial4_set_tx+0x64>)
    2928:	e002      	b.n	2930 <serial4_set_tx+0x54>
C:\Teensy\Projects\HelloWorld/serial4.c:202
    292a:	4a06      	ldr	r2, [pc, #24]	; (2944 <serial4_set_tx+0x68>)
    292c:	f443 7340 	orr.w	r3, r3, #768	; 0x300
C:\Teensy\Projects\HelloWorld/serial4.c:203
    2930:	6013      	str	r3, [r2, #0]
C:\Teensy\Projects\HelloWorld/serial4.c:206
    2932:	7060      	strb	r0, [r4, #1]
    2934:	bd10      	pop	{r4, pc}
    2936:	bf00      	nop
    2938:	1fff0a0c 	.word	0x1fff0a0c
    293c:	40048034 	.word	0x40048034
    2940:	4004d010 	.word	0x4004d010
    2944:	4004a02c 	.word	0x4004a02c

00002948 <serial4_set_rx>:
serial4_set_rx():
C:\Teensy\Projects\HelloWorld/serial4.c:212
    2948:	4a0f      	ldr	r2, [pc, #60]	; (2988 <serial4_set_rx+0x40>)
    294a:	7813      	ldrb	r3, [r2, #0]
    294c:	4298      	cmp	r0, r3
    294e:	d01a      	beq.n	2986 <serial4_set_rx+0x3e>
C:\Teensy\Projects\HelloWorld/serial4.c:213
    2950:	490e      	ldr	r1, [pc, #56]	; (298c <serial4_set_rx+0x44>)
    2952:	6809      	ldr	r1, [r1, #0]
    2954:	0489      	lsls	r1, r1, #18
    2956:	d515      	bpl.n	2984 <serial4_set_rx+0x3c>
C:\Teensy\Projects\HelloWorld/serial4.c:214
    2958:	2b1f      	cmp	r3, #31
    295a:	d004      	beq.n	2966 <serial4_set_rx+0x1e>
    295c:	2b3f      	cmp	r3, #63	; 0x3f
    295e:	d105      	bne.n	296c <serial4_set_rx+0x24>
C:\Teensy\Projects\HelloWorld/serial4.c:216
    2960:	2100      	movs	r1, #0
    2962:	4b0b      	ldr	r3, [pc, #44]	; (2990 <serial4_set_rx+0x48>)
    2964:	e001      	b.n	296a <serial4_set_rx+0x22>
C:\Teensy\Projects\HelloWorld/serial4.c:215
    2966:	4b0b      	ldr	r3, [pc, #44]	; (2994 <serial4_set_rx+0x4c>)
    2968:	2100      	movs	r1, #0
C:\Teensy\Projects\HelloWorld/serial4.c:216
    296a:	6019      	str	r1, [r3, #0]
C:\Teensy\Projects\HelloWorld/serial4.c:218
    296c:	281f      	cmp	r0, #31
    296e:	d005      	beq.n	297c <serial4_set_rx+0x34>
    2970:	283f      	cmp	r0, #63	; 0x3f
    2972:	d107      	bne.n	2984 <serial4_set_rx+0x3c>
C:\Teensy\Projects\HelloWorld/serial4.c:220
    2974:	f240 3113 	movw	r1, #787	; 0x313
    2978:	4b05      	ldr	r3, [pc, #20]	; (2990 <serial4_set_rx+0x48>)
    297a:	e002      	b.n	2982 <serial4_set_rx+0x3a>
C:\Teensy\Projects\HelloWorld/serial4.c:219
    297c:	4b05      	ldr	r3, [pc, #20]	; (2994 <serial4_set_rx+0x4c>)
    297e:	f240 3113 	movw	r1, #787	; 0x313
C:\Teensy\Projects\HelloWorld/serial4.c:220
    2982:	6019      	str	r1, [r3, #0]
C:\Teensy\Projects\HelloWorld/serial4.c:223
    2984:	7010      	strb	r0, [r2, #0]
    2986:	4770      	bx	lr
    2988:	1fff0a0c 	.word	0x1fff0a0c
    298c:	40048034 	.word	0x40048034
    2990:	4004d014 	.word	0x4004d014
    2994:	4004a028 	.word	0x4004a028

00002998 <serial4_set_rts>:
serial4_set_rts():
C:\Teensy\Projects\HelloWorld/serial4.c:228
    2998:	4a0d      	ldr	r2, [pc, #52]	; (29d0 <serial4_set_rts+0x38>)
C:\Teensy\Projects\HelloWorld/serial4.c:227
    299a:	b538      	push	{r3, r4, r5, lr}
C:\Teensy\Projects\HelloWorld/serial4.c:228
    299c:	6814      	ldr	r4, [r2, #0]
    299e:	f414 5200 	ands.w	r2, r4, #8192	; 0x2000
    29a2:	f04f 0400 	mov.w	r4, #0
    29a6:	d010      	beq.n	29ca <serial4_set_rts+0x32>
C:\Teensy\Projects\HelloWorld/serial4.c:229
    29a8:	283f      	cmp	r0, #63	; 0x3f
    29aa:	4d0a      	ldr	r5, [pc, #40]	; (29d4 <serial4_set_rts+0x3c>)
    29ac:	d80a      	bhi.n	29c4 <serial4_set_rts+0x2c>
C:\Teensy\Projects\HelloWorld/serial4.c:230
    29ae:	4a0a      	ldr	r2, [pc, #40]	; (29d8 <serial4_set_rts+0x40>)
C:\Teensy\Projects\HelloWorld/serial4.c:231
    29b0:	2101      	movs	r1, #1
C:\Teensy\Projects\HelloWorld/serial4.c:230
    29b2:	f852 3030 	ldr.w	r3, [r2, r0, lsl #3]
    29b6:	60ab      	str	r3, [r5, #8]
C:\Teensy\Projects\HelloWorld/serial4.c:231
    29b8:	f7fe fad8 	bl	f6c <pinMode>
C:\Teensy\Projects\HelloWorld/serial4.c:232
    29bc:	68ab      	ldr	r3, [r5, #8]
    29be:	701c      	strb	r4, [r3, #0]
C:\Teensy\Projects\HelloWorld/serial4.c:237
    29c0:	2001      	movs	r0, #1
    29c2:	bd38      	pop	{r3, r4, r5, pc}
C:\Teensy\Projects\HelloWorld/serial4.c:234
    29c4:	60ac      	str	r4, [r5, #8]
C:\Teensy\Projects\HelloWorld/serial4.c:235
    29c6:	4620      	mov	r0, r4
    29c8:	bd38      	pop	{r3, r4, r5, pc}
C:\Teensy\Projects\HelloWorld/serial4.c:228
    29ca:	4610      	mov	r0, r2
C:\Teensy\Projects\HelloWorld/serial4.c:238
    29cc:	bd38      	pop	{r3, r4, r5, pc}
    29ce:	bf00      	nop
    29d0:	40048034 	.word	0x40048034
    29d4:	1fff0d00 	.word	0x1fff0d00
    29d8:	00009ecc 	.word	0x00009ecc

000029dc <serial4_set_cts>:
serial4_set_cts():
C:\Teensy\Projects\HelloWorld/serial4.c:243
    29dc:	2000      	movs	r0, #0
    29de:	4770      	bx	lr

000029e0 <serial4_putchar>:
serial4_putchar():
C:\Teensy\Projects\HelloWorld/serial4.c:246
    29e0:	b5f8      	push	{r3, r4, r5, r6, r7, lr}
C:\Teensy\Projects\HelloWorld/serial4.c:249
    29e2:	4b1b      	ldr	r3, [pc, #108]	; (2a50 <serial4_putchar+0x70>)
    29e4:	681b      	ldr	r3, [r3, #0]
    29e6:	049a      	lsls	r2, r3, #18
C:\Teensy\Projects\HelloWorld/serial4.c:246
    29e8:	4607      	mov	r7, r0
C:\Teensy\Projects\HelloWorld/serial4.c:249
    29ea:	d530      	bpl.n	2a4e <serial4_putchar+0x6e>
C:\Teensy\Projects\HelloWorld/serial4.c:250
    29ec:	4e19      	ldr	r6, [pc, #100]	; (2a54 <serial4_putchar+0x74>)
    29ee:	68f3      	ldr	r3, [r6, #12]
    29f0:	b10b      	cbz	r3, 29f6 <serial4_putchar+0x16>
C:\Teensy\Projects\HelloWorld/serial4.c:250 (discriminator 1)
    29f2:	2201      	movs	r2, #1
    29f4:	701a      	strb	r2, [r3, #0]
C:\Teensy\Projects\HelloWorld/serial4.c:251
    29f6:	78b4      	ldrb	r4, [r6, #2]
C:\Teensy\Projects\HelloWorld/serial4.c:252
    29f8:	3401      	adds	r4, #1
    29fa:	2c28      	cmp	r4, #40	; 0x28
    29fc:	bf28      	it	cs
    29fe:	2400      	movcs	r4, #0
C:\Teensy\Projects\HelloWorld/serial4.c:253 (discriminator 1)
    2a00:	78f3      	ldrb	r3, [r6, #3]
    2a02:	4d14      	ldr	r5, [pc, #80]	; (2a54 <serial4_putchar+0x74>)
    2a04:	42a3      	cmp	r3, r4
    2a06:	d118      	bne.n	2a3a <serial4_putchar+0x5a>
C:\Teensy\Projects\HelloWorld/serial4.c:254
    2a08:	f7fd ffe0 	bl	9cc <nvic_execution_priority>
C:\Teensy\Projects\HelloWorld/serial4.c:255
    2a0c:	2840      	cmp	r0, #64	; 0x40
    2a0e:	dc0f      	bgt.n	2a30 <serial4_putchar+0x50>
C:\Teensy\Projects\HelloWorld/serial4.c:256
    2a10:	4a11      	ldr	r2, [pc, #68]	; (2a58 <serial4_putchar+0x78>)
    2a12:	7913      	ldrb	r3, [r2, #4]
    2a14:	061b      	lsls	r3, r3, #24
    2a16:	d5f3      	bpl.n	2a00 <serial4_putchar+0x20>
C:\Teensy\Projects\HelloWorld/serial4.c:257
    2a18:	78eb      	ldrb	r3, [r5, #3]
C:\Teensy\Projects\HelloWorld/serial4.c:258
    2a1a:	3301      	adds	r3, #1
    2a1c:	2b28      	cmp	r3, #40	; 0x28
    2a1e:	bf28      	it	cs
    2a20:	2300      	movcs	r3, #0
C:\Teensy\Projects\HelloWorld/serial4.c:259
    2a22:	18f1      	adds	r1, r6, r3
C:\Teensy\Projects\HelloWorld/serial4.c:262
    2a24:	b2db      	uxtb	r3, r3
C:\Teensy\Projects\HelloWorld/serial4.c:259
    2a26:	7c09      	ldrb	r1, [r1, #16]
    2a28:	b2c9      	uxtb	r1, r1
C:\Teensy\Projects\HelloWorld/serial4.c:261
    2a2a:	71d1      	strb	r1, [r2, #7]
C:\Teensy\Projects\HelloWorld/serial4.c:262
    2a2c:	70f3      	strb	r3, [r6, #3]
    2a2e:	e7e7      	b.n	2a00 <serial4_putchar+0x20>
C:\Teensy\Projects\HelloWorld/serial4.c:264
    2a30:	28ff      	cmp	r0, #255	; 0xff
    2a32:	dde5      	ble.n	2a00 <serial4_putchar+0x20>
C:\Teensy\Projects\HelloWorld/serial4.c:265
    2a34:	f002 fdc0 	bl	55b8 <yield>
    2a38:	e7e2      	b.n	2a00 <serial4_putchar+0x20>
C:\Teensy\Projects\HelloWorld/serial4.c:268
    2a3a:	192b      	adds	r3, r5, r4
    2a3c:	b2ff      	uxtb	r7, r7
    2a3e:	741f      	strb	r7, [r3, #16]
C:\Teensy\Projects\HelloWorld/serial4.c:269
    2a40:	2301      	movs	r3, #1
    2a42:	712b      	strb	r3, [r5, #4]
C:\Teensy\Projects\HelloWorld/serial4.c:271
    2a44:	4b04      	ldr	r3, [pc, #16]	; (2a58 <serial4_putchar+0x78>)
C:\Teensy\Projects\HelloWorld/serial4.c:270
    2a46:	b2e4      	uxtb	r4, r4
C:\Teensy\Projects\HelloWorld/serial4.c:271
    2a48:	22ac      	movs	r2, #172	; 0xac
C:\Teensy\Projects\HelloWorld/serial4.c:270
    2a4a:	70ac      	strb	r4, [r5, #2]
C:\Teensy\Projects\HelloWorld/serial4.c:271
    2a4c:	70da      	strb	r2, [r3, #3]
    2a4e:	bdf8      	pop	{r3, r4, r5, r6, r7, pc}
    2a50:	40048034 	.word	0x40048034
    2a54:	1fff0d00 	.word	0x1fff0d00
    2a58:	4006d000 	.word	0x4006d000

00002a5c <serial4_write>:
serial4_write():
C:\Teensy\Projects\HelloWorld/serial4.c:275
    2a5c:	b538      	push	{r3, r4, r5, lr}
    2a5e:	4604      	mov	r4, r0
    2a60:	1845      	adds	r5, r0, r1
C:\Teensy\Projects\HelloWorld/serial4.c:277 (discriminator 1)
    2a62:	42ac      	cmp	r4, r5
    2a64:	d004      	beq.n	2a70 <serial4_write+0x14>
C:\Teensy\Projects\HelloWorld/serial4.c:277 (discriminator 2)
    2a66:	f814 0b01 	ldrb.w	r0, [r4], #1
    2a6a:	f7ff ffb9 	bl	29e0 <serial4_putchar>
    2a6e:	e7f8      	b.n	2a62 <serial4_write+0x6>
C:\Teensy\Projects\HelloWorld/serial4.c:278
    2a70:	bd38      	pop	{r3, r4, r5, pc}

00002a72 <serial4_flush>:
serial4_flush():
C:\Teensy\Projects\HelloWorld/serial4.c:281
    2a72:	b508      	push	{r3, lr}
C:\Teensy\Projects\HelloWorld/serial4.c:282 (discriminator 1)
    2a74:	4b03      	ldr	r3, [pc, #12]	; (2a84 <serial4_flush+0x12>)
    2a76:	791b      	ldrb	r3, [r3, #4]
    2a78:	b113      	cbz	r3, 2a80 <serial4_flush+0xe>
C:\Teensy\Projects\HelloWorld/serial4.c:282 (discriminator 2)
    2a7a:	f002 fd9d 	bl	55b8 <yield>
    2a7e:	e7f9      	b.n	2a74 <serial4_flush+0x2>
C:\Teensy\Projects\HelloWorld/serial4.c:283
    2a80:	bd08      	pop	{r3, pc}
    2a82:	bf00      	nop
    2a84:	1fff0d00 	.word	0x1fff0d00

00002a88 <serial4_write_buffer_free>:
serial4_write_buffer_free():
C:\Teensy\Projects\HelloWorld/serial4.c:289
    2a88:	4a05      	ldr	r2, [pc, #20]	; (2aa0 <serial4_write_buffer_free+0x18>)
    2a8a:	7893      	ldrb	r3, [r2, #2]
C:\Teensy\Projects\HelloWorld/serial4.c:290
    2a8c:	78d0      	ldrb	r0, [r2, #3]
C:\Teensy\Projects\HelloWorld/serial4.c:289
    2a8e:	b2db      	uxtb	r3, r3
C:\Teensy\Projects\HelloWorld/serial4.c:290
    2a90:	b2c0      	uxtb	r0, r0
C:\Teensy\Projects\HelloWorld/serial4.c:291
    2a92:	4283      	cmp	r3, r0
    2a94:	bf2c      	ite	cs
    2a96:	3027      	addcs	r0, #39	; 0x27
C:\Teensy\Projects\HelloWorld/serial4.c:292
    2a98:	f100 30ff 	addcc.w	r0, r0, #4294967295
    2a9c:	1ac0      	subs	r0, r0, r3
C:\Teensy\Projects\HelloWorld/serial4.c:293
    2a9e:	4770      	bx	lr
    2aa0:	1fff0d00 	.word	0x1fff0d00

00002aa4 <serial4_available>:
serial4_available():
C:\Teensy\Projects\HelloWorld/serial4.c:299
    2aa4:	4a04      	ldr	r2, [pc, #16]	; (2ab8 <serial4_available+0x14>)
    2aa6:	7810      	ldrb	r0, [r2, #0]
C:\Teensy\Projects\HelloWorld/serial4.c:300
    2aa8:	7853      	ldrb	r3, [r2, #1]
C:\Teensy\Projects\HelloWorld/serial4.c:299
    2aaa:	b2c0      	uxtb	r0, r0
C:\Teensy\Projects\HelloWorld/serial4.c:300
    2aac:	b2db      	uxtb	r3, r3
C:\Teensy\Projects\HelloWorld/serial4.c:301
    2aae:	4298      	cmp	r0, r3
C:\Teensy\Projects\HelloWorld/serial4.c:302
    2ab0:	bf38      	it	cc
    2ab2:	3040      	addcc	r0, #64	; 0x40
    2ab4:	1ac0      	subs	r0, r0, r3
C:\Teensy\Projects\HelloWorld/serial4.c:303
    2ab6:	4770      	bx	lr
    2ab8:	1fff0d00 	.word	0x1fff0d00

00002abc <serial4_getchar>:
serial4_getchar():
C:\Teensy\Projects\HelloWorld/serial4.c:306
    2abc:	b510      	push	{r4, lr}
C:\Teensy\Projects\HelloWorld/serial4.c:310
    2abe:	4a0f      	ldr	r2, [pc, #60]	; (2afc <serial4_getchar+0x40>)
    2ac0:	7811      	ldrb	r1, [r2, #0]
C:\Teensy\Projects\HelloWorld/serial4.c:311
    2ac2:	7853      	ldrb	r3, [r2, #1]
C:\Teensy\Projects\HelloWorld/serial4.c:310
    2ac4:	b2c9      	uxtb	r1, r1
C:\Teensy\Projects\HelloWorld/serial4.c:311
    2ac6:	b2db      	uxtb	r3, r3
C:\Teensy\Projects\HelloWorld/serial4.c:312
    2ac8:	4299      	cmp	r1, r3
    2aca:	d014      	beq.n	2af6 <serial4_getchar+0x3a>
C:\Teensy\Projects\HelloWorld/serial4.c:313
    2acc:	3301      	adds	r3, #1
    2ace:	2b40      	cmp	r3, #64	; 0x40
    2ad0:	bf28      	it	cs
    2ad2:	2300      	movcs	r3, #0
C:\Teensy\Projects\HelloWorld/serial4.c:314
    2ad4:	18d0      	adds	r0, r2, r3
C:\Teensy\Projects\HelloWorld/serial4.c:315
    2ad6:	b2dc      	uxtb	r4, r3
C:\Teensy\Projects\HelloWorld/serial4.c:314
    2ad8:	f890 0038 	ldrb.w	r0, [r0, #56]	; 0x38
C:\Teensy\Projects\HelloWorld/serial4.c:315
    2adc:	7054      	strb	r4, [r2, #1]
C:\Teensy\Projects\HelloWorld/serial4.c:316
    2ade:	6892      	ldr	r2, [r2, #8]
C:\Teensy\Projects\HelloWorld/serial4.c:314
    2ae0:	b2c0      	uxtb	r0, r0
C:\Teensy\Projects\HelloWorld/serial4.c:316
    2ae2:	b152      	cbz	r2, 2afa <serial4_getchar+0x3e>
C:\Teensy\Projects\HelloWorld/serial4.c:318
    2ae4:	4299      	cmp	r1, r3
C:\Teensy\Projects\HelloWorld/serial4.c:319
    2ae6:	bf38      	it	cc
    2ae8:	3140      	addcc	r1, #64	; 0x40
    2aea:	1acb      	subs	r3, r1, r3
C:\Teensy\Projects\HelloWorld/serial4.c:320
    2aec:	2b1a      	cmp	r3, #26
    2aee:	dc04      	bgt.n	2afa <serial4_getchar+0x3e>
C:\Teensy\Projects\HelloWorld/serial4.c:320 (discriminator 1)
    2af0:	2300      	movs	r3, #0
    2af2:	7013      	strb	r3, [r2, #0]
    2af4:	bd10      	pop	{r4, pc}
C:\Teensy\Projects\HelloWorld/serial4.c:312
    2af6:	f04f 30ff 	mov.w	r0, #4294967295
C:\Teensy\Projects\HelloWorld/serial4.c:323
    2afa:	bd10      	pop	{r4, pc}
    2afc:	1fff0d00 	.word	0x1fff0d00

00002b00 <serial4_peek>:
serial4_peek():
C:\Teensy\Projects\HelloWorld/serial4.c:329
    2b00:	4a08      	ldr	r2, [pc, #32]	; (2b24 <serial4_peek+0x24>)
    2b02:	7811      	ldrb	r1, [r2, #0]
C:\Teensy\Projects\HelloWorld/serial4.c:330
    2b04:	7853      	ldrb	r3, [r2, #1]
    2b06:	b2db      	uxtb	r3, r3
C:\Teensy\Projects\HelloWorld/serial4.c:331
    2b08:	4299      	cmp	r1, r3
    2b0a:	d008      	beq.n	2b1e <serial4_peek+0x1e>
C:\Teensy\Projects\HelloWorld/serial4.c:332
    2b0c:	3301      	adds	r3, #1
    2b0e:	2b40      	cmp	r3, #64	; 0x40
    2b10:	bf28      	it	cs
    2b12:	2300      	movcs	r3, #0
C:\Teensy\Projects\HelloWorld/serial4.c:333
    2b14:	4413      	add	r3, r2
    2b16:	f893 0038 	ldrb.w	r0, [r3, #56]	; 0x38
    2b1a:	b2c0      	uxtb	r0, r0
    2b1c:	4770      	bx	lr
C:\Teensy\Projects\HelloWorld/serial4.c:331
    2b1e:	f04f 30ff 	mov.w	r0, #4294967295
C:\Teensy\Projects\HelloWorld/serial4.c:334
    2b22:	4770      	bx	lr
    2b24:	1fff0d00 	.word	0x1fff0d00

00002b28 <serial4_clear>:
serial4_clear():
C:\Teensy\Projects\HelloWorld/serial4.c:338
    2b28:	4b04      	ldr	r3, [pc, #16]	; (2b3c <serial4_clear+0x14>)
    2b2a:	785a      	ldrb	r2, [r3, #1]
    2b2c:	b2d2      	uxtb	r2, r2
    2b2e:	701a      	strb	r2, [r3, #0]
C:\Teensy\Projects\HelloWorld/serial4.c:339
    2b30:	689b      	ldr	r3, [r3, #8]
    2b32:	b10b      	cbz	r3, 2b38 <serial4_clear+0x10>
C:\Teensy\Projects\HelloWorld/serial4.c:339 (discriminator 1)
    2b34:	2200      	movs	r2, #0
    2b36:	701a      	strb	r2, [r3, #0]
    2b38:	4770      	bx	lr
    2b3a:	bf00      	nop
    2b3c:	1fff0d00 	.word	0x1fff0d00

00002b40 <uart3_status_isr>:
uart3_status_isr():
C:\Teensy\Projects\HelloWorld/serial4.c:351
    2b40:	b510      	push	{r4, lr}
C:\Teensy\Projects\HelloWorld/serial4.c:355
    2b42:	4b28      	ldr	r3, [pc, #160]	; (2be4 <uart3_status_isr+0xa4>)
    2b44:	791a      	ldrb	r2, [r3, #4]
    2b46:	0692      	lsls	r2, r2, #26
    2b48:	d51f      	bpl.n	2b8a <uart3_status_isr+0x4a>
C:\Teensy\Projects\HelloWorld/serial4.c:361
    2b4a:	4a27      	ldr	r2, [pc, #156]	; (2be8 <uart3_status_isr+0xa8>)
C:\Teensy\Projects\HelloWorld/serial4.c:359
    2b4c:	79d8      	ldrb	r0, [r3, #7]
C:\Teensy\Projects\HelloWorld/serial4.c:361
    2b4e:	7813      	ldrb	r3, [r2, #0]
C:\Teensy\Projects\HelloWorld/serial4.c:363
    2b50:	7851      	ldrb	r1, [r2, #1]
C:\Teensy\Projects\HelloWorld/serial4.c:361
    2b52:	3301      	adds	r3, #1
C:\Teensy\Projects\HelloWorld/serial4.c:362
    2b54:	2b40      	cmp	r3, #64	; 0x40
    2b56:	bf28      	it	cs
    2b58:	2300      	movcs	r3, #0
C:\Teensy\Projects\HelloWorld/serial4.c:363
    2b5a:	428b      	cmp	r3, r1
C:\Teensy\Projects\HelloWorld/serial4.c:359
    2b5c:	b2c0      	uxtb	r0, r0
C:\Teensy\Projects\HelloWorld/serial4.c:363
    2b5e:	d004      	beq.n	2b6a <uart3_status_isr+0x2a>
C:\Teensy\Projects\HelloWorld/serial4.c:364
    2b60:	18d1      	adds	r1, r2, r3
    2b62:	f881 0038 	strb.w	r0, [r1, #56]	; 0x38
C:\Teensy\Projects\HelloWorld/serial4.c:365
    2b66:	b2d9      	uxtb	r1, r3
    2b68:	7011      	strb	r1, [r2, #0]
C:\Teensy\Projects\HelloWorld/serial4.c:367
    2b6a:	6891      	ldr	r1, [r2, #8]
    2b6c:	b169      	cbz	r1, 2b8a <uart3_status_isr+0x4a>
C:\Teensy\Projects\HelloWorld/serial4.c:369
    2b6e:	4a1e      	ldr	r2, [pc, #120]	; (2be8 <uart3_status_isr+0xa8>)
    2b70:	78d2      	ldrb	r2, [r2, #3]
    2b72:	b2d2      	uxtb	r2, r2
C:\Teensy\Projects\HelloWorld/serial4.c:370
    2b74:	4293      	cmp	r3, r2
C:\Teensy\Projects\HelloWorld/serial4.c:371
    2b76:	bf36      	itet	cc
    2b78:	f1c2 0240 	rsbcc	r2, r2, #64	; 0x40
C:\Teensy\Projects\HelloWorld/serial4.c:370
    2b7c:	ebc2 0303 	rsbcs	r3, r2, r3
C:\Teensy\Projects\HelloWorld/serial4.c:371
    2b80:	189b      	addcc	r3, r3, r2
C:\Teensy\Projects\HelloWorld/serial4.c:372
    2b82:	2b27      	cmp	r3, #39	; 0x27
    2b84:	bfc4      	itt	gt
    2b86:	2301      	movgt	r3, #1
    2b88:	700b      	strbgt	r3, [r1, #0]
C:\Teensy\Projects\HelloWorld/serial4.c:375
    2b8a:	4916      	ldr	r1, [pc, #88]	; (2be4 <uart3_status_isr+0xa4>)
    2b8c:	78c8      	ldrb	r0, [r1, #3]
    2b8e:	b2c0      	uxtb	r0, r0
C:\Teensy\Projects\HelloWorld/serial4.c:376
    2b90:	0604      	lsls	r4, r0, #24
    2b92:	d515      	bpl.n	2bc0 <uart3_status_isr+0x80>
C:\Teensy\Projects\HelloWorld/serial4.c:376 (discriminator 1)
    2b94:	790b      	ldrb	r3, [r1, #4]
    2b96:	061a      	lsls	r2, r3, #24
    2b98:	d512      	bpl.n	2bc0 <uart3_status_isr+0x80>
C:\Teensy\Projects\HelloWorld/serial4.c:377
    2b9a:	4a13      	ldr	r2, [pc, #76]	; (2be8 <uart3_status_isr+0xa8>)
    2b9c:	7894      	ldrb	r4, [r2, #2]
C:\Teensy\Projects\HelloWorld/serial4.c:378
    2b9e:	78d3      	ldrb	r3, [r2, #3]
    2ba0:	b2db      	uxtb	r3, r3
C:\Teensy\Projects\HelloWorld/serial4.c:379
    2ba2:	429c      	cmp	r4, r3
    2ba4:	d102      	bne.n	2bac <uart3_status_isr+0x6c>
C:\Teensy\Projects\HelloWorld/serial4.c:380
    2ba6:	236c      	movs	r3, #108	; 0x6c
    2ba8:	70cb      	strb	r3, [r1, #3]
    2baa:	e009      	b.n	2bc0 <uart3_status_isr+0x80>
C:\Teensy\Projects\HelloWorld/serial4.c:382
    2bac:	3301      	adds	r3, #1
    2bae:	2b28      	cmp	r3, #40	; 0x28
    2bb0:	bf28      	it	cs
    2bb2:	2300      	movcs	r3, #0
C:\Teensy\Projects\HelloWorld/serial4.c:383
    2bb4:	18d4      	adds	r4, r2, r3
C:\Teensy\Projects\HelloWorld/serial4.c:386
    2bb6:	b2db      	uxtb	r3, r3
C:\Teensy\Projects\HelloWorld/serial4.c:383
    2bb8:	7c24      	ldrb	r4, [r4, #16]
    2bba:	b2e4      	uxtb	r4, r4
C:\Teensy\Projects\HelloWorld/serial4.c:385
    2bbc:	71cc      	strb	r4, [r1, #7]
C:\Teensy\Projects\HelloWorld/serial4.c:386
    2bbe:	70d3      	strb	r3, [r2, #3]
C:\Teensy\Projects\HelloWorld/serial4.c:389
    2bc0:	0643      	lsls	r3, r0, #25
    2bc2:	d50d      	bpl.n	2be0 <uart3_status_isr+0xa0>
C:\Teensy\Projects\HelloWorld/serial4.c:389 (discriminator 1)
    2bc4:	4b07      	ldr	r3, [pc, #28]	; (2be4 <uart3_status_isr+0xa4>)
    2bc6:	791a      	ldrb	r2, [r3, #4]
    2bc8:	f012 0f40 	tst.w	r2, #64	; 0x40
    2bcc:	4619      	mov	r1, r3
    2bce:	d007      	beq.n	2be0 <uart3_status_isr+0xa0>
C:\Teensy\Projects\HelloWorld/serial4.c:390
    2bd0:	4b05      	ldr	r3, [pc, #20]	; (2be8 <uart3_status_isr+0xa8>)
    2bd2:	2200      	movs	r2, #0
    2bd4:	711a      	strb	r2, [r3, #4]
C:\Teensy\Projects\HelloWorld/serial4.c:391
    2bd6:	68db      	ldr	r3, [r3, #12]
    2bd8:	b103      	cbz	r3, 2bdc <uart3_status_isr+0x9c>
C:\Teensy\Projects\HelloWorld/serial4.c:391 (discriminator 1)
    2bda:	701a      	strb	r2, [r3, #0]
C:\Teensy\Projects\HelloWorld/serial4.c:392
    2bdc:	232c      	movs	r3, #44	; 0x2c
    2bde:	70cb      	strb	r3, [r1, #3]
    2be0:	bd10      	pop	{r4, pc}
    2be2:	bf00      	nop
    2be4:	4006d000 	.word	0x4006d000
    2be8:	1fff0d00 	.word	0x1fff0d00

00002bec <serial5_begin>:
serial5_begin():
C:\Teensy\Projects\HelloWorld/serial5.c:100
    2bec:	4b14      	ldr	r3, [pc, #80]	; (2c40 <serial5_begin+0x54>)
    2bee:	681a      	ldr	r2, [r3, #0]
    2bf0:	f442 6280 	orr.w	r2, r2, #1024	; 0x400
    2bf4:	601a      	str	r2, [r3, #0]
C:\Teensy\Projects\HelloWorld/serial5.c:101
    2bf6:	4a13      	ldr	r2, [pc, #76]	; (2c44 <serial5_begin+0x58>)
    2bf8:	2300      	movs	r3, #0
    2bfa:	7013      	strb	r3, [r2, #0]
C:\Teensy\Projects\HelloWorld/serial5.c:102
    2bfc:	7053      	strb	r3, [r2, #1]
C:\Teensy\Projects\HelloWorld/serial5.c:103
    2bfe:	7093      	strb	r3, [r2, #2]
C:\Teensy\Projects\HelloWorld/serial5.c:104
    2c00:	70d3      	strb	r3, [r2, #3]
C:\Teensy\Projects\HelloWorld/serial5.c:105
    2c02:	7113      	strb	r3, [r2, #4]
C:\Teensy\Projects\HelloWorld/serial5.c:106
    2c04:	4a10      	ldr	r2, [pc, #64]	; (2c48 <serial5_begin+0x5c>)
    2c06:	f240 3113 	movw	r1, #787	; 0x313
    2c0a:	6011      	str	r1, [r2, #0]
C:\Teensy\Projects\HelloWorld/serial5.c:107
    2c0c:	f44f 7151 	mov.w	r1, #836	; 0x344
    2c10:	f842 1c04 	str.w	r1, [r2, #-4]
C:\Teensy\Projects\HelloWorld/serial5.c:108
    2c14:	4a0d      	ldr	r2, [pc, #52]	; (2c4c <serial5_begin+0x60>)
    2c16:	f3c0 3144 	ubfx	r1, r0, #13, #5
    2c1a:	7011      	strb	r1, [r2, #0]
C:\Teensy\Projects\HelloWorld/serial5.c:109
    2c1c:	f3c0 1147 	ubfx	r1, r0, #5, #8
C:\Teensy\Projects\HelloWorld/serial5.c:110
    2c20:	f000 001f 	and.w	r0, r0, #31
C:\Teensy\Projects\HelloWorld/serial5.c:109
    2c24:	7051      	strb	r1, [r2, #1]
C:\Teensy\Projects\HelloWorld/serial5.c:110
    2c26:	7290      	strb	r0, [r2, #10]
C:\Teensy\Projects\HelloWorld/serial5.c:111
    2c28:	7093      	strb	r3, [r2, #2]
C:\Teensy\Projects\HelloWorld/serial5.c:112
    2c2a:	7413      	strb	r3, [r2, #16]
C:\Teensy\Projects\HelloWorld/serial5.c:113
    2c2c:	232c      	movs	r3, #44	; 0x2c
    2c2e:	70d3      	strb	r3, [r2, #3]
C:\Teensy\Projects\HelloWorld/serial5.c:114
    2c30:	4b07      	ldr	r3, [pc, #28]	; (2c50 <serial5_begin+0x64>)
    2c32:	2240      	movs	r2, #64	; 0x40
    2c34:	701a      	strb	r2, [r3, #0]
C:\Teensy\Projects\HelloWorld/serial5.c:115
    2c36:	f2a3 333a 	subw	r3, r3, #826	; 0x33a
    2c3a:	2204      	movs	r2, #4
    2c3c:	601a      	str	r2, [r3, #0]
    2c3e:	4770      	bx	lr
    2c40:	40048028 	.word	0x40048028
    2c44:	1fff0d78 	.word	0x1fff0d78
    2c48:	4004d064 	.word	0x4004d064
    2c4c:	400ea000 	.word	0x400ea000
    2c50:	e000e442 	.word	0xe000e442

00002c54 <serial5_format>:
serial5_format():
C:\Teensy\Projects\HelloWorld/serial5.c:122
    2c54:	4a19      	ldr	r2, [pc, #100]	; (2cbc <serial5_format+0x68>)
    2c56:	7893      	ldrb	r3, [r2, #2]
C:\Teensy\Projects\HelloWorld/serial5.c:123
    2c58:	f000 0103 	and.w	r1, r0, #3
    2c5c:	f003 03ec 	and.w	r3, r3, #236	; 0xec
    2c60:	430b      	orrs	r3, r1
C:\Teensy\Projects\HelloWorld/serial5.c:124
    2c62:	0741      	lsls	r1, r0, #29
    2c64:	bf48      	it	mi
    2c66:	f043 0310 	orrmi.w	r3, r3, #16
C:\Teensy\Projects\HelloWorld/serial5.c:125
    2c6a:	7093      	strb	r3, [r2, #2]
C:\Teensy\Projects\HelloWorld/serial5.c:126
    2c6c:	f000 030f 	and.w	r3, r0, #15
    2c70:	2b04      	cmp	r3, #4
C:\Teensy\Projects\HelloWorld/serial5.c:125
    2c72:	4912      	ldr	r1, [pc, #72]	; (2cbc <serial5_format+0x68>)
C:\Teensy\Projects\HelloWorld/serial5.c:126
    2c74:	d103      	bne.n	2c7e <serial5_format+0x2a>
C:\Teensy\Projects\HelloWorld/serial5.c:126 (discriminator 1)
    2c76:	798b      	ldrb	r3, [r1, #6]
    2c78:	f043 0340 	orr.w	r3, r3, #64	; 0x40
    2c7c:	718b      	strb	r3, [r1, #6]
C:\Teensy\Projects\HelloWorld/serial5.c:127
    2c7e:	7952      	ldrb	r2, [r2, #5]
C:\Teensy\Projects\HelloWorld/serial5.c:129
    2c80:	4b0e      	ldr	r3, [pc, #56]	; (2cbc <serial5_format+0x68>)
C:\Teensy\Projects\HelloWorld/serial5.c:127
    2c82:	f002 02ef 	and.w	r2, r2, #239	; 0xef
C:\Teensy\Projects\HelloWorld/serial5.c:128
    2c86:	06c1      	lsls	r1, r0, #27
    2c88:	bf48      	it	mi
    2c8a:	f042 0210 	orrmi.w	r2, r2, #16
C:\Teensy\Projects\HelloWorld/serial5.c:129
    2c8e:	715a      	strb	r2, [r3, #5]
C:\Teensy\Projects\HelloWorld/serial5.c:130
    2c90:	799a      	ldrb	r2, [r3, #6]
C:\Teensy\Projects\HelloWorld/serial5.c:131
    2c92:	f010 0f20 	tst.w	r0, #32
C:\Teensy\Projects\HelloWorld/serial5.c:130
    2c96:	f002 02ef 	and.w	r2, r2, #239	; 0xef
    2c9a:	4619      	mov	r1, r3
C:\Teensy\Projects\HelloWorld/serial5.c:131
    2c9c:	bf18      	it	ne
    2c9e:	f042 0210 	orrne.w	r2, r2, #16
C:\Teensy\Projects\HelloWorld/serial5.c:132
    2ca2:	718a      	strb	r2, [r1, #6]
C:\Teensy\Projects\HelloWorld/serial5.c:140
    2ca4:	05c2      	lsls	r2, r0, #23
C:\Teensy\Projects\HelloWorld/serial5.c:132
    2ca6:	4b05      	ldr	r3, [pc, #20]	; (2cbc <serial5_format+0x68>)
C:\Teensy\Projects\HelloWorld/serial5.c:140
    2ca8:	d506      	bpl.n	2cb8 <serial5_format+0x64>
C:\Teensy\Projects\HelloWorld/serial5.c:141
    2caa:	785a      	ldrb	r2, [r3, #1]
C:\Teensy\Projects\HelloWorld/serial5.c:142
    2cac:	7819      	ldrb	r1, [r3, #0]
C:\Teensy\Projects\HelloWorld/serial5.c:141
    2cae:	b2d2      	uxtb	r2, r2
C:\Teensy\Projects\HelloWorld/serial5.c:142
    2cb0:	f041 0120 	orr.w	r1, r1, #32
    2cb4:	7019      	strb	r1, [r3, #0]
C:\Teensy\Projects\HelloWorld/serial5.c:143
    2cb6:	705a      	strb	r2, [r3, #1]
    2cb8:	4770      	bx	lr
    2cba:	bf00      	nop
    2cbc:	400ea000 	.word	0x400ea000

00002cc0 <serial5_end>:
serial5_end():
C:\Teensy\Projects\HelloWorld/serial5.c:148
    2cc0:	b508      	push	{r3, lr}
C:\Teensy\Projects\HelloWorld/serial5.c:149
    2cc2:	4b0f      	ldr	r3, [pc, #60]	; (2d00 <serial5_end+0x40>)
    2cc4:	681b      	ldr	r3, [r3, #0]
    2cc6:	055b      	lsls	r3, r3, #21
    2cc8:	d400      	bmi.n	2ccc <serial5_end+0xc>
    2cca:	bd08      	pop	{r3, pc}
C:\Teensy\Projects\HelloWorld/serial5.c:150 (discriminator 1)
    2ccc:	4b0d      	ldr	r3, [pc, #52]	; (2d04 <serial5_end+0x44>)
    2cce:	7919      	ldrb	r1, [r3, #4]
    2cd0:	f001 02ff 	and.w	r2, r1, #255	; 0xff
    2cd4:	b111      	cbz	r1, 2cdc <serial5_end+0x1c>
C:\Teensy\Projects\HelloWorld/serial5.c:150 (discriminator 2)
    2cd6:	f002 fc6f 	bl	55b8 <yield>
    2cda:	e7f7      	b.n	2ccc <serial5_end+0xc>
C:\Teensy\Projects\HelloWorld/serial5.c:151
    2cdc:	490a      	ldr	r1, [pc, #40]	; (2d08 <serial5_end+0x48>)
    2cde:	2004      	movs	r0, #4
    2ce0:	6008      	str	r0, [r1, #0]
C:\Teensy\Projects\HelloWorld/serial5.c:152
    2ce2:	490a      	ldr	r1, [pc, #40]	; (2d0c <serial5_end+0x4c>)
C:\Teensy\Projects\HelloWorld/serial5.c:153
    2ce4:	480a      	ldr	r0, [pc, #40]	; (2d10 <serial5_end+0x50>)
C:\Teensy\Projects\HelloWorld/serial5.c:152
    2ce6:	70ca      	strb	r2, [r1, #3]
C:\Teensy\Projects\HelloWorld/serial5.c:153
    2ce8:	f240 1103 	movw	r1, #259	; 0x103
    2cec:	6001      	str	r1, [r0, #0]
C:\Teensy\Projects\HelloWorld/serial5.c:154
    2cee:	f840 1c04 	str.w	r1, [r0, #-4]
C:\Teensy\Projects\HelloWorld/serial5.c:155
    2cf2:	701a      	strb	r2, [r3, #0]
C:\Teensy\Projects\HelloWorld/serial5.c:156
    2cf4:	705a      	strb	r2, [r3, #1]
C:\Teensy\Projects\HelloWorld/serial5.c:157
    2cf6:	689b      	ldr	r3, [r3, #8]
    2cf8:	b10b      	cbz	r3, 2cfe <serial5_end+0x3e>
C:\Teensy\Projects\HelloWorld/serial5.c:157 (discriminator 1)
    2cfa:	2201      	movs	r2, #1
    2cfc:	701a      	strb	r2, [r3, #0]
    2cfe:	bd08      	pop	{r3, pc}
    2d00:	40048028 	.word	0x40048028
    2d04:	1fff0d78 	.word	0x1fff0d78
    2d08:	e000e188 	.word	0xe000e188
    2d0c:	400ea000 	.word	0x400ea000
    2d10:	4004d064 	.word	0x4004d064

00002d14 <serial5_set_transmit_pin>:
serial5_set_transmit_pin():
C:\Teensy\Projects\HelloWorld/serial5.c:161
    2d14:	b570      	push	{r4, r5, r6, lr}
    2d16:	4604      	mov	r4, r0
C:\Teensy\Projects\HelloWorld/serial5.c:162 (discriminator 1)
    2d18:	4d09      	ldr	r5, [pc, #36]	; (2d40 <serial5_set_transmit_pin+0x2c>)
    2d1a:	792b      	ldrb	r3, [r5, #4]
    2d1c:	f003 06ff 	and.w	r6, r3, #255	; 0xff
    2d20:	2b00      	cmp	r3, #0
    2d22:	d1f9      	bne.n	2d18 <serial5_set_transmit_pin+0x4>
C:\Teensy\Projects\HelloWorld/serial5.c:163
    2d24:	4620      	mov	r0, r4
    2d26:	2101      	movs	r1, #1
    2d28:	f7fe f920 	bl	f6c <pinMode>
C:\Teensy\Projects\HelloWorld/serial5.c:164
    2d2c:	4620      	mov	r0, r4
    2d2e:	4631      	mov	r1, r6
    2d30:	f7fe f8ee 	bl	f10 <digitalWrite>
C:\Teensy\Projects\HelloWorld/serial5.c:165
    2d34:	4b03      	ldr	r3, [pc, #12]	; (2d44 <serial5_set_transmit_pin+0x30>)
    2d36:	f853 3034 	ldr.w	r3, [r3, r4, lsl #3]
    2d3a:	60eb      	str	r3, [r5, #12]
    2d3c:	bd70      	pop	{r4, r5, r6, pc}
    2d3e:	bf00      	nop
    2d40:	1fff0d78 	.word	0x1fff0d78
    2d44:	00009ecc 	.word	0x00009ecc

00002d48 <serial5_set_tx>:
serial5_set_tx():
C:\Teensy\Projects\HelloWorld/serial5.c:169
    2d48:	b510      	push	{r4, lr}
C:\Teensy\Projects\HelloWorld/serial5.c:172
    2d4a:	b109      	cbz	r1, 2d50 <serial5_set_tx+0x8>
C:\Teensy\Projects\HelloWorld/serial5.c:172 (discriminator 1)
    2d4c:	f040 0080 	orr.w	r0, r0, #128	; 0x80
C:\Teensy\Projects\HelloWorld/serial5.c:173
    2d50:	4a0e      	ldr	r2, [pc, #56]	; (2d8c <serial5_set_tx+0x44>)
    2d52:	7813      	ldrb	r3, [r2, #0]
    2d54:	4298      	cmp	r0, r3
    2d56:	d017      	beq.n	2d88 <serial5_set_tx+0x40>
C:\Teensy\Projects\HelloWorld/serial5.c:174
    2d58:	4c0d      	ldr	r4, [pc, #52]	; (2d90 <serial5_set_tx+0x48>)
    2d5a:	6824      	ldr	r4, [r4, #0]
    2d5c:	0564      	lsls	r4, r4, #21
    2d5e:	d512      	bpl.n	2d86 <serial5_set_tx+0x3e>
C:\Teensy\Projects\HelloWorld/serial5.c:175
    2d60:	f003 037f 	and.w	r3, r3, #127	; 0x7f
    2d64:	2b21      	cmp	r3, #33	; 0x21
    2d66:	d102      	bne.n	2d6e <serial5_set_tx+0x26>
C:\Teensy\Projects\HelloWorld/serial5.c:176
    2d68:	4b0a      	ldr	r3, [pc, #40]	; (2d94 <serial5_set_tx+0x4c>)
    2d6a:	2400      	movs	r4, #0
    2d6c:	601c      	str	r4, [r3, #0]
C:\Teensy\Projects\HelloWorld/serial5.c:179
    2d6e:	2900      	cmp	r1, #0
C:\Teensy\Projects\HelloWorld/serial5.c:183
    2d70:	f000 037f 	and.w	r3, r0, #127	; 0x7f
C:\Teensy\Projects\HelloWorld/serial5.c:179
    2d74:	bf0c      	ite	eq
    2d76:	2144      	moveq	r1, #68	; 0x44
    2d78:	2160      	movne	r1, #96	; 0x60
C:\Teensy\Projects\HelloWorld/serial5.c:183
    2d7a:	2b21      	cmp	r3, #33	; 0x21
    2d7c:	d103      	bne.n	2d86 <serial5_set_tx+0x3e>
C:\Teensy\Projects\HelloWorld/serial5.c:184
    2d7e:	4b05      	ldr	r3, [pc, #20]	; (2d94 <serial5_set_tx+0x4c>)
    2d80:	f441 7140 	orr.w	r1, r1, #768	; 0x300
    2d84:	6019      	str	r1, [r3, #0]
C:\Teensy\Projects\HelloWorld/serial5.c:187
    2d86:	7010      	strb	r0, [r2, #0]
    2d88:	bd10      	pop	{r4, pc}
    2d8a:	bf00      	nop
    2d8c:	1fff0a0e 	.word	0x1fff0a0e
    2d90:	40048028 	.word	0x40048028
    2d94:	4004d060 	.word	0x4004d060

00002d98 <serial5_set_rx>:
serial5_set_rx():
C:\Teensy\Projects\HelloWorld/serial5.c:191
    2d98:	4770      	bx	lr

00002d9a <serial5_set_rts>:
serial5_set_rts():
C:\Teensy\Projects\HelloWorld/serial5.c:196
    2d9a:	4a0d      	ldr	r2, [pc, #52]	; (2dd0 <serial5_set_rts+0x36>)
C:\Teensy\Projects\HelloWorld/serial5.c:195
    2d9c:	b538      	push	{r3, r4, r5, lr}
C:\Teensy\Projects\HelloWorld/serial5.c:196
    2d9e:	6814      	ldr	r4, [r2, #0]
    2da0:	f414 6280 	ands.w	r2, r4, #1024	; 0x400
    2da4:	f04f 0400 	mov.w	r4, #0
    2da8:	d010      	beq.n	2dcc <serial5_set_rts+0x32>
C:\Teensy\Projects\HelloWorld/serial5.c:197
    2daa:	283f      	cmp	r0, #63	; 0x3f
    2dac:	4d09      	ldr	r5, [pc, #36]	; (2dd4 <serial5_set_rts+0x3a>)
    2dae:	d80a      	bhi.n	2dc6 <serial5_set_rts+0x2c>
C:\Teensy\Projects\HelloWorld/serial5.c:198
    2db0:	4a09      	ldr	r2, [pc, #36]	; (2dd8 <serial5_set_rts+0x3e>)
C:\Teensy\Projects\HelloWorld/serial5.c:199
    2db2:	2101      	movs	r1, #1
C:\Teensy\Projects\HelloWorld/serial5.c:198
    2db4:	f852 3030 	ldr.w	r3, [r2, r0, lsl #3]
    2db8:	60ab      	str	r3, [r5, #8]
C:\Teensy\Projects\HelloWorld/serial5.c:199
    2dba:	f7fe f8d7 	bl	f6c <pinMode>
C:\Teensy\Projects\HelloWorld/serial5.c:200
    2dbe:	68ab      	ldr	r3, [r5, #8]
    2dc0:	701c      	strb	r4, [r3, #0]
C:\Teensy\Projects\HelloWorld/serial5.c:205
    2dc2:	2001      	movs	r0, #1
    2dc4:	bd38      	pop	{r3, r4, r5, pc}
C:\Teensy\Projects\HelloWorld/serial5.c:202
    2dc6:	60ac      	str	r4, [r5, #8]
C:\Teensy\Projects\HelloWorld/serial5.c:203
    2dc8:	4620      	mov	r0, r4
    2dca:	bd38      	pop	{r3, r4, r5, pc}
C:\Teensy\Projects\HelloWorld/serial5.c:196
    2dcc:	4610      	mov	r0, r2
C:\Teensy\Projects\HelloWorld/serial5.c:206
    2dce:	bd38      	pop	{r3, r4, r5, pc}
    2dd0:	40048028 	.word	0x40048028
    2dd4:	1fff0d78 	.word	0x1fff0d78
    2dd8:	00009ecc 	.word	0x00009ecc

00002ddc <serial5_set_cts>:
serial5_set_cts():
C:\Teensy\Projects\HelloWorld/serial5.c:210
    2ddc:	4b0b      	ldr	r3, [pc, #44]	; (2e0c <serial5_set_cts+0x30>)
    2dde:	681b      	ldr	r3, [r3, #0]
    2de0:	f413 6380 	ands.w	r3, r3, #1024	; 0x400
    2de4:	d010      	beq.n	2e08 <serial5_set_cts+0x2c>
C:\Teensy\Projects\HelloWorld/serial5.c:211
    2de6:	2818      	cmp	r0, #24
    2de8:	4b09      	ldr	r3, [pc, #36]	; (2e10 <serial5_set_cts+0x34>)
    2dea:	d109      	bne.n	2e00 <serial5_set_cts+0x24>
C:\Teensy\Projects\HelloWorld/serial5.c:212
    2dec:	4a09      	ldr	r2, [pc, #36]	; (2e14 <serial5_set_cts+0x38>)
    2dee:	f240 3102 	movw	r1, #770	; 0x302
    2df2:	6011      	str	r1, [r2, #0]
C:\Teensy\Projects\HelloWorld/serial5.c:217
    2df4:	7b5a      	ldrb	r2, [r3, #13]
    2df6:	f042 0201 	orr.w	r2, r2, #1
    2dfa:	735a      	strb	r2, [r3, #13]
C:\Teensy\Projects\HelloWorld/serial5.c:218
    2dfc:	2001      	movs	r0, #1
    2dfe:	4770      	bx	lr
C:\Teensy\Projects\HelloWorld/serial5.c:214
    2e00:	7b5a      	ldrb	r2, [r3, #13]
    2e02:	f002 02fe 	and.w	r2, r2, #254	; 0xfe
    2e06:	735a      	strb	r2, [r3, #13]
C:\Teensy\Projects\HelloWorld/serial5.c:215
    2e08:	2000      	movs	r0, #0
    2e0a:	4770      	bx	lr
    2e0c:	40048028 	.word	0x40048028
    2e10:	400ea000 	.word	0x400ea000
    2e14:	4004d068 	.word	0x4004d068

00002e18 <serial5_putchar>:
serial5_putchar():
C:\Teensy\Projects\HelloWorld/serial5.c:222
    2e18:	b5f8      	push	{r3, r4, r5, r6, r7, lr}
C:\Teensy\Projects\HelloWorld/serial5.c:225
    2e1a:	4b1b      	ldr	r3, [pc, #108]	; (2e88 <serial5_putchar+0x70>)
    2e1c:	681b      	ldr	r3, [r3, #0]
    2e1e:	055a      	lsls	r2, r3, #21
C:\Teensy\Projects\HelloWorld/serial5.c:222
    2e20:	4607      	mov	r7, r0
C:\Teensy\Projects\HelloWorld/serial5.c:225
    2e22:	d530      	bpl.n	2e86 <serial5_putchar+0x6e>
C:\Teensy\Projects\HelloWorld/serial5.c:226
    2e24:	4e19      	ldr	r6, [pc, #100]	; (2e8c <serial5_putchar+0x74>)
    2e26:	68f3      	ldr	r3, [r6, #12]
    2e28:	b10b      	cbz	r3, 2e2e <serial5_putchar+0x16>
C:\Teensy\Projects\HelloWorld/serial5.c:226 (discriminator 1)
    2e2a:	2201      	movs	r2, #1
    2e2c:	701a      	strb	r2, [r3, #0]
C:\Teensy\Projects\HelloWorld/serial5.c:227
    2e2e:	78b4      	ldrb	r4, [r6, #2]
C:\Teensy\Projects\HelloWorld/serial5.c:228
    2e30:	3401      	adds	r4, #1
    2e32:	2c28      	cmp	r4, #40	; 0x28
    2e34:	bf28      	it	cs
    2e36:	2400      	movcs	r4, #0
C:\Teensy\Projects\HelloWorld/serial5.c:229 (discriminator 1)
    2e38:	78f3      	ldrb	r3, [r6, #3]
    2e3a:	4d14      	ldr	r5, [pc, #80]	; (2e8c <serial5_putchar+0x74>)
    2e3c:	42a3      	cmp	r3, r4
    2e3e:	d118      	bne.n	2e72 <serial5_putchar+0x5a>
C:\Teensy\Projects\HelloWorld/serial5.c:230
    2e40:	f7fd fdc4 	bl	9cc <nvic_execution_priority>
C:\Teensy\Projects\HelloWorld/serial5.c:231
    2e44:	2840      	cmp	r0, #64	; 0x40
    2e46:	dc0f      	bgt.n	2e68 <serial5_putchar+0x50>
C:\Teensy\Projects\HelloWorld/serial5.c:232
    2e48:	4a11      	ldr	r2, [pc, #68]	; (2e90 <serial5_putchar+0x78>)
    2e4a:	7913      	ldrb	r3, [r2, #4]
    2e4c:	061b      	lsls	r3, r3, #24
    2e4e:	d5f3      	bpl.n	2e38 <serial5_putchar+0x20>
C:\Teensy\Projects\HelloWorld/serial5.c:233
    2e50:	78eb      	ldrb	r3, [r5, #3]
C:\Teensy\Projects\HelloWorld/serial5.c:234
    2e52:	3301      	adds	r3, #1
    2e54:	2b28      	cmp	r3, #40	; 0x28
    2e56:	bf28      	it	cs
    2e58:	2300      	movcs	r3, #0
C:\Teensy\Projects\HelloWorld/serial5.c:235
    2e5a:	18f1      	adds	r1, r6, r3
C:\Teensy\Projects\HelloWorld/serial5.c:238
    2e5c:	b2db      	uxtb	r3, r3
C:\Teensy\Projects\HelloWorld/serial5.c:235
    2e5e:	7c09      	ldrb	r1, [r1, #16]
    2e60:	b2c9      	uxtb	r1, r1
C:\Teensy\Projects\HelloWorld/serial5.c:237
    2e62:	71d1      	strb	r1, [r2, #7]
C:\Teensy\Projects\HelloWorld/serial5.c:238
    2e64:	70f3      	strb	r3, [r6, #3]
    2e66:	e7e7      	b.n	2e38 <serial5_putchar+0x20>
C:\Teensy\Projects\HelloWorld/serial5.c:240
    2e68:	28ff      	cmp	r0, #255	; 0xff
    2e6a:	dde5      	ble.n	2e38 <serial5_putchar+0x20>
C:\Teensy\Projects\HelloWorld/serial5.c:241
    2e6c:	f002 fba4 	bl	55b8 <yield>
    2e70:	e7e2      	b.n	2e38 <serial5_putchar+0x20>
C:\Teensy\Projects\HelloWorld/serial5.c:244
    2e72:	192b      	adds	r3, r5, r4
    2e74:	b2ff      	uxtb	r7, r7
    2e76:	741f      	strb	r7, [r3, #16]
C:\Teensy\Projects\HelloWorld/serial5.c:245
    2e78:	2301      	movs	r3, #1
    2e7a:	712b      	strb	r3, [r5, #4]
C:\Teensy\Projects\HelloWorld/serial5.c:247
    2e7c:	4b04      	ldr	r3, [pc, #16]	; (2e90 <serial5_putchar+0x78>)
C:\Teensy\Projects\HelloWorld/serial5.c:246
    2e7e:	b2e4      	uxtb	r4, r4
C:\Teensy\Projects\HelloWorld/serial5.c:247
    2e80:	22ac      	movs	r2, #172	; 0xac
C:\Teensy\Projects\HelloWorld/serial5.c:246
    2e82:	70ac      	strb	r4, [r5, #2]
C:\Teensy\Projects\HelloWorld/serial5.c:247
    2e84:	70da      	strb	r2, [r3, #3]
    2e86:	bdf8      	pop	{r3, r4, r5, r6, r7, pc}
    2e88:	40048028 	.word	0x40048028
    2e8c:	1fff0d78 	.word	0x1fff0d78
    2e90:	400ea000 	.word	0x400ea000

00002e94 <serial5_write>:
serial5_write():
C:\Teensy\Projects\HelloWorld/serial5.c:251
    2e94:	b538      	push	{r3, r4, r5, lr}
    2e96:	4604      	mov	r4, r0
    2e98:	1845      	adds	r5, r0, r1
C:\Teensy\Projects\HelloWorld/serial5.c:253 (discriminator 1)
    2e9a:	42ac      	cmp	r4, r5
    2e9c:	d004      	beq.n	2ea8 <serial5_write+0x14>
C:\Teensy\Projects\HelloWorld/serial5.c:253 (discriminator 2)
    2e9e:	f814 0b01 	ldrb.w	r0, [r4], #1
    2ea2:	f7ff ffb9 	bl	2e18 <serial5_putchar>
    2ea6:	e7f8      	b.n	2e9a <serial5_write+0x6>
C:\Teensy\Projects\HelloWorld/serial5.c:254
    2ea8:	bd38      	pop	{r3, r4, r5, pc}

00002eaa <serial5_flush>:
serial5_flush():
C:\Teensy\Projects\HelloWorld/serial5.c:257
    2eaa:	b508      	push	{r3, lr}
C:\Teensy\Projects\HelloWorld/serial5.c:258 (discriminator 1)
    2eac:	4b03      	ldr	r3, [pc, #12]	; (2ebc <serial5_flush+0x12>)
    2eae:	791b      	ldrb	r3, [r3, #4]
    2eb0:	b113      	cbz	r3, 2eb8 <serial5_flush+0xe>
C:\Teensy\Projects\HelloWorld/serial5.c:258 (discriminator 2)
    2eb2:	f002 fb81 	bl	55b8 <yield>
    2eb6:	e7f9      	b.n	2eac <serial5_flush+0x2>
C:\Teensy\Projects\HelloWorld/serial5.c:259
    2eb8:	bd08      	pop	{r3, pc}
    2eba:	bf00      	nop
    2ebc:	1fff0d78 	.word	0x1fff0d78

00002ec0 <serial5_write_buffer_free>:
serial5_write_buffer_free():
C:\Teensy\Projects\HelloWorld/serial5.c:265
    2ec0:	4a05      	ldr	r2, [pc, #20]	; (2ed8 <serial5_write_buffer_free+0x18>)
    2ec2:	7893      	ldrb	r3, [r2, #2]
C:\Teensy\Projects\HelloWorld/serial5.c:266
    2ec4:	78d0      	ldrb	r0, [r2, #3]
C:\Teensy\Projects\HelloWorld/serial5.c:265
    2ec6:	b2db      	uxtb	r3, r3
C:\Teensy\Projects\HelloWorld/serial5.c:266
    2ec8:	b2c0      	uxtb	r0, r0
C:\Teensy\Projects\HelloWorld/serial5.c:267
    2eca:	4283      	cmp	r3, r0
    2ecc:	bf2c      	ite	cs
    2ece:	3027      	addcs	r0, #39	; 0x27
C:\Teensy\Projects\HelloWorld/serial5.c:268
    2ed0:	f100 30ff 	addcc.w	r0, r0, #4294967295
    2ed4:	1ac0      	subs	r0, r0, r3
C:\Teensy\Projects\HelloWorld/serial5.c:269
    2ed6:	4770      	bx	lr
    2ed8:	1fff0d78 	.word	0x1fff0d78

00002edc <serial5_available>:
serial5_available():
C:\Teensy\Projects\HelloWorld/serial5.c:275
    2edc:	4a04      	ldr	r2, [pc, #16]	; (2ef0 <serial5_available+0x14>)
    2ede:	7810      	ldrb	r0, [r2, #0]
C:\Teensy\Projects\HelloWorld/serial5.c:276
    2ee0:	7853      	ldrb	r3, [r2, #1]
C:\Teensy\Projects\HelloWorld/serial5.c:275
    2ee2:	b2c0      	uxtb	r0, r0
C:\Teensy\Projects\HelloWorld/serial5.c:276
    2ee4:	b2db      	uxtb	r3, r3
C:\Teensy\Projects\HelloWorld/serial5.c:277
    2ee6:	4298      	cmp	r0, r3
C:\Teensy\Projects\HelloWorld/serial5.c:278
    2ee8:	bf38      	it	cc
    2eea:	3040      	addcc	r0, #64	; 0x40
    2eec:	1ac0      	subs	r0, r0, r3
C:\Teensy\Projects\HelloWorld/serial5.c:279
    2eee:	4770      	bx	lr
    2ef0:	1fff0d78 	.word	0x1fff0d78

00002ef4 <serial5_getchar>:
serial5_getchar():
C:\Teensy\Projects\HelloWorld/serial5.c:282
    2ef4:	b510      	push	{r4, lr}
C:\Teensy\Projects\HelloWorld/serial5.c:286
    2ef6:	4a0f      	ldr	r2, [pc, #60]	; (2f34 <serial5_getchar+0x40>)
    2ef8:	7811      	ldrb	r1, [r2, #0]
C:\Teensy\Projects\HelloWorld/serial5.c:287
    2efa:	7853      	ldrb	r3, [r2, #1]
C:\Teensy\Projects\HelloWorld/serial5.c:286
    2efc:	b2c9      	uxtb	r1, r1
C:\Teensy\Projects\HelloWorld/serial5.c:287
    2efe:	b2db      	uxtb	r3, r3
C:\Teensy\Projects\HelloWorld/serial5.c:288
    2f00:	4299      	cmp	r1, r3
    2f02:	d014      	beq.n	2f2e <serial5_getchar+0x3a>
C:\Teensy\Projects\HelloWorld/serial5.c:289
    2f04:	3301      	adds	r3, #1
    2f06:	2b40      	cmp	r3, #64	; 0x40
    2f08:	bf28      	it	cs
    2f0a:	2300      	movcs	r3, #0
C:\Teensy\Projects\HelloWorld/serial5.c:290
    2f0c:	18d0      	adds	r0, r2, r3
C:\Teensy\Projects\HelloWorld/serial5.c:291
    2f0e:	b2dc      	uxtb	r4, r3
C:\Teensy\Projects\HelloWorld/serial5.c:290
    2f10:	f890 0038 	ldrb.w	r0, [r0, #56]	; 0x38
C:\Teensy\Projects\HelloWorld/serial5.c:291
    2f14:	7054      	strb	r4, [r2, #1]
C:\Teensy\Projects\HelloWorld/serial5.c:292
    2f16:	6892      	ldr	r2, [r2, #8]
C:\Teensy\Projects\HelloWorld/serial5.c:290
    2f18:	b2c0      	uxtb	r0, r0
C:\Teensy\Projects\HelloWorld/serial5.c:292
    2f1a:	b152      	cbz	r2, 2f32 <serial5_getchar+0x3e>
C:\Teensy\Projects\HelloWorld/serial5.c:294
    2f1c:	4299      	cmp	r1, r3
C:\Teensy\Projects\HelloWorld/serial5.c:295
    2f1e:	bf38      	it	cc
    2f20:	3140      	addcc	r1, #64	; 0x40
    2f22:	1acb      	subs	r3, r1, r3
C:\Teensy\Projects\HelloWorld/serial5.c:296
    2f24:	2b1a      	cmp	r3, #26
    2f26:	dc04      	bgt.n	2f32 <serial5_getchar+0x3e>
C:\Teensy\Projects\HelloWorld/serial5.c:296 (discriminator 1)
    2f28:	2300      	movs	r3, #0
    2f2a:	7013      	strb	r3, [r2, #0]
    2f2c:	bd10      	pop	{r4, pc}
C:\Teensy\Projects\HelloWorld/serial5.c:288
    2f2e:	f04f 30ff 	mov.w	r0, #4294967295
C:\Teensy\Projects\HelloWorld/serial5.c:299
    2f32:	bd10      	pop	{r4, pc}
    2f34:	1fff0d78 	.word	0x1fff0d78

00002f38 <serial5_peek>:
serial5_peek():
C:\Teensy\Projects\HelloWorld/serial5.c:305
    2f38:	4a08      	ldr	r2, [pc, #32]	; (2f5c <serial5_peek+0x24>)
    2f3a:	7811      	ldrb	r1, [r2, #0]
C:\Teensy\Projects\HelloWorld/serial5.c:306
    2f3c:	7853      	ldrb	r3, [r2, #1]
    2f3e:	b2db      	uxtb	r3, r3
C:\Teensy\Projects\HelloWorld/serial5.c:307
    2f40:	4299      	cmp	r1, r3
    2f42:	d008      	beq.n	2f56 <serial5_peek+0x1e>
C:\Teensy\Projects\HelloWorld/serial5.c:308
    2f44:	3301      	adds	r3, #1
    2f46:	2b40      	cmp	r3, #64	; 0x40
    2f48:	bf28      	it	cs
    2f4a:	2300      	movcs	r3, #0
C:\Teensy\Projects\HelloWorld/serial5.c:309
    2f4c:	4413      	add	r3, r2
    2f4e:	f893 0038 	ldrb.w	r0, [r3, #56]	; 0x38
    2f52:	b2c0      	uxtb	r0, r0
    2f54:	4770      	bx	lr
C:\Teensy\Projects\HelloWorld/serial5.c:307
    2f56:	f04f 30ff 	mov.w	r0, #4294967295
C:\Teensy\Projects\HelloWorld/serial5.c:310
    2f5a:	4770      	bx	lr
    2f5c:	1fff0d78 	.word	0x1fff0d78

00002f60 <serial5_clear>:
serial5_clear():
C:\Teensy\Projects\HelloWorld/serial5.c:314
    2f60:	4b04      	ldr	r3, [pc, #16]	; (2f74 <serial5_clear+0x14>)
    2f62:	785a      	ldrb	r2, [r3, #1]
    2f64:	b2d2      	uxtb	r2, r2
    2f66:	701a      	strb	r2, [r3, #0]
C:\Teensy\Projects\HelloWorld/serial5.c:315
    2f68:	689b      	ldr	r3, [r3, #8]
    2f6a:	b10b      	cbz	r3, 2f70 <serial5_clear+0x10>
C:\Teensy\Projects\HelloWorld/serial5.c:315 (discriminator 1)
    2f6c:	2200      	movs	r2, #0
    2f6e:	701a      	strb	r2, [r3, #0]
    2f70:	4770      	bx	lr
    2f72:	bf00      	nop
    2f74:	1fff0d78 	.word	0x1fff0d78

00002f78 <uart4_status_isr>:
uart4_status_isr():
C:\Teensy\Projects\HelloWorld/serial5.c:327
    2f78:	b510      	push	{r4, lr}
C:\Teensy\Projects\HelloWorld/serial5.c:331
    2f7a:	4b28      	ldr	r3, [pc, #160]	; (301c <uart4_status_isr+0xa4>)
    2f7c:	791a      	ldrb	r2, [r3, #4]
    2f7e:	0692      	lsls	r2, r2, #26
    2f80:	d51f      	bpl.n	2fc2 <uart4_status_isr+0x4a>
C:\Teensy\Projects\HelloWorld/serial5.c:337
    2f82:	4a27      	ldr	r2, [pc, #156]	; (3020 <uart4_status_isr+0xa8>)
C:\Teensy\Projects\HelloWorld/serial5.c:335
    2f84:	79d8      	ldrb	r0, [r3, #7]
C:\Teensy\Projects\HelloWorld/serial5.c:337
    2f86:	7813      	ldrb	r3, [r2, #0]
C:\Teensy\Projects\HelloWorld/serial5.c:339
    2f88:	7851      	ldrb	r1, [r2, #1]
C:\Teensy\Projects\HelloWorld/serial5.c:337
    2f8a:	3301      	adds	r3, #1
C:\Teensy\Projects\HelloWorld/serial5.c:338
    2f8c:	2b40      	cmp	r3, #64	; 0x40
    2f8e:	bf28      	it	cs
    2f90:	2300      	movcs	r3, #0
C:\Teensy\Projects\HelloWorld/serial5.c:339
    2f92:	428b      	cmp	r3, r1
C:\Teensy\Projects\HelloWorld/serial5.c:335
    2f94:	b2c0      	uxtb	r0, r0
C:\Teensy\Projects\HelloWorld/serial5.c:339
    2f96:	d004      	beq.n	2fa2 <uart4_status_isr+0x2a>
C:\Teensy\Projects\HelloWorld/serial5.c:340
    2f98:	18d1      	adds	r1, r2, r3
    2f9a:	f881 0038 	strb.w	r0, [r1, #56]	; 0x38
C:\Teensy\Projects\HelloWorld/serial5.c:341
    2f9e:	b2d9      	uxtb	r1, r3
    2fa0:	7011      	strb	r1, [r2, #0]
C:\Teensy\Projects\HelloWorld/serial5.c:343
    2fa2:	6891      	ldr	r1, [r2, #8]
    2fa4:	b169      	cbz	r1, 2fc2 <uart4_status_isr+0x4a>
C:\Teensy\Projects\HelloWorld/serial5.c:345
    2fa6:	4a1e      	ldr	r2, [pc, #120]	; (3020 <uart4_status_isr+0xa8>)
    2fa8:	78d2      	ldrb	r2, [r2, #3]
    2faa:	b2d2      	uxtb	r2, r2
C:\Teensy\Projects\HelloWorld/serial5.c:346
    2fac:	4293      	cmp	r3, r2
C:\Teensy\Projects\HelloWorld/serial5.c:347
    2fae:	bf36      	itet	cc
    2fb0:	f1c2 0240 	rsbcc	r2, r2, #64	; 0x40
C:\Teensy\Projects\HelloWorld/serial5.c:346
    2fb4:	ebc2 0303 	rsbcs	r3, r2, r3
C:\Teensy\Projects\HelloWorld/serial5.c:347
    2fb8:	189b      	addcc	r3, r3, r2
C:\Teensy\Projects\HelloWorld/serial5.c:348
    2fba:	2b27      	cmp	r3, #39	; 0x27
    2fbc:	bfc4      	itt	gt
    2fbe:	2301      	movgt	r3, #1
    2fc0:	700b      	strbgt	r3, [r1, #0]
C:\Teensy\Projects\HelloWorld/serial5.c:351
    2fc2:	4916      	ldr	r1, [pc, #88]	; (301c <uart4_status_isr+0xa4>)
    2fc4:	78c8      	ldrb	r0, [r1, #3]
    2fc6:	b2c0      	uxtb	r0, r0
C:\Teensy\Projects\HelloWorld/serial5.c:352
    2fc8:	0604      	lsls	r4, r0, #24
    2fca:	d515      	bpl.n	2ff8 <uart4_status_isr+0x80>
C:\Teensy\Projects\HelloWorld/serial5.c:352 (discriminator 1)
    2fcc:	790b      	ldrb	r3, [r1, #4]
    2fce:	061a      	lsls	r2, r3, #24
    2fd0:	d512      	bpl.n	2ff8 <uart4_status_isr+0x80>
C:\Teensy\Projects\HelloWorld/serial5.c:353
    2fd2:	4a13      	ldr	r2, [pc, #76]	; (3020 <uart4_status_isr+0xa8>)
    2fd4:	7894      	ldrb	r4, [r2, #2]
C:\Teensy\Projects\HelloWorld/serial5.c:354
    2fd6:	78d3      	ldrb	r3, [r2, #3]
    2fd8:	b2db      	uxtb	r3, r3
C:\Teensy\Projects\HelloWorld/serial5.c:355
    2fda:	429c      	cmp	r4, r3
    2fdc:	d102      	bne.n	2fe4 <uart4_status_isr+0x6c>
C:\Teensy\Projects\HelloWorld/serial5.c:356
    2fde:	236c      	movs	r3, #108	; 0x6c
    2fe0:	70cb      	strb	r3, [r1, #3]
    2fe2:	e009      	b.n	2ff8 <uart4_status_isr+0x80>
C:\Teensy\Projects\HelloWorld/serial5.c:358
    2fe4:	3301      	adds	r3, #1
    2fe6:	2b28      	cmp	r3, #40	; 0x28
    2fe8:	bf28      	it	cs
    2fea:	2300      	movcs	r3, #0
C:\Teensy\Projects\HelloWorld/serial5.c:359
    2fec:	18d4      	adds	r4, r2, r3
C:\Teensy\Projects\HelloWorld/serial5.c:362
    2fee:	b2db      	uxtb	r3, r3
C:\Teensy\Projects\HelloWorld/serial5.c:359
    2ff0:	7c24      	ldrb	r4, [r4, #16]
    2ff2:	b2e4      	uxtb	r4, r4
C:\Teensy\Projects\HelloWorld/serial5.c:361
    2ff4:	71cc      	strb	r4, [r1, #7]
C:\Teensy\Projects\HelloWorld/serial5.c:362
    2ff6:	70d3      	strb	r3, [r2, #3]
C:\Teensy\Projects\HelloWorld/serial5.c:365
    2ff8:	0643      	lsls	r3, r0, #25
    2ffa:	d50d      	bpl.n	3018 <uart4_status_isr+0xa0>
C:\Teensy\Projects\HelloWorld/serial5.c:365 (discriminator 1)
    2ffc:	4b07      	ldr	r3, [pc, #28]	; (301c <uart4_status_isr+0xa4>)
    2ffe:	791a      	ldrb	r2, [r3, #4]
    3000:	f012 0f40 	tst.w	r2, #64	; 0x40
    3004:	4619      	mov	r1, r3
    3006:	d007      	beq.n	3018 <uart4_status_isr+0xa0>
C:\Teensy\Projects\HelloWorld/serial5.c:366
    3008:	4b05      	ldr	r3, [pc, #20]	; (3020 <uart4_status_isr+0xa8>)
    300a:	2200      	movs	r2, #0
    300c:	711a      	strb	r2, [r3, #4]
C:\Teensy\Projects\HelloWorld/serial5.c:367
    300e:	68db      	ldr	r3, [r3, #12]
    3010:	b103      	cbz	r3, 3014 <uart4_status_isr+0x9c>
C:\Teensy\Projects\HelloWorld/serial5.c:367 (discriminator 1)
    3012:	701a      	strb	r2, [r3, #0]
C:\Teensy\Projects\HelloWorld/serial5.c:368
    3014:	232c      	movs	r3, #44	; 0x2c
    3016:	70cb      	strb	r3, [r1, #3]
    3018:	bd10      	pop	{r4, pc}
    301a:	bf00      	nop
    301c:	400ea000 	.word	0x400ea000
    3020:	1fff0d78 	.word	0x1fff0d78

00003024 <serial6_begin>:
serial6_begin():
C:\Teensy\Projects\HelloWorld/serial6_lpuart.c:107
    3024:	4b42      	ldr	r3, [pc, #264]	; (3130 <serial6_begin+0x10c>)
    3026:	681a      	ldr	r2, [r3, #0]
    3028:	f042 0210 	orr.w	r2, r2, #16
C:\Teensy\Projects\HelloWorld/serial6_lpuart.c:103
    302c:	e92d 41f0 	stmdb	sp!, {r4, r5, r6, r7, r8, lr}
C:\Teensy\Projects\HelloWorld/serial6_lpuart.c:107
    3030:	601a      	str	r2, [r3, #0]
C:\Teensy\Projects\HelloWorld/serial6_lpuart.c:116
    3032:	4a40      	ldr	r2, [pc, #256]	; (3134 <serial6_begin+0x110>)
    3034:	6813      	ldr	r3, [r2, #0]
    3036:	f403 3340 	and.w	r3, r3, #196608	; 0x30000
C:\Teensy\Projects\HelloWorld/serial6_lpuart.c:118
    303a:	f5b3 3f40 	cmp.w	r3, #196608	; 0x30000
    303e:	4690      	mov	r8, r2
    3040:	d006      	beq.n	3050 <serial6_begin+0x2c>
C:\Teensy\Projects\HelloWorld/serial6_lpuart.c:121
    3042:	4a3d      	ldr	r2, [pc, #244]	; (3138 <serial6_begin+0x114>)
    3044:	4e3d      	ldr	r6, [pc, #244]	; (313c <serial6_begin+0x118>)
    3046:	f5b3 3f80 	cmp.w	r3, #65536	; 0x10000
    304a:	bf08      	it	eq
    304c:	4616      	moveq	r6, r2
    304e:	e000      	b.n	3052 <serial6_begin+0x2e>
C:\Teensy\Projects\HelloWorld/serial6_lpuart.c:119
    3050:	4e3b      	ldr	r6, [pc, #236]	; (3140 <serial6_begin+0x11c>)
C:\Teensy\Projects\HelloWorld/serial6_lpuart.c:126
    3052:	ea4f 0c80 	mov.w	ip, r0, lsl #2
    3056:	fbb6 f2fc 	udiv	r2, r6, ip
    305a:	b292      	uxth	r2, r2
C:\Teensy\Projects\HelloWorld/serial6_lpuart.c:128
    305c:	2a00      	cmp	r2, #0
    305e:	d064      	beq.n	312a <serial6_begin+0x106>
C:\Teensy\Projects\HelloWorld/serial6_lpuart.c:134
    3060:	0091      	lsls	r1, r2, #2
    3062:	fbb6 f1f1 	udiv	r1, r6, r1
C:\Teensy\Projects\HelloWorld/serial6_lpuart.c:138
    3066:	1a09      	subs	r1, r1, r0
    3068:	d008      	beq.n	307c <serial6_begin+0x58>
C:\Teensy\Projects\HelloWorld/serial6_lpuart.c:139
    306a:	1c54      	adds	r4, r2, #1
    306c:	00a3      	lsls	r3, r4, #2
    306e:	fbb6 f3f3 	udiv	r3, r6, r3
C:\Teensy\Projects\HelloWorld/serial6_lpuart.c:140
    3072:	1ac3      	subs	r3, r0, r3
C:\Teensy\Projects\HelloWorld/serial6_lpuart.c:141
    3074:	428b      	cmp	r3, r1
C:\Teensy\Projects\HelloWorld/serial6_lpuart.c:142
    3076:	bf3c      	itt	cc
    3078:	b2a2      	uxthcc	r2, r4
    307a:	4619      	movcc	r1, r3
    307c:	4484      	add	ip, r0
C:\Teensy\Projects\HelloWorld/serial6_lpuart.c:148 (discriminator 1)
    307e:	2505      	movs	r5, #5
    3080:	2704      	movs	r7, #4
C:\Teensy\Projects\HelloWorld/serial6_lpuart.c:149
    3082:	fbb6 f3fc 	udiv	r3, r6, ip
    3086:	b29b      	uxth	r3, r3
C:\Teensy\Projects\HelloWorld/serial6_lpuart.c:151
    3088:	b1f3      	cbz	r3, 30c8 <serial6_begin+0xa4>
C:\Teensy\Projects\HelloWorld/serial6_lpuart.c:155
    308a:	fb03 f405 	mul.w	r4, r3, r5
    308e:	fbb6 f4f4 	udiv	r4, r6, r4
C:\Teensy\Projects\HelloWorld/serial6_lpuart.c:156
    3092:	1a24      	subs	r4, r4, r0
C:\Teensy\Projects\HelloWorld/serial6_lpuart.c:157
    3094:	428c      	cmp	r4, r1
    3096:	d803      	bhi.n	30a0 <serial6_begin+0x7c>
C:\Teensy\Projects\HelloWorld/serial6_lpuart.c:163
    3098:	b174      	cbz	r4, 30b8 <serial6_begin+0x94>
    309a:	4621      	mov	r1, r4
C:\Teensy\Projects\HelloWorld/serial6_lpuart.c:159
    309c:	462f      	mov	r7, r5
    309e:	461a      	mov	r2, r3
C:\Teensy\Projects\HelloWorld/serial6_lpuart.c:164
    30a0:	3301      	adds	r3, #1
    30a2:	b29b      	uxth	r3, r3
    30a4:	fb03 f405 	mul.w	r4, r3, r5
    30a8:	fbb6 f4f4 	udiv	r4, r6, r4
C:\Teensy\Projects\HelloWorld/serial6_lpuart.c:165
    30ac:	1b04      	subs	r4, r0, r4
C:\Teensy\Projects\HelloWorld/serial6_lpuart.c:166
    30ae:	428c      	cmp	r4, r1
    30b0:	d902      	bls.n	30b8 <serial6_begin+0x94>
    30b2:	460c      	mov	r4, r1
    30b4:	4613      	mov	r3, r2
    30b6:	e000      	b.n	30ba <serial6_begin+0x96>
C:\Teensy\Projects\HelloWorld/serial6_lpuart.c:168
    30b8:	462f      	mov	r7, r5
    30ba:	3501      	adds	r5, #1
C:\Teensy\Projects\HelloWorld/serial6_lpuart.c:148
    30bc:	2d21      	cmp	r5, #33	; 0x21
    30be:	4484      	add	ip, r0
    30c0:	d003      	beq.n	30ca <serial6_begin+0xa6>
    30c2:	4621      	mov	r1, r4
    30c4:	461a      	mov	r2, r3
    30c6:	e7dc      	b.n	3082 <serial6_begin+0x5e>
    30c8:	4613      	mov	r3, r2
C:\Teensy\Projects\HelloWorld/serial6_lpuart.c:174
    30ca:	1e7a      	subs	r2, r7, #1
    30cc:	f002 021f 	and.w	r2, r2, #31
    30d0:	f3c3 030c 	ubfx	r3, r3, #0, #13
    30d4:	ea43 6302 	orr.w	r3, r3, r2, lsl #24
C:\Teensy\Projects\HelloWorld/serial6_lpuart.c:175
    30d8:	2f07      	cmp	r7, #7
C:\Teensy\Projects\HelloWorld/serial6_lpuart.c:178
    30da:	4a1a      	ldr	r2, [pc, #104]	; (3144 <serial6_begin+0x120>)
C:\Teensy\Projects\HelloWorld/serial6_lpuart.c:182
    30dc:	491a      	ldr	r1, [pc, #104]	; (3148 <serial6_begin+0x124>)
C:\Teensy\Projects\HelloWorld/serial6_lpuart.c:176
    30de:	bf98      	it	ls
    30e0:	f443 3300 	orrls.w	r3, r3, #131072	; 0x20000
C:\Teensy\Projects\HelloWorld/serial6_lpuart.c:178
    30e4:	6013      	str	r3, [r2, #0]
C:\Teensy\Projects\HelloWorld/serial6_lpuart.c:180
    30e6:	f8d8 3000 	ldr.w	r3, [r8]
    30ea:	f043 6380 	orr.w	r3, r3, #67108864	; 0x4000000
    30ee:	f8c8 3000 	str.w	r3, [r8]
C:\Teensy\Projects\HelloWorld/serial6_lpuart.c:182
    30f2:	2300      	movs	r3, #0
    30f4:	700b      	strb	r3, [r1, #0]
C:\Teensy\Projects\HelloWorld/serial6_lpuart.c:183
    30f6:	704b      	strb	r3, [r1, #1]
C:\Teensy\Projects\HelloWorld/serial6_lpuart.c:184
    30f8:	708b      	strb	r3, [r1, #2]
C:\Teensy\Projects\HelloWorld/serial6_lpuart.c:185
    30fa:	70cb      	strb	r3, [r1, #3]
C:\Teensy\Projects\HelloWorld/serial6_lpuart.c:186
    30fc:	710b      	strb	r3, [r1, #4]
C:\Teensy\Projects\HelloWorld/serial6_lpuart.c:187
    30fe:	4913      	ldr	r1, [pc, #76]	; (314c <serial6_begin+0x128>)
    3100:	f240 5013 	movw	r0, #1299	; 0x513
    3104:	6008      	str	r0, [r1, #0]
C:\Teensy\Projects\HelloWorld/serial6_lpuart.c:188
    3106:	f240 5044 	movw	r0, #1348	; 0x544
    310a:	6048      	str	r0, [r1, #4]
C:\Teensy\Projects\HelloWorld/serial6_lpuart.c:189
    310c:	6093      	str	r3, [r2, #8]
C:\Teensy\Projects\HelloWorld/serial6_lpuart.c:190
    310e:	6113      	str	r3, [r2, #16]
C:\Teensy\Projects\HelloWorld/serial6_lpuart.c:191
    3110:	6053      	str	r3, [r2, #4]
C:\Teensy\Projects\HelloWorld/serial6_lpuart.c:194
    3112:	6893      	ldr	r3, [r2, #8]
    3114:	f443 1330 	orr.w	r3, r3, #2883584	; 0x2c0000
    3118:	6093      	str	r3, [r2, #8]
C:\Teensy\Projects\HelloWorld/serial6_lpuart.c:195
    311a:	4b0d      	ldr	r3, [pc, #52]	; (3150 <serial6_begin+0x12c>)
    311c:	2240      	movs	r2, #64	; 0x40
    311e:	701a      	strb	r2, [r3, #0]
C:\Teensy\Projects\HelloWorld/serial6_lpuart.c:196
    3120:	f2a3 334e 	subw	r3, r3, #846	; 0x34e
    3124:	f44f 0280 	mov.w	r2, #4194304	; 0x400000
    3128:	601a      	str	r2, [r3, #0]
    312a:	e8bd 81f0 	ldmia.w	sp!, {r4, r5, r6, r7, r8, pc}
    312e:	bf00      	nop
    3130:	4004802c 	.word	0x4004802c
    3134:	40048004 	.word	0x40048004
    3138:	07270e00 	.word	0x07270e00
    313c:	01c9c380 	.word	0x01c9c380
    3140:	02dc6c00 	.word	0x02dc6c00
    3144:	400c4000 	.word	0x400c4000
    3148:	1fff0df0 	.word	0x1fff0df0
    314c:	4004c020 	.word	0x4004c020
    3150:	e000e456 	.word	0xe000e456

00003154 <serial6_format>:
serial6_format():
C:\Teensy\Projects\HelloWorld/serial6_lpuart.c:204
    3154:	4a1b      	ldr	r2, [pc, #108]	; (31c4 <serial6_format+0x70>)
    3156:	6893      	ldr	r3, [r2, #8]
C:\Teensy\Projects\HelloWorld/serial6_lpuart.c:207
    3158:	f000 0103 	and.w	r1, r0, #3
    315c:	f023 0313 	bic.w	r3, r3, #19
    3160:	430b      	orrs	r3, r1
C:\Teensy\Projects\HelloWorld/serial6_lpuart.c:208
    3162:	f010 0f04 	tst.w	r0, #4
    3166:	4611      	mov	r1, r2
    3168:	bf18      	it	ne
    316a:	f043 0310 	orrne.w	r3, r3, #16
C:\Teensy\Projects\HelloWorld/serial6_lpuart.c:209
    316e:	608b      	str	r3, [r1, #8]
C:\Teensy\Projects\HelloWorld/serial6_lpuart.c:210
    3170:	f000 030f 	and.w	r3, r0, #15
    3174:	2b04      	cmp	r3, #4
C:\Teensy\Projects\HelloWorld/serial6_lpuart.c:209
    3176:	4a13      	ldr	r2, [pc, #76]	; (31c4 <serial6_format+0x70>)
C:\Teensy\Projects\HelloWorld/serial6_lpuart.c:210
    3178:	d103      	bne.n	3182 <serial6_format+0x2e>
C:\Teensy\Projects\HelloWorld/serial6_lpuart.c:210 (discriminator 1)
    317a:	6893      	ldr	r3, [r2, #8]
    317c:	f043 4380 	orr.w	r3, r3, #1073741824	; 0x40000000
    3180:	6093      	str	r3, [r2, #8]
C:\Teensy\Projects\HelloWorld/serial6_lpuart.c:213
    3182:	f010 0f08 	tst.w	r0, #8
    3186:	4b0f      	ldr	r3, [pc, #60]	; (31c4 <serial6_format+0x70>)
    3188:	d003      	beq.n	3192 <serial6_format+0x3e>
C:\Teensy\Projects\HelloWorld/serial6_lpuart.c:214
    318a:	681a      	ldr	r2, [r3, #0]
    318c:	f042 5200 	orr.w	r2, r2, #536870912	; 0x20000000
    3190:	601a      	str	r2, [r3, #0]
C:\Teensy\Projects\HelloWorld/serial6_lpuart.c:217
    3192:	685b      	ldr	r3, [r3, #4]
C:\Teensy\Projects\HelloWorld/serial6_lpuart.c:218
    3194:	06c2      	lsls	r2, r0, #27
C:\Teensy\Projects\HelloWorld/serial6_lpuart.c:217
    3196:	f023 5380 	bic.w	r3, r3, #268435456	; 0x10000000
C:\Teensy\Projects\HelloWorld/serial6_lpuart.c:219
    319a:	4a0a      	ldr	r2, [pc, #40]	; (31c4 <serial6_format+0x70>)
C:\Teensy\Projects\HelloWorld/serial6_lpuart.c:218
    319c:	bf48      	it	mi
    319e:	f043 5380 	orrmi.w	r3, r3, #268435456	; 0x10000000
C:\Teensy\Projects\HelloWorld/serial6_lpuart.c:219
    31a2:	6053      	str	r3, [r2, #4]
C:\Teensy\Projects\HelloWorld/serial6_lpuart.c:222
    31a4:	6893      	ldr	r3, [r2, #8]
C:\Teensy\Projects\HelloWorld/serial6_lpuart.c:223
    31a6:	0681      	lsls	r1, r0, #26
C:\Teensy\Projects\HelloWorld/serial6_lpuart.c:222
    31a8:	f023 5380 	bic.w	r3, r3, #268435456	; 0x10000000
C:\Teensy\Projects\HelloWorld/serial6_lpuart.c:223
    31ac:	bf48      	it	mi
    31ae:	f043 5380 	orrmi.w	r3, r3, #268435456	; 0x10000000
C:\Teensy\Projects\HelloWorld/serial6_lpuart.c:224
    31b2:	6093      	str	r3, [r2, #8]
C:\Teensy\Projects\HelloWorld/serial6_lpuart.c:227
    31b4:	05c3      	lsls	r3, r0, #23
C:\Teensy\Projects\HelloWorld/serial6_lpuart.c:224
    31b6:	4903      	ldr	r1, [pc, #12]	; (31c4 <serial6_format+0x70>)
C:\Teensy\Projects\HelloWorld/serial6_lpuart.c:227
    31b8:	d503      	bpl.n	31c2 <serial6_format+0x6e>
C:\Teensy\Projects\HelloWorld/serial6_lpuart.c:227 (discriminator 1)
    31ba:	680b      	ldr	r3, [r1, #0]
    31bc:	f443 5300 	orr.w	r3, r3, #8192	; 0x2000
    31c0:	600b      	str	r3, [r1, #0]
    31c2:	4770      	bx	lr
    31c4:	400c4000 	.word	0x400c4000

000031c8 <serial6_end>:
serial6_end():
C:\Teensy\Projects\HelloWorld/serial6_lpuart.c:231
    31c8:	b508      	push	{r3, lr}
C:\Teensy\Projects\HelloWorld/serial6_lpuart.c:232
    31ca:	4b0f      	ldr	r3, [pc, #60]	; (3208 <serial6_end+0x40>)
    31cc:	681b      	ldr	r3, [r3, #0]
    31ce:	06db      	lsls	r3, r3, #27
    31d0:	d400      	bmi.n	31d4 <serial6_end+0xc>
    31d2:	bd08      	pop	{r3, pc}
C:\Teensy\Projects\HelloWorld/serial6_lpuart.c:233 (discriminator 1)
    31d4:	4b0d      	ldr	r3, [pc, #52]	; (320c <serial6_end+0x44>)
    31d6:	7919      	ldrb	r1, [r3, #4]
    31d8:	f001 02ff 	and.w	r2, r1, #255	; 0xff
    31dc:	b111      	cbz	r1, 31e4 <serial6_end+0x1c>
C:\Teensy\Projects\HelloWorld/serial6_lpuart.c:233 (discriminator 2)
    31de:	f002 f9eb 	bl	55b8 <yield>
    31e2:	e7f7      	b.n	31d4 <serial6_end+0xc>
C:\Teensy\Projects\HelloWorld/serial6_lpuart.c:234
    31e4:	490a      	ldr	r1, [pc, #40]	; (3210 <serial6_end+0x48>)
    31e6:	f44f 0080 	mov.w	r0, #4194304	; 0x400000
    31ea:	6008      	str	r0, [r1, #0]
C:\Teensy\Projects\HelloWorld/serial6_lpuart.c:235
    31ec:	4909      	ldr	r1, [pc, #36]	; (3214 <serial6_end+0x4c>)
C:\Teensy\Projects\HelloWorld/serial6_lpuart.c:236
    31ee:	480a      	ldr	r0, [pc, #40]	; (3218 <serial6_end+0x50>)
C:\Teensy\Projects\HelloWorld/serial6_lpuart.c:235
    31f0:	608a      	str	r2, [r1, #8]
C:\Teensy\Projects\HelloWorld/serial6_lpuart.c:236
    31f2:	f240 1103 	movw	r1, #259	; 0x103
    31f6:	6001      	str	r1, [r0, #0]
C:\Teensy\Projects\HelloWorld/serial6_lpuart.c:237
    31f8:	6041      	str	r1, [r0, #4]
C:\Teensy\Projects\HelloWorld/serial6_lpuart.c:238
    31fa:	701a      	strb	r2, [r3, #0]
C:\Teensy\Projects\HelloWorld/serial6_lpuart.c:239
    31fc:	705a      	strb	r2, [r3, #1]
C:\Teensy\Projects\HelloWorld/serial6_lpuart.c:240
    31fe:	689b      	ldr	r3, [r3, #8]
    3200:	b10b      	cbz	r3, 3206 <serial6_end+0x3e>
C:\Teensy\Projects\HelloWorld/serial6_lpuart.c:240 (discriminator 1)
    3202:	2201      	movs	r2, #1
    3204:	701a      	strb	r2, [r3, #0]
    3206:	bd08      	pop	{r3, pc}
    3208:	4004802c 	.word	0x4004802c
    320c:	1fff0df0 	.word	0x1fff0df0
    3210:	e000e188 	.word	0xe000e188
    3214:	400c4000 	.word	0x400c4000
    3218:	4004c020 	.word	0x4004c020

0000321c <serial6_set_transmit_pin>:
serial6_set_transmit_pin():
C:\Teensy\Projects\HelloWorld/serial6_lpuart.c:244
    321c:	b570      	push	{r4, r5, r6, lr}
    321e:	4604      	mov	r4, r0
C:\Teensy\Projects\HelloWorld/serial6_lpuart.c:245 (discriminator 1)
    3220:	4d09      	ldr	r5, [pc, #36]	; (3248 <serial6_set_transmit_pin+0x2c>)
    3222:	792b      	ldrb	r3, [r5, #4]
    3224:	f003 06ff 	and.w	r6, r3, #255	; 0xff
    3228:	2b00      	cmp	r3, #0
    322a:	d1f9      	bne.n	3220 <serial6_set_transmit_pin+0x4>
C:\Teensy\Projects\HelloWorld/serial6_lpuart.c:246
    322c:	4620      	mov	r0, r4
    322e:	2101      	movs	r1, #1
    3230:	f7fd fe9c 	bl	f6c <pinMode>
C:\Teensy\Projects\HelloWorld/serial6_lpuart.c:247
    3234:	4620      	mov	r0, r4
    3236:	4631      	mov	r1, r6
    3238:	f7fd fe6a 	bl	f10 <digitalWrite>
C:\Teensy\Projects\HelloWorld/serial6_lpuart.c:248
    323c:	4b03      	ldr	r3, [pc, #12]	; (324c <serial6_set_transmit_pin+0x30>)
    323e:	f853 3034 	ldr.w	r3, [r3, r4, lsl #3]
    3242:	60eb      	str	r3, [r5, #12]
    3244:	bd70      	pop	{r4, r5, r6, pc}
    3246:	bf00      	nop
    3248:	1fff0df0 	.word	0x1fff0df0
    324c:	00009ecc 	.word	0x00009ecc

00003250 <serial6_set_tx>:
serial6_set_tx():
C:\Teensy\Projects\HelloWorld/serial6_lpuart.c:252
    3250:	b510      	push	{r4, lr}
C:\Teensy\Projects\HelloWorld/serial6_lpuart.c:255
    3252:	b109      	cbz	r1, 3258 <serial6_set_tx+0x8>
C:\Teensy\Projects\HelloWorld/serial6_lpuart.c:255 (discriminator 1)
    3254:	f040 0080 	orr.w	r0, r0, #128	; 0x80
C:\Teensy\Projects\HelloWorld/serial6_lpuart.c:256
    3258:	4a0e      	ldr	r2, [pc, #56]	; (3294 <serial6_set_tx+0x44>)
    325a:	7813      	ldrb	r3, [r2, #0]
    325c:	4298      	cmp	r0, r3
    325e:	d017      	beq.n	3290 <serial6_set_tx+0x40>
C:\Teensy\Projects\HelloWorld/serial6_lpuart.c:257
    3260:	4c0d      	ldr	r4, [pc, #52]	; (3298 <serial6_set_tx+0x48>)
    3262:	6824      	ldr	r4, [r4, #0]
    3264:	06e4      	lsls	r4, r4, #27
    3266:	d512      	bpl.n	328e <serial6_set_tx+0x3e>
C:\Teensy\Projects\HelloWorld/serial6_lpuart.c:258
    3268:	f003 037f 	and.w	r3, r3, #127	; 0x7f
    326c:	2b30      	cmp	r3, #48	; 0x30
    326e:	d102      	bne.n	3276 <serial6_set_tx+0x26>
C:\Teensy\Projects\HelloWorld/serial6_lpuart.c:259
    3270:	4b0a      	ldr	r3, [pc, #40]	; (329c <serial6_set_tx+0x4c>)
    3272:	2400      	movs	r4, #0
    3274:	601c      	str	r4, [r3, #0]
C:\Teensy\Projects\HelloWorld/serial6_lpuart.c:262
    3276:	2900      	cmp	r1, #0
C:\Teensy\Projects\HelloWorld/serial6_lpuart.c:266
    3278:	f000 037f 	and.w	r3, r0, #127	; 0x7f
C:\Teensy\Projects\HelloWorld/serial6_lpuart.c:262
    327c:	bf0c      	ite	eq
    327e:	2144      	moveq	r1, #68	; 0x44
    3280:	2160      	movne	r1, #96	; 0x60
C:\Teensy\Projects\HelloWorld/serial6_lpuart.c:266
    3282:	2b30      	cmp	r3, #48	; 0x30
    3284:	d103      	bne.n	328e <serial6_set_tx+0x3e>
C:\Teensy\Projects\HelloWorld/serial6_lpuart.c:267
    3286:	4b05      	ldr	r3, [pc, #20]	; (329c <serial6_set_tx+0x4c>)
    3288:	f441 61a0 	orr.w	r1, r1, #1280	; 0x500
    328c:	6019      	str	r1, [r3, #0]
C:\Teensy\Projects\HelloWorld/serial6_lpuart.c:270
    328e:	7010      	strb	r0, [r2, #0]
    3290:	bd10      	pop	{r4, pc}
    3292:	bf00      	nop
    3294:	1fff0a0f 	.word	0x1fff0a0f
    3298:	4004802c 	.word	0x4004802c
    329c:	4004c024 	.word	0x4004c024

000032a0 <serial6_set_rx>:
serial6_set_rx():
C:\Teensy\Projects\HelloWorld/serial6_lpuart.c:274
    32a0:	4770      	bx	lr

000032a2 <serial6_set_rts>:
serial6_set_rts():
C:\Teensy\Projects\HelloWorld/serial6_lpuart.c:279
    32a2:	4a0d      	ldr	r2, [pc, #52]	; (32d8 <serial6_set_rts+0x36>)
C:\Teensy\Projects\HelloWorld/serial6_lpuart.c:278
    32a4:	b538      	push	{r3, r4, r5, lr}
C:\Teensy\Projects\HelloWorld/serial6_lpuart.c:279
    32a6:	6814      	ldr	r4, [r2, #0]
    32a8:	f014 0210 	ands.w	r2, r4, #16
    32ac:	f04f 0400 	mov.w	r4, #0
    32b0:	d010      	beq.n	32d4 <serial6_set_rts+0x32>
C:\Teensy\Projects\HelloWorld/serial6_lpuart.c:280
    32b2:	283f      	cmp	r0, #63	; 0x3f
    32b4:	4d09      	ldr	r5, [pc, #36]	; (32dc <serial6_set_rts+0x3a>)
    32b6:	d80a      	bhi.n	32ce <serial6_set_rts+0x2c>
C:\Teensy\Projects\HelloWorld/serial6_lpuart.c:281
    32b8:	4a09      	ldr	r2, [pc, #36]	; (32e0 <serial6_set_rts+0x3e>)
C:\Teensy\Projects\HelloWorld/serial6_lpuart.c:282
    32ba:	2101      	movs	r1, #1
C:\Teensy\Projects\HelloWorld/serial6_lpuart.c:281
    32bc:	f852 3030 	ldr.w	r3, [r2, r0, lsl #3]
    32c0:	60ab      	str	r3, [r5, #8]
C:\Teensy\Projects\HelloWorld/serial6_lpuart.c:282
    32c2:	f7fd fe53 	bl	f6c <pinMode>
C:\Teensy\Projects\HelloWorld/serial6_lpuart.c:283
    32c6:	68ab      	ldr	r3, [r5, #8]
    32c8:	701c      	strb	r4, [r3, #0]
C:\Teensy\Projects\HelloWorld/serial6_lpuart.c:288
    32ca:	2001      	movs	r0, #1
    32cc:	bd38      	pop	{r3, r4, r5, pc}
C:\Teensy\Projects\HelloWorld/serial6_lpuart.c:285
    32ce:	60ac      	str	r4, [r5, #8]
C:\Teensy\Projects\HelloWorld/serial6_lpuart.c:286
    32d0:	4620      	mov	r0, r4
    32d2:	bd38      	pop	{r3, r4, r5, pc}
C:\Teensy\Projects\HelloWorld/serial6_lpuart.c:279
    32d4:	4610      	mov	r0, r2
C:\Teensy\Projects\HelloWorld/serial6_lpuart.c:289
    32d6:	bd38      	pop	{r3, r4, r5, pc}
    32d8:	4004802c 	.word	0x4004802c
    32dc:	1fff0df0 	.word	0x1fff0df0
    32e0:	00009ecc 	.word	0x00009ecc

000032e4 <serial6_set_cts>:
serial6_set_cts():
C:\Teensy\Projects\HelloWorld/serial6_lpuart.c:293
    32e4:	4b0b      	ldr	r3, [pc, #44]	; (3314 <serial6_set_cts+0x30>)
    32e6:	681b      	ldr	r3, [r3, #0]
    32e8:	f013 0310 	ands.w	r3, r3, #16
    32ec:	d010      	beq.n	3310 <serial6_set_cts+0x2c>
C:\Teensy\Projects\HelloWorld/serial6_lpuart.c:294
    32ee:	2838      	cmp	r0, #56	; 0x38
    32f0:	4b09      	ldr	r3, [pc, #36]	; (3318 <serial6_set_cts+0x34>)
    32f2:	d109      	bne.n	3308 <serial6_set_cts+0x24>
C:\Teensy\Projects\HelloWorld/serial6_lpuart.c:295
    32f4:	4a09      	ldr	r2, [pc, #36]	; (331c <serial6_set_cts+0x38>)
    32f6:	f240 5102 	movw	r1, #1282	; 0x502
    32fa:	6011      	str	r1, [r2, #0]
C:\Teensy\Projects\HelloWorld/serial6_lpuart.c:300
    32fc:	7b5a      	ldrb	r2, [r3, #13]
    32fe:	f042 0201 	orr.w	r2, r2, #1
    3302:	735a      	strb	r2, [r3, #13]
C:\Teensy\Projects\HelloWorld/serial6_lpuart.c:301
    3304:	2001      	movs	r0, #1
    3306:	4770      	bx	lr
C:\Teensy\Projects\HelloWorld/serial6_lpuart.c:297
    3308:	7b5a      	ldrb	r2, [r3, #13]
    330a:	f002 02fe 	and.w	r2, r2, #254	; 0xfe
    330e:	735a      	strb	r2, [r3, #13]
C:\Teensy\Projects\HelloWorld/serial6_lpuart.c:298
    3310:	2000      	movs	r0, #0
    3312:	4770      	bx	lr
    3314:	4004802c 	.word	0x4004802c
    3318:	400eb000 	.word	0x400eb000
    331c:	4004d028 	.word	0x4004d028

00003320 <serial6_putchar>:
serial6_putchar():
C:\Teensy\Projects\HelloWorld/serial6_lpuart.c:305
    3320:	b5f8      	push	{r3, r4, r5, r6, r7, lr}
C:\Teensy\Projects\HelloWorld/serial6_lpuart.c:308
    3322:	4b1b      	ldr	r3, [pc, #108]	; (3390 <serial6_putchar+0x70>)
    3324:	681b      	ldr	r3, [r3, #0]
    3326:	06da      	lsls	r2, r3, #27
C:\Teensy\Projects\HelloWorld/serial6_lpuart.c:305
    3328:	4607      	mov	r7, r0
C:\Teensy\Projects\HelloWorld/serial6_lpuart.c:308
    332a:	d52f      	bpl.n	338c <serial6_putchar+0x6c>
C:\Teensy\Projects\HelloWorld/serial6_lpuart.c:309
    332c:	4e19      	ldr	r6, [pc, #100]	; (3394 <serial6_putchar+0x74>)
    332e:	68f3      	ldr	r3, [r6, #12]
    3330:	b10b      	cbz	r3, 3336 <serial6_putchar+0x16>
C:\Teensy\Projects\HelloWorld/serial6_lpuart.c:309 (discriminator 1)
    3332:	2201      	movs	r2, #1
    3334:	701a      	strb	r2, [r3, #0]
C:\Teensy\Projects\HelloWorld/serial6_lpuart.c:310
    3336:	78b4      	ldrb	r4, [r6, #2]
C:\Teensy\Projects\HelloWorld/serial6_lpuart.c:311
    3338:	3401      	adds	r4, #1
    333a:	2c28      	cmp	r4, #40	; 0x28
    333c:	bf28      	it	cs
    333e:	2400      	movcs	r4, #0
C:\Teensy\Projects\HelloWorld/serial6_lpuart.c:312 (discriminator 1)
    3340:	78f3      	ldrb	r3, [r6, #3]
    3342:	4d14      	ldr	r5, [pc, #80]	; (3394 <serial6_putchar+0x74>)
    3344:	42a3      	cmp	r3, r4
    3346:	d118      	bne.n	337a <serial6_putchar+0x5a>
C:\Teensy\Projects\HelloWorld/serial6_lpuart.c:313
    3348:	f7fd fb40 	bl	9cc <nvic_execution_priority>
C:\Teensy\Projects\HelloWorld/serial6_lpuart.c:314
    334c:	2840      	cmp	r0, #64	; 0x40
    334e:	dc0f      	bgt.n	3370 <serial6_putchar+0x50>
C:\Teensy\Projects\HelloWorld/serial6_lpuart.c:315
    3350:	4a11      	ldr	r2, [pc, #68]	; (3398 <serial6_putchar+0x78>)
    3352:	6853      	ldr	r3, [r2, #4]
    3354:	021b      	lsls	r3, r3, #8
    3356:	d5f3      	bpl.n	3340 <serial6_putchar+0x20>
C:\Teensy\Projects\HelloWorld/serial6_lpuart.c:316
    3358:	78eb      	ldrb	r3, [r5, #3]
C:\Teensy\Projects\HelloWorld/serial6_lpuart.c:317
    335a:	3301      	adds	r3, #1
    335c:	2b28      	cmp	r3, #40	; 0x28
    335e:	bf28      	it	cs
    3360:	2300      	movcs	r3, #0
C:\Teensy\Projects\HelloWorld/serial6_lpuart.c:318
    3362:	18f1      	adds	r1, r6, r3
C:\Teensy\Projects\HelloWorld/serial6_lpuart.c:321
    3364:	b2db      	uxtb	r3, r3
C:\Teensy\Projects\HelloWorld/serial6_lpuart.c:318
    3366:	7c09      	ldrb	r1, [r1, #16]
    3368:	b2c9      	uxtb	r1, r1
C:\Teensy\Projects\HelloWorld/serial6_lpuart.c:320
    336a:	60d1      	str	r1, [r2, #12]
C:\Teensy\Projects\HelloWorld/serial6_lpuart.c:321
    336c:	70f3      	strb	r3, [r6, #3]
    336e:	e7e7      	b.n	3340 <serial6_putchar+0x20>
C:\Teensy\Projects\HelloWorld/serial6_lpuart.c:323
    3370:	28ff      	cmp	r0, #255	; 0xff
    3372:	dde5      	ble.n	3340 <serial6_putchar+0x20>
C:\Teensy\Projects\HelloWorld/serial6_lpuart.c:324
    3374:	f002 f920 	bl	55b8 <yield>
    3378:	e7e2      	b.n	3340 <serial6_putchar+0x20>
C:\Teensy\Projects\HelloWorld/serial6_lpuart.c:327
    337a:	192b      	adds	r3, r5, r4
    337c:	b2ff      	uxtb	r7, r7
C:\Teensy\Projects\HelloWorld/serial6_lpuart.c:332
    337e:	4a07      	ldr	r2, [pc, #28]	; (339c <serial6_putchar+0x7c>)
C:\Teensy\Projects\HelloWorld/serial6_lpuart.c:327
    3380:	741f      	strb	r7, [r3, #16]
C:\Teensy\Projects\HelloWorld/serial6_lpuart.c:329
    3382:	b2e4      	uxtb	r4, r4
C:\Teensy\Projects\HelloWorld/serial6_lpuart.c:328
    3384:	2301      	movs	r3, #1
    3386:	712b      	strb	r3, [r5, #4]
C:\Teensy\Projects\HelloWorld/serial6_lpuart.c:329
    3388:	70ac      	strb	r4, [r5, #2]
C:\Teensy\Projects\HelloWorld/serial6_lpuart.c:332
    338a:	6013      	str	r3, [r2, #0]
    338c:	bdf8      	pop	{r3, r4, r5, r6, r7, pc}
    338e:	bf00      	nop
    3390:	4004802c 	.word	0x4004802c
    3394:	1fff0df0 	.word	0x1fff0df0
    3398:	400c4000 	.word	0x400c4000
    339c:	4388015c 	.word	0x4388015c

000033a0 <serial6_write>:
serial6_write():
C:\Teensy\Projects\HelloWorld/serial6_lpuart.c:337
    33a0:	b538      	push	{r3, r4, r5, lr}
    33a2:	4604      	mov	r4, r0
    33a4:	1845      	adds	r5, r0, r1
C:\Teensy\Projects\HelloWorld/serial6_lpuart.c:339 (discriminator 1)
    33a6:	42ac      	cmp	r4, r5
    33a8:	d004      	beq.n	33b4 <serial6_write+0x14>
C:\Teensy\Projects\HelloWorld/serial6_lpuart.c:339 (discriminator 2)
    33aa:	f814 0b01 	ldrb.w	r0, [r4], #1
    33ae:	f7ff ffb7 	bl	3320 <serial6_putchar>
    33b2:	e7f8      	b.n	33a6 <serial6_write+0x6>
C:\Teensy\Projects\HelloWorld/serial6_lpuart.c:340
    33b4:	bd38      	pop	{r3, r4, r5, pc}

000033b6 <serial6_flush>:
serial6_flush():
C:\Teensy\Projects\HelloWorld/serial6_lpuart.c:343
    33b6:	b508      	push	{r3, lr}
C:\Teensy\Projects\HelloWorld/serial6_lpuart.c:344 (discriminator 1)
    33b8:	4b03      	ldr	r3, [pc, #12]	; (33c8 <serial6_flush+0x12>)
    33ba:	791b      	ldrb	r3, [r3, #4]
    33bc:	b113      	cbz	r3, 33c4 <serial6_flush+0xe>
C:\Teensy\Projects\HelloWorld/serial6_lpuart.c:344 (discriminator 2)
    33be:	f002 f8fb 	bl	55b8 <yield>
    33c2:	e7f9      	b.n	33b8 <serial6_flush+0x2>
C:\Teensy\Projects\HelloWorld/serial6_lpuart.c:345
    33c4:	bd08      	pop	{r3, pc}
    33c6:	bf00      	nop
    33c8:	1fff0df0 	.word	0x1fff0df0

000033cc <serial6_write_buffer_free>:
serial6_write_buffer_free():
C:\Teensy\Projects\HelloWorld/serial6_lpuart.c:351
    33cc:	4a05      	ldr	r2, [pc, #20]	; (33e4 <serial6_write_buffer_free+0x18>)
    33ce:	7893      	ldrb	r3, [r2, #2]
C:\Teensy\Projects\HelloWorld/serial6_lpuart.c:352
    33d0:	78d0      	ldrb	r0, [r2, #3]
C:\Teensy\Projects\HelloWorld/serial6_lpuart.c:351
    33d2:	b2db      	uxtb	r3, r3
C:\Teensy\Projects\HelloWorld/serial6_lpuart.c:352
    33d4:	b2c0      	uxtb	r0, r0
C:\Teensy\Projects\HelloWorld/serial6_lpuart.c:353
    33d6:	4283      	cmp	r3, r0
    33d8:	bf2c      	ite	cs
    33da:	3027      	addcs	r0, #39	; 0x27
C:\Teensy\Projects\HelloWorld/serial6_lpuart.c:354
    33dc:	f100 30ff 	addcc.w	r0, r0, #4294967295
    33e0:	1ac0      	subs	r0, r0, r3
C:\Teensy\Projects\HelloWorld/serial6_lpuart.c:355
    33e2:	4770      	bx	lr
    33e4:	1fff0df0 	.word	0x1fff0df0

000033e8 <serial6_available>:
serial6_available():
C:\Teensy\Projects\HelloWorld/serial6_lpuart.c:361
    33e8:	4a04      	ldr	r2, [pc, #16]	; (33fc <serial6_available+0x14>)
    33ea:	7810      	ldrb	r0, [r2, #0]
C:\Teensy\Projects\HelloWorld/serial6_lpuart.c:362
    33ec:	7853      	ldrb	r3, [r2, #1]
C:\Teensy\Projects\HelloWorld/serial6_lpuart.c:361
    33ee:	b2c0      	uxtb	r0, r0
C:\Teensy\Projects\HelloWorld/serial6_lpuart.c:362
    33f0:	b2db      	uxtb	r3, r3
C:\Teensy\Projects\HelloWorld/serial6_lpuart.c:363
    33f2:	4298      	cmp	r0, r3
C:\Teensy\Projects\HelloWorld/serial6_lpuart.c:364
    33f4:	bf38      	it	cc
    33f6:	3040      	addcc	r0, #64	; 0x40
    33f8:	1ac0      	subs	r0, r0, r3
C:\Teensy\Projects\HelloWorld/serial6_lpuart.c:365
    33fa:	4770      	bx	lr
    33fc:	1fff0df0 	.word	0x1fff0df0

00003400 <serial6_getchar>:
serial6_getchar():
C:\Teensy\Projects\HelloWorld/serial6_lpuart.c:368
    3400:	b510      	push	{r4, lr}
C:\Teensy\Projects\HelloWorld/serial6_lpuart.c:372
    3402:	4a0f      	ldr	r2, [pc, #60]	; (3440 <serial6_getchar+0x40>)
    3404:	7811      	ldrb	r1, [r2, #0]
C:\Teensy\Projects\HelloWorld/serial6_lpuart.c:373
    3406:	7853      	ldrb	r3, [r2, #1]
C:\Teensy\Projects\HelloWorld/serial6_lpuart.c:372
    3408:	b2c9      	uxtb	r1, r1
C:\Teensy\Projects\HelloWorld/serial6_lpuart.c:373
    340a:	b2db      	uxtb	r3, r3
C:\Teensy\Projects\HelloWorld/serial6_lpuart.c:374
    340c:	4299      	cmp	r1, r3
    340e:	d014      	beq.n	343a <serial6_getchar+0x3a>
C:\Teensy\Projects\HelloWorld/serial6_lpuart.c:375
    3410:	3301      	adds	r3, #1
    3412:	2b40      	cmp	r3, #64	; 0x40
    3414:	bf28      	it	cs
    3416:	2300      	movcs	r3, #0
C:\Teensy\Projects\HelloWorld/serial6_lpuart.c:376
    3418:	18d0      	adds	r0, r2, r3
C:\Teensy\Projects\HelloWorld/serial6_lpuart.c:377
    341a:	b2dc      	uxtb	r4, r3
C:\Teensy\Projects\HelloWorld/serial6_lpuart.c:376
    341c:	f890 0038 	ldrb.w	r0, [r0, #56]	; 0x38
C:\Teensy\Projects\HelloWorld/serial6_lpuart.c:377
    3420:	7054      	strb	r4, [r2, #1]
C:\Teensy\Projects\HelloWorld/serial6_lpuart.c:378
    3422:	6892      	ldr	r2, [r2, #8]
C:\Teensy\Projects\HelloWorld/serial6_lpuart.c:376
    3424:	b2c0      	uxtb	r0, r0
C:\Teensy\Projects\HelloWorld/serial6_lpuart.c:378
    3426:	b152      	cbz	r2, 343e <serial6_getchar+0x3e>
C:\Teensy\Projects\HelloWorld/serial6_lpuart.c:380
    3428:	4299      	cmp	r1, r3
C:\Teensy\Projects\HelloWorld/serial6_lpuart.c:381
    342a:	bf38      	it	cc
    342c:	3140      	addcc	r1, #64	; 0x40
    342e:	1acb      	subs	r3, r1, r3
C:\Teensy\Projects\HelloWorld/serial6_lpuart.c:382
    3430:	2b1a      	cmp	r3, #26
    3432:	dc04      	bgt.n	343e <serial6_getchar+0x3e>
C:\Teensy\Projects\HelloWorld/serial6_lpuart.c:382 (discriminator 1)
    3434:	2300      	movs	r3, #0
    3436:	7013      	strb	r3, [r2, #0]
    3438:	bd10      	pop	{r4, pc}
C:\Teensy\Projects\HelloWorld/serial6_lpuart.c:374
    343a:	f04f 30ff 	mov.w	r0, #4294967295
C:\Teensy\Projects\HelloWorld/serial6_lpuart.c:385
    343e:	bd10      	pop	{r4, pc}
    3440:	1fff0df0 	.word	0x1fff0df0

00003444 <serial6_peek>:
serial6_peek():
C:\Teensy\Projects\HelloWorld/serial6_lpuart.c:391
    3444:	4a08      	ldr	r2, [pc, #32]	; (3468 <serial6_peek+0x24>)
    3446:	7811      	ldrb	r1, [r2, #0]
C:\Teensy\Projects\HelloWorld/serial6_lpuart.c:392
    3448:	7853      	ldrb	r3, [r2, #1]
    344a:	b2db      	uxtb	r3, r3
C:\Teensy\Projects\HelloWorld/serial6_lpuart.c:393
    344c:	4299      	cmp	r1, r3
    344e:	d008      	beq.n	3462 <serial6_peek+0x1e>
C:\Teensy\Projects\HelloWorld/serial6_lpuart.c:394
    3450:	3301      	adds	r3, #1
    3452:	2b40      	cmp	r3, #64	; 0x40
    3454:	bf28      	it	cs
    3456:	2300      	movcs	r3, #0
C:\Teensy\Projects\HelloWorld/serial6_lpuart.c:395
    3458:	4413      	add	r3, r2
    345a:	f893 0038 	ldrb.w	r0, [r3, #56]	; 0x38
    345e:	b2c0      	uxtb	r0, r0
    3460:	4770      	bx	lr
C:\Teensy\Projects\HelloWorld/serial6_lpuart.c:393
    3462:	f04f 30ff 	mov.w	r0, #4294967295
C:\Teensy\Projects\HelloWorld/serial6_lpuart.c:396
    3466:	4770      	bx	lr
    3468:	1fff0df0 	.word	0x1fff0df0

0000346c <serial6_clear>:
serial6_clear():
C:\Teensy\Projects\HelloWorld/serial6_lpuart.c:400
    346c:	4b04      	ldr	r3, [pc, #16]	; (3480 <serial6_clear+0x14>)
    346e:	785a      	ldrb	r2, [r3, #1]
    3470:	b2d2      	uxtb	r2, r2
    3472:	701a      	strb	r2, [r3, #0]
C:\Teensy\Projects\HelloWorld/serial6_lpuart.c:401
    3474:	689b      	ldr	r3, [r3, #8]
    3476:	b10b      	cbz	r3, 347c <serial6_clear+0x10>
C:\Teensy\Projects\HelloWorld/serial6_lpuart.c:401 (discriminator 1)
    3478:	2200      	movs	r2, #0
    347a:	701a      	strb	r2, [r3, #0]
    347c:	4770      	bx	lr
    347e:	bf00      	nop
    3480:	1fff0df0 	.word	0x1fff0df0

00003484 <lpuart0_status_isr>:
lpuart0_status_isr():
C:\Teensy\Projects\HelloWorld/serial6_lpuart.c:413
    3484:	b510      	push	{r4, lr}
C:\Teensy\Projects\HelloWorld/serial6_lpuart.c:417
    3486:	4b28      	ldr	r3, [pc, #160]	; (3528 <lpuart0_status_isr+0xa4>)
    3488:	685a      	ldr	r2, [r3, #4]
    348a:	0292      	lsls	r2, r2, #10
    348c:	d51f      	bpl.n	34ce <lpuart0_status_isr+0x4a>
C:\Teensy\Projects\HelloWorld/serial6_lpuart.c:424
    348e:	4a27      	ldr	r2, [pc, #156]	; (352c <lpuart0_status_isr+0xa8>)
C:\Teensy\Projects\HelloWorld/serial6_lpuart.c:423
    3490:	68d8      	ldr	r0, [r3, #12]
C:\Teensy\Projects\HelloWorld/serial6_lpuart.c:424
    3492:	7813      	ldrb	r3, [r2, #0]
C:\Teensy\Projects\HelloWorld/serial6_lpuart.c:426
    3494:	7851      	ldrb	r1, [r2, #1]
C:\Teensy\Projects\HelloWorld/serial6_lpuart.c:424
    3496:	3301      	adds	r3, #1
C:\Teensy\Projects\HelloWorld/serial6_lpuart.c:425
    3498:	2b40      	cmp	r3, #64	; 0x40
    349a:	bf28      	it	cs
    349c:	2300      	movcs	r3, #0
C:\Teensy\Projects\HelloWorld/serial6_lpuart.c:426
    349e:	428b      	cmp	r3, r1
    34a0:	d005      	beq.n	34ae <lpuart0_status_isr+0x2a>
C:\Teensy\Projects\HelloWorld/serial6_lpuart.c:427
    34a2:	18d1      	adds	r1, r2, r3
    34a4:	b2c0      	uxtb	r0, r0
    34a6:	f881 0038 	strb.w	r0, [r1, #56]	; 0x38
C:\Teensy\Projects\HelloWorld/serial6_lpuart.c:428
    34aa:	b2d9      	uxtb	r1, r3
    34ac:	7011      	strb	r1, [r2, #0]
C:\Teensy\Projects\HelloWorld/serial6_lpuart.c:430
    34ae:	6891      	ldr	r1, [r2, #8]
    34b0:	b169      	cbz	r1, 34ce <lpuart0_status_isr+0x4a>
C:\Teensy\Projects\HelloWorld/serial6_lpuart.c:432
    34b2:	4a1e      	ldr	r2, [pc, #120]	; (352c <lpuart0_status_isr+0xa8>)
    34b4:	78d2      	ldrb	r2, [r2, #3]
    34b6:	b2d2      	uxtb	r2, r2
C:\Teensy\Projects\HelloWorld/serial6_lpuart.c:433
    34b8:	4293      	cmp	r3, r2
C:\Teensy\Projects\HelloWorld/serial6_lpuart.c:434
    34ba:	bf36      	itet	cc
    34bc:	f1c2 0240 	rsbcc	r2, r2, #64	; 0x40
C:\Teensy\Projects\HelloWorld/serial6_lpuart.c:433
    34c0:	ebc2 0303 	rsbcs	r3, r2, r3
C:\Teensy\Projects\HelloWorld/serial6_lpuart.c:434
    34c4:	189b      	addcc	r3, r3, r2
C:\Teensy\Projects\HelloWorld/serial6_lpuart.c:435
    34c6:	2b27      	cmp	r3, #39	; 0x27
    34c8:	bfc4      	itt	gt
    34ca:	2301      	movgt	r3, #1
    34cc:	700b      	strbgt	r3, [r1, #0]
C:\Teensy\Projects\HelloWorld/serial6_lpuart.c:438
    34ce:	4916      	ldr	r1, [pc, #88]	; (3528 <lpuart0_status_isr+0xa4>)
    34d0:	6888      	ldr	r0, [r1, #8]
C:\Teensy\Projects\HelloWorld/serial6_lpuart.c:439
    34d2:	0203      	lsls	r3, r0, #8
    34d4:	d519      	bpl.n	350a <lpuart0_status_isr+0x86>
C:\Teensy\Projects\HelloWorld/serial6_lpuart.c:439 (discriminator 1)
    34d6:	684b      	ldr	r3, [r1, #4]
    34d8:	021c      	lsls	r4, r3, #8
    34da:	d516      	bpl.n	350a <lpuart0_status_isr+0x86>
C:\Teensy\Projects\HelloWorld/serial6_lpuart.c:440
    34dc:	4a13      	ldr	r2, [pc, #76]	; (352c <lpuart0_status_isr+0xa8>)
    34de:	7894      	ldrb	r4, [r2, #2]
C:\Teensy\Projects\HelloWorld/serial6_lpuart.c:441
    34e0:	78d3      	ldrb	r3, [r2, #3]
    34e2:	b2db      	uxtb	r3, r3
C:\Teensy\Projects\HelloWorld/serial6_lpuart.c:442
    34e4:	429c      	cmp	r4, r3
    34e6:	d106      	bne.n	34f6 <lpuart0_status_isr+0x72>
C:\Teensy\Projects\HelloWorld/serial6_lpuart.c:443
    34e8:	4b11      	ldr	r3, [pc, #68]	; (3530 <lpuart0_status_isr+0xac>)
    34ea:	2200      	movs	r2, #0
    34ec:	601a      	str	r2, [r3, #0]
C:\Teensy\Projects\HelloWorld/serial6_lpuart.c:444
    34ee:	2201      	movs	r2, #1
    34f0:	f843 2c04 	str.w	r2, [r3, #-4]
    34f4:	e009      	b.n	350a <lpuart0_status_isr+0x86>
C:\Teensy\Projects\HelloWorld/serial6_lpuart.c:448
    34f6:	3301      	adds	r3, #1
    34f8:	2b28      	cmp	r3, #40	; 0x28
    34fa:	bf28      	it	cs
    34fc:	2300      	movcs	r3, #0
C:\Teensy\Projects\HelloWorld/serial6_lpuart.c:449
    34fe:	18d4      	adds	r4, r2, r3
C:\Teensy\Projects\HelloWorld/serial6_lpuart.c:452
    3500:	b2db      	uxtb	r3, r3
C:\Teensy\Projects\HelloWorld/serial6_lpuart.c:449
    3502:	7c24      	ldrb	r4, [r4, #16]
    3504:	b2e4      	uxtb	r4, r4
C:\Teensy\Projects\HelloWorld/serial6_lpuart.c:451
    3506:	60cc      	str	r4, [r1, #12]
C:\Teensy\Projects\HelloWorld/serial6_lpuart.c:452
    3508:	70d3      	strb	r3, [r2, #3]
C:\Teensy\Projects\HelloWorld/serial6_lpuart.c:455
    350a:	0242      	lsls	r2, r0, #9
    350c:	d50b      	bpl.n	3526 <lpuart0_status_isr+0xa2>
C:\Teensy\Projects\HelloWorld/serial6_lpuart.c:455 (discriminator 1)
    350e:	4b06      	ldr	r3, [pc, #24]	; (3528 <lpuart0_status_isr+0xa4>)
    3510:	685b      	ldr	r3, [r3, #4]
    3512:	025b      	lsls	r3, r3, #9
    3514:	d507      	bpl.n	3526 <lpuart0_status_isr+0xa2>
C:\Teensy\Projects\HelloWorld/serial6_lpuart.c:456
    3516:	4a05      	ldr	r2, [pc, #20]	; (352c <lpuart0_status_isr+0xa8>)
    3518:	2300      	movs	r3, #0
    351a:	7113      	strb	r3, [r2, #4]
C:\Teensy\Projects\HelloWorld/serial6_lpuart.c:457
    351c:	68d2      	ldr	r2, [r2, #12]
    351e:	b102      	cbz	r2, 3522 <lpuart0_status_isr+0x9e>
C:\Teensy\Projects\HelloWorld/serial6_lpuart.c:457 (discriminator 1)
    3520:	7013      	strb	r3, [r2, #0]
C:\Teensy\Projects\HelloWorld/serial6_lpuart.c:458
    3522:	4a04      	ldr	r2, [pc, #16]	; (3534 <lpuart0_status_isr+0xb0>)
    3524:	6013      	str	r3, [r2, #0]
    3526:	bd10      	pop	{r4, pc}
    3528:	400c4000 	.word	0x400c4000
    352c:	1fff0df0 	.word	0x1fff0df0
    3530:	4388015c 	.word	0x4388015c
    3534:	43880158 	.word	0x43880158

00003538 <usb_init_serialnumber>:
usb_init_serialnumber():
C:\Teensy\Projects\HelloWorld/usb_desc.c:1228
    3538:	b51f      	push	{r0, r1, r2, r3, r4, lr}
C:\Teensy\Projects\HelloWorld/usb_desc.c:1232
    353a:	b672      	cpsid	i
C:\Teensy\Projects\HelloWorld/usb_desc.c:1242
    353c:	4b13      	ldr	r3, [pc, #76]	; (358c <usb_init_serialnumber+0x54>)
C:\Teensy\Projects\HelloWorld/usb_desc.c:1243
    353e:	4914      	ldr	r1, [pc, #80]	; (3590 <usb_init_serialnumber+0x58>)
C:\Teensy\Projects\HelloWorld/usb_desc.c:1242
    3540:	2270      	movs	r2, #112	; 0x70
    3542:	701a      	strb	r2, [r3, #0]
C:\Teensy\Projects\HelloWorld/usb_desc.c:1243
    3544:	4a13      	ldr	r2, [pc, #76]	; (3594 <usb_init_serialnumber+0x5c>)
    3546:	6011      	str	r1, [r2, #0]
C:\Teensy\Projects\HelloWorld/usb_desc.c:1244
    3548:	2280      	movs	r2, #128	; 0x80
    354a:	701a      	strb	r2, [r3, #0]
C:\Teensy\Projects\HelloWorld/usb_desc.c:1245 (discriminator 1)
    354c:	781a      	ldrb	r2, [r3, #0]
    354e:	0612      	lsls	r2, r2, #24
    3550:	d5fc      	bpl.n	354c <usb_init_serialnumber+0x14>
C:\Teensy\Projects\HelloWorld/usb_desc.c:1246
    3552:	4b11      	ldr	r3, [pc, #68]	; (3598 <usb_init_serialnumber+0x60>)
    3554:	6818      	ldr	r0, [r3, #0]
C:\Teensy\Projects\HelloWorld/usb_desc.c:1249
    3556:	b662      	cpsie	i
C:\Teensy\Projects\HelloWorld/usb_desc.c:1251
    3558:	4b10      	ldr	r3, [pc, #64]	; (359c <usb_init_serialnumber+0x64>)
    355a:	4298      	cmp	r0, r3
    355c:	bf98      	it	ls
    355e:	230a      	movls	r3, #10
C:\Teensy\Projects\HelloWorld/usb_desc.c:1252
    3560:	ac01      	add	r4, sp, #4
C:\Teensy\Projects\HelloWorld/usb_desc.c:1251
    3562:	bf98      	it	ls
    3564:	4358      	mulls	r0, r3
C:\Teensy\Projects\HelloWorld/usb_desc.c:1252
    3566:	4621      	mov	r1, r4
    3568:	220a      	movs	r2, #10
    356a:	f7fd fa4d 	bl	a08 <ultoa>
C:\Teensy\Projects\HelloWorld/usb_desc.c:1253
    356e:	2300      	movs	r3, #0
C:\Teensy\Projects\HelloWorld/usb_desc.c:1254
    3570:	5ce1      	ldrb	r1, [r4, r3]
    3572:	4a0b      	ldr	r2, [pc, #44]	; (35a0 <usb_init_serialnumber+0x68>)
C:\Teensy\Projects\HelloWorld/usb_desc.c:1255
    3574:	b129      	cbz	r1, 3582 <usb_init_serialnumber+0x4a>
    3576:	eb02 0043 	add.w	r0, r2, r3, lsl #1
C:\Teensy\Projects\HelloWorld/usb_desc.c:1253
    357a:	3301      	adds	r3, #1
    357c:	2b0a      	cmp	r3, #10
C:\Teensy\Projects\HelloWorld/usb_desc.c:1256
    357e:	8041      	strh	r1, [r0, #2]
C:\Teensy\Projects\HelloWorld/usb_desc.c:1253
    3580:	d1f6      	bne.n	3570 <usb_init_serialnumber+0x38>
C:\Teensy\Projects\HelloWorld/usb_desc.c:1258
    3582:	3301      	adds	r3, #1
    3584:	005b      	lsls	r3, r3, #1
    3586:	7013      	strb	r3, [r2, #0]
C:\Teensy\Projects\HelloWorld/usb_desc.c:1259
    3588:	b004      	add	sp, #16
    358a:	bd10      	pop	{r4, pc}
    358c:	40020000 	.word	0x40020000
    3590:	41070000 	.word	0x41070000
    3594:	40020004 	.word	0x40020004
    3598:	4002000c 	.word	0x4002000c
    359c:	0098967f 	.word	0x0098967f
    35a0:	1fff0a10 	.word	0x1fff0a10

000035a4 <endpoint0_transmit>:
endpoint0_transmit():
C:\Teensy\Projects\HelloWorld/usb_dev.c:149
    35a4:	b570      	push	{r4, r5, r6, lr}
C:\Teensy\Projects\HelloWorld/usb_dev.c:158
    35a6:	4b0c      	ldr	r3, [pc, #48]	; (35d8 <endpoint0_transmit+0x34>)
    35a8:	4c0c      	ldr	r4, [pc, #48]	; (35dc <endpoint0_transmit+0x38>)
    35aa:	781a      	ldrb	r2, [r3, #0]
    35ac:	f042 0502 	orr.w	r5, r2, #2
    35b0:	eb04 06c5 	add.w	r6, r4, r5, lsl #3
C:\Teensy\Projects\HelloWorld/usb_dev.c:161
    35b4:	f082 0201 	eor.w	r2, r2, #1
C:\Teensy\Projects\HelloWorld/usb_dev.c:158
    35b8:	6070      	str	r0, [r6, #4]
C:\Teensy\Projects\HelloWorld/usb_dev.c:159
    35ba:	7858      	ldrb	r0, [r3, #1]
C:\Teensy\Projects\HelloWorld/usb_dev.c:161
    35bc:	701a      	strb	r2, [r3, #0]
C:\Teensy\Projects\HelloWorld/usb_dev.c:159
    35be:	2800      	cmp	r0, #0
    35c0:	bf0c      	ite	eq
    35c2:	2688      	moveq	r6, #136	; 0x88
    35c4:	26c8      	movne	r6, #200	; 0xc8
C:\Teensy\Projects\HelloWorld/usb_dev.c:160
    35c6:	f080 0001 	eor.w	r0, r0, #1
C:\Teensy\Projects\HelloWorld/usb_dev.c:159
    35ca:	ea46 4101 	orr.w	r1, r6, r1, lsl #16
C:\Teensy\Projects\HelloWorld/usb_dev.c:160
    35ce:	7058      	strb	r0, [r3, #1]
C:\Teensy\Projects\HelloWorld/usb_dev.c:159
    35d0:	f844 1035 	str.w	r1, [r4, r5, lsl #3]
C:\Teensy\Projects\HelloWorld/usb_dev.c:161
    35d4:	bd70      	pop	{r4, r5, r6, pc}
    35d6:	bf00      	nop
    35d8:	1fff0e68 	.word	0x1fff0e68
    35dc:	1fff0000 	.word	0x1fff0000

000035e0 <usb_rx>:
usb_rx():
C:\Teensy\Projects\HelloWorld/usb_dev.c:658
    35e0:	1e43      	subs	r3, r0, #1
C:\Teensy\Projects\HelloWorld/usb_dev.c:659
    35e2:	2b03      	cmp	r3, #3
C:\Teensy\Projects\HelloWorld/usb_dev.c:656
    35e4:	b510      	push	{r4, lr}
C:\Teensy\Projects\HelloWorld/usb_dev.c:659
    35e6:	d810      	bhi.n	360a <usb_rx+0x2a>
C:\Teensy\Projects\HelloWorld/usb_dev.c:660
    35e8:	b672      	cpsid	i
C:\Teensy\Projects\HelloWorld/usb_dev.c:661
    35ea:	4a09      	ldr	r2, [pc, #36]	; (3610 <usb_rx+0x30>)
    35ec:	eb02 0283 	add.w	r2, r2, r3, lsl #2
    35f0:	6850      	ldr	r0, [r2, #4]
C:\Teensy\Projects\HelloWorld/usb_dev.c:662
    35f2:	b140      	cbz	r0, 3606 <usb_rx+0x26>
C:\Teensy\Projects\HelloWorld/usb_dev.c:663
    35f4:	6841      	ldr	r1, [r0, #4]
    35f6:	6051      	str	r1, [r2, #4]
C:\Teensy\Projects\HelloWorld/usb_dev.c:664
    35f8:	4a06      	ldr	r2, [pc, #24]	; (3614 <usb_rx+0x34>)
    35fa:	8801      	ldrh	r1, [r0, #0]
    35fc:	f832 4013 	ldrh.w	r4, [r2, r3, lsl #1]
    3600:	1a61      	subs	r1, r4, r1
    3602:	f822 1013 	strh.w	r1, [r2, r3, lsl #1]
C:\Teensy\Projects\HelloWorld/usb_dev.c:666
    3606:	b662      	cpsie	i
C:\Teensy\Projects\HelloWorld/usb_dev.c:672
    3608:	bd10      	pop	{r4, pc}
C:\Teensy\Projects\HelloWorld/usb_dev.c:659
    360a:	2000      	movs	r0, #0
C:\Teensy\Projects\HelloWorld/usb_dev.c:673
    360c:	bd10      	pop	{r4, pc}
    360e:	bf00      	nop
    3610:	1fff0e68 	.word	0x1fff0e68
    3614:	1fff10dc 	.word	0x1fff10dc

00003618 <usb_tx_byte_count>:
usb_tx_byte_count():
C:\Teensy\Projects\HelloWorld/usb_dev.c:700
    3618:	3801      	subs	r0, #1
C:\Teensy\Projects\HelloWorld/usb_dev.c:701
    361a:	2803      	cmp	r0, #3
    361c:	d80c      	bhi.n	3638 <usb_tx_byte_count+0x20>
C:\Teensy\Projects\HelloWorld/usb_dev.c:702
    361e:	4b07      	ldr	r3, [pc, #28]	; (363c <usb_tx_byte_count+0x24>)
    3620:	eb03 0080 	add.w	r0, r3, r0, lsl #2
    3624:	6943      	ldr	r3, [r0, #20]
usb_queue_byte_count():
C:\Teensy\Projects\HelloWorld/usb_dev.c:679
    3626:	b672      	cpsid	i
C:\Teensy\Projects\HelloWorld/usb_dev.c:677
    3628:	2000      	movs	r0, #0
C:\Teensy\Projects\HelloWorld/usb_dev.c:680
    362a:	b11b      	cbz	r3, 3634 <usb_tx_byte_count+0x1c>
C:\Teensy\Projects\HelloWorld/usb_dev.c:681
    362c:	881a      	ldrh	r2, [r3, #0]
C:\Teensy\Projects\HelloWorld/usb_dev.c:680
    362e:	685b      	ldr	r3, [r3, #4]
C:\Teensy\Projects\HelloWorld/usb_dev.c:681
    3630:	4410      	add	r0, r2
    3632:	e7fa      	b.n	362a <usb_tx_byte_count+0x12>
C:\Teensy\Projects\HelloWorld/usb_dev.c:683
    3634:	b662      	cpsie	i
usb_tx_byte_count():
C:\Teensy\Projects\HelloWorld/usb_dev.c:702
    3636:	4770      	bx	lr
C:\Teensy\Projects\HelloWorld/usb_dev.c:701
    3638:	2000      	movs	r0, #0
C:\Teensy\Projects\HelloWorld/usb_dev.c:703
    363a:	4770      	bx	lr
    363c:	1fff0e68 	.word	0x1fff0e68

00003640 <usb_tx_packet_count>:
usb_tx_packet_count():
C:\Teensy\Projects\HelloWorld/usb_dev.c:710
    3640:	3801      	subs	r0, #1
C:\Teensy\Projects\HelloWorld/usb_dev.c:711
    3642:	2803      	cmp	r0, #3
    3644:	d80b      	bhi.n	365e <usb_tx_packet_count+0x1e>
C:\Teensy\Projects\HelloWorld/usb_dev.c:712
    3646:	b672      	cpsid	i
C:\Teensy\Projects\HelloWorld/usb_dev.c:713
    3648:	4b06      	ldr	r3, [pc, #24]	; (3664 <usb_tx_packet_count+0x24>)
    364a:	eb03 0080 	add.w	r0, r3, r0, lsl #2
    364e:	6943      	ldr	r3, [r0, #20]
C:\Teensy\Projects\HelloWorld/usb_dev.c:708
    3650:	2000      	movs	r0, #0
C:\Teensy\Projects\HelloWorld/usb_dev.c:713 (discriminator 1)
    3652:	b113      	cbz	r3, 365a <usb_tx_packet_count+0x1a>
C:\Teensy\Projects\HelloWorld/usb_dev.c:713 (discriminator 2)
    3654:	3001      	adds	r0, #1
    3656:	685b      	ldr	r3, [r3, #4]
    3658:	e7fb      	b.n	3652 <usb_tx_packet_count+0x12>
C:\Teensy\Projects\HelloWorld/usb_dev.c:714
    365a:	b662      	cpsie	i
C:\Teensy\Projects\HelloWorld/usb_dev.c:715
    365c:	4770      	bx	lr
C:\Teensy\Projects\HelloWorld/usb_dev.c:711
    365e:	2000      	movs	r0, #0
C:\Teensy\Projects\HelloWorld/usb_dev.c:716
    3660:	4770      	bx	lr
    3662:	bf00      	nop
    3664:	1fff0e68 	.word	0x1fff0e68

00003668 <usb_rx_memory>:
usb_rx_memory():
C:\Teensy\Projects\HelloWorld/usb_dev.c:728
    3668:	b510      	push	{r4, lr}
C:\Teensy\Projects\HelloWorld/usb_dev.c:734
    366a:	b672      	cpsid	i
C:\Teensy\Projects\HelloWorld/usb_dev.c:735
    366c:	2301      	movs	r3, #1
    366e:	4a18      	ldr	r2, [pc, #96]	; (36d0 <usb_rx_memory+0x68>)
    3670:	441a      	add	r2, r3
C:\Teensy\Projects\HelloWorld/usb_dev.c:739
    3672:	f812 2c01 	ldrb.w	r2, [r2, #-1]
    3676:	0712      	lsls	r2, r2, #28
    3678:	d51e      	bpl.n	36b8 <usb_rx_memory+0x50>
C:\Teensy\Projects\HelloWorld/usb_dev.c:740
    367a:	0099      	lsls	r1, r3, #2
    367c:	4a15      	ldr	r2, [pc, #84]	; (36d4 <usb_rx_memory+0x6c>)
    367e:	f852 4031 	ldr.w	r4, [r2, r1, lsl #3]
    3682:	b92c      	cbnz	r4, 3690 <usb_rx_memory+0x28>
C:\Teensy\Projects\HelloWorld/usb_dev.c:741
    3684:	eb02 1343 	add.w	r3, r2, r3, lsl #5
    3688:	3008      	adds	r0, #8
    368a:	6058      	str	r0, [r3, #4]
C:\Teensy\Projects\HelloWorld/usb_dev.c:742
    368c:	4b12      	ldr	r3, [pc, #72]	; (36d8 <usb_rx_memory+0x70>)
    368e:	e009      	b.n	36a4 <usb_rx_memory+0x3c>
C:\Teensy\Projects\HelloWorld/usb_dev.c:749
    3690:	f041 0101 	orr.w	r1, r1, #1
    3694:	f852 4031 	ldr.w	r4, [r2, r1, lsl #3]
    3698:	b974      	cbnz	r4, 36b8 <usb_rx_memory+0x50>
C:\Teensy\Projects\HelloWorld/usb_dev.c:750
    369a:	eb02 03c1 	add.w	r3, r2, r1, lsl #3
    369e:	3008      	adds	r0, #8
    36a0:	6058      	str	r0, [r3, #4]
C:\Teensy\Projects\HelloWorld/usb_dev.c:751
    36a2:	4b0e      	ldr	r3, [pc, #56]	; (36dc <usb_rx_memory+0x74>)
    36a4:	f842 3031 	str.w	r3, [r2, r1, lsl #3]
C:\Teensy\Projects\HelloWorld/usb_dev.c:752
    36a8:	4b0d      	ldr	r3, [pc, #52]	; (36e0 <usb_rx_memory+0x78>)
    36aa:	f893 2024 	ldrb.w	r2, [r3, #36]	; 0x24
    36ae:	3a01      	subs	r2, #1
    36b0:	f883 2024 	strb.w	r2, [r3, #36]	; 0x24
C:\Teensy\Projects\HelloWorld/usb_dev.c:753
    36b4:	b662      	cpsie	i
C:\Teensy\Projects\HelloWorld/usb_dev.c:756
    36b6:	bd10      	pop	{r4, pc}
C:\Teensy\Projects\HelloWorld/usb_dev.c:735
    36b8:	3301      	adds	r3, #1
    36ba:	2b05      	cmp	r3, #5
    36bc:	d1d7      	bne.n	366e <usb_rx_memory+0x6>
C:\Teensy\Projects\HelloWorld/usb_dev.c:760
    36be:	b662      	cpsie	i
C:\Teensy\Projects\HelloWorld/usb_dev.c:764
    36c0:	4b07      	ldr	r3, [pc, #28]	; (36e0 <usb_rx_memory+0x78>)
    36c2:	2200      	movs	r2, #0
    36c4:	f883 2024 	strb.w	r2, [r3, #36]	; 0x24
C:\Teensy\Projects\HelloWorld/usb_dev.c:767
    36c8:	e8bd 4010 	ldmia.w	sp!, {r4, lr}
C:\Teensy\Projects\HelloWorld/usb_dev.c:765
    36cc:	f000 bbfc 	b.w	3ec8 <usb_free>
    36d0:	0000a0cc 	.word	0x0000a0cc
    36d4:	1fff0000 	.word	0x1fff0000
    36d8:	00400088 	.word	0x00400088
    36dc:	004000c8 	.word	0x004000c8
    36e0:	1fff0e68 	.word	0x1fff0e68

000036e4 <usb_tx>:
usb_tx():
C:\Teensy\Projects\HelloWorld/usb_dev.c:777
    36e4:	1e42      	subs	r2, r0, #1
C:\Teensy\Projects\HelloWorld/usb_dev.c:778
    36e6:	2a03      	cmp	r2, #3
C:\Teensy\Projects\HelloWorld/usb_dev.c:773
    36e8:	b530      	push	{r4, r5, lr}
C:\Teensy\Projects\HelloWorld/usb_dev.c:778
    36ea:	d833      	bhi.n	3754 <usb_tx+0x70>
C:\Teensy\Projects\HelloWorld/usb_dev.c:774
    36ec:	4b1a      	ldr	r3, [pc, #104]	; (3758 <usb_tx+0x74>)
    36ee:	0140      	lsls	r0, r0, #5
    36f0:	f040 0010 	orr.w	r0, r0, #16
    36f4:	4418      	add	r0, r3
C:\Teensy\Projects\HelloWorld/usb_dev.c:779
    36f6:	b672      	cpsid	i
C:\Teensy\Projects\HelloWorld/usb_dev.c:783
    36f8:	4c18      	ldr	r4, [pc, #96]	; (375c <usb_tx+0x78>)
    36fa:	18a3      	adds	r3, r4, r2
    36fc:	f893 3025 	ldrb.w	r3, [r3, #37]	; 0x25
    3700:	2b03      	cmp	r3, #3
    3702:	d809      	bhi.n	3718 <usb_tx+0x34>
    3704:	e8df f003 	tbb	[pc, r3]
    3708:	05150213 	.word	0x05150213
C:\Teensy\Projects\HelloWorld/usb_dev.c:788
    370c:	3008      	adds	r0, #8
C:\Teensy\Projects\HelloWorld/usb_dev.c:789
    370e:	2302      	movs	r3, #2
C:\Teensy\Projects\HelloWorld/usb_dev.c:790
    3710:	e010      	b.n	3734 <usb_tx+0x50>
C:\Teensy\Projects\HelloWorld/usb_dev.c:795
    3712:	3008      	adds	r0, #8
C:\Teensy\Projects\HelloWorld/usb_dev.c:796
    3714:	2304      	movs	r3, #4
C:\Teensy\Projects\HelloWorld/usb_dev.c:797
    3716:	e00d      	b.n	3734 <usb_tx+0x50>
C:\Teensy\Projects\HelloWorld/usb_dev.c:799
    3718:	0092      	lsls	r2, r2, #2
    371a:	18a3      	adds	r3, r4, r2
    371c:	6958      	ldr	r0, [r3, #20]
    371e:	b908      	cbnz	r0, 3724 <usb_tx+0x40>
C:\Teensy\Projects\HelloWorld/usb_dev.c:800
    3720:	6159      	str	r1, [r3, #20]
    3722:	e001      	b.n	3728 <usb_tx+0x44>
C:\Teensy\Projects\HelloWorld/usb_dev.c:802
    3724:	6adb      	ldr	r3, [r3, #44]	; 0x2c
    3726:	6059      	str	r1, [r3, #4]
C:\Teensy\Projects\HelloWorld/usb_dev.c:804
    3728:	4422      	add	r2, r4
    372a:	62d1      	str	r1, [r2, #44]	; 0x2c
    372c:	e011      	b.n	3752 <usb_tx+0x6e>
C:\Teensy\Projects\HelloWorld/usb_dev.c:785
    372e:	2303      	movs	r3, #3
    3730:	e000      	b.n	3734 <usb_tx+0x50>
C:\Teensy\Projects\HelloWorld/usb_dev.c:792
    3732:	2305      	movs	r3, #5
C:\Teensy\Projects\HelloWorld/usb_dev.c:808
    3734:	4422      	add	r2, r4
C:\Teensy\Projects\HelloWorld/usb_dev.c:810
    3736:	f010 0f08 	tst.w	r0, #8
C:\Teensy\Projects\HelloWorld/usb_dev.c:808
    373a:	f882 3025 	strb.w	r3, [r2, #37]	; 0x25
C:\Teensy\Projects\HelloWorld/usb_dev.c:809
    373e:	f101 0308 	add.w	r3, r1, #8
C:\Teensy\Projects\HelloWorld/usb_dev.c:810
    3742:	880a      	ldrh	r2, [r1, #0]
C:\Teensy\Projects\HelloWorld/usb_dev.c:809
    3744:	6043      	str	r3, [r0, #4]
C:\Teensy\Projects\HelloWorld/usb_dev.c:810
    3746:	bf0c      	ite	eq
    3748:	2388      	moveq	r3, #136	; 0x88
    374a:	23c8      	movne	r3, #200	; 0xc8
    374c:	ea43 4302 	orr.w	r3, r3, r2, lsl #16
    3750:	6003      	str	r3, [r0, #0]
C:\Teensy\Projects\HelloWorld/usb_dev.c:811
    3752:	b662      	cpsie	i
    3754:	bd30      	pop	{r4, r5, pc}
    3756:	bf00      	nop
    3758:	1fff0000 	.word	0x1fff0000
    375c:	1fff0e68 	.word	0x1fff0e68

00003760 <usb_tx_isochronous>:
usb_tx_isochronous():
C:\Teensy\Projects\HelloWorld/usb_dev.c:819
    3760:	1e43      	subs	r3, r0, #1
C:\Teensy\Projects\HelloWorld/usb_dev.c:820
    3762:	2b03      	cmp	r3, #3
C:\Teensy\Projects\HelloWorld/usb_dev.c:815
    3764:	b570      	push	{r4, r5, r6, lr}
C:\Teensy\Projects\HelloWorld/usb_dev.c:820
    3766:	d818      	bhi.n	379a <usb_tx_isochronous+0x3a>
C:\Teensy\Projects\HelloWorld/usb_dev.c:816
    3768:	4c0c      	ldr	r4, [pc, #48]	; (379c <usb_tx_isochronous+0x3c>)
    376a:	0140      	lsls	r0, r0, #5
    376c:	f040 0010 	orr.w	r0, r0, #16
    3770:	4420      	add	r0, r4
C:\Teensy\Projects\HelloWorld/usb_dev.c:821
    3772:	b672      	cpsid	i
C:\Teensy\Projects\HelloWorld/usb_dev.c:822
    3774:	4c0a      	ldr	r4, [pc, #40]	; (37a0 <usb_tx_isochronous+0x40>)
    3776:	18e5      	adds	r5, r4, r3
C:\Teensy\Projects\HelloWorld/usb_dev.c:823
    3778:	f895 6025 	ldrb.w	r6, [r5, #37]	; 0x25
    377c:	4625      	mov	r5, r4
    377e:	b116      	cbz	r6, 3786 <usb_tx_isochronous+0x26>
C:\Teensy\Projects\HelloWorld/usb_dev.c:826
    3780:	3008      	adds	r0, #8
C:\Teensy\Projects\HelloWorld/usb_dev.c:827
    3782:	2400      	movs	r4, #0
    3784:	e000      	b.n	3788 <usb_tx_isochronous+0x28>
C:\Teensy\Projects\HelloWorld/usb_dev.c:824
    3786:	2401      	movs	r4, #1
C:\Teensy\Projects\HelloWorld/usb_dev.c:829
    3788:	442b      	add	r3, r5
C:\Teensy\Projects\HelloWorld/usb_dev.c:831
    378a:	0412      	lsls	r2, r2, #16
    378c:	f042 0280 	orr.w	r2, r2, #128	; 0x80
C:\Teensy\Projects\HelloWorld/usb_dev.c:829
    3790:	f883 4025 	strb.w	r4, [r3, #37]	; 0x25
C:\Teensy\Projects\HelloWorld/usb_dev.c:830
    3794:	6041      	str	r1, [r0, #4]
C:\Teensy\Projects\HelloWorld/usb_dev.c:831
    3796:	6002      	str	r2, [r0, #0]
C:\Teensy\Projects\HelloWorld/usb_dev.c:832
    3798:	b662      	cpsie	i
    379a:	bd70      	pop	{r4, r5, r6, pc}
    379c:	1fff0000 	.word	0x1fff0000
    37a0:	1fff0e68 	.word	0x1fff0e68

000037a4 <_reboot_Teensyduino_>:
_reboot_Teensyduino_():
C:\Teensy\Projects\HelloWorld/usb_dev.c:841
    37a4:	be00      	bkpt	0x0000
    37a6:	4770      	bx	lr

000037a8 <usb_isr>:
usb_isr():
C:\Teensy\Projects\HelloWorld/usb_dev.c:845
    37a8:	e92d 4ff7 	stmdb	sp!, {r0, r1, r2, r4, r5, r6, r7, r8, r9, sl, fp, lr}
C:\Teensy\Projects\HelloWorld/usb_dev.c:855
    37ac:	f01e 0f04 	tst.w	lr, #4
    37b0:	bf0c      	ite	eq
    37b2:	f3ef 8008 	mrseq	r0, MSP
    37b6:	f3ef 8009 	mrsne	r0, PSP
    37ba:	f7fd f87b 	bl	8b4 <StackAccess>
C:\Teensy\Projects\HelloWorld/usb_dev.c:863
    37be:	2600      	movs	r6, #0
C:\Teensy\Projects\HelloWorld/usb_dev.c:870
    37c0:	4fb4      	ldr	r7, [pc, #720]	; (3a94 <usb_isr+0x2ec>)
    37c2:	783c      	ldrb	r4, [r7, #0]
    37c4:	b2e4      	uxtb	r4, r4
C:\Teensy\Projects\HelloWorld/usb_dev.c:872
    37c6:	f014 0f04 	tst.w	r4, #4
    37ca:	463d      	mov	r5, r7
    37cc:	d01b      	beq.n	3806 <usb_isr+0x5e>
C:\Teensy\Projects\HelloWorld/usb_dev.c:874
    37ce:	4bb2      	ldr	r3, [pc, #712]	; (3a98 <usb_isr+0x2f0>)
    37d0:	f893 2044 	ldrb.w	r2, [r3, #68]	; 0x44
    37d4:	b1aa      	cbz	r2, 3802 <usb_isr+0x5a>
C:\Teensy\Projects\HelloWorld/usb_dev.c:876
    37d6:	f893 1045 	ldrb.w	r1, [r3, #69]	; 0x45
C:\Teensy\Projects\HelloWorld/usb_dev.c:877
    37da:	f001 02ff 	and.w	r2, r1, #255	; 0xff
    37de:	b129      	cbz	r1, 37ec <usb_isr+0x44>
C:\Teensy\Projects\HelloWorld/usb_dev.c:879
    37e0:	3a01      	subs	r2, #1
    37e2:	b2d2      	uxtb	r2, r2
    37e4:	f883 2045 	strb.w	r2, [r3, #69]	; 0x45
C:\Teensy\Projects\HelloWorld/usb_dev.c:880
    37e8:	b902      	cbnz	r2, 37ec <usb_isr+0x44>
_reboot_Teensyduino_():
C:\Teensy\Projects\HelloWorld/usb_dev.c:841
    37ea:	be00      	bkpt	0x0000
usb_isr():
C:\Teensy\Projects\HelloWorld/usb_dev.c:884
    37ec:	4aab      	ldr	r2, [pc, #684]	; (3a9c <usb_isr+0x2f4>)
    37ee:	7811      	ldrb	r1, [r2, #0]
C:\Teensy\Projects\HelloWorld/usb_dev.c:885
    37f0:	f001 03ff 	and.w	r3, r1, #255	; 0xff
    37f4:	b129      	cbz	r1, 3802 <usb_isr+0x5a>
C:\Teensy\Projects\HelloWorld/usb_dev.c:887
    37f6:	3b01      	subs	r3, #1
    37f8:	b2db      	uxtb	r3, r3
    37fa:	7013      	strb	r3, [r2, #0]
C:\Teensy\Projects\HelloWorld/usb_dev.c:888
    37fc:	b90b      	cbnz	r3, 3802 <usb_isr+0x5a>
C:\Teensy\Projects\HelloWorld/usb_dev.c:889
    37fe:	f000 fcd7 	bl	41b0 <usb_serial_flush_callback>
C:\Teensy\Projects\HelloWorld/usb_dev.c:910
    3802:	2304      	movs	r3, #4
    3804:	703b      	strb	r3, [r7, #0]
C:\Teensy\Projects\HelloWorld/usb_dev.c:913
    3806:	f004 0308 	and.w	r3, r4, #8
    380a:	f003 02ff 	and.w	r2, r3, #255	; 0xff
    380e:	2b00      	cmp	r3, #0
    3810:	f000 8294 	beq.w	3d3c <usb_isr+0x594>
C:\Teensy\Projects\HelloWorld/usb_dev.c:916
    3814:	4ba2      	ldr	r3, [pc, #648]	; (3aa0 <usb_isr+0x2f8>)
    3816:	4da3      	ldr	r5, [pc, #652]	; (3aa4 <usb_isr+0x2fc>)
    3818:	781a      	ldrb	r2, [r3, #0]
    381a:	b2d2      	uxtb	r2, r2
C:\Teensy\Projects\HelloWorld/usb_dev.c:922
    381c:	0914      	lsrs	r4, r2, #4
    381e:	ea4f 0992 	mov.w	r9, r2, lsr #2
    3822:	f040 81f9 	bne.w	3c18 <usb_isr+0x470>
usb_control():
C:\Teensy\Projects\HelloWorld/usb_dev.c:521
    3826:	eb05 03c9 	add.w	r3, r5, r9, lsl #3
C:\Teensy\Projects\HelloWorld/usb_dev.c:524
    382a:	6859      	ldr	r1, [r3, #4]
C:\Teensy\Projects\HelloWorld/usb_dev.c:522
    382c:	f855 3039 	ldr.w	r3, [r5, r9, lsl #3]
    3830:	f3c3 0383 	ubfx	r3, r3, #2, #4
C:\Teensy\Projects\HelloWorld/usb_dev.c:531
    3834:	3b01      	subs	r3, #1
    3836:	2b0c      	cmp	r3, #12
    3838:	f200 81ea 	bhi.w	3c10 <usb_isr+0x468>
    383c:	e8df f013 	tbh	[pc, r3, lsl #1]
    3840:	01a201a2 	.word	0x01a201a2
    3844:	01e801e8 	.word	0x01e801e8
    3848:	01e801e8 	.word	0x01e801e8
    384c:	01e801e8 	.word	0x01e801e8
    3850:	01e801bf 	.word	0x01e801bf
    3854:	01e801e8 	.word	0x01e801e8
    3858:	000d      	.short	0x000d
C:\Teensy\Projects\HelloWorld/usb_dev.c:536
    385a:	680a      	ldr	r2, [r1, #0]
    385c:	4c8e      	ldr	r4, [pc, #568]	; (3a98 <usb_isr+0x2f0>)
C:\Teensy\Projects\HelloWorld/usb_dev.c:537
    385e:	684b      	ldr	r3, [r1, #4]
C:\Teensy\Projects\HelloWorld/usb_dev.c:536
    3860:	64a2      	str	r2, [r4, #72]	; 0x48
C:\Teensy\Projects\HelloWorld/usb_dev.c:537
    3862:	64e3      	str	r3, [r4, #76]	; 0x4c
usb_setup():
C:\Teensy\Projects\HelloWorld/usb_dev.c:177
    3864:	b292      	uxth	r2, r2
usb_control():
C:\Teensy\Projects\HelloWorld/usb_dev.c:540
    3866:	4b90      	ldr	r3, [pc, #576]	; (3aa8 <usb_isr+0x300>)
    3868:	f845 3039 	str.w	r3, [r5, r9, lsl #3]
usb_setup():
C:\Teensy\Projects\HelloWorld/usb_dev.c:177
    386c:	f240 6081 	movw	r0, #1665	; 0x681
usb_control():
C:\Teensy\Projects\HelloWorld/usb_dev.c:545
    3870:	2300      	movs	r3, #0
C:\Teensy\Projects\HelloWorld/usb_dev.c:557
    3872:	2101      	movs	r1, #1
usb_setup():
C:\Teensy\Projects\HelloWorld/usb_dev.c:177
    3874:	4282      	cmp	r2, r0
usb_control():
C:\Teensy\Projects\HelloWorld/usb_dev.c:545
    3876:	6523      	str	r3, [r4, #80]	; 0x50
C:\Teensy\Projects\HelloWorld/usb_dev.c:554
    3878:	612b      	str	r3, [r5, #16]
C:\Teensy\Projects\HelloWorld/usb_dev.c:555
    387a:	61ab      	str	r3, [r5, #24]
C:\Teensy\Projects\HelloWorld/usb_dev.c:557
    387c:	7061      	strb	r1, [r4, #1]
    387e:	46a1      	mov	r9, r4
usb_setup():
C:\Teensy\Projects\HelloWorld/usb_dev.c:177
    3880:	d817      	bhi.n	38b2 <usb_isr+0x10a>
    3882:	f5b2 6fd0 	cmp.w	r2, #1664	; 0x680
    3886:	f080 8121 	bcs.w	3acc <usb_isr+0x324>
    388a:	f5b2 7f81 	cmp.w	r2, #258	; 0x102
    388e:	f000 80df 	beq.w	3a50 <usb_isr+0x2a8>
    3892:	d806      	bhi.n	38a2 <usb_isr+0xfa>
    3894:	2a80      	cmp	r2, #128	; 0x80
    3896:	f000 80c6 	beq.w	3a26 <usb_isr+0x27e>
    389a:	2a82      	cmp	r2, #130	; 0x82
    389c:	f000 80c8 	beq.w	3a30 <usb_isr+0x288>
    38a0:	e137      	b.n	3b12 <usb_isr+0x36a>
    38a2:	f240 3302 	movw	r3, #770	; 0x302
    38a6:	429a      	cmp	r2, r3
    38a8:	f000 80e3 	beq.w	3a72 <usb_isr+0x2ca>
    38ac:	f5b2 6fa0 	cmp.w	r2, #1280	; 0x500
    38b0:	e01e      	b.n	38f0 <usb_isr+0x148>
    38b2:	f242 0021 	movw	r0, #8225	; 0x2021
    38b6:	4282      	cmp	r2, r0
    38b8:	f000 8161 	beq.w	3b7e <usb_isr+0x3d6>
    38bc:	d810      	bhi.n	38e0 <usb_isr+0x138>
    38be:	f5b2 6f08 	cmp.w	r2, #2176	; 0x880
    38c2:	f000 80aa 	beq.w	3a1a <usb_isr+0x272>
    38c6:	f5b2 6f10 	cmp.w	r2, #2304	; 0x900
    38ca:	f040 8122 	bne.w	3b12 <usb_isr+0x36a>
    38ce:	f8df 81d4 	ldr.w	r8, [pc, #468]	; 3aa4 <usb_isr+0x2fc>
C:\Teensy\Projects\HelloWorld/usb_dev.c:182
    38d2:	f894 304a 	ldrb.w	r3, [r4, #74]	; 0x4a
    38d6:	f884 3044 	strb.w	r3, [r4, #68]	; 0x44
    38da:	f108 0a80 	add.w	sl, r8, #128	; 0x80
    38de:	e00a      	b.n	38f6 <usb_isr+0x14e>
C:\Teensy\Projects\HelloWorld/usb_dev.c:177
    38e0:	f242 2121 	movw	r1, #8737	; 0x2221
    38e4:	428a      	cmp	r2, r1
    38e6:	f000 810b 	beq.w	3b00 <usb_isr+0x358>
    38ea:	f242 3321 	movw	r3, #8993	; 0x2321
    38ee:	429a      	cmp	r2, r3
    38f0:	f000 8113 	beq.w	3b1a <usb_isr+0x372>
    38f4:	e10d      	b.n	3b12 <usb_isr+0x36a>
C:\Teensy\Projects\HelloWorld/usb_dev.c:187
    38f6:	f8d8 3020 	ldr.w	r3, [r8, #32]
    38fa:	061b      	lsls	r3, r3, #24
    38fc:	d504      	bpl.n	3908 <usb_isr+0x160>
C:\Teensy\Projects\HelloWorld/usb_dev.c:188
    38fe:	f8d8 0024 	ldr.w	r0, [r8, #36]	; 0x24
    3902:	3808      	subs	r0, #8
    3904:	f000 fae0 	bl	3ec8 <usb_free>
    3908:	f108 0808 	add.w	r8, r8, #8
C:\Teensy\Projects\HelloWorld/usb_dev.c:186
    390c:	45d0      	cmp	r8, sl
    390e:	d1f2      	bne.n	38f6 <usb_isr+0x14e>
    3910:	f04f 0800 	mov.w	r8, #0
    3914:	46c2      	mov	sl, r8
C:\Teensy\Projects\HelloWorld/usb_dev.c:194
    3916:	f8df b1b0 	ldr.w	fp, [pc, #432]	; 3ac8 <usb_isr+0x320>
    391a:	f858 000b 	ldr.w	r0, [r8, fp]
C:\Teensy\Projects\HelloWorld/usb_dev.c:195
    391e:	b130      	cbz	r0, 392e <usb_isr+0x186>
C:\Teensy\Projects\HelloWorld/usb_dev.c:196
    3920:	6843      	ldr	r3, [r0, #4]
C:\Teensy\Projects\HelloWorld/usb_dev.c:197
    3922:	9301      	str	r3, [sp, #4]
    3924:	f000 fad0 	bl	3ec8 <usb_free>
C:\Teensy\Projects\HelloWorld/usb_dev.c:198
    3928:	9b01      	ldr	r3, [sp, #4]
    392a:	4618      	mov	r0, r3
    392c:	e7f7      	b.n	391e <usb_isr+0x176>
C:\Teensy\Projects\HelloWorld/usb_dev.c:201
    392e:	4b5f      	ldr	r3, [pc, #380]	; (3aac <usb_isr+0x304>)
C:\Teensy\Projects\HelloWorld/usb_dev.c:200
    3930:	f84b 0008 	str.w	r0, [fp, r8]
C:\Teensy\Projects\HelloWorld/usb_dev.c:202
    3934:	f1a3 0b40 	sub.w	fp, r3, #64	; 0x40
C:\Teensy\Projects\HelloWorld/usb_dev.c:201
    3938:	f848 0003 	str.w	r0, [r8, r3]
C:\Teensy\Projects\HelloWorld/usb_dev.c:202
    393c:	f858 000b 	ldr.w	r0, [r8, fp]
C:\Teensy\Projects\HelloWorld/usb_dev.c:203
    3940:	b130      	cbz	r0, 3950 <usb_isr+0x1a8>
C:\Teensy\Projects\HelloWorld/usb_dev.c:204
    3942:	6843      	ldr	r3, [r0, #4]
C:\Teensy\Projects\HelloWorld/usb_dev.c:205
    3944:	9301      	str	r3, [sp, #4]
    3946:	f000 fabf 	bl	3ec8 <usb_free>
C:\Teensy\Projects\HelloWorld/usb_dev.c:206
    394a:	9b01      	ldr	r3, [sp, #4]
    394c:	4618      	mov	r0, r3
    394e:	e7f7      	b.n	3940 <usb_isr+0x198>
C:\Teensy\Projects\HelloWorld/usb_dev.c:209
    3950:	4b57      	ldr	r3, [pc, #348]	; (3ab0 <usb_isr+0x308>)
C:\Teensy\Projects\HelloWorld/usb_dev.c:210
    3952:	4a58      	ldr	r2, [pc, #352]	; (3ab4 <usb_isr+0x30c>)
C:\Teensy\Projects\HelloWorld/usb_dev.c:209
    3954:	f848 0003 	str.w	r0, [r8, r3]
C:\Teensy\Projects\HelloWorld/usb_dev.c:211
    3958:	3b07      	subs	r3, #7
C:\Teensy\Projects\HelloWorld/usb_dev.c:210
    395a:	f822 001a 	strh.w	r0, [r2, sl, lsl #1]
C:\Teensy\Projects\HelloWorld/usb_dev.c:211
    395e:	f81a 2003 	ldrb.w	r2, [sl, r3]
C:\Teensy\Projects\HelloWorld/usb_dev.c:208
    3962:	f84b 0008 	str.w	r0, [fp, r8]
C:\Teensy\Projects\HelloWorld/usb_dev.c:211
    3966:	3a02      	subs	r2, #2
    3968:	2a03      	cmp	r2, #3
    396a:	d808      	bhi.n	397e <usb_isr+0x1d6>
    396c:	e8df f002 	tbb	[pc, r2]
    3970:	04020402 	.word	0x04020402
C:\Teensy\Projects\HelloWorld/usb_dev.c:214
    3974:	2200      	movs	r2, #0
    3976:	e000      	b.n	397a <usb_isr+0x1d2>
C:\Teensy\Projects\HelloWorld/usb_dev.c:218
    3978:	2201      	movs	r2, #1
    397a:	f803 200a 	strb.w	r2, [r3, sl]
C:\Teensy\Projects\HelloWorld/usb_dev.c:192
    397e:	f10a 0a01 	add.w	sl, sl, #1
    3982:	f1ba 0f04 	cmp.w	sl, #4
    3986:	f108 0804 	add.w	r8, r8, #4
    398a:	d1c4      	bne.n	3916 <usb_isr+0x16e>
C:\Teensy\Projects\HelloWorld/usb_dev.c:224
    398c:	2300      	movs	r3, #0
    398e:	f884 3024 	strb.w	r3, [r4, #36]	; 0x24
C:\Teensy\Projects\HelloWorld/usb_dev.c:225
    3992:	f04f 0801 	mov.w	r8, #1
    3996:	4a48      	ldr	r2, [pc, #288]	; (3ab8 <usb_isr+0x310>)
    3998:	4b48      	ldr	r3, [pc, #288]	; (3abc <usb_isr+0x314>)
    399a:	4442      	add	r2, r8
    399c:	4443      	add	r3, r8
C:\Teensy\Projects\HelloWorld/usb_dev.c:226
    399e:	f812 2c01 	ldrb.w	r2, [r2, #-1]
    39a2:	009b      	lsls	r3, r3, #2
C:\Teensy\Projects\HelloWorld/usb_dev.c:237
    39a4:	f012 0f08 	tst.w	r2, #8
C:\Teensy\Projects\HelloWorld/usb_dev.c:227
    39a8:	701a      	strb	r2, [r3, #0]
    39aa:	ea4f 0a88 	mov.w	sl, r8, lsl #2
C:\Teensy\Projects\HelloWorld/usb_dev.c:237
    39ae:	d025      	beq.n	39fc <usb_isr+0x254>
C:\Teensy\Projects\HelloWorld/usb_dev.c:239
    39b0:	f000 fa6c 	bl	3e8c <usb_malloc>
C:\Teensy\Projects\HelloWorld/usb_dev.c:240
    39b4:	b138      	cbz	r0, 39c6 <usb_isr+0x21e>
C:\Teensy\Projects\HelloWorld/usb_dev.c:241
    39b6:	eb05 1348 	add.w	r3, r5, r8, lsl #5
    39ba:	3008      	adds	r0, #8
    39bc:	6058      	str	r0, [r3, #4]
C:\Teensy\Projects\HelloWorld/usb_dev.c:242
    39be:	4b40      	ldr	r3, [pc, #256]	; (3ac0 <usb_isr+0x318>)
    39c0:	f845 303a 	str.w	r3, [r5, sl, lsl #3]
    39c4:	e006      	b.n	39d4 <usb_isr+0x22c>
C:\Teensy\Projects\HelloWorld/usb_dev.c:245
    39c6:	f899 3024 	ldrb.w	r3, [r9, #36]	; 0x24
C:\Teensy\Projects\HelloWorld/usb_dev.c:244
    39ca:	f845 003a 	str.w	r0, [r5, sl, lsl #3]
C:\Teensy\Projects\HelloWorld/usb_dev.c:245
    39ce:	3301      	adds	r3, #1
    39d0:	f889 3024 	strb.w	r3, [r9, #36]	; 0x24
C:\Teensy\Projects\HelloWorld/usb_dev.c:247
    39d4:	f000 fa5a 	bl	3e8c <usb_malloc>
C:\Teensy\Projects\HelloWorld/usb_dev.c:249
    39d8:	f04a 0301 	orr.w	r3, sl, #1
C:\Teensy\Projects\HelloWorld/usb_dev.c:248
    39dc:	b138      	cbz	r0, 39ee <usb_isr+0x246>
C:\Teensy\Projects\HelloWorld/usb_dev.c:249
    39de:	eb05 02c3 	add.w	r2, r5, r3, lsl #3
    39e2:	3008      	adds	r0, #8
    39e4:	6050      	str	r0, [r2, #4]
C:\Teensy\Projects\HelloWorld/usb_dev.c:250
    39e6:	4a30      	ldr	r2, [pc, #192]	; (3aa8 <usb_isr+0x300>)
    39e8:	f845 2033 	str.w	r2, [r5, r3, lsl #3]
    39ec:	e006      	b.n	39fc <usb_isr+0x254>
C:\Teensy\Projects\HelloWorld/usb_dev.c:252
    39ee:	f845 0033 	str.w	r0, [r5, r3, lsl #3]
C:\Teensy\Projects\HelloWorld/usb_dev.c:253
    39f2:	f899 3024 	ldrb.w	r3, [r9, #36]	; 0x24
    39f6:	3301      	adds	r3, #1
    39f8:	f889 3024 	strb.w	r3, [r9, #36]	; 0x24
C:\Teensy\Projects\HelloWorld/usb_dev.c:256
    39fc:	f04a 0202 	orr.w	r2, sl, #2
C:\Teensy\Projects\HelloWorld/usb_dev.c:225
    3a00:	f108 0801 	add.w	r8, r8, #1
C:\Teensy\Projects\HelloWorld/usb_dev.c:257
    3a04:	f04a 0a03 	orr.w	sl, sl, #3
C:\Teensy\Projects\HelloWorld/usb_dev.c:256
    3a08:	2300      	movs	r3, #0
C:\Teensy\Projects\HelloWorld/usb_dev.c:225
    3a0a:	f1b8 0f05 	cmp.w	r8, #5
C:\Teensy\Projects\HelloWorld/usb_dev.c:256
    3a0e:	f845 3032 	str.w	r3, [r5, r2, lsl #3]
C:\Teensy\Projects\HelloWorld/usb_dev.c:257
    3a12:	f845 303a 	str.w	r3, [r5, sl, lsl #3]
C:\Teensy\Projects\HelloWorld/usb_dev.c:225
    3a16:	d1be      	bne.n	3996 <usb_isr+0x1ee>
    3a18:	e080      	b.n	3b1c <usb_isr+0x374>
C:\Teensy\Projects\HelloWorld/usb_dev.c:267
    3a1a:	f894 3044 	ldrb.w	r3, [r4, #68]	; 0x44
    3a1e:	f884 303c 	strb.w	r3, [r4, #60]	; 0x3c
C:\Teensy\Projects\HelloWorld/usb_dev.c:268
    3a22:	460b      	mov	r3, r1
    3a24:	e07d      	b.n	3b22 <usb_isr+0x37a>
C:\Teensy\Projects\HelloWorld/usb_dev.c:272
    3a26:	f884 303c 	strb.w	r3, [r4, #60]	; 0x3c
C:\Teensy\Projects\HelloWorld/usb_dev.c:273
    3a2a:	f884 303d 	strb.w	r3, [r4, #61]	; 0x3d
    3a2e:	e077      	b.n	3b20 <usb_isr+0x378>
C:\Teensy\Projects\HelloWorld/usb_dev.c:278
    3a30:	f8b4 204c 	ldrh.w	r2, [r4, #76]	; 0x4c
    3a34:	2a04      	cmp	r2, #4
    3a36:	d86c      	bhi.n	3b12 <usb_isr+0x36a>
C:\Teensy\Projects\HelloWorld/usb_dev.c:283
    3a38:	f884 303c 	strb.w	r3, [r4, #60]	; 0x3c
C:\Teensy\Projects\HelloWorld/usb_dev.c:284
    3a3c:	f884 303d 	strb.w	r3, [r4, #61]	; 0x3d
C:\Teensy\Projects\HelloWorld/usb_dev.c:285
    3a40:	0092      	lsls	r2, r2, #2
    3a42:	4b20      	ldr	r3, [pc, #128]	; (3ac4 <usb_isr+0x31c>)
    3a44:	5c9b      	ldrb	r3, [r3, r2]
    3a46:	079d      	lsls	r5, r3, #30
    3a48:	d56a      	bpl.n	3b20 <usb_isr+0x378>
    3a4a:	f884 103c 	strb.w	r1, [r4, #60]	; 0x3c
    3a4e:	e067      	b.n	3b20 <usb_isr+0x378>
C:\Teensy\Projects\HelloWorld/usb_dev.c:290
    3a50:	f8b4 204c 	ldrh.w	r2, [r4, #76]	; 0x4c
    3a54:	f002 027f 	and.w	r2, r2, #127	; 0x7f
C:\Teensy\Projects\HelloWorld/usb_dev.c:291
    3a58:	2a04      	cmp	r2, #4
    3a5a:	dc5a      	bgt.n	3b12 <usb_isr+0x36a>
    3a5c:	f8b4 304a 	ldrh.w	r3, [r4, #74]	; 0x4a
    3a60:	2b00      	cmp	r3, #0
    3a62:	d156      	bne.n	3b12 <usb_isr+0x36a>
C:\Teensy\Projects\HelloWorld/usb_dev.c:296
    3a64:	0091      	lsls	r1, r2, #2
    3a66:	4a17      	ldr	r2, [pc, #92]	; (3ac4 <usb_isr+0x31c>)
    3a68:	440a      	add	r2, r1
    3a6a:	7811      	ldrb	r1, [r2, #0]
    3a6c:	f021 0102 	bic.w	r1, r1, #2
    3a70:	e04d      	b.n	3b0e <usb_isr+0x366>
C:\Teensy\Projects\HelloWorld/usb_dev.c:300
    3a72:	f8b4 204c 	ldrh.w	r2, [r4, #76]	; 0x4c
    3a76:	f002 027f 	and.w	r2, r2, #127	; 0x7f
C:\Teensy\Projects\HelloWorld/usb_dev.c:301
    3a7a:	2a04      	cmp	r2, #4
    3a7c:	dc49      	bgt.n	3b12 <usb_isr+0x36a>
    3a7e:	f8b4 304a 	ldrh.w	r3, [r4, #74]	; 0x4a
    3a82:	2b00      	cmp	r3, #0
    3a84:	d145      	bne.n	3b12 <usb_isr+0x36a>
C:\Teensy\Projects\HelloWorld/usb_dev.c:306
    3a86:	0091      	lsls	r1, r2, #2
    3a88:	4a0e      	ldr	r2, [pc, #56]	; (3ac4 <usb_isr+0x31c>)
    3a8a:	440a      	add	r2, r1
    3a8c:	7811      	ldrb	r1, [r2, #0]
    3a8e:	f041 0102 	orr.w	r1, r1, #2
    3a92:	e03c      	b.n	3b0e <usb_isr+0x366>
    3a94:	40072080 	.word	0x40072080
    3a98:	1fff0e68 	.word	0x1fff0e68
    3a9c:	1fff0f5d 	.word	0x1fff0f5d
    3aa0:	40072090 	.word	0x40072090
    3aa4:	1fff0000 	.word	0x1fff0000
    3aa8:	004000c8 	.word	0x004000c8
    3aac:	1fff0ebc 	.word	0x1fff0ebc
    3ab0:	1fff0e94 	.word	0x1fff0e94
    3ab4:	1fff10dc 	.word	0x1fff10dc
    3ab8:	0000a0cc 	.word	0x0000a0cc
    3abc:	1001c830 	.word	0x1001c830
    3ac0:	00400088 	.word	0x00400088
    3ac4:	400720c0 	.word	0x400720c0
    3ac8:	1fff0e6c 	.word	0x1fff0e6c
C:\Teensy\Projects\HelloWorld/usb_dev.c:318
    3acc:	f8b4 204a 	ldrh.w	r2, [r4, #74]	; 0x4a
    3ad0:	f8b4 104c 	ldrh.w	r1, [r4, #76]	; 0x4c
    3ad4:	4baa      	ldr	r3, [pc, #680]	; (3d80 <usb_isr+0x5d8>)
C:\Teensy\Projects\HelloWorld/usb_dev.c:315
    3ad6:	f853 5c08 	ldr.w	r5, [r3, #-8]
    3ada:	f1a3 000c 	sub.w	r0, r3, #12
    3ade:	b1c5      	cbz	r5, 3b12 <usb_isr+0x36a>
C:\Teensy\Projects\HelloWorld/usb_dev.c:318
    3ae0:	f833 cc0c 	ldrh.w	ip, [r3, #-12]
    3ae4:	4594      	cmp	ip, r2
    3ae6:	d109      	bne.n	3afc <usb_isr+0x354>
    3ae8:	f833 cc0a 	ldrh.w	ip, [r3, #-10]
    3aec:	458c      	cmp	ip, r1
    3aee:	d105      	bne.n	3afc <usb_isr+0x354>
C:\Teensy\Projects\HelloWorld/usb_dev.c:320
    3af0:	0a12      	lsrs	r2, r2, #8
    3af2:	2a03      	cmp	r2, #3
C:\Teensy\Projects\HelloWorld/usb_dev.c:324
    3af4:	bf0c      	ite	eq
    3af6:	782b      	ldrbeq	r3, [r5, #0]
C:\Teensy\Projects\HelloWorld/usb_dev.c:326
    3af8:	8903      	ldrhne	r3, [r0, #8]
    3afa:	e014      	b.n	3b26 <usb_isr+0x37e>
    3afc:	330c      	adds	r3, #12
    3afe:	e7ea      	b.n	3ad6 <usb_isr+0x32e>
C:\Teensy\Projects\HelloWorld/usb_dev.c:350
    3b00:	4aa0      	ldr	r2, [pc, #640]	; (3d84 <usb_isr+0x5dc>)
    3b02:	6811      	ldr	r1, [r2, #0]
    3b04:	4aa0      	ldr	r2, [pc, #640]	; (3d88 <usb_isr+0x5e0>)
    3b06:	6011      	str	r1, [r2, #0]
C:\Teensy\Projects\HelloWorld/usb_dev.c:351
    3b08:	f894 104a 	ldrb.w	r1, [r4, #74]	; 0x4a
    3b0c:	4a9f      	ldr	r2, [pc, #636]	; (3d8c <usb_isr+0x5e4>)
    3b0e:	7011      	strb	r1, [r2, #0]
    3b10:	e004      	b.n	3b1c <usb_isr+0x374>
endpoint0_stall():
C:\Teensy\Projects\HelloWorld/usb_dev.c:144
    3b12:	4b9f      	ldr	r3, [pc, #636]	; (3d90 <usb_isr+0x5e8>)
    3b14:	220f      	movs	r2, #15
    3b16:	701a      	strb	r2, [r3, #0]
    3b18:	e031      	b.n	3b7e <usb_isr+0x3d6>
usb_setup():
C:\Teensy\Projects\HelloWorld/usb_dev.c:169
    3b1a:	2300      	movs	r3, #0
C:\Teensy\Projects\HelloWorld/usb_dev.c:168
    3b1c:	461d      	mov	r5, r3
    3b1e:	e002      	b.n	3b26 <usb_isr+0x37e>
C:\Teensy\Projects\HelloWorld/usb_dev.c:287
    3b20:	2302      	movs	r3, #2
C:\Teensy\Projects\HelloWorld/usb_dev.c:286
    3b22:	f109 053c 	add.w	r5, r9, #60	; 0x3c
C:\Teensy\Projects\HelloWorld/usb_dev.c:476
    3b26:	f8b4 904e 	ldrh.w	r9, [r4, #78]	; 0x4e
    3b2a:	454b      	cmp	r3, r9
    3b2c:	bf38      	it	cc
    3b2e:	4699      	movcc	r9, r3
    3b30:	f1b9 0f40 	cmp.w	r9, #64	; 0x40
    3b34:	bf34      	ite	cc
    3b36:	46c8      	movcc	r8, r9
    3b38:	f04f 0840 	movcs.w	r8, #64	; 0x40
C:\Teensy\Projects\HelloWorld/usb_dev.c:479
    3b3c:	4628      	mov	r0, r5
    3b3e:	4641      	mov	r1, r8
    3b40:	f7ff fd30 	bl	35a4 <endpoint0_transmit>
C:\Teensy\Projects\HelloWorld/usb_dev.c:482
    3b44:	ebb9 0908 	subs.w	r9, r9, r8
C:\Teensy\Projects\HelloWorld/usb_dev.c:480
    3b48:	4445      	add	r5, r8
C:\Teensy\Projects\HelloWorld/usb_dev.c:482
    3b4a:	d104      	bne.n	3b56 <usb_isr+0x3ae>
    3b4c:	f1b8 0f40 	cmp.w	r8, #64	; 0x40
    3b50:	d115      	bne.n	3b7e <usb_isr+0x3d6>
    3b52:	46c8      	mov	r8, r9
    3b54:	e005      	b.n	3b62 <usb_isr+0x3ba>
    3b56:	f1b9 0f40 	cmp.w	r9, #64	; 0x40
    3b5a:	bf34      	ite	cc
    3b5c:	46c8      	movcc	r8, r9
    3b5e:	f04f 0840 	movcs.w	r8, #64	; 0x40
C:\Teensy\Projects\HelloWorld/usb_dev.c:486
    3b62:	4628      	mov	r0, r5
    3b64:	4641      	mov	r1, r8
    3b66:	f7ff fd1d 	bl	35a4 <endpoint0_transmit>
C:\Teensy\Projects\HelloWorld/usb_dev.c:489
    3b6a:	ebb9 0908 	subs.w	r9, r9, r8
C:\Teensy\Projects\HelloWorld/usb_dev.c:487
    3b6e:	4445      	add	r5, r8
C:\Teensy\Projects\HelloWorld/usb_dev.c:489
    3b70:	d102      	bne.n	3b78 <usb_isr+0x3d0>
    3b72:	f1b8 0f40 	cmp.w	r8, #64	; 0x40
    3b76:	d102      	bne.n	3b7e <usb_isr+0x3d6>
C:\Teensy\Projects\HelloWorld/usb_dev.c:491
    3b78:	6525      	str	r5, [r4, #80]	; 0x50
C:\Teensy\Projects\HelloWorld/usb_dev.c:492
    3b7a:	f8a4 9064 	strh.w	r9, [r4, #100]	; 0x64
usb_control():
C:\Teensy\Projects\HelloWorld/usb_dev.c:575
    3b7e:	2201      	movs	r2, #1
    3b80:	4b84      	ldr	r3, [pc, #528]	; (3d94 <usb_isr+0x5ec>)
    3b82:	e044      	b.n	3c0e <usb_isr+0x466>
C:\Teensy\Projects\HelloWorld/usb_dev.c:581
    3b84:	4a84      	ldr	r2, [pc, #528]	; (3d98 <usb_isr+0x5f0>)
    3b86:	f8b2 0048 	ldrh.w	r0, [r2, #72]	; 0x48
    3b8a:	f242 0321 	movw	r3, #8225	; 0x2021
    3b8e:	4298      	cmp	r0, r3
    3b90:	d111      	bne.n	3bb6 <usb_isr+0x40e>
    3b92:	2300      	movs	r3, #0
C:\Teensy\Projects\HelloWorld/usb_dev.c:587
    3b94:	4881      	ldr	r0, [pc, #516]	; (3d9c <usb_isr+0x5f4>)
    3b96:	5ccc      	ldrb	r4, [r1, r3]
    3b98:	541c      	strb	r4, [r3, r0]
C:\Teensy\Projects\HelloWorld/usb_dev.c:585
    3b9a:	3301      	adds	r3, #1
    3b9c:	2b07      	cmp	r3, #7
    3b9e:	d1f9      	bne.n	3b94 <usb_isr+0x3ec>
C:\Teensy\Projects\HelloWorld/usb_dev.c:591
    3ba0:	6803      	ldr	r3, [r0, #0]
C:\Teensy\Projects\HelloWorld/usb_dev.c:592
    3ba2:	2000      	movs	r0, #0
C:\Teensy\Projects\HelloWorld/usb_dev.c:591
    3ba4:	2b86      	cmp	r3, #134	; 0x86
    3ba6:	bf08      	it	eq
    3ba8:	230f      	moveq	r3, #15
C:\Teensy\Projects\HelloWorld/usb_dev.c:592
    3baa:	4601      	mov	r1, r0
C:\Teensy\Projects\HelloWorld/usb_dev.c:591
    3bac:	bf08      	it	eq
    3bae:	f882 3045 	strbeq.w	r3, [r2, #69]	; 0x45
C:\Teensy\Projects\HelloWorld/usb_dev.c:592
    3bb2:	f7ff fcf7 	bl	35a4 <endpoint0_transmit>
C:\Teensy\Projects\HelloWorld/usb_dev.c:614
    3bb6:	4b7a      	ldr	r3, [pc, #488]	; (3da0 <usb_isr+0x5f8>)
    3bb8:	f845 3039 	str.w	r3, [r5, r9, lsl #3]
    3bbc:	e028      	b.n	3c10 <usb_isr+0x468>
C:\Teensy\Projects\HelloWorld/usb_dev.c:623
    3bbe:	4c76      	ldr	r4, [pc, #472]	; (3d98 <usb_isr+0x5f0>)
    3bc0:	f8d4 8050 	ldr.w	r8, [r4, #80]	; 0x50
C:\Teensy\Projects\HelloWorld/usb_dev.c:624
    3bc4:	f1b8 0f00 	cmp.w	r8, #0
    3bc8:	d015      	beq.n	3bf6 <usb_isr+0x44e>
C:\Teensy\Projects\HelloWorld/usb_dev.c:625
    3bca:	f8b4 9064 	ldrh.w	r9, [r4, #100]	; 0x64
    3bce:	f1b9 0f40 	cmp.w	r9, #64	; 0x40
    3bd2:	bf34      	ite	cc
    3bd4:	464d      	movcc	r5, r9
    3bd6:	2540      	movcs	r5, #64	; 0x40
C:\Teensy\Projects\HelloWorld/usb_dev.c:627
    3bd8:	4640      	mov	r0, r8
    3bda:	4629      	mov	r1, r5
    3bdc:	f7ff fce2 	bl	35a4 <endpoint0_transmit>
C:\Teensy\Projects\HelloWorld/usb_dev.c:629
    3be0:	ebc5 0309 	rsb	r3, r5, r9
    3be4:	b29b      	uxth	r3, r3
    3be6:	f8a4 3064 	strh.w	r3, [r4, #100]	; 0x64
C:\Teensy\Projects\HelloWorld/usb_dev.c:630
    3bea:	b90b      	cbnz	r3, 3bf0 <usb_isr+0x448>
    3bec:	2d40      	cmp	r5, #64	; 0x40
    3bee:	d101      	bne.n	3bf4 <usb_isr+0x44c>
C:\Teensy\Projects\HelloWorld/usb_dev.c:628
    3bf0:	eb08 0305 	add.w	r3, r8, r5
C:\Teensy\Projects\HelloWorld/usb_dev.c:630
    3bf4:	6523      	str	r3, [r4, #80]	; 0x50
C:\Teensy\Projects\HelloWorld/usb_dev.c:633
    3bf6:	f8b4 2048 	ldrh.w	r2, [r4, #72]	; 0x48
    3bfa:	4b67      	ldr	r3, [pc, #412]	; (3d98 <usb_isr+0x5f0>)
    3bfc:	f5b2 6fa0 	cmp.w	r2, #1280	; 0x500
    3c00:	d106      	bne.n	3c10 <usb_isr+0x468>
C:\Teensy\Projects\HelloWorld/usb_dev.c:634
    3c02:	2200      	movs	r2, #0
    3c04:	f883 2049 	strb.w	r2, [r3, #73]	; 0x49
C:\Teensy\Projects\HelloWorld/usb_dev.c:638
    3c08:	f893 204a 	ldrb.w	r2, [r3, #74]	; 0x4a
    3c0c:	4b65      	ldr	r3, [pc, #404]	; (3da4 <usb_isr+0x5fc>)
    3c0e:	701a      	strb	r2, [r3, #0]
C:\Teensy\Projects\HelloWorld/usb_dev.c:647
    3c10:	4b60      	ldr	r3, [pc, #384]	; (3d94 <usb_isr+0x5ec>)
    3c12:	2201      	movs	r2, #1
    3c14:	701a      	strb	r2, [r3, #0]
    3c16:	e08e      	b.n	3d36 <usb_isr+0x58e>
usb_isr():
C:\Teensy\Projects\HelloWorld/usb_dev.c:928
    3c18:	eb05 08c9 	add.w	r8, r5, r9, lsl #3
C:\Teensy\Projects\HelloWorld/usb_dev.c:940
    3c1c:	3c01      	subs	r4, #1
C:\Teensy\Projects\HelloWorld/usb_dev.c:929
    3c1e:	f8d8 3004 	ldr.w	r3, [r8, #4]
C:\Teensy\Projects\HelloWorld/usb_dev.c:963
    3c22:	f002 0208 	and.w	r2, r2, #8
C:\Teensy\Projects\HelloWorld/usb_dev.c:929
    3c26:	f1a3 0008 	sub.w	r0, r3, #8
C:\Teensy\Projects\HelloWorld/usb_dev.c:940
    3c2a:	b2e4      	uxtb	r4, r4
C:\Teensy\Projects\HelloWorld/usb_dev.c:963
    3c2c:	f002 01ff 	and.w	r1, r2, #255	; 0xff
    3c30:	2a00      	cmp	r2, #0
    3c32:	d048      	beq.n	3cc6 <usb_isr+0x51e>
C:\Teensy\Projects\HelloWorld/usb_dev.c:964
    3c34:	f000 f948 	bl	3ec8 <usb_free>
C:\Teensy\Projects\HelloWorld/usb_dev.c:965
    3c38:	4b57      	ldr	r3, [pc, #348]	; (3d98 <usb_isr+0x5f0>)
    3c3a:	eb03 0c84 	add.w	ip, r3, r4, lsl #2
    3c3e:	1918      	adds	r0, r3, r4
    3c40:	f8dc 1014 	ldr.w	r1, [ip, #20]
C:\Teensy\Projects\HelloWorld/usb_dev.c:966
    3c44:	b331      	cbz	r1, 3c94 <usb_isr+0x4ec>
C:\Teensy\Projects\HelloWorld/usb_dev.c:968
    3c46:	684a      	ldr	r2, [r1, #4]
    3c48:	f8cc 2014 	str.w	r2, [ip, #20]
C:\Teensy\Projects\HelloWorld/usb_dev.c:969
    3c4c:	f101 0208 	add.w	r2, r1, #8
    3c50:	f8c8 2004 	str.w	r2, [r8, #4]
C:\Teensy\Projects\HelloWorld/usb_dev.c:970
    3c54:	f890 2025 	ldrb.w	r2, [r0, #37]	; 0x25
    3c58:	2a03      	cmp	r2, #3
    3c5a:	d810      	bhi.n	3c7e <usb_isr+0x4d6>
    3c5c:	e8df f002 	tbb	[pc, r2]
    3c60:	0b080502 	.word	0x0b080502
C:\Teensy\Projects\HelloWorld/usb_dev.c:972
    3c64:	441c      	add	r4, r3
    3c66:	2303      	movs	r3, #3
    3c68:	e007      	b.n	3c7a <usb_isr+0x4d2>
C:\Teensy\Projects\HelloWorld/usb_dev.c:975
    3c6a:	441c      	add	r4, r3
    3c6c:	2302      	movs	r3, #2
    3c6e:	e004      	b.n	3c7a <usb_isr+0x4d2>
C:\Teensy\Projects\HelloWorld/usb_dev.c:978
    3c70:	441c      	add	r4, r3
    3c72:	2305      	movs	r3, #5
    3c74:	e001      	b.n	3c7a <usb_isr+0x4d2>
C:\Teensy\Projects\HelloWorld/usb_dev.c:981
    3c76:	441c      	add	r4, r3
    3c78:	2304      	movs	r3, #4
    3c7a:	f884 3025 	strb.w	r3, [r4, #37]	; 0x25
C:\Teensy\Projects\HelloWorld/usb_dev.c:986
    3c7e:	880a      	ldrh	r2, [r1, #0]
    3c80:	f018 0f08 	tst.w	r8, #8
    3c84:	bf0c      	ite	eq
    3c86:	2388      	moveq	r3, #136	; 0x88
    3c88:	23c8      	movne	r3, #200	; 0xc8
    3c8a:	ea43 4302 	orr.w	r3, r3, r2, lsl #16
    3c8e:	f845 3039 	str.w	r3, [r5, r9, lsl #3]
    3c92:	e050      	b.n	3d36 <usb_isr+0x58e>
C:\Teensy\Projects\HelloWorld/usb_dev.c:990
    3c94:	f890 2025 	ldrb.w	r2, [r0, #37]	; 0x25
    3c98:	2a03      	cmp	r2, #3
    3c9a:	d80b      	bhi.n	3cb4 <usb_isr+0x50c>
    3c9c:	e8df f002 	tbb	[pc, r2]
    3ca0:	05024b4b 	.word	0x05024b4b
C:\Teensy\Projects\HelloWorld/usb_dev.c:995
    3ca4:	441c      	add	r4, r3
    3ca6:	2300      	movs	r3, #0
    3ca8:	e001      	b.n	3cae <usb_isr+0x506>
C:\Teensy\Projects\HelloWorld/usb_dev.c:998
    3caa:	441c      	add	r4, r3
    3cac:	2301      	movs	r3, #1
    3cae:	f884 3025 	strb.w	r3, [r4, #37]	; 0x25
C:\Teensy\Projects\HelloWorld/usb_dev.c:999
    3cb2:	e040      	b.n	3d36 <usb_isr+0x58e>
C:\Teensy\Projects\HelloWorld/usb_dev.c:1001
    3cb4:	f018 0f08 	tst.w	r8, #8
    3cb8:	441c      	add	r4, r3
    3cba:	bf0c      	ite	eq
    3cbc:	2202      	moveq	r2, #2
    3cbe:	2203      	movne	r2, #3
    3cc0:	f884 2025 	strb.w	r2, [r4, #37]	; 0x25
C:\Teensy\Projects\HelloWorld/usb_dev.c:1003
    3cc4:	e037      	b.n	3d36 <usb_isr+0x58e>
C:\Teensy\Projects\HelloWorld/usb_dev.c:1008
    3cc6:	f855 2039 	ldr.w	r2, [r5, r9, lsl #3]
    3cca:	0c12      	lsrs	r2, r2, #16
    3ccc:	f823 2c08 	strh.w	r2, [r3, #-8]
C:\Teensy\Projects\HelloWorld/usb_dev.c:1009
    3cd0:	b342      	cbz	r2, 3d24 <usb_isr+0x57c>
C:\Teensy\Projects\HelloWorld/usb_dev.c:1012
    3cd2:	4e31      	ldr	r6, [pc, #196]	; (3d98 <usb_isr+0x5f0>)
C:\Teensy\Projects\HelloWorld/usb_dev.c:1010
    3cd4:	f823 1c06 	strh.w	r1, [r3, #-6]
C:\Teensy\Projects\HelloWorld/usb_dev.c:1012
    3cd8:	ea4f 0e84 	mov.w	lr, r4, lsl #2
C:\Teensy\Projects\HelloWorld/usb_dev.c:1011
    3cdc:	f843 1c04 	str.w	r1, [r3, #-4]
C:\Teensy\Projects\HelloWorld/usb_dev.c:1012
    3ce0:	eb06 010e 	add.w	r1, r6, lr
    3ce4:	46b4      	mov	ip, r6
    3ce6:	684b      	ldr	r3, [r1, #4]
    3ce8:	b90b      	cbnz	r3, 3cee <usb_isr+0x546>
C:\Teensy\Projects\HelloWorld/usb_dev.c:1018
    3cea:	6048      	str	r0, [r1, #4]
    3cec:	e001      	b.n	3cf2 <usb_isr+0x54a>
C:\Teensy\Projects\HelloWorld/usb_dev.c:1025
    3cee:	6d4b      	ldr	r3, [r1, #84]	; 0x54
    3cf0:	6058      	str	r0, [r3, #4]
C:\Teensy\Projects\HelloWorld/usb_dev.c:1027
    3cf2:	eb0c 030e 	add.w	r3, ip, lr
    3cf6:	4e28      	ldr	r6, [pc, #160]	; (3d98 <usb_isr+0x5f0>)
    3cf8:	6558      	str	r0, [r3, #84]	; 0x54
C:\Teensy\Projects\HelloWorld/usb_dev.c:1028
    3cfa:	4b2b      	ldr	r3, [pc, #172]	; (3da8 <usb_isr+0x600>)
    3cfc:	f833 1014 	ldrh.w	r1, [r3, r4, lsl #1]
    3d00:	440a      	add	r2, r1
    3d02:	f823 2014 	strh.w	r2, [r3, r4, lsl #1]
C:\Teensy\Projects\HelloWorld/usb_dev.c:1033
    3d06:	f000 f8c1 	bl	3e8c <usb_malloc>
C:\Teensy\Projects\HelloWorld/usb_dev.c:1034
    3d0a:	b118      	cbz	r0, 3d14 <usb_isr+0x56c>
C:\Teensy\Projects\HelloWorld/usb_dev.c:1035
    3d0c:	3008      	adds	r0, #8
    3d0e:	f8c8 0004 	str.w	r0, [r8, #4]
    3d12:	e007      	b.n	3d24 <usb_isr+0x57c>
C:\Teensy\Projects\HelloWorld/usb_dev.c:1042
    3d14:	f896 3024 	ldrb.w	r3, [r6, #36]	; 0x24
C:\Teensy\Projects\HelloWorld/usb_dev.c:1041
    3d18:	f845 0039 	str.w	r0, [r5, r9, lsl #3]
C:\Teensy\Projects\HelloWorld/usb_dev.c:1042
    3d1c:	3301      	adds	r3, #1
    3d1e:	f886 3024 	strb.w	r3, [r6, #36]	; 0x24
    3d22:	e007      	b.n	3d34 <usb_isr+0x58c>
C:\Teensy\Projects\HelloWorld/usb_dev.c:1045
    3d24:	4b1e      	ldr	r3, [pc, #120]	; (3da0 <usb_isr+0x5f8>)
    3d26:	4a21      	ldr	r2, [pc, #132]	; (3dac <usb_isr+0x604>)
    3d28:	f018 0f08 	tst.w	r8, #8
    3d2c:	bf08      	it	eq
    3d2e:	4613      	moveq	r3, r2
    3d30:	f845 3039 	str.w	r3, [r5, r9, lsl #3]
C:\Teensy\Projects\HelloWorld/usb_dev.c:1007
    3d34:	2601      	movs	r6, #1
C:\Teensy\Projects\HelloWorld/usb_dev.c:1050
    3d36:	2308      	movs	r3, #8
    3d38:	703b      	strb	r3, [r7, #0]
C:\Teensy\Projects\HelloWorld/usb_dev.c:1051
    3d3a:	e541      	b.n	37c0 <usb_isr+0x18>
C:\Teensy\Projects\HelloWorld/usb_dev.c:1056
    3d3c:	07e0      	lsls	r0, r4, #31
    3d3e:	d53f      	bpl.n	3dc0 <usb_isr+0x618>
C:\Teensy\Projects\HelloWorld/usb_dev.c:1061
    3d40:	4c15      	ldr	r4, [pc, #84]	; (3d98 <usb_isr+0x5f0>)
C:\Teensy\Projects\HelloWorld/usb_dev.c:1060
    3d42:	4814      	ldr	r0, [pc, #80]	; (3d94 <usb_isr+0x5ec>)
C:\Teensy\Projects\HelloWorld/usb_dev.c:1064
    3d44:	4e19      	ldr	r6, [pc, #100]	; (3dac <usb_isr+0x604>)
C:\Teensy\Projects\HelloWorld/usb_dev.c:1061
    3d46:	4621      	mov	r1, r4
C:\Teensy\Projects\HelloWorld/usb_dev.c:1060
    3d48:	2302      	movs	r3, #2
    3d4a:	7003      	strb	r3, [r0, #0]
C:\Teensy\Projects\HelloWorld/usb_dev.c:1061
    3d4c:	f801 2b68 	strb.w	r2, [r1], #104
C:\Teensy\Projects\HelloWorld/usb_dev.c:1064
    3d50:	4b17      	ldr	r3, [pc, #92]	; (3db0 <usb_isr+0x608>)
C:\Teensy\Projects\HelloWorld/usb_dev.c:1067
    3d52:	34a8      	adds	r4, #168	; 0xa8
C:\Teensy\Projects\HelloWorld/usb_dev.c:1064
    3d54:	601e      	str	r6, [r3, #0]
C:\Teensy\Projects\HelloWorld/usb_dev.c:1065
    3d56:	6059      	str	r1, [r3, #4]
C:\Teensy\Projects\HelloWorld/usb_dev.c:1068
    3d58:	611a      	str	r2, [r3, #16]
C:\Teensy\Projects\HelloWorld/usb_dev.c:1069
    3d5a:	619a      	str	r2, [r3, #24]
C:\Teensy\Projects\HelloWorld/usb_dev.c:1066
    3d5c:	609e      	str	r6, [r3, #8]
C:\Teensy\Projects\HelloWorld/usb_dev.c:1067
    3d5e:	60dc      	str	r4, [r3, #12]
C:\Teensy\Projects\HelloWorld/usb_dev.c:1072
    3d60:	4b0b      	ldr	r3, [pc, #44]	; (3d90 <usb_isr+0x5e8>)
    3d62:	210d      	movs	r1, #13
    3d64:	7019      	strb	r1, [r3, #0]
C:\Teensy\Projects\HelloWorld/usb_dev.c:1075
    3d66:	4913      	ldr	r1, [pc, #76]	; (3db4 <usb_isr+0x60c>)
    3d68:	23ff      	movs	r3, #255	; 0xff
    3d6a:	700b      	strb	r3, [r1, #0]
C:\Teensy\Projects\HelloWorld/usb_dev.c:1076
    3d6c:	702b      	strb	r3, [r5, #0]
C:\Teensy\Projects\HelloWorld/usb_dev.c:1079
    3d6e:	740a      	strb	r2, [r1, #16]
C:\Teensy\Projects\HelloWorld/usb_dev.c:1082
    3d70:	4a11      	ldr	r2, [pc, #68]	; (3db8 <usb_isr+0x610>)
    3d72:	7013      	strb	r3, [r2, #0]
C:\Teensy\Projects\HelloWorld/usb_dev.c:1083
    3d74:	4b11      	ldr	r3, [pc, #68]	; (3dbc <usb_isr+0x614>)
    3d76:	229f      	movs	r2, #159	; 0x9f
    3d78:	701a      	strb	r2, [r3, #0]
C:\Teensy\Projects\HelloWorld/usb_dev.c:1091
    3d7a:	2301      	movs	r3, #1
    3d7c:	7003      	strb	r3, [r0, #0]
C:\Teensy\Projects\HelloWorld/usb_dev.c:1092
    3d7e:	e038      	b.n	3df2 <usb_isr+0x64a>
    3d80:	0000a0dc 	.word	0x0000a0dc
    3d84:	1fff0b7c 	.word	0x1fff0b7c
    3d88:	1fff10ec 	.word	0x1fff10ec
    3d8c:	1fff0f5e 	.word	0x1fff0f5e
    3d90:	400720c0 	.word	0x400720c0
    3d94:	40072094 	.word	0x40072094
    3d98:	1fff0e68 	.word	0x1fff0e68
    3d9c:	1fff10e4 	.word	0x1fff10e4
    3da0:	004000c8 	.word	0x004000c8
    3da4:	40072098 	.word	0x40072098
    3da8:	1fff10dc 	.word	0x1fff10dc
    3dac:	00400088 	.word	0x00400088
    3db0:	1fff0000 	.word	0x1fff0000
    3db4:	40072088 	.word	0x40072088
    3db8:	4007208c 	.word	0x4007208c
    3dbc:	40072084 	.word	0x40072084
C:\Teensy\Projects\HelloWorld/usb_dev.c:1096
    3dc0:	0621      	lsls	r1, r4, #24
    3dc2:	d504      	bpl.n	3dce <usb_isr+0x626>
C:\Teensy\Projects\HelloWorld/usb_dev.c:1098
    3dc4:	4b0c      	ldr	r3, [pc, #48]	; (3df8 <usb_isr+0x650>)
    3dc6:	220d      	movs	r2, #13
    3dc8:	701a      	strb	r2, [r3, #0]
C:\Teensy\Projects\HelloWorld/usb_dev.c:1099
    3dca:	2380      	movs	r3, #128	; 0x80
    3dcc:	702b      	strb	r3, [r5, #0]
C:\Teensy\Projects\HelloWorld/usb_dev.c:1101
    3dce:	07a2      	lsls	r2, r4, #30
    3dd0:	d505      	bpl.n	3dde <usb_isr+0x636>
C:\Teensy\Projects\HelloWorld/usb_dev.c:1102
    3dd2:	4b0a      	ldr	r3, [pc, #40]	; (3dfc <usb_isr+0x654>)
    3dd4:	781a      	ldrb	r2, [r3, #0]
    3dd6:	b2d2      	uxtb	r2, r2
C:\Teensy\Projects\HelloWorld/usb_dev.c:1103
    3dd8:	701a      	strb	r2, [r3, #0]
C:\Teensy\Projects\HelloWorld/usb_dev.c:1107
    3dda:	2302      	movs	r3, #2
    3ddc:	702b      	strb	r3, [r5, #0]
C:\Teensy\Projects\HelloWorld/usb_dev.c:1110
    3dde:	06e3      	lsls	r3, r4, #27
C:\Teensy\Projects\HelloWorld/usb_dev.c:1112
    3de0:	bf44      	itt	mi
    3de2:	2310      	movmi	r3, #16
    3de4:	702b      	strbmi	r3, [r5, #0]
C:\Teensy\Projects\HelloWorld/usb_dev.c:1114
    3de6:	b126      	cbz	r6, 3df2 <usb_isr+0x64a>
C:\Teensy\Projects\HelloWorld/usb_dev.c:1118
    3de8:	b003      	add	sp, #12
    3dea:	e8bd 4ff0 	ldmia.w	sp!, {r4, r5, r6, r7, r8, r9, sl, fp, lr}
C:\Teensy\Projects\HelloWorld/usb_dev.c:1116
    3dee:	f7fc bd75 	b.w	8dc <SendData>
C:\Teensy\Projects\HelloWorld/usb_dev.c:1118
    3df2:	b003      	add	sp, #12
    3df4:	e8bd 8ff0 	ldmia.w	sp!, {r4, r5, r6, r7, r8, r9, sl, fp, pc}
    3df8:	400720c0 	.word	0x400720c0
    3dfc:	40072088 	.word	0x40072088

00003e00 <usb_init>:
usb_init():
C:\Teensy\Projects\HelloWorld/usb_dev.c:1123
    3e00:	b508      	push	{r3, lr}
C:\Teensy\Projects\HelloWorld/usb_dev.c:1129
    3e02:	f7ff fb99 	bl	3538 <usb_init_serialnumber>
    3e06:	2200      	movs	r2, #0
C:\Teensy\Projects\HelloWorld/usb_dev.c:1132 (discriminator 2)
    3e08:	4b1b      	ldr	r3, [pc, #108]	; (3e78 <usb_init+0x78>)
    3e0a:	2100      	movs	r1, #0
    3e0c:	50d1      	str	r1, [r2, r3]
    3e0e:	1898      	adds	r0, r3, r2
    3e10:	3208      	adds	r2, #8
C:\Teensy\Projects\HelloWorld/usb_dev.c:1131 (discriminator 2)
    3e12:	2a88      	cmp	r2, #136	; 0x88
C:\Teensy\Projects\HelloWorld/usb_dev.c:1133 (discriminator 2)
    3e14:	6041      	str	r1, [r0, #4]
C:\Teensy\Projects\HelloWorld/usb_dev.c:1131 (discriminator 2)
    3e16:	d1f7      	bne.n	3e08 <usb_init+0x8>
C:\Teensy\Projects\HelloWorld/usb_dev.c:1141
    3e18:	4a18      	ldr	r2, [pc, #96]	; (3e7c <usb_init+0x7c>)
    3e1a:	6810      	ldr	r0, [r2, #0]
    3e1c:	f440 2080 	orr.w	r0, r0, #262144	; 0x40000
    3e20:	6010      	str	r0, [r2, #0]
C:\Teensy\Projects\HelloWorld/usb_dev.c:1143
    3e22:	4a17      	ldr	r2, [pc, #92]	; (3e80 <usb_init+0x80>)
    3e24:	6810      	ldr	r0, [r2, #0]
    3e26:	f040 7040 	orr.w	r0, r0, #50331648	; 0x3000000
    3e2a:	6010      	str	r0, [r2, #0]
C:\Teensy\Projects\HelloWorld/usb_dev.c:1156
    3e2c:	f502 22c9 	add.w	r2, r2, #411648	; 0x64800
    3e30:	329c      	adds	r2, #156	; 0x9c
    3e32:	f3c3 2007 	ubfx	r0, r3, #8, #8
    3e36:	7010      	strb	r0, [r2, #0]
C:\Teensy\Projects\HelloWorld/usb_dev.c:1157
    3e38:	f3c3 4007 	ubfx	r0, r3, #16, #8
C:\Teensy\Projects\HelloWorld/usb_dev.c:1158
    3e3c:	0e1b      	lsrs	r3, r3, #24
C:\Teensy\Projects\HelloWorld/usb_dev.c:1157
    3e3e:	7510      	strb	r0, [r2, #20]
C:\Teensy\Projects\HelloWorld/usb_dev.c:1158
    3e40:	7613      	strb	r3, [r2, #24]
C:\Teensy\Projects\HelloWorld/usb_dev.c:1161
    3e42:	23ff      	movs	r3, #255	; 0xff
    3e44:	f802 3c1c 	strb.w	r3, [r2, #-28]
C:\Teensy\Projects\HelloWorld/usb_dev.c:1162
    3e48:	f802 3c14 	strb.w	r3, [r2, #-20]
C:\Teensy\Projects\HelloWorld/usb_dev.c:1163
    3e4c:	f802 3c8c 	strb.w	r3, [r2, #-140]
C:\Teensy\Projects\HelloWorld/usb_dev.c:1168
    3e50:	2301      	movs	r3, #1
    3e52:	f802 3c08 	strb.w	r3, [r2, #-8]
C:\Teensy\Projects\HelloWorld/usb_dev.c:1169
    3e56:	f882 1064 	strb.w	r1, [r2, #100]	; 0x64
C:\Teensy\Projects\HelloWorld/usb_dev.c:1172
    3e5a:	f802 3c18 	strb.w	r3, [r2, #-24]
C:\Teensy\Projects\HelloWorld/usb_dev.c:1175
    3e5e:	4b09      	ldr	r3, [pc, #36]	; (3e84 <usb_init+0x84>)
    3e60:	2270      	movs	r2, #112	; 0x70
C:\Teensy\Projects\HelloWorld/usb_dev.c:1176
    3e62:	f46f 714c 	mvn.w	r1, #816	; 0x330
C:\Teensy\Projects\HelloWorld/usb_dev.c:1175
    3e66:	701a      	strb	r2, [r3, #0]
C:\Teensy\Projects\HelloWorld/usb_dev.c:1176
    3e68:	440b      	add	r3, r1
    3e6a:	f44f 1200 	mov.w	r2, #2097152	; 0x200000
    3e6e:	601a      	str	r2, [r3, #0]
C:\Teensy\Projects\HelloWorld/usb_dev.c:1179
    3e70:	4b05      	ldr	r3, [pc, #20]	; (3e88 <usb_init+0x88>)
    3e72:	2210      	movs	r2, #16
    3e74:	701a      	strb	r2, [r3, #0]
    3e76:	bd08      	pop	{r3, pc}
    3e78:	1fff0000 	.word	0x1fff0000
    3e7c:	40048034 	.word	0x40048034
    3e80:	4000d800 	.word	0x4000d800
    3e84:	e000e435 	.word	0xe000e435
    3e88:	40072108 	.word	0x40072108

00003e8c <usb_malloc>:
usb_malloc():
C:\Teensy\Projects\HelloWorld/usb_mem.c:53
    3e8c:	b672      	cpsid	i
C:\Teensy\Projects\HelloWorld/usb_mem.c:54
    3e8e:	4a0c      	ldr	r2, [pc, #48]	; (3ec0 <usb_malloc+0x34>)
    3e90:	6811      	ldr	r1, [r2, #0]
C:\Teensy\Projects\HelloWorld/usb_mem.c:55
    3e92:	fab1 f381 	clz	r3, r1
C:\Teensy\Projects\HelloWorld/usb_mem.c:56
    3e96:	2b0b      	cmp	r3, #11
    3e98:	d902      	bls.n	3ea0 <usb_malloc+0x14>
C:\Teensy\Projects\HelloWorld/usb_mem.c:57
    3e9a:	b662      	cpsie	i
C:\Teensy\Projects\HelloWorld/usb_mem.c:58
    3e9c:	2000      	movs	r0, #0
    3e9e:	4770      	bx	lr
C:\Teensy\Projects\HelloWorld/usb_mem.c:64
    3ea0:	f04f 4000 	mov.w	r0, #2147483648	; 0x80000000
    3ea4:	40d8      	lsrs	r0, r3
    3ea6:	ea21 0100 	bic.w	r1, r1, r0
    3eaa:	6011      	str	r1, [r2, #0]
C:\Teensy\Projects\HelloWorld/usb_mem.c:65
    3eac:	b662      	cpsie	i
C:\Teensy\Projects\HelloWorld/usb_mem.c:66
    3eae:	4905      	ldr	r1, [pc, #20]	; (3ec4 <usb_malloc+0x38>)
    3eb0:	2248      	movs	r2, #72	; 0x48
    3eb2:	4353      	muls	r3, r2
    3eb4:	18c8      	adds	r0, r1, r3
C:\Teensy\Projects\HelloWorld/usb_mem.c:70
    3eb6:	2200      	movs	r2, #0
    3eb8:	50ca      	str	r2, [r1, r3]
C:\Teensy\Projects\HelloWorld/usb_mem.c:71
    3eba:	6042      	str	r2, [r0, #4]
C:\Teensy\Projects\HelloWorld/usb_mem.c:73
    3ebc:	4770      	bx	lr
    3ebe:	bf00      	nop
    3ec0:	1fff0ab0 	.word	0x1fff0ab0
    3ec4:	1fff0400 	.word	0x1fff0400

00003ec8 <usb_free>:
usb_free():
C:\Teensy\Projects\HelloWorld/usb_mem.c:84
    3ec8:	4b0c      	ldr	r3, [pc, #48]	; (3efc <usb_free+0x34>)
    3eca:	2248      	movs	r2, #72	; 0x48
    3ecc:	1ac3      	subs	r3, r0, r3
    3ece:	fbb3 f3f2 	udiv	r3, r3, r2
C:\Teensy\Projects\HelloWorld/usb_mem.c:85
    3ed2:	2b0b      	cmp	r3, #11
    3ed4:	d811      	bhi.n	3efa <usb_free+0x32>
C:\Teensy\Projects\HelloWorld/usb_mem.c:91
    3ed6:	4a0a      	ldr	r2, [pc, #40]	; (3f00 <usb_free+0x38>)
    3ed8:	7812      	ldrb	r2, [r2, #0]
    3eda:	b122      	cbz	r2, 3ee6 <usb_free+0x1e>
C:\Teensy\Projects\HelloWorld/usb_mem.c:91 (discriminator 1)
    3edc:	4a09      	ldr	r2, [pc, #36]	; (3f04 <usb_free+0x3c>)
    3ede:	7812      	ldrb	r2, [r2, #0]
    3ee0:	b10a      	cbz	r2, 3ee6 <usb_free+0x1e>
C:\Teensy\Projects\HelloWorld/usb_mem.c:95
    3ee2:	f7ff bbc1 	b.w	3668 <usb_rx_memory>
C:\Teensy\Projects\HelloWorld/usb_mem.c:100
    3ee6:	b672      	cpsid	i
C:\Teensy\Projects\HelloWorld/usb_mem.c:101
    3ee8:	4a07      	ldr	r2, [pc, #28]	; (3f08 <usb_free+0x40>)
C:\Teensy\Projects\HelloWorld/usb_mem.c:99
    3eea:	f04f 4100 	mov.w	r1, #2147483648	; 0x80000000
    3eee:	fa21 f303 	lsr.w	r3, r1, r3
C:\Teensy\Projects\HelloWorld/usb_mem.c:101
    3ef2:	6811      	ldr	r1, [r2, #0]
    3ef4:	4319      	orrs	r1, r3
    3ef6:	6011      	str	r1, [r2, #0]
C:\Teensy\Projects\HelloWorld/usb_mem.c:102
    3ef8:	b662      	cpsie	i
    3efa:	4770      	bx	lr
    3efc:	1fff0400 	.word	0x1fff0400
    3f00:	1fff0e8c 	.word	0x1fff0e8c
    3f04:	1fff0eac 	.word	0x1fff0eac
    3f08:	1fff0ab0 	.word	0x1fff0ab0

00003f0c <usb_serial_getchar>:
usb_serial_getchar():
C:\Teensy\Projects\HelloWorld/usb_serial.c:54
    3f0c:	b510      	push	{r4, lr}
C:\Teensy\Projects\HelloWorld/usb_serial.c:58
    3f0e:	4c10      	ldr	r4, [pc, #64]	; (3f50 <usb_serial_getchar+0x44>)
    3f10:	6823      	ldr	r3, [r4, #0]
    3f12:	b16b      	cbz	r3, 3f30 <usb_serial_getchar+0x24>
C:\Teensy\Projects\HelloWorld/usb_serial.c:63
    3f14:	6820      	ldr	r0, [r4, #0]
    3f16:	8842      	ldrh	r2, [r0, #2]
C:\Teensy\Projects\HelloWorld/usb_serial.c:64
    3f18:	1c53      	adds	r3, r2, #1
    3f1a:	4402      	add	r2, r0
    3f1c:	7a14      	ldrb	r4, [r2, #8]
C:\Teensy\Projects\HelloWorld/usb_serial.c:65
    3f1e:	8802      	ldrh	r2, [r0, #0]
    3f20:	4293      	cmp	r3, r2
    3f22:	d312      	bcc.n	3f4a <usb_serial_getchar+0x3e>
C:\Teensy\Projects\HelloWorld/usb_serial.c:66
    3f24:	f7ff ffd0 	bl	3ec8 <usb_free>
C:\Teensy\Projects\HelloWorld/usb_serial.c:67
    3f28:	4b09      	ldr	r3, [pc, #36]	; (3f50 <usb_serial_getchar+0x44>)
    3f2a:	2200      	movs	r2, #0
    3f2c:	601a      	str	r2, [r3, #0]
    3f2e:	e00d      	b.n	3f4c <usb_serial_getchar+0x40>
C:\Teensy\Projects\HelloWorld/usb_serial.c:59
    3f30:	4b08      	ldr	r3, [pc, #32]	; (3f54 <usb_serial_getchar+0x48>)
    3f32:	781b      	ldrb	r3, [r3, #0]
    3f34:	b913      	cbnz	r3, 3f3c <usb_serial_getchar+0x30>
    3f36:	f04f 30ff 	mov.w	r0, #4294967295
    3f3a:	bd10      	pop	{r4, pc}
C:\Teensy\Projects\HelloWorld/usb_serial.c:60
    3f3c:	2003      	movs	r0, #3
    3f3e:	f7ff fb4f 	bl	35e0 <usb_rx>
    3f42:	6020      	str	r0, [r4, #0]
C:\Teensy\Projects\HelloWorld/usb_serial.c:61
    3f44:	2800      	cmp	r0, #0
    3f46:	d1e5      	bne.n	3f14 <usb_serial_getchar+0x8>
    3f48:	e7f5      	b.n	3f36 <usb_serial_getchar+0x2a>
C:\Teensy\Projects\HelloWorld/usb_serial.c:69
    3f4a:	8043      	strh	r3, [r0, #2]
C:\Teensy\Projects\HelloWorld/usb_serial.c:71
    3f4c:	4620      	mov	r0, r4
C:\Teensy\Projects\HelloWorld/usb_serial.c:72
    3f4e:	bd10      	pop	{r4, pc}
    3f50:	1fff0f50 	.word	0x1fff0f50
    3f54:	1fff0eac 	.word	0x1fff0eac

00003f58 <usb_serial_peekchar>:
usb_serial_peekchar():
C:\Teensy\Projects\HelloWorld/usb_serial.c:76
    3f58:	b510      	push	{r4, lr}
C:\Teensy\Projects\HelloWorld/usb_serial.c:77
    3f5a:	4c0b      	ldr	r4, [pc, #44]	; (3f88 <usb_serial_peekchar+0x30>)
    3f5c:	6823      	ldr	r3, [r4, #0]
    3f5e:	b113      	cbz	r3, 3f66 <usb_serial_peekchar+0xe>
C:\Teensy\Projects\HelloWorld/usb_serial.c:82
    3f60:	6823      	ldr	r3, [r4, #0]
    3f62:	b96b      	cbnz	r3, 3f80 <usb_serial_peekchar+0x28>
    3f64:	e002      	b.n	3f6c <usb_serial_peekchar+0x14>
C:\Teensy\Projects\HelloWorld/usb_serial.c:78
    3f66:	4b09      	ldr	r3, [pc, #36]	; (3f8c <usb_serial_peekchar+0x34>)
    3f68:	781b      	ldrb	r3, [r3, #0]
    3f6a:	b913      	cbnz	r3, 3f72 <usb_serial_peekchar+0x1a>
    3f6c:	f04f 30ff 	mov.w	r0, #4294967295
    3f70:	bd10      	pop	{r4, pc}
C:\Teensy\Projects\HelloWorld/usb_serial.c:79
    3f72:	2003      	movs	r0, #3
    3f74:	f7ff fb34 	bl	35e0 <usb_rx>
    3f78:	6020      	str	r0, [r4, #0]
C:\Teensy\Projects\HelloWorld/usb_serial.c:80
    3f7a:	2800      	cmp	r0, #0
    3f7c:	d1f0      	bne.n	3f60 <usb_serial_peekchar+0x8>
    3f7e:	e7f5      	b.n	3f6c <usb_serial_peekchar+0x14>
C:\Teensy\Projects\HelloWorld/usb_serial.c:83
    3f80:	885a      	ldrh	r2, [r3, #2]
    3f82:	4413      	add	r3, r2
    3f84:	7a18      	ldrb	r0, [r3, #8]
C:\Teensy\Projects\HelloWorld/usb_serial.c:84
    3f86:	bd10      	pop	{r4, pc}
    3f88:	1fff0f50 	.word	0x1fff0f50
    3f8c:	1fff0eac 	.word	0x1fff0eac

00003f90 <usb_serial_available>:
usb_rx_byte_count():
C:\Teensy\Projects\HelloWorld/usb_dev.h:67
    3f90:	4b04      	ldr	r3, [pc, #16]	; (3fa4 <usb_serial_available+0x14>)
usb_serial_available():
C:\Teensy\Projects\HelloWorld/usb_serial.c:90
    3f92:	8898      	ldrh	r0, [r3, #4]
C:\Teensy\Projects\HelloWorld/usb_serial.c:91
    3f94:	4b04      	ldr	r3, [pc, #16]	; (3fa8 <usb_serial_available+0x18>)
    3f96:	681b      	ldr	r3, [r3, #0]
    3f98:	b11b      	cbz	r3, 3fa2 <usb_serial_available+0x12>
C:\Teensy\Projects\HelloWorld/usb_serial.c:91 (discriminator 1)
    3f9a:	881a      	ldrh	r2, [r3, #0]
    3f9c:	885b      	ldrh	r3, [r3, #2]
    3f9e:	1ad3      	subs	r3, r2, r3
    3fa0:	4418      	add	r0, r3
C:\Teensy\Projects\HelloWorld/usb_serial.c:93
    3fa2:	4770      	bx	lr
    3fa4:	1fff10dc 	.word	0x1fff10dc
    3fa8:	1fff0f50 	.word	0x1fff0f50

00003fac <usb_serial_read>:
usb_serial_read():
C:\Teensy\Projects\HelloWorld/usb_serial.c:97
    3fac:	e92d 41f0 	stmdb	sp!, {r4, r5, r6, r7, r8, lr}
    3fb0:	4680      	mov	r8, r0
    3fb2:	460e      	mov	r6, r1
C:\Teensy\Projects\HelloWorld/usb_serial.c:99
    3fb4:	2700      	movs	r7, #0
C:\Teensy\Projects\HelloWorld/usb_serial.c:101 (discriminator 1)
    3fb6:	2e00      	cmp	r6, #0
    3fb8:	d02e      	beq.n	4018 <usb_serial_read+0x6c>
C:\Teensy\Projects\HelloWorld/usb_serial.c:102
    3fba:	4b19      	ldr	r3, [pc, #100]	; (4020 <usb_serial_read+0x74>)
    3fbc:	781b      	ldrb	r3, [r3, #0]
    3fbe:	b35b      	cbz	r3, 4018 <usb_serial_read+0x6c>
C:\Teensy\Projects\HelloWorld/usb_serial.c:103
    3fc0:	4c18      	ldr	r4, [pc, #96]	; (4024 <usb_serial_read+0x78>)
    3fc2:	6823      	ldr	r3, [r4, #0]
    3fc4:	4625      	mov	r5, r4
    3fc6:	b94b      	cbnz	r3, 3fdc <usb_serial_read+0x30>
C:\Teensy\Projects\HelloWorld/usb_serial.c:105
    3fc8:	2003      	movs	r0, #3
    3fca:	f7ff fb09 	bl	35e0 <usb_rx>
    3fce:	6028      	str	r0, [r5, #0]
C:\Teensy\Projects\HelloWorld/usb_serial.c:106
    3fd0:	b310      	cbz	r0, 4018 <usb_serial_read+0x6c>
C:\Teensy\Projects\HelloWorld/usb_serial.c:107
    3fd2:	8803      	ldrh	r3, [r0, #0]
    3fd4:	b913      	cbnz	r3, 3fdc <usb_serial_read+0x30>
C:\Teensy\Projects\HelloWorld/usb_serial.c:108
    3fd6:	f7ff ff77 	bl	3ec8 <usb_free>
C:\Teensy\Projects\HelloWorld/usb_serial.c:109
    3fda:	e7f5      	b.n	3fc8 <usb_serial_read+0x1c>
C:\Teensy\Projects\HelloWorld/usb_serial.c:112
    3fdc:	6824      	ldr	r4, [r4, #0]
    3fde:	8861      	ldrh	r1, [r4, #2]
    3fe0:	8825      	ldrh	r5, [r4, #0]
    3fe2:	1a6d      	subs	r5, r5, r1
    3fe4:	42ae      	cmp	r6, r5
    3fe6:	bf38      	it	cc
    3fe8:	4635      	movcc	r5, r6
C:\Teensy\Projects\HelloWorld/usb_serial.c:114
    3fea:	3108      	adds	r1, #8
    3fec:	4640      	mov	r0, r8
    3fee:	462a      	mov	r2, r5
    3ff0:	4421      	add	r1, r4
    3ff2:	f002 fb85 	bl	6700 <memcpy>
C:\Teensy\Projects\HelloWorld/usb_serial.c:118
    3ff6:	8863      	ldrh	r3, [r4, #2]
C:\Teensy\Projects\HelloWorld/usb_serial.c:115
    3ff8:	44a8      	add	r8, r5
C:\Teensy\Projects\HelloWorld/usb_serial.c:116
    3ffa:	442f      	add	r7, r5
C:\Teensy\Projects\HelloWorld/usb_serial.c:117
    3ffc:	1b76      	subs	r6, r6, r5
C:\Teensy\Projects\HelloWorld/usb_serial.c:118
    3ffe:	441d      	add	r5, r3
C:\Teensy\Projects\HelloWorld/usb_serial.c:119
    4000:	8823      	ldrh	r3, [r4, #0]
C:\Teensy\Projects\HelloWorld/usb_serial.c:118
    4002:	b2ad      	uxth	r5, r5
C:\Teensy\Projects\HelloWorld/usb_serial.c:119
    4004:	42ab      	cmp	r3, r5
C:\Teensy\Projects\HelloWorld/usb_serial.c:118
    4006:	8065      	strh	r5, [r4, #2]
C:\Teensy\Projects\HelloWorld/usb_serial.c:119
    4008:	d8d5      	bhi.n	3fb6 <usb_serial_read+0xa>
C:\Teensy\Projects\HelloWorld/usb_serial.c:120
    400a:	4620      	mov	r0, r4
    400c:	f7ff ff5c 	bl	3ec8 <usb_free>
C:\Teensy\Projects\HelloWorld/usb_serial.c:121
    4010:	4b04      	ldr	r3, [pc, #16]	; (4024 <usb_serial_read+0x78>)
    4012:	2200      	movs	r2, #0
    4014:	601a      	str	r2, [r3, #0]
    4016:	e7ce      	b.n	3fb6 <usb_serial_read+0xa>
C:\Teensy\Projects\HelloWorld/usb_serial.c:125
    4018:	4638      	mov	r0, r7
    401a:	e8bd 81f0 	ldmia.w	sp!, {r4, r5, r6, r7, r8, pc}
    401e:	bf00      	nop
    4020:	1fff0eac 	.word	0x1fff0eac
    4024:	1fff0f50 	.word	0x1fff0f50

00004028 <usb_serial_flush_input>:
usb_serial_flush_input():
C:\Teensy\Projects\HelloWorld/usb_serial.c:129
    4028:	b510      	push	{r4, lr}
C:\Teensy\Projects\HelloWorld/usb_serial.c:132
    402a:	4b09      	ldr	r3, [pc, #36]	; (4050 <usb_serial_flush_input+0x28>)
    402c:	781b      	ldrb	r3, [r3, #0]
    402e:	b16b      	cbz	r3, 404c <usb_serial_flush_input+0x24>
C:\Teensy\Projects\HelloWorld/usb_serial.c:133
    4030:	4c08      	ldr	r4, [pc, #32]	; (4054 <usb_serial_flush_input+0x2c>)
    4032:	6820      	ldr	r0, [r4, #0]
    4034:	b118      	cbz	r0, 403e <usb_serial_flush_input+0x16>
C:\Teensy\Projects\HelloWorld/usb_serial.c:134
    4036:	f7ff ff47 	bl	3ec8 <usb_free>
C:\Teensy\Projects\HelloWorld/usb_serial.c:135
    403a:	2300      	movs	r3, #0
    403c:	6023      	str	r3, [r4, #0]
C:\Teensy\Projects\HelloWorld/usb_serial.c:138
    403e:	2003      	movs	r0, #3
    4040:	f7ff face 	bl	35e0 <usb_rx>
C:\Teensy\Projects\HelloWorld/usb_serial.c:139
    4044:	b110      	cbz	r0, 404c <usb_serial_flush_input+0x24>
C:\Teensy\Projects\HelloWorld/usb_serial.c:140
    4046:	f7ff ff3f 	bl	3ec8 <usb_free>
C:\Teensy\Projects\HelloWorld/usb_serial.c:141
    404a:	e7f8      	b.n	403e <usb_serial_flush_input+0x16>
    404c:	bd10      	pop	{r4, pc}
    404e:	bf00      	nop
    4050:	1fff0eac 	.word	0x1fff0eac
    4054:	1fff0f50 	.word	0x1fff0f50

00004058 <usb_serial_write>:
usb_serial_write():
C:\Teensy\Projects\HelloWorld/usb_serial.c:191
    4058:	e92d 41f0 	stmdb	sp!, {r4, r5, r6, r7, r8, lr}
C:\Teensy\Projects\HelloWorld/usb_serial.c:198
    405c:	4c2a      	ldr	r4, [pc, #168]	; (4108 <usb_serial_write+0xb0>)
    405e:	2301      	movs	r3, #1
C:\Teensy\Projects\HelloWorld/usb_serial.c:191
    4060:	4606      	mov	r6, r0
    4062:	4688      	mov	r8, r1
C:\Teensy\Projects\HelloWorld/usb_serial.c:198
    4064:	7123      	strb	r3, [r4, #4]
C:\Teensy\Projects\HelloWorld/usb_serial.c:199
    4066:	460d      	mov	r5, r1
C:\Teensy\Projects\HelloWorld/usb_serial.c:199 (discriminator 1)
    4068:	2d00      	cmp	r5, #0
    406a:	d048      	beq.n	40fe <usb_serial_write+0xa6>
C:\Teensy\Projects\HelloWorld/usb_serial.c:200
    406c:	68a3      	ldr	r3, [r4, #8]
    406e:	bb13      	cbnz	r3, 40b6 <usb_serial_write+0x5e>
    4070:	f24d 07e9 	movw	r7, #53481	; 0xd0e9
C:\Teensy\Projects\HelloWorld/usb_serial.c:203
    4074:	4b25      	ldr	r3, [pc, #148]	; (410c <usb_serial_write+0xb4>)
    4076:	781b      	ldrb	r3, [r3, #0]
    4078:	f003 02ff 	and.w	r2, r3, #255	; 0xff
    407c:	b90b      	cbnz	r3, 4082 <usb_serial_write+0x2a>
C:\Teensy\Projects\HelloWorld/usb_serial.c:204
    407e:	7122      	strb	r2, [r4, #4]
    4080:	e012      	b.n	40a8 <usb_serial_write+0x50>
C:\Teensy\Projects\HelloWorld/usb_serial.c:207
    4082:	2004      	movs	r0, #4
    4084:	f7ff fadc 	bl	3640 <usb_tx_packet_count>
    4088:	2807      	cmp	r0, #7
    408a:	d807      	bhi.n	409c <usb_serial_write+0x44>
C:\Teensy\Projects\HelloWorld/usb_serial.c:208
    408c:	2301      	movs	r3, #1
    408e:	7123      	strb	r3, [r4, #4]
C:\Teensy\Projects\HelloWorld/usb_serial.c:209
    4090:	f7ff fefc 	bl	3e8c <usb_malloc>
    4094:	60a0      	str	r0, [r4, #8]
C:\Teensy\Projects\HelloWorld/usb_serial.c:210
    4096:	b970      	cbnz	r0, 40b6 <usb_serial_write+0x5e>
C:\Teensy\Projects\HelloWorld/usb_serial.c:211
    4098:	4b1b      	ldr	r3, [pc, #108]	; (4108 <usb_serial_write+0xb0>)
    409a:	7118      	strb	r0, [r3, #4]
C:\Teensy\Projects\HelloWorld/usb_serial.c:213
    409c:	3f01      	subs	r7, #1
    409e:	d001      	beq.n	40a4 <usb_serial_write+0x4c>
C:\Teensy\Projects\HelloWorld/usb_serial.c:213 (discriminator 1)
    40a0:	7b23      	ldrb	r3, [r4, #12]
    40a2:	b12b      	cbz	r3, 40b0 <usb_serial_write+0x58>
C:\Teensy\Projects\HelloWorld/usb_serial.c:214
    40a4:	2301      	movs	r3, #1
    40a6:	7323      	strb	r3, [r4, #12]
C:\Teensy\Projects\HelloWorld/usb_serial.c:215
    40a8:	f04f 30ff 	mov.w	r0, #4294967295
    40ac:	e8bd 81f0 	ldmia.w	sp!, {r4, r5, r6, r7, r8, pc}
C:\Teensy\Projects\HelloWorld/usb_serial.c:217
    40b0:	f001 fa82 	bl	55b8 <yield>
C:\Teensy\Projects\HelloWorld/usb_serial.c:218
    40b4:	e7de      	b.n	4074 <usb_serial_write+0x1c>
C:\Teensy\Projects\HelloWorld/usb_serial.c:221
    40b6:	68a3      	ldr	r3, [r4, #8]
    40b8:	8859      	ldrh	r1, [r3, #2]
    40ba:	f1c1 0740 	rsb	r7, r1, #64	; 0x40
    40be:	42bd      	cmp	r5, r7
    40c0:	bf38      	it	cc
    40c2:	462f      	movcc	r7, r5
C:\Teensy\Projects\HelloWorld/usb_serial.c:223
    40c4:	f101 0008 	add.w	r0, r1, #8
C:\Teensy\Projects\HelloWorld/usb_serial.c:220
    40c8:	2200      	movs	r2, #0
C:\Teensy\Projects\HelloWorld/usb_serial.c:224
    40ca:	4439      	add	r1, r7
C:\Teensy\Projects\HelloWorld/usb_serial.c:220
    40cc:	7322      	strb	r2, [r4, #12]
C:\Teensy\Projects\HelloWorld/usb_serial.c:223
    40ce:	4418      	add	r0, r3
C:\Teensy\Projects\HelloWorld/usb_serial.c:224
    40d0:	8059      	strh	r1, [r3, #2]
C:\Teensy\Projects\HelloWorld/usb_serial.c:225
    40d2:	1bed      	subs	r5, r5, r7
C:\Teensy\Projects\HelloWorld/usb_serial.c:226 (discriminator 1)
    40d4:	42ba      	cmp	r2, r7
    40d6:	d003      	beq.n	40e0 <usb_serial_write+0x88>
C:\Teensy\Projects\HelloWorld/usb_serial.c:226 (discriminator 2)
    40d8:	5cb1      	ldrb	r1, [r6, r2]
    40da:	5481      	strb	r1, [r0, r2]
    40dc:	3201      	adds	r2, #1
    40de:	e7f9      	b.n	40d4 <usb_serial_write+0x7c>
    40e0:	4416      	add	r6, r2
C:\Teensy\Projects\HelloWorld/usb_serial.c:227
    40e2:	885a      	ldrh	r2, [r3, #2]
    40e4:	2a3f      	cmp	r2, #63	; 0x3f
    40e6:	d907      	bls.n	40f8 <usb_serial_write+0xa0>
C:\Teensy\Projects\HelloWorld/usb_serial.c:228
    40e8:	2240      	movs	r2, #64	; 0x40
    40ea:	801a      	strh	r2, [r3, #0]
C:\Teensy\Projects\HelloWorld/usb_serial.c:229
    40ec:	4619      	mov	r1, r3
    40ee:	2004      	movs	r0, #4
    40f0:	f7ff faf8 	bl	36e4 <usb_tx>
C:\Teensy\Projects\HelloWorld/usb_serial.c:230
    40f4:	2300      	movs	r3, #0
    40f6:	60a3      	str	r3, [r4, #8]
C:\Teensy\Projects\HelloWorld/usb_serial.c:232
    40f8:	2305      	movs	r3, #5
    40fa:	7363      	strb	r3, [r4, #13]
    40fc:	e7b4      	b.n	4068 <usb_serial_write+0x10>
C:\Teensy\Projects\HelloWorld/usb_serial.c:234
    40fe:	7125      	strb	r5, [r4, #4]
C:\Teensy\Projects\HelloWorld/usb_serial.c:235
    4100:	4640      	mov	r0, r8
C:\Teensy\Projects\HelloWorld/usb_serial.c:236
    4102:	e8bd 81f0 	ldmia.w	sp!, {r4, r5, r6, r7, r8, pc}
    4106:	bf00      	nop
    4108:	1fff0f50 	.word	0x1fff0f50
    410c:	1fff0eac 	.word	0x1fff0eac

00004110 <usb_serial_putchar>:
usb_serial_putchar():
C:\Teensy\Projects\HelloWorld/usb_serial.c:185
    4110:	b507      	push	{r0, r1, r2, lr}
    4112:	ab02      	add	r3, sp, #8
C:\Teensy\Projects\HelloWorld/usb_serial.c:186
    4114:	2101      	movs	r1, #1
C:\Teensy\Projects\HelloWorld/usb_serial.c:185
    4116:	f803 0d01 	strb.w	r0, [r3, #-1]!
C:\Teensy\Projects\HelloWorld/usb_serial.c:186
    411a:	4618      	mov	r0, r3
    411c:	f7ff ff9c 	bl	4058 <usb_serial_write>
C:\Teensy\Projects\HelloWorld/usb_serial.c:187
    4120:	b003      	add	sp, #12
    4122:	f85d fb04 	ldr.w	pc, [sp], #4

00004126 <usb_serial_write_buffer_free>:
usb_serial_write_buffer_free():
C:\Teensy\Projects\HelloWorld/usb_serial.c:239
    4126:	b510      	push	{r4, lr}
C:\Teensy\Projects\HelloWorld/usb_serial.c:242
    4128:	4c0d      	ldr	r4, [pc, #52]	; (4160 <usb_serial_write_buffer_free+0x3a>)
    412a:	2301      	movs	r3, #1
    412c:	7123      	strb	r3, [r4, #4]
C:\Teensy\Projects\HelloWorld/usb_serial.c:243
    412e:	68a3      	ldr	r3, [r4, #8]
    4130:	b97b      	cbnz	r3, 4152 <usb_serial_write_buffer_free+0x2c>
C:\Teensy\Projects\HelloWorld/usb_serial.c:244
    4132:	4b0c      	ldr	r3, [pc, #48]	; (4164 <usb_serial_write_buffer_free+0x3e>)
    4134:	781b      	ldrb	r3, [r3, #0]
    4136:	b913      	cbnz	r3, 413e <usb_serial_write_buffer_free+0x18>
C:\Teensy\Projects\HelloWorld/usb_serial.c:247
    4138:	2000      	movs	r0, #0
    413a:	7120      	strb	r0, [r4, #4]
C:\Teensy\Projects\HelloWorld/usb_serial.c:248
    413c:	bd10      	pop	{r4, pc}
C:\Teensy\Projects\HelloWorld/usb_serial.c:245 (discriminator 1)
    413e:	2004      	movs	r0, #4
    4140:	f7ff fa7e 	bl	3640 <usb_tx_packet_count>
C:\Teensy\Projects\HelloWorld/usb_serial.c:244 (discriminator 1)
    4144:	2807      	cmp	r0, #7
    4146:	d8f7      	bhi.n	4138 <usb_serial_write_buffer_free+0x12>
C:\Teensy\Projects\HelloWorld/usb_serial.c:246
    4148:	f7ff fea0 	bl	3e8c <usb_malloc>
    414c:	60a0      	str	r0, [r4, #8]
C:\Teensy\Projects\HelloWorld/usb_serial.c:245
    414e:	2800      	cmp	r0, #0
    4150:	d0f2      	beq.n	4138 <usb_serial_write_buffer_free+0x12>
C:\Teensy\Projects\HelloWorld/usb_serial.c:251
    4152:	68a3      	ldr	r3, [r4, #8]
    4154:	8858      	ldrh	r0, [r3, #2]
C:\Teensy\Projects\HelloWorld/usb_serial.c:259
    4156:	2300      	movs	r3, #0
    4158:	7123      	strb	r3, [r4, #4]
C:\Teensy\Projects\HelloWorld/usb_serial.c:251
    415a:	f1c0 0040 	rsb	r0, r0, #64	; 0x40
C:\Teensy\Projects\HelloWorld/usb_serial.c:261
    415e:	bd10      	pop	{r4, pc}
    4160:	1fff0f50 	.word	0x1fff0f50
    4164:	1fff0eac 	.word	0x1fff0eac

00004168 <usb_serial_flush_output>:
usb_serial_flush_output():
C:\Teensy\Projects\HelloWorld/usb_serial.c:264
    4168:	b570      	push	{r4, r5, r6, lr}
C:\Teensy\Projects\HelloWorld/usb_serial.c:265
    416a:	4b0f      	ldr	r3, [pc, #60]	; (41a8 <usb_serial_flush_output+0x40>)
    416c:	781b      	ldrb	r3, [r3, #0]
    416e:	b1d3      	cbz	r3, 41a6 <usb_serial_flush_output+0x3e>
C:\Teensy\Projects\HelloWorld/usb_serial.c:266
    4170:	4c0e      	ldr	r4, [pc, #56]	; (41ac <usb_serial_flush_output+0x44>)
C:\Teensy\Projects\HelloWorld/usb_serial.c:267
    4172:	68a5      	ldr	r5, [r4, #8]
C:\Teensy\Projects\HelloWorld/usb_serial.c:266
    4174:	2601      	movs	r6, #1
    4176:	7126      	strb	r6, [r4, #4]
C:\Teensy\Projects\HelloWorld/usb_serial.c:267
    4178:	b14d      	cbz	r5, 418e <usb_serial_flush_output+0x26>
C:\Teensy\Projects\HelloWorld/usb_serial.c:268
    417a:	2600      	movs	r6, #0
C:\Teensy\Projects\HelloWorld/usb_serial.c:269
    417c:	886b      	ldrh	r3, [r5, #2]
C:\Teensy\Projects\HelloWorld/usb_serial.c:268
    417e:	7366      	strb	r6, [r4, #13]
C:\Teensy\Projects\HelloWorld/usb_serial.c:270
    4180:	2004      	movs	r0, #4
C:\Teensy\Projects\HelloWorld/usb_serial.c:269
    4182:	802b      	strh	r3, [r5, #0]
C:\Teensy\Projects\HelloWorld/usb_serial.c:270
    4184:	4629      	mov	r1, r5
    4186:	f7ff faad 	bl	36e4 <usb_tx>
C:\Teensy\Projects\HelloWorld/usb_serial.c:271
    418a:	60a6      	str	r6, [r4, #8]
    418c:	e009      	b.n	41a2 <usb_serial_flush_output+0x3a>
C:\Teensy\Projects\HelloWorld/usb_serial.c:273
    418e:	f7ff fe7d 	bl	3e8c <usb_malloc>
C:\Teensy\Projects\HelloWorld/usb_serial.c:274
    4192:	4601      	mov	r1, r0
    4194:	b120      	cbz	r0, 41a0 <usb_serial_flush_output+0x38>
C:\Teensy\Projects\HelloWorld/usb_serial.c:276
    4196:	2004      	movs	r0, #4
C:\Teensy\Projects\HelloWorld/usb_serial.c:275
    4198:	7365      	strb	r5, [r4, #13]
C:\Teensy\Projects\HelloWorld/usb_serial.c:276
    419a:	f7ff faa3 	bl	36e4 <usb_tx>
    419e:	e000      	b.n	41a2 <usb_serial_flush_output+0x3a>
C:\Teensy\Projects\HelloWorld/usb_serial.c:278
    41a0:	7366      	strb	r6, [r4, #13]
C:\Teensy\Projects\HelloWorld/usb_serial.c:281
    41a2:	2300      	movs	r3, #0
    41a4:	7123      	strb	r3, [r4, #4]
    41a6:	bd70      	pop	{r4, r5, r6, pc}
    41a8:	1fff0eac 	.word	0x1fff0eac
    41ac:	1fff0f50 	.word	0x1fff0f50

000041b0 <usb_serial_flush_callback>:
usb_serial_flush_callback():
C:\Teensy\Projects\HelloWorld/usb_serial.c:285
    41b0:	b538      	push	{r3, r4, r5, lr}
C:\Teensy\Projects\HelloWorld/usb_serial.c:286
    41b2:	4c0d      	ldr	r4, [pc, #52]	; (41e8 <usb_serial_flush_callback+0x38>)
    41b4:	7923      	ldrb	r3, [r4, #4]
    41b6:	f003 05ff 	and.w	r5, r3, #255	; 0xff
    41ba:	b99b      	cbnz	r3, 41e4 <usb_serial_flush_callback+0x34>
C:\Teensy\Projects\HelloWorld/usb_serial.c:287
    41bc:	68a1      	ldr	r1, [r4, #8]
    41be:	b131      	cbz	r1, 41ce <usb_serial_flush_callback+0x1e>
C:\Teensy\Projects\HelloWorld/usb_serial.c:288
    41c0:	884b      	ldrh	r3, [r1, #2]
    41c2:	800b      	strh	r3, [r1, #0]
C:\Teensy\Projects\HelloWorld/usb_serial.c:289
    41c4:	2004      	movs	r0, #4
    41c6:	f7ff fa8d 	bl	36e4 <usb_tx>
C:\Teensy\Projects\HelloWorld/usb_serial.c:290
    41ca:	60a5      	str	r5, [r4, #8]
    41cc:	bd38      	pop	{r3, r4, r5, pc}
C:\Teensy\Projects\HelloWorld/usb_serial.c:292
    41ce:	f7ff fe5d 	bl	3e8c <usb_malloc>
C:\Teensy\Projects\HelloWorld/usb_serial.c:293
    41d2:	4601      	mov	r1, r0
    41d4:	b120      	cbz	r0, 41e0 <usb_serial_flush_callback+0x30>
C:\Teensy\Projects\HelloWorld/usb_serial.c:294
    41d6:	2004      	movs	r0, #4
C:\Teensy\Projects\HelloWorld/usb_serial.c:299
    41d8:	e8bd 4038 	ldmia.w	sp!, {r3, r4, r5, lr}
C:\Teensy\Projects\HelloWorld/usb_serial.c:294
    41dc:	f7ff ba82 	b.w	36e4 <usb_tx>
C:\Teensy\Projects\HelloWorld/usb_serial.c:296
    41e0:	2301      	movs	r3, #1
    41e2:	7363      	strb	r3, [r4, #13]
    41e4:	bd38      	pop	{r3, r4, r5, pc}
    41e6:	bf00      	nop
    41e8:	1fff0f50 	.word	0x1fff0f50

000041ec <_ZN5Print5writeEPKc>:
_ZN5Print5writeEPKc():
C:\Teensy\Projects\HelloWorld/Print.h:52
    41ec:	b538      	push	{r3, r4, r5, lr}
    41ee:	4604      	mov	r4, r0
    41f0:	4608      	mov	r0, r1
    41f2:	460d      	mov	r5, r1
    41f4:	f002 fb81 	bl	68fa <strlen>
    41f8:	6823      	ldr	r3, [r4, #0]
    41fa:	4602      	mov	r2, r0
    41fc:	685b      	ldr	r3, [r3, #4]
    41fe:	4620      	mov	r0, r4
    4200:	4629      	mov	r1, r5
    4202:	4798      	blx	r3
    4204:	bd38      	pop	{r3, r4, r5, pc}

00004206 <_Z12serialEvent1v>:
_Z12serialEvent1v():
C:\Teensy\Projects\HelloWorld/HardwareSerial1.cpp:6
    4206:	4770      	bx	lr

00004208 <_ZN14HardwareSerial5writeEm>:
_ZN14HardwareSerial5writeEm():
C:\Teensy\Projects\HelloWorld/HardwareSerial.h:260
    4208:	b508      	push	{r3, lr}
    420a:	6803      	ldr	r3, [r0, #0]
    420c:	b2c9      	uxtb	r1, r1
    420e:	681b      	ldr	r3, [r3, #0]
    4210:	4798      	blx	r3
    4212:	bd08      	pop	{r3, pc}

00004214 <_ZN14HardwareSerial5writeEl>:
_ZN14HardwareSerial5writeEl():
C:\Teensy\Projects\HelloWorld/HardwareSerial.h:261
    4214:	b508      	push	{r3, lr}
    4216:	6803      	ldr	r3, [r0, #0]
    4218:	b2c9      	uxtb	r1, r1
    421a:	681b      	ldr	r3, [r3, #0]
    421c:	4798      	blx	r3
    421e:	bd08      	pop	{r3, pc}

00004220 <_ZN14HardwareSerial5writeEj>:
_ZN14HardwareSerial5writeEj():
C:\Teensy\Projects\HelloWorld/HardwareSerial.h:262
    4220:	b508      	push	{r3, lr}
    4222:	6803      	ldr	r3, [r0, #0]
    4224:	b2c9      	uxtb	r1, r1
    4226:	681b      	ldr	r3, [r3, #0]
    4228:	4798      	blx	r3
    422a:	bd08      	pop	{r3, pc}

0000422c <_ZN14HardwareSerial5writeEi>:
_ZN14HardwareSerial5writeEi():
C:\Teensy\Projects\HelloWorld/HardwareSerial.h:263
    422c:	b508      	push	{r3, lr}
    422e:	6803      	ldr	r3, [r0, #0]
    4230:	b2c9      	uxtb	r1, r1
    4232:	681b      	ldr	r3, [r3, #0]
    4234:	4798      	blx	r3
    4236:	bd08      	pop	{r3, pc}

00004238 <_ZN14HardwareSerial5beginEm>:
_ZN14HardwareSerial5beginEm():
C:\Teensy\Projects\HelloWorld/HardwareSerial.h:243
    4238:	4803      	ldr	r0, [pc, #12]	; (4248 <_ZN14HardwareSerial5beginEm+0x10>)
    423a:	eb00 0051 	add.w	r0, r0, r1, lsr #1
    423e:	fbb0 f0f1 	udiv	r0, r0, r1
    4242:	f7fd b9eb 	b.w	161c <serial_begin>
    4246:	bf00      	nop
    4248:	0e4e1c00 	.word	0x0e4e1c00

0000424c <_ZN14HardwareSerial5beginEmm>:
_ZN14HardwareSerial5beginEmm():
C:\Teensy\Projects\HelloWorld/HardwareSerial.h:244
    424c:	b510      	push	{r4, lr}
C:\Teensy\Projects\HelloWorld/HardwareSerial.h:245
    424e:	4806      	ldr	r0, [pc, #24]	; (4268 <_ZN14HardwareSerial5beginEmm+0x1c>)
    4250:	eb00 0051 	add.w	r0, r0, r1, lsr #1
C:\Teensy\Projects\HelloWorld/HardwareSerial.h:244
    4254:	4614      	mov	r4, r2
C:\Teensy\Projects\HelloWorld/HardwareSerial.h:245
    4256:	fbb0 f0f1 	udiv	r0, r0, r1
    425a:	f7fd f9df 	bl	161c <serial_begin>
C:\Teensy\Projects\HelloWorld/HardwareSerial.h:246
    425e:	4620      	mov	r0, r4
    4260:	e8bd 4010 	ldmia.w	sp!, {r4, lr}
    4264:	f7fd ba3e 	b.w	16e4 <serial_format>
    4268:	0e4e1c00 	.word	0x0e4e1c00

0000426c <_ZN14HardwareSerial3endEv>:
_ZN14HardwareSerial3endEv():
C:\Teensy\Projects\HelloWorld/HardwareSerial.h:247
    426c:	f7fd ba70 	b.w	1750 <serial_end>

00004270 <_ZN14HardwareSerial17transmitterEnableEh>:
_ZN14HardwareSerial17transmitterEnableEh():
C:\Teensy\Projects\HelloWorld/HardwareSerial.h:248
    4270:	4608      	mov	r0, r1
    4272:	f7fd ba97 	b.w	17a4 <serial_set_transmit_pin>

00004276 <_ZN14HardwareSerial5setRXEh>:
_ZN14HardwareSerial5setRXEh():
C:\Teensy\Projects\HelloWorld/HardwareSerial.h:249
    4276:	4608      	mov	r0, r1
    4278:	f7fd baf0 	b.w	185c <serial_set_rx>

0000427c <_ZN14HardwareSerial5setTXEhb>:
_ZN14HardwareSerial5setTXEhb():
C:\Teensy\Projects\HelloWorld/HardwareSerial.h:250
    427c:	4608      	mov	r0, r1
    427e:	4611      	mov	r1, r2
    4280:	f7fd baaa 	b.w	17d8 <serial_set_tx>

00004284 <_ZN14HardwareSerial9attachRtsEh>:
_ZN14HardwareSerial9attachRtsEh():
C:\Teensy\Projects\HelloWorld/HardwareSerial.h:251
    4284:	b508      	push	{r3, lr}
    4286:	4608      	mov	r0, r1
    4288:	f7fd fb1c 	bl	18c4 <serial_set_rts>
    428c:	3000      	adds	r0, #0
    428e:	bf18      	it	ne
    4290:	2001      	movne	r0, #1
    4292:	bd08      	pop	{r3, pc}

00004294 <_ZN14HardwareSerial9attachCtsEh>:
_ZN14HardwareSerial9attachCtsEh():
C:\Teensy\Projects\HelloWorld/HardwareSerial.h:252
    4294:	b508      	push	{r3, lr}
    4296:	4608      	mov	r0, r1
    4298:	f7fd fb36 	bl	1908 <serial_set_cts>
    429c:	3000      	adds	r0, #0
    429e:	bf18      	it	ne
    42a0:	2001      	movne	r0, #1
    42a2:	bd08      	pop	{r3, pc}

000042a4 <_ZN14HardwareSerial9availableEv>:
_ZN14HardwareSerial9availableEv():
C:\Teensy\Projects\HelloWorld/HardwareSerial.h:253
    42a4:	f7fd bc04 	b.w	1ab0 <serial_available>

000042a8 <_ZN14HardwareSerial4peekEv>:
_ZN14HardwareSerial4peekEv():
C:\Teensy\Projects\HelloWorld/HardwareSerial.h:254
    42a8:	f7fd bc30 	b.w	1b0c <serial_peek>

000042ac <_ZN14HardwareSerial4readEv>:
_ZN14HardwareSerial4readEv():
C:\Teensy\Projects\HelloWorld/HardwareSerial.h:255
    42ac:	f7fd bc0c 	b.w	1ac8 <serial_getchar>

000042b0 <_ZN14HardwareSerial5flushEv>:
_ZN14HardwareSerial5flushEv():
C:\Teensy\Projects\HelloWorld/HardwareSerial.h:256
    42b0:	f7fd bbe6 	b.w	1a80 <serial_flush>

000042b4 <_ZN14HardwareSerial5clearEv>:
_ZN14HardwareSerial5clearEv():
C:\Teensy\Projects\HelloWorld/HardwareSerial.h:257
    42b4:	f7fd bc3e 	b.w	1b34 <serial_clear>

000042b8 <_ZN14HardwareSerial17availableForWriteEv>:
_ZN14HardwareSerial17availableForWriteEv():
C:\Teensy\Projects\HelloWorld/HardwareSerial.h:258
    42b8:	f7fd bbec 	b.w	1a94 <serial_write_buffer_free>

000042bc <_ZN14HardwareSerial5writeEh>:
_ZN14HardwareSerial5writeEh():
C:\Teensy\Projects\HelloWorld/HardwareSerial.h:259
    42bc:	b508      	push	{r3, lr}
    42be:	4608      	mov	r0, r1
    42c0:	f7fd fb48 	bl	1954 <serial_putchar>
    42c4:	2001      	movs	r0, #1
    42c6:	bd08      	pop	{r3, pc}

000042c8 <_ZN14HardwareSerial9write9bitEm>:
_ZN14HardwareSerial9write9bitEm():
C:\Teensy\Projects\HelloWorld/HardwareSerial.h:269
    42c8:	b508      	push	{r3, lr}
    42ca:	4608      	mov	r0, r1
    42cc:	f7fd fb42 	bl	1954 <serial_putchar>
    42d0:	2001      	movs	r0, #1
    42d2:	bd08      	pop	{r3, pc}

000042d4 <_ZN14HardwareSerial5writeEPKhj>:
_ZN14HardwareSerial5writeEPKhj():
C:\Teensy\Projects\HelloWorld/HardwareSerial.h:264
    42d4:	b510      	push	{r4, lr}
C:\Teensy\Projects\HelloWorld/HardwareSerial.h:265
    42d6:	4608      	mov	r0, r1
C:\Teensy\Projects\HelloWorld/HardwareSerial.h:264
    42d8:	4614      	mov	r4, r2
C:\Teensy\Projects\HelloWorld/HardwareSerial.h:265
    42da:	4611      	mov	r1, r2
    42dc:	f7fd fb80 	bl	19e0 <serial_write>
    42e0:	4620      	mov	r0, r4
    42e2:	bd10      	pop	{r4, pc}

000042e4 <_ZN14HardwareSerial5writeEPKc>:
_ZN14HardwareSerial5writeEPKc():
C:\Teensy\Projects\HelloWorld/HardwareSerial.h:266
    42e4:	b538      	push	{r3, r4, r5, lr}
    42e6:	4608      	mov	r0, r1
    42e8:	460d      	mov	r5, r1
    42ea:	f002 fb06 	bl	68fa <strlen>
    42ee:	4604      	mov	r4, r0
C:\Teensy\Projects\HelloWorld/HardwareSerial.h:267
    42f0:	4621      	mov	r1, r4
    42f2:	4628      	mov	r0, r5
    42f4:	f7fd fb74 	bl	19e0 <serial_write>
C:\Teensy\Projects\HelloWorld/HardwareSerial.h:268
    42f8:	4620      	mov	r0, r4
    42fa:	bd38      	pop	{r3, r4, r5, pc}

000042fc <_GLOBAL__sub_I_Serial1>:
Print():
C:\Teensy\Projects\HelloWorld/Print.h:50
    42fc:	4b04      	ldr	r3, [pc, #16]	; (4310 <_GLOBAL__sub_I_Serial1+0x14>)
    42fe:	2200      	movs	r2, #0
    4300:	711a      	strb	r2, [r3, #4]
Stream():
C:\Teensy\Projects\HelloWorld/Stream.h:30
    4302:	f44f 717a 	mov.w	r1, #1000	; 0x3e8
    4306:	731a      	strb	r2, [r3, #12]
HardwareSerial():
C:\Teensy\Projects\HelloWorld/HardwareSerial.h:240
    4308:	4a02      	ldr	r2, [pc, #8]	; (4314 <_GLOBAL__sub_I_Serial1+0x18>)
Stream():
C:\Teensy\Projects\HelloWorld/Stream.h:30
    430a:	6099      	str	r1, [r3, #8]
HardwareSerial():
C:\Teensy\Projects\HelloWorld/HardwareSerial.h:240
    430c:	601a      	str	r2, [r3, #0]
    430e:	4770      	bx	lr
    4310:	1fff0f60 	.word	0x1fff0f60
    4314:	0000a130 	.word	0x0000a130

00004318 <_Z12serialEvent2v>:
_Z12serialEvent2v():
C:\Teensy\Projects\HelloWorld/HardwareSerial2.cpp:6
    4318:	4770      	bx	lr

0000431a <_ZN15HardwareSerial25writeEm>:
_ZN15HardwareSerial25writeEm():
C:\Teensy\Projects\HelloWorld/HardwareSerial.h:295
    431a:	b508      	push	{r3, lr}
    431c:	6803      	ldr	r3, [r0, #0]
    431e:	b2c9      	uxtb	r1, r1
    4320:	681b      	ldr	r3, [r3, #0]
    4322:	4798      	blx	r3
    4324:	bd08      	pop	{r3, pc}

00004326 <_ZN15HardwareSerial25writeEl>:
_ZN15HardwareSerial25writeEl():
C:\Teensy\Projects\HelloWorld/HardwareSerial.h:296
    4326:	b508      	push	{r3, lr}
    4328:	6803      	ldr	r3, [r0, #0]
    432a:	b2c9      	uxtb	r1, r1
    432c:	681b      	ldr	r3, [r3, #0]
    432e:	4798      	blx	r3
    4330:	bd08      	pop	{r3, pc}

00004332 <_ZN15HardwareSerial25writeEj>:
_ZN15HardwareSerial25writeEj():
C:\Teensy\Projects\HelloWorld/HardwareSerial.h:297
    4332:	b508      	push	{r3, lr}
    4334:	6803      	ldr	r3, [r0, #0]
    4336:	b2c9      	uxtb	r1, r1
    4338:	681b      	ldr	r3, [r3, #0]
    433a:	4798      	blx	r3
    433c:	bd08      	pop	{r3, pc}

0000433e <_ZN15HardwareSerial25writeEi>:
_ZN15HardwareSerial25writeEi():
C:\Teensy\Projects\HelloWorld/HardwareSerial.h:298
    433e:	b508      	push	{r3, lr}
    4340:	6803      	ldr	r3, [r0, #0]
    4342:	b2c9      	uxtb	r1, r1
    4344:	681b      	ldr	r3, [r3, #0]
    4346:	4798      	blx	r3
    4348:	bd08      	pop	{r3, pc}
    434a:	ffff 4803 	vtbl.8	d20, {d15}, d3

0000434c <_ZN15HardwareSerial25beginEm>:
_ZN15HardwareSerial25beginEm():
C:\Teensy\Projects\HelloWorld/HardwareSerial.h:278
    434c:	4803      	ldr	r0, [pc, #12]	; (435c <_ZN15HardwareSerial25beginEm+0x10>)
    434e:	eb00 0051 	add.w	r0, r0, r1, lsr #1
    4352:	fbb0 f0f1 	udiv	r0, r0, r1
    4356:	f7fd bcaf 	b.w	1cb8 <serial2_begin>
    435a:	bf00      	nop
    435c:	0e4e1c00 	.word	0x0e4e1c00

00004360 <_ZN15HardwareSerial25beginEmm>:
_ZN15HardwareSerial25beginEmm():
C:\Teensy\Projects\HelloWorld/HardwareSerial.h:279
    4360:	b510      	push	{r4, lr}
C:\Teensy\Projects\HelloWorld/HardwareSerial.h:280
    4362:	4806      	ldr	r0, [pc, #24]	; (437c <_ZN15HardwareSerial25beginEmm+0x1c>)
    4364:	eb00 0051 	add.w	r0, r0, r1, lsr #1
C:\Teensy\Projects\HelloWorld/HardwareSerial.h:279
    4368:	4614      	mov	r4, r2
C:\Teensy\Projects\HelloWorld/HardwareSerial.h:280
    436a:	fbb0 f0f1 	udiv	r0, r0, r1
    436e:	f7fd fca3 	bl	1cb8 <serial2_begin>
C:\Teensy\Projects\HelloWorld/HardwareSerial.h:281
    4372:	4620      	mov	r0, r4
    4374:	e8bd 4010 	ldmia.w	sp!, {r4, lr}
    4378:	f7fd bcf2 	b.w	1d60 <serial2_format>
    437c:	0e4e1c00 	.word	0x0e4e1c00

00004380 <_ZN15HardwareSerial23endEv>:
_ZN15HardwareSerial23endEv():
C:\Teensy\Projects\HelloWorld/HardwareSerial.h:282
    4380:	f7fd bd24 	b.w	1dcc <serial2_end>

00004384 <_ZN15HardwareSerial217transmitterEnableEh>:
_ZN15HardwareSerial217transmitterEnableEh():
C:\Teensy\Projects\HelloWorld/HardwareSerial.h:283
    4384:	4608      	mov	r0, r1
    4386:	f7fd bd69 	b.w	1e5c <serial2_set_transmit_pin>

0000438a <_ZN15HardwareSerial25setRXEh>:
_ZN15HardwareSerial25setRXEh():
C:\Teensy\Projects\HelloWorld/HardwareSerial.h:284
    438a:	4608      	mov	r0, r1
    438c:	f7fd bdb6 	b.w	1efc <serial2_set_rx>

00004390 <_ZN15HardwareSerial25setTXEhb>:
_ZN15HardwareSerial25setTXEhb():
C:\Teensy\Projects\HelloWorld/HardwareSerial.h:285
    4390:	4608      	mov	r0, r1
    4392:	4611      	mov	r1, r2
    4394:	f7fd bd7c 	b.w	1e90 <serial2_set_tx>

00004398 <_ZN15HardwareSerial29attachRtsEh>:
_ZN15HardwareSerial29attachRtsEh():
C:\Teensy\Projects\HelloWorld/HardwareSerial.h:286
    4398:	b508      	push	{r3, lr}
    439a:	4608      	mov	r0, r1
    439c:	f7fd fdd6 	bl	1f4c <serial2_set_rts>
    43a0:	3000      	adds	r0, #0
    43a2:	bf18      	it	ne
    43a4:	2001      	movne	r0, #1
    43a6:	bd08      	pop	{r3, pc}

000043a8 <_ZN15HardwareSerial29attachCtsEh>:
_ZN15HardwareSerial29attachCtsEh():
C:\Teensy\Projects\HelloWorld/HardwareSerial.h:287
    43a8:	b508      	push	{r3, lr}
    43aa:	4608      	mov	r0, r1
    43ac:	f7fd fdf0 	bl	1f90 <serial2_set_cts>
    43b0:	3000      	adds	r0, #0
    43b2:	bf18      	it	ne
    43b4:	2001      	movne	r0, #1
    43b6:	bd08      	pop	{r3, pc}

000043b8 <_ZN15HardwareSerial29availableEv>:
_ZN15HardwareSerial29availableEv():
C:\Teensy\Projects\HelloWorld/HardwareSerial.h:288
    43b8:	f7fd beb6 	b.w	2128 <serial2_available>

000043bc <_ZN15HardwareSerial24peekEv>:
_ZN15HardwareSerial24peekEv():
C:\Teensy\Projects\HelloWorld/HardwareSerial.h:289
    43bc:	f7fd bee2 	b.w	2184 <serial2_peek>

000043c0 <_ZN15HardwareSerial24readEv>:
_ZN15HardwareSerial24readEv():
C:\Teensy\Projects\HelloWorld/HardwareSerial.h:290
    43c0:	f7fd bebe 	b.w	2140 <serial2_getchar>

000043c4 <_ZN15HardwareSerial25flushEv>:
_ZN15HardwareSerial25flushEv():
C:\Teensy\Projects\HelloWorld/HardwareSerial.h:291
    43c4:	f7fd be98 	b.w	20f8 <serial2_flush>

000043c8 <_ZN15HardwareSerial25clearEv>:
_ZN15HardwareSerial25clearEv():
C:\Teensy\Projects\HelloWorld/HardwareSerial.h:292
    43c8:	f7fd bef0 	b.w	21ac <serial2_clear>

000043cc <_ZN15HardwareSerial217availableForWriteEv>:
_ZN15HardwareSerial217availableForWriteEv():
C:\Teensy\Projects\HelloWorld/HardwareSerial.h:293
    43cc:	f7fd be9e 	b.w	210c <serial2_write_buffer_free>

000043d0 <_ZN15HardwareSerial25writeEh>:
_ZN15HardwareSerial25writeEh():
C:\Teensy\Projects\HelloWorld/HardwareSerial.h:294
    43d0:	b508      	push	{r3, lr}
    43d2:	4608      	mov	r0, r1
    43d4:	f7fd fe02 	bl	1fdc <serial2_putchar>
    43d8:	2001      	movs	r0, #1
    43da:	bd08      	pop	{r3, pc}

000043dc <_ZN15HardwareSerial29write9bitEm>:
_ZN15HardwareSerial29write9bitEm():
C:\Teensy\Projects\HelloWorld/HardwareSerial.h:304
    43dc:	b508      	push	{r3, lr}
    43de:	4608      	mov	r0, r1
    43e0:	f7fd fdfc 	bl	1fdc <serial2_putchar>
    43e4:	2001      	movs	r0, #1
    43e6:	bd08      	pop	{r3, pc}

000043e8 <_ZN15HardwareSerial25writeEPKhj>:
_ZN15HardwareSerial25writeEPKhj():
C:\Teensy\Projects\HelloWorld/HardwareSerial.h:299
    43e8:	b510      	push	{r4, lr}
C:\Teensy\Projects\HelloWorld/HardwareSerial.h:300
    43ea:	4608      	mov	r0, r1
C:\Teensy\Projects\HelloWorld/HardwareSerial.h:299
    43ec:	4614      	mov	r4, r2
C:\Teensy\Projects\HelloWorld/HardwareSerial.h:300
    43ee:	4611      	mov	r1, r2
    43f0:	f7fd fe32 	bl	2058 <serial2_write>
    43f4:	4620      	mov	r0, r4
    43f6:	bd10      	pop	{r4, pc}

000043f8 <_ZN15HardwareSerial25writeEPKc>:
_ZN15HardwareSerial25writeEPKc():
C:\Teensy\Projects\HelloWorld/HardwareSerial.h:301
    43f8:	b538      	push	{r3, r4, r5, lr}
    43fa:	4608      	mov	r0, r1
    43fc:	460d      	mov	r5, r1
    43fe:	f002 fa7c 	bl	68fa <strlen>
    4402:	4604      	mov	r4, r0
C:\Teensy\Projects\HelloWorld/HardwareSerial.h:302
    4404:	4621      	mov	r1, r4
    4406:	4628      	mov	r0, r5
    4408:	f7fd fe26 	bl	2058 <serial2_write>
C:\Teensy\Projects\HelloWorld/HardwareSerial.h:303
    440c:	4620      	mov	r0, r4
    440e:	bd38      	pop	{r3, r4, r5, pc}

00004410 <_GLOBAL__sub_I_Serial2>:
Print():
C:\Teensy\Projects\HelloWorld/Print.h:50
    4410:	4b04      	ldr	r3, [pc, #16]	; (4424 <_GLOBAL__sub_I_Serial2+0x14>)
    4412:	2200      	movs	r2, #0
    4414:	711a      	strb	r2, [r3, #4]
Stream():
C:\Teensy\Projects\HelloWorld/Stream.h:30
    4416:	f44f 717a 	mov.w	r1, #1000	; 0x3e8
    441a:	731a      	strb	r2, [r3, #12]
HardwareSerial2():
C:\Teensy\Projects\HelloWorld/HardwareSerial.h:275
    441c:	4a02      	ldr	r2, [pc, #8]	; (4428 <_GLOBAL__sub_I_Serial2+0x18>)
HardwareSerial():
C:\Teensy\Projects\HelloWorld/Stream.h:30
    441e:	6099      	str	r1, [r3, #8]
HardwareSerial2():
C:\Teensy\Projects\HelloWorld/HardwareSerial.h:275
    4420:	601a      	str	r2, [r3, #0]
    4422:	4770      	bx	lr
    4424:	1fff0f70 	.word	0x1fff0f70
    4428:	0000a190 	.word	0x0000a190

0000442c <_Z12serialEvent3v>:
_Z12serialEvent3v():
C:\Teensy\Projects\HelloWorld/HardwareSerial3.cpp:6
    442c:	4770      	bx	lr

0000442e <_ZN15HardwareSerial35writeEm>:
_ZN15HardwareSerial35writeEm():
C:\Teensy\Projects\HelloWorld/HardwareSerial.h:330
    442e:	b508      	push	{r3, lr}
    4430:	6803      	ldr	r3, [r0, #0]
    4432:	b2c9      	uxtb	r1, r1
    4434:	681b      	ldr	r3, [r3, #0]
    4436:	4798      	blx	r3
    4438:	bd08      	pop	{r3, pc}

0000443a <_ZN15HardwareSerial35writeEl>:
_ZN15HardwareSerial35writeEl():
C:\Teensy\Projects\HelloWorld/HardwareSerial.h:331
    443a:	b508      	push	{r3, lr}
    443c:	6803      	ldr	r3, [r0, #0]
    443e:	b2c9      	uxtb	r1, r1
    4440:	681b      	ldr	r3, [r3, #0]
    4442:	4798      	blx	r3
    4444:	bd08      	pop	{r3, pc}

00004446 <_ZN15HardwareSerial35writeEj>:
_ZN15HardwareSerial35writeEj():
C:\Teensy\Projects\HelloWorld/HardwareSerial.h:332
    4446:	b508      	push	{r3, lr}
    4448:	6803      	ldr	r3, [r0, #0]
    444a:	b2c9      	uxtb	r1, r1
    444c:	681b      	ldr	r3, [r3, #0]
    444e:	4798      	blx	r3
    4450:	bd08      	pop	{r3, pc}

00004452 <_ZN15HardwareSerial35writeEi>:
_ZN15HardwareSerial35writeEi():
C:\Teensy\Projects\HelloWorld/HardwareSerial.h:333
    4452:	b508      	push	{r3, lr}
    4454:	6803      	ldr	r3, [r0, #0]
    4456:	b2c9      	uxtb	r1, r1
    4458:	681b      	ldr	r3, [r3, #0]
    445a:	4798      	blx	r3
    445c:	bd08      	pop	{r3, pc}
    445e:	ffff 4803 	vtbl.8	d20, {d15}, d3

00004460 <_ZN15HardwareSerial35beginEm>:
_ZN15HardwareSerial35beginEm():
C:\Teensy\Projects\HelloWorld/HardwareSerial.h:313
    4460:	4803      	ldr	r0, [pc, #12]	; (4470 <_ZN15HardwareSerial35beginEm+0x10>)
    4462:	eb00 0051 	add.w	r0, r0, r1, lsr #1
    4466:	fbb0 f0f1 	udiv	r0, r0, r1
    446a:	f7fd bf2d 	b.w	22c8 <serial3_begin>
    446e:	bf00      	nop
    4470:	07270e00 	.word	0x07270e00

00004474 <_ZN15HardwareSerial35beginEmm>:
_ZN15HardwareSerial35beginEmm():
C:\Teensy\Projects\HelloWorld/HardwareSerial.h:314
    4474:	b510      	push	{r4, lr}
C:\Teensy\Projects\HelloWorld/HardwareSerial.h:315
    4476:	4806      	ldr	r0, [pc, #24]	; (4490 <_ZN15HardwareSerial35beginEmm+0x1c>)
    4478:	eb00 0051 	add.w	r0, r0, r1, lsr #1
C:\Teensy\Projects\HelloWorld/HardwareSerial.h:314
    447c:	4614      	mov	r4, r2
C:\Teensy\Projects\HelloWorld/HardwareSerial.h:315
    447e:	fbb0 f0f1 	udiv	r0, r0, r1
    4482:	f7fd ff21 	bl	22c8 <serial3_begin>
C:\Teensy\Projects\HelloWorld/HardwareSerial.h:316
    4486:	4620      	mov	r0, r4
    4488:	e8bd 4010 	ldmia.w	sp!, {r4, lr}
    448c:	f7fd bf50 	b.w	2330 <serial3_format>
    4490:	07270e00 	.word	0x07270e00

00004494 <_ZN15HardwareSerial33endEv>:
_ZN15HardwareSerial33endEv():
C:\Teensy\Projects\HelloWorld/HardwareSerial.h:317
    4494:	f7fd bf82 	b.w	239c <serial3_end>

00004498 <_ZN15HardwareSerial317transmitterEnableEh>:
_ZN15HardwareSerial317transmitterEnableEh():
C:\Teensy\Projects\HelloWorld/HardwareSerial.h:318
    4498:	4608      	mov	r0, r1
    449a:	f7fd bfa9 	b.w	23f0 <serial3_set_transmit_pin>

0000449e <_ZN15HardwareSerial35setRXEh>:
_ZN15HardwareSerial35setRXEh():
C:\Teensy\Projects\HelloWorld/HardwareSerial.h:319
    449e:	4608      	mov	r0, r1
    44a0:	f7fd bfe8 	b.w	2474 <serial3_set_rx>

000044a4 <_ZN15HardwareSerial35setTXEhb>:
_ZN15HardwareSerial35setTXEhb():
C:\Teensy\Projects\HelloWorld/HardwareSerial.h:320
    44a4:	4608      	mov	r0, r1
    44a6:	4611      	mov	r1, r2
    44a8:	f7fd bfbc 	b.w	2424 <serial3_set_tx>

000044ac <_ZN15HardwareSerial39attachRtsEh>:
_ZN15HardwareSerial39attachRtsEh():
C:\Teensy\Projects\HelloWorld/HardwareSerial.h:321
    44ac:	b508      	push	{r3, lr}
    44ae:	4608      	mov	r0, r1
    44b0:	f7fd ffe1 	bl	2476 <serial3_set_rts>
    44b4:	3000      	adds	r0, #0
    44b6:	bf18      	it	ne
    44b8:	2001      	movne	r0, #1
    44ba:	bd08      	pop	{r3, pc}

000044bc <_ZN15HardwareSerial39attachCtsEh>:
_ZN15HardwareSerial39attachCtsEh():
C:\Teensy\Projects\HelloWorld/HardwareSerial.h:322
    44bc:	b508      	push	{r3, lr}
    44be:	4608      	mov	r0, r1
    44c0:	f7fd fffa 	bl	24b8 <serial3_set_cts>
    44c4:	3000      	adds	r0, #0
    44c6:	bf18      	it	ne
    44c8:	2001      	movne	r0, #1
    44ca:	bd08      	pop	{r3, pc}

000044cc <_ZN15HardwareSerial39availableEv>:
_ZN15HardwareSerial39availableEv():
C:\Teensy\Projects\HelloWorld/HardwareSerial.h:323
    44cc:	f7fe b874 	b.w	25b8 <serial3_available>

000044d0 <_ZN15HardwareSerial34peekEv>:
_ZN15HardwareSerial34peekEv():
C:\Teensy\Projects\HelloWorld/HardwareSerial.h:324
    44d0:	f7fe b8a0 	b.w	2614 <serial3_peek>

000044d4 <_ZN15HardwareSerial34readEv>:
_ZN15HardwareSerial34readEv():
C:\Teensy\Projects\HelloWorld/HardwareSerial.h:325
    44d4:	f7fe b87c 	b.w	25d0 <serial3_getchar>

000044d8 <_ZN15HardwareSerial35flushEv>:
_ZN15HardwareSerial35flushEv():
C:\Teensy\Projects\HelloWorld/HardwareSerial.h:326
    44d8:	f7fe b855 	b.w	2586 <serial3_flush>

000044dc <_ZN15HardwareSerial35clearEv>:
_ZN15HardwareSerial35clearEv():
C:\Teensy\Projects\HelloWorld/HardwareSerial.h:327
    44dc:	f7fe b8ae 	b.w	263c <serial3_clear>

000044e0 <_ZN15HardwareSerial317availableForWriteEv>:
_ZN15HardwareSerial317availableForWriteEv():
C:\Teensy\Projects\HelloWorld/HardwareSerial.h:328
    44e0:	f7fe b85c 	b.w	259c <serial3_write_buffer_free>

000044e4 <_ZN15HardwareSerial35writeEh>:
_ZN15HardwareSerial35writeEh():
C:\Teensy\Projects\HelloWorld/HardwareSerial.h:329
    44e4:	b508      	push	{r3, lr}
    44e6:	4608      	mov	r0, r1
    44e8:	f7fe f804 	bl	24f4 <serial3_putchar>
    44ec:	2001      	movs	r0, #1
    44ee:	bd08      	pop	{r3, pc}

000044f0 <_ZN15HardwareSerial39write9bitEm>:
_ZN15HardwareSerial39write9bitEm():
C:\Teensy\Projects\HelloWorld/HardwareSerial.h:339
    44f0:	b508      	push	{r3, lr}
    44f2:	4608      	mov	r0, r1
    44f4:	f7fd fffe 	bl	24f4 <serial3_putchar>
    44f8:	2001      	movs	r0, #1
    44fa:	bd08      	pop	{r3, pc}

000044fc <_ZN15HardwareSerial35writeEPKhj>:
_ZN15HardwareSerial35writeEPKhj():
C:\Teensy\Projects\HelloWorld/HardwareSerial.h:334
    44fc:	b510      	push	{r4, lr}
C:\Teensy\Projects\HelloWorld/HardwareSerial.h:335
    44fe:	4608      	mov	r0, r1
C:\Teensy\Projects\HelloWorld/HardwareSerial.h:334
    4500:	4614      	mov	r4, r2
C:\Teensy\Projects\HelloWorld/HardwareSerial.h:335
    4502:	4611      	mov	r1, r2
    4504:	f7fe f834 	bl	2570 <serial3_write>
    4508:	4620      	mov	r0, r4
    450a:	bd10      	pop	{r4, pc}

0000450c <_ZN15HardwareSerial35writeEPKc>:
_ZN15HardwareSerial35writeEPKc():
C:\Teensy\Projects\HelloWorld/HardwareSerial.h:336
    450c:	b538      	push	{r3, r4, r5, lr}
    450e:	4608      	mov	r0, r1
    4510:	460d      	mov	r5, r1
    4512:	f002 f9f2 	bl	68fa <strlen>
    4516:	4604      	mov	r4, r0
C:\Teensy\Projects\HelloWorld/HardwareSerial.h:337
    4518:	4621      	mov	r1, r4
    451a:	4628      	mov	r0, r5
    451c:	f7fe f828 	bl	2570 <serial3_write>
C:\Teensy\Projects\HelloWorld/HardwareSerial.h:338
    4520:	4620      	mov	r0, r4
    4522:	bd38      	pop	{r3, r4, r5, pc}

00004524 <_GLOBAL__sub_I_Serial3>:
Print():
C:\Teensy\Projects\HelloWorld/Print.h:50
    4524:	4b04      	ldr	r3, [pc, #16]	; (4538 <_GLOBAL__sub_I_Serial3+0x14>)
    4526:	2200      	movs	r2, #0
    4528:	711a      	strb	r2, [r3, #4]
Stream():
C:\Teensy\Projects\HelloWorld/Stream.h:30
    452a:	f44f 717a 	mov.w	r1, #1000	; 0x3e8
    452e:	731a      	strb	r2, [r3, #12]
HardwareSerial3():
C:\Teensy\Projects\HelloWorld/HardwareSerial.h:310
    4530:	4a02      	ldr	r2, [pc, #8]	; (453c <_GLOBAL__sub_I_Serial3+0x18>)
HardwareSerial():
C:\Teensy\Projects\HelloWorld/Stream.h:30
    4532:	6099      	str	r1, [r3, #8]
HardwareSerial3():
C:\Teensy\Projects\HelloWorld/HardwareSerial.h:310
    4534:	601a      	str	r2, [r3, #0]
    4536:	4770      	bx	lr
    4538:	1fff0f80 	.word	0x1fff0f80
    453c:	0000a1f0 	.word	0x0000a1f0

00004540 <_Z12serialEvent4v>:
_Z12serialEvent4v():
C:\Teensy\Projects\HelloWorld/HardwareSerial4.cpp:8
    4540:	4770      	bx	lr

00004542 <_ZN15HardwareSerial45writeEm>:
_ZN15HardwareSerial45writeEm():
C:\Teensy\Projects\HelloWorld/HardwareSerial.h:365
    4542:	b508      	push	{r3, lr}
    4544:	6803      	ldr	r3, [r0, #0]
    4546:	b2c9      	uxtb	r1, r1
    4548:	681b      	ldr	r3, [r3, #0]
    454a:	4798      	blx	r3
    454c:	bd08      	pop	{r3, pc}

0000454e <_ZN15HardwareSerial45writeEl>:
_ZN15HardwareSerial45writeEl():
C:\Teensy\Projects\HelloWorld/HardwareSerial.h:366
    454e:	b508      	push	{r3, lr}
    4550:	6803      	ldr	r3, [r0, #0]
    4552:	b2c9      	uxtb	r1, r1
    4554:	681b      	ldr	r3, [r3, #0]
    4556:	4798      	blx	r3
    4558:	bd08      	pop	{r3, pc}

0000455a <_ZN15HardwareSerial45writeEj>:
_ZN15HardwareSerial45writeEj():
C:\Teensy\Projects\HelloWorld/HardwareSerial.h:367
    455a:	b508      	push	{r3, lr}
    455c:	6803      	ldr	r3, [r0, #0]
    455e:	b2c9      	uxtb	r1, r1
    4560:	681b      	ldr	r3, [r3, #0]
    4562:	4798      	blx	r3
    4564:	bd08      	pop	{r3, pc}

00004566 <_ZN15HardwareSerial45writeEi>:
_ZN15HardwareSerial45writeEi():
C:\Teensy\Projects\HelloWorld/HardwareSerial.h:368
    4566:	b508      	push	{r3, lr}
    4568:	6803      	ldr	r3, [r0, #0]
    456a:	b2c9      	uxtb	r1, r1
    456c:	681b      	ldr	r3, [r3, #0]
    456e:	4798      	blx	r3
    4570:	bd08      	pop	{r3, pc}
    4572:	ffff 4803 	vtbl.8	d20, {d15}, d3

00004574 <_ZN15HardwareSerial45beginEm>:
_ZN15HardwareSerial45beginEm():
C:\Teensy\Projects\HelloWorld/HardwareSerial.h:348
    4574:	4803      	ldr	r0, [pc, #12]	; (4584 <_ZN15HardwareSerial45beginEm+0x10>)
    4576:	eb00 0051 	add.w	r0, r0, r1, lsr #1
    457a:	fbb0 f0f1 	udiv	r0, r0, r1
    457e:	f7fe b8bf 	b.w	2700 <serial4_begin>
    4582:	bf00      	nop
    4584:	07270e00 	.word	0x07270e00

00004588 <_ZN15HardwareSerial45beginEmm>:
_ZN15HardwareSerial45beginEmm():
C:\Teensy\Projects\HelloWorld/HardwareSerial.h:349
    4588:	b510      	push	{r4, lr}
C:\Teensy\Projects\HelloWorld/HardwareSerial.h:350
    458a:	4806      	ldr	r0, [pc, #24]	; (45a4 <_ZN15HardwareSerial45beginEmm+0x1c>)
    458c:	eb00 0051 	add.w	r0, r0, r1, lsr #1
C:\Teensy\Projects\HelloWorld/HardwareSerial.h:349
    4590:	4614      	mov	r4, r2
C:\Teensy\Projects\HelloWorld/HardwareSerial.h:350
    4592:	fbb0 f0f1 	udiv	r0, r0, r1
    4596:	f7fe f8b3 	bl	2700 <serial4_begin>
C:\Teensy\Projects\HelloWorld/HardwareSerial.h:351
    459a:	4620      	mov	r0, r4
    459c:	e8bd 4010 	ldmia.w	sp!, {r4, lr}
    45a0:	f7fe b900 	b.w	27a4 <serial4_format>
    45a4:	07270e00 	.word	0x07270e00

000045a8 <_ZN15HardwareSerial43endEv>:
_ZN15HardwareSerial43endEv():
C:\Teensy\Projects\HelloWorld/HardwareSerial.h:352
    45a8:	f7fe b932 	b.w	2810 <serial4_end>

000045ac <_ZN15HardwareSerial417transmitterEnableEh>:
_ZN15HardwareSerial417transmitterEnableEh():
C:\Teensy\Projects\HelloWorld/HardwareSerial.h:353
    45ac:	4608      	mov	r0, r1
    45ae:	f7fe b97b 	b.w	28a8 <serial4_set_transmit_pin>

000045b2 <_ZN15HardwareSerial45setRXEh>:
_ZN15HardwareSerial45setRXEh():
C:\Teensy\Projects\HelloWorld/HardwareSerial.h:354
    45b2:	4608      	mov	r0, r1
    45b4:	f7fe b9c8 	b.w	2948 <serial4_set_rx>

000045b8 <_ZN15HardwareSerial45setTXEhb>:
_ZN15HardwareSerial45setTXEhb():
C:\Teensy\Projects\HelloWorld/HardwareSerial.h:355
    45b8:	4608      	mov	r0, r1
    45ba:	4611      	mov	r1, r2
    45bc:	f7fe b98e 	b.w	28dc <serial4_set_tx>

000045c0 <_ZN15HardwareSerial49attachRtsEh>:
_ZN15HardwareSerial49attachRtsEh():
C:\Teensy\Projects\HelloWorld/HardwareSerial.h:356
    45c0:	b508      	push	{r3, lr}
    45c2:	4608      	mov	r0, r1
    45c4:	f7fe f9e8 	bl	2998 <serial4_set_rts>
    45c8:	3000      	adds	r0, #0
    45ca:	bf18      	it	ne
    45cc:	2001      	movne	r0, #1
    45ce:	bd08      	pop	{r3, pc}

000045d0 <_ZN15HardwareSerial49attachCtsEh>:
_ZN15HardwareSerial49attachCtsEh():
C:\Teensy\Projects\HelloWorld/HardwareSerial.h:357
    45d0:	b508      	push	{r3, lr}
    45d2:	4608      	mov	r0, r1
    45d4:	f7fe fa02 	bl	29dc <serial4_set_cts>
    45d8:	3000      	adds	r0, #0
    45da:	bf18      	it	ne
    45dc:	2001      	movne	r0, #1
    45de:	bd08      	pop	{r3, pc}

000045e0 <_ZN15HardwareSerial49availableEv>:
_ZN15HardwareSerial49availableEv():
C:\Teensy\Projects\HelloWorld/HardwareSerial.h:358
    45e0:	f7fe ba60 	b.w	2aa4 <serial4_available>

000045e4 <_ZN15HardwareSerial44peekEv>:
_ZN15HardwareSerial44peekEv():
C:\Teensy\Projects\HelloWorld/HardwareSerial.h:359
    45e4:	f7fe ba8c 	b.w	2b00 <serial4_peek>

000045e8 <_ZN15HardwareSerial44readEv>:
_ZN15HardwareSerial44readEv():
C:\Teensy\Projects\HelloWorld/HardwareSerial.h:360
    45e8:	f7fe ba68 	b.w	2abc <serial4_getchar>

000045ec <_ZN15HardwareSerial45flushEv>:
_ZN15HardwareSerial45flushEv():
C:\Teensy\Projects\HelloWorld/HardwareSerial.h:361
    45ec:	f7fe ba41 	b.w	2a72 <serial4_flush>

000045f0 <_ZN15HardwareSerial45clearEv>:
_ZN15HardwareSerial45clearEv():
C:\Teensy\Projects\HelloWorld/HardwareSerial.h:362
    45f0:	f7fe ba9a 	b.w	2b28 <serial4_clear>

000045f4 <_ZN15HardwareSerial417availableForWriteEv>:
_ZN15HardwareSerial417availableForWriteEv():
C:\Teensy\Projects\HelloWorld/HardwareSerial.h:363
    45f4:	f7fe ba48 	b.w	2a88 <serial4_write_buffer_free>

000045f8 <_ZN15HardwareSerial45writeEh>:
_ZN15HardwareSerial45writeEh():
C:\Teensy\Projects\HelloWorld/HardwareSerial.h:364
    45f8:	b508      	push	{r3, lr}
    45fa:	4608      	mov	r0, r1
    45fc:	f7fe f9f0 	bl	29e0 <serial4_putchar>
    4600:	2001      	movs	r0, #1
    4602:	bd08      	pop	{r3, pc}

00004604 <_ZN15HardwareSerial49write9bitEm>:
_ZN15HardwareSerial49write9bitEm():
C:\Teensy\Projects\HelloWorld/HardwareSerial.h:374
    4604:	b508      	push	{r3, lr}
    4606:	4608      	mov	r0, r1
    4608:	f7fe f9ea 	bl	29e0 <serial4_putchar>
    460c:	2001      	movs	r0, #1
    460e:	bd08      	pop	{r3, pc}

00004610 <_ZN15HardwareSerial45writeEPKhj>:
_ZN15HardwareSerial45writeEPKhj():
C:\Teensy\Projects\HelloWorld/HardwareSerial.h:369
    4610:	b510      	push	{r4, lr}
C:\Teensy\Projects\HelloWorld/HardwareSerial.h:370
    4612:	4608      	mov	r0, r1
C:\Teensy\Projects\HelloWorld/HardwareSerial.h:369
    4614:	4614      	mov	r4, r2
C:\Teensy\Projects\HelloWorld/HardwareSerial.h:370
    4616:	4611      	mov	r1, r2
    4618:	f7fe fa20 	bl	2a5c <serial4_write>
    461c:	4620      	mov	r0, r4
    461e:	bd10      	pop	{r4, pc}

00004620 <_ZN15HardwareSerial45writeEPKc>:
_ZN15HardwareSerial45writeEPKc():
C:\Teensy\Projects\HelloWorld/HardwareSerial.h:371
    4620:	b538      	push	{r3, r4, r5, lr}
    4622:	4608      	mov	r0, r1
    4624:	460d      	mov	r5, r1
    4626:	f002 f968 	bl	68fa <strlen>
    462a:	4604      	mov	r4, r0
C:\Teensy\Projects\HelloWorld/HardwareSerial.h:372
    462c:	4621      	mov	r1, r4
    462e:	4628      	mov	r0, r5
    4630:	f7fe fa14 	bl	2a5c <serial4_write>
C:\Teensy\Projects\HelloWorld/HardwareSerial.h:373
    4634:	4620      	mov	r0, r4
    4636:	bd38      	pop	{r3, r4, r5, pc}

00004638 <_GLOBAL__sub_I_Serial4>:
Print():
C:\Teensy\Projects\HelloWorld/Print.h:50
    4638:	4b04      	ldr	r3, [pc, #16]	; (464c <_GLOBAL__sub_I_Serial4+0x14>)
    463a:	2200      	movs	r2, #0
    463c:	711a      	strb	r2, [r3, #4]
Stream():
C:\Teensy\Projects\HelloWorld/Stream.h:30
    463e:	f44f 717a 	mov.w	r1, #1000	; 0x3e8
    4642:	731a      	strb	r2, [r3, #12]
HardwareSerial4():
C:\Teensy\Projects\HelloWorld/HardwareSerial.h:345
    4644:	4a02      	ldr	r2, [pc, #8]	; (4650 <_GLOBAL__sub_I_Serial4+0x18>)
HardwareSerial():
C:\Teensy\Projects\HelloWorld/Stream.h:30
    4646:	6099      	str	r1, [r3, #8]
HardwareSerial4():
C:\Teensy\Projects\HelloWorld/HardwareSerial.h:345
    4648:	601a      	str	r2, [r3, #0]
    464a:	4770      	bx	lr
    464c:	1fff0f90 	.word	0x1fff0f90
    4650:	0000a250 	.word	0x0000a250

00004654 <_Z12serialEvent5v>:
_Z12serialEvent5v():
C:\Teensy\Projects\HelloWorld/HardwareSerial5.cpp:8
    4654:	4770      	bx	lr

00004656 <_ZN15HardwareSerial55writeEm>:
_ZN15HardwareSerial55writeEm():
C:\Teensy\Projects\HelloWorld/HardwareSerial.h:400
    4656:	b508      	push	{r3, lr}
    4658:	6803      	ldr	r3, [r0, #0]
    465a:	b2c9      	uxtb	r1, r1
    465c:	681b      	ldr	r3, [r3, #0]
    465e:	4798      	blx	r3
    4660:	bd08      	pop	{r3, pc}

00004662 <_ZN15HardwareSerial55writeEl>:
_ZN15HardwareSerial55writeEl():
C:\Teensy\Projects\HelloWorld/HardwareSerial.h:401
    4662:	b508      	push	{r3, lr}
    4664:	6803      	ldr	r3, [r0, #0]
    4666:	b2c9      	uxtb	r1, r1
    4668:	681b      	ldr	r3, [r3, #0]
    466a:	4798      	blx	r3
    466c:	bd08      	pop	{r3, pc}

0000466e <_ZN15HardwareSerial55writeEj>:
_ZN15HardwareSerial55writeEj():
C:\Teensy\Projects\HelloWorld/HardwareSerial.h:402
    466e:	b508      	push	{r3, lr}
    4670:	6803      	ldr	r3, [r0, #0]
    4672:	b2c9      	uxtb	r1, r1
    4674:	681b      	ldr	r3, [r3, #0]
    4676:	4798      	blx	r3
    4678:	bd08      	pop	{r3, pc}

0000467a <_ZN15HardwareSerial55writeEi>:
_ZN15HardwareSerial55writeEi():
C:\Teensy\Projects\HelloWorld/HardwareSerial.h:403
    467a:	b508      	push	{r3, lr}
    467c:	6803      	ldr	r3, [r0, #0]
    467e:	b2c9      	uxtb	r1, r1
    4680:	681b      	ldr	r3, [r3, #0]
    4682:	4798      	blx	r3
    4684:	bd08      	pop	{r3, pc}
    4686:	ffff 4803 	vtbl.8	d20, {d15}, d3

00004688 <_ZN15HardwareSerial55beginEm>:
_ZN15HardwareSerial55beginEm():
C:\Teensy\Projects\HelloWorld/HardwareSerial.h:383
    4688:	4803      	ldr	r0, [pc, #12]	; (4698 <_ZN15HardwareSerial55beginEm+0x10>)
    468a:	eb00 0051 	add.w	r0, r0, r1, lsr #1
    468e:	fbb0 f0f1 	udiv	r0, r0, r1
    4692:	f7fe baab 	b.w	2bec <serial5_begin>
    4696:	bf00      	nop
    4698:	07270e00 	.word	0x07270e00

0000469c <_ZN15HardwareSerial55beginEmm>:
_ZN15HardwareSerial55beginEmm():
C:\Teensy\Projects\HelloWorld/HardwareSerial.h:384
    469c:	b510      	push	{r4, lr}
C:\Teensy\Projects\HelloWorld/HardwareSerial.h:385
    469e:	4806      	ldr	r0, [pc, #24]	; (46b8 <_ZN15HardwareSerial55beginEmm+0x1c>)
    46a0:	eb00 0051 	add.w	r0, r0, r1, lsr #1
C:\Teensy\Projects\HelloWorld/HardwareSerial.h:384
    46a4:	4614      	mov	r4, r2
C:\Teensy\Projects\HelloWorld/HardwareSerial.h:385
    46a6:	fbb0 f0f1 	udiv	r0, r0, r1
    46aa:	f7fe fa9f 	bl	2bec <serial5_begin>
C:\Teensy\Projects\HelloWorld/HardwareSerial.h:386
    46ae:	4620      	mov	r0, r4
    46b0:	e8bd 4010 	ldmia.w	sp!, {r4, lr}
    46b4:	f7fe bace 	b.w	2c54 <serial5_format>
    46b8:	07270e00 	.word	0x07270e00

000046bc <_ZN15HardwareSerial53endEv>:
_ZN15HardwareSerial53endEv():
C:\Teensy\Projects\HelloWorld/HardwareSerial.h:387
    46bc:	f7fe bb00 	b.w	2cc0 <serial5_end>

000046c0 <_ZN15HardwareSerial517transmitterEnableEh>:
_ZN15HardwareSerial517transmitterEnableEh():
C:\Teensy\Projects\HelloWorld/HardwareSerial.h:388
    46c0:	4608      	mov	r0, r1
    46c2:	f7fe bb27 	b.w	2d14 <serial5_set_transmit_pin>

000046c6 <_ZN15HardwareSerial55setRXEh>:
_ZN15HardwareSerial55setRXEh():
C:\Teensy\Projects\HelloWorld/HardwareSerial.h:389
    46c6:	4608      	mov	r0, r1
    46c8:	f7fe bb66 	b.w	2d98 <serial5_set_rx>

000046cc <_ZN15HardwareSerial55setTXEhb>:
_ZN15HardwareSerial55setTXEhb():
C:\Teensy\Projects\HelloWorld/HardwareSerial.h:390
    46cc:	4608      	mov	r0, r1
    46ce:	4611      	mov	r1, r2
    46d0:	f7fe bb3a 	b.w	2d48 <serial5_set_tx>

000046d4 <_ZN15HardwareSerial59attachRtsEh>:
_ZN15HardwareSerial59attachRtsEh():
C:\Teensy\Projects\HelloWorld/HardwareSerial.h:391
    46d4:	b508      	push	{r3, lr}
    46d6:	4608      	mov	r0, r1
    46d8:	f7fe fb5f 	bl	2d9a <serial5_set_rts>
    46dc:	3000      	adds	r0, #0
    46de:	bf18      	it	ne
    46e0:	2001      	movne	r0, #1
    46e2:	bd08      	pop	{r3, pc}

000046e4 <_ZN15HardwareSerial59attachCtsEh>:
_ZN15HardwareSerial59attachCtsEh():
C:\Teensy\Projects\HelloWorld/HardwareSerial.h:392
    46e4:	b508      	push	{r3, lr}
    46e6:	4608      	mov	r0, r1
    46e8:	f7fe fb78 	bl	2ddc <serial5_set_cts>
    46ec:	3000      	adds	r0, #0
    46ee:	bf18      	it	ne
    46f0:	2001      	movne	r0, #1
    46f2:	bd08      	pop	{r3, pc}

000046f4 <_ZN15HardwareSerial59availableEv>:
_ZN15HardwareSerial59availableEv():
C:\Teensy\Projects\HelloWorld/HardwareSerial.h:393
    46f4:	f7fe bbf2 	b.w	2edc <serial5_available>

000046f8 <_ZN15HardwareSerial54peekEv>:
_ZN15HardwareSerial54peekEv():
C:\Teensy\Projects\HelloWorld/HardwareSerial.h:394
    46f8:	f7fe bc1e 	b.w	2f38 <serial5_peek>

000046fc <_ZN15HardwareSerial54readEv>:
_ZN15HardwareSerial54readEv():
C:\Teensy\Projects\HelloWorld/HardwareSerial.h:395
    46fc:	f7fe bbfa 	b.w	2ef4 <serial5_getchar>

00004700 <_ZN15HardwareSerial55flushEv>:
_ZN15HardwareSerial55flushEv():
C:\Teensy\Projects\HelloWorld/HardwareSerial.h:396
    4700:	f7fe bbd3 	b.w	2eaa <serial5_flush>

00004704 <_ZN15HardwareSerial55clearEv>:
_ZN15HardwareSerial55clearEv():
C:\Teensy\Projects\HelloWorld/HardwareSerial.h:397
    4704:	f7fe bc2c 	b.w	2f60 <serial5_clear>

00004708 <_ZN15HardwareSerial517availableForWriteEv>:
_ZN15HardwareSerial517availableForWriteEv():
C:\Teensy\Projects\HelloWorld/HardwareSerial.h:398
    4708:	f7fe bbda 	b.w	2ec0 <serial5_write_buffer_free>

0000470c <_ZN15HardwareSerial55writeEh>:
_ZN15HardwareSerial55writeEh():
C:\Teensy\Projects\HelloWorld/HardwareSerial.h:399
    470c:	b508      	push	{r3, lr}
    470e:	4608      	mov	r0, r1
    4710:	f7fe fb82 	bl	2e18 <serial5_putchar>
    4714:	2001      	movs	r0, #1
    4716:	bd08      	pop	{r3, pc}

00004718 <_ZN15HardwareSerial59write9bitEm>:
_ZN15HardwareSerial59write9bitEm():
C:\Teensy\Projects\HelloWorld/HardwareSerial.h:409
    4718:	b508      	push	{r3, lr}
    471a:	4608      	mov	r0, r1
    471c:	f7fe fb7c 	bl	2e18 <serial5_putchar>
    4720:	2001      	movs	r0, #1
    4722:	bd08      	pop	{r3, pc}

00004724 <_ZN15HardwareSerial55writeEPKhj>:
_ZN15HardwareSerial55writeEPKhj():
C:\Teensy\Projects\HelloWorld/HardwareSerial.h:404
    4724:	b510      	push	{r4, lr}
C:\Teensy\Projects\HelloWorld/HardwareSerial.h:405
    4726:	4608      	mov	r0, r1
C:\Teensy\Projects\HelloWorld/HardwareSerial.h:404
    4728:	4614      	mov	r4, r2
C:\Teensy\Projects\HelloWorld/HardwareSerial.h:405
    472a:	4611      	mov	r1, r2
    472c:	f7fe fbb2 	bl	2e94 <serial5_write>
    4730:	4620      	mov	r0, r4
    4732:	bd10      	pop	{r4, pc}

00004734 <_ZN15HardwareSerial55writeEPKc>:
_ZN15HardwareSerial55writeEPKc():
C:\Teensy\Projects\HelloWorld/HardwareSerial.h:406
    4734:	b538      	push	{r3, r4, r5, lr}
    4736:	4608      	mov	r0, r1
    4738:	460d      	mov	r5, r1
    473a:	f002 f8de 	bl	68fa <strlen>
    473e:	4604      	mov	r4, r0
C:\Teensy\Projects\HelloWorld/HardwareSerial.h:407
    4740:	4621      	mov	r1, r4
    4742:	4628      	mov	r0, r5
    4744:	f7fe fba6 	bl	2e94 <serial5_write>
C:\Teensy\Projects\HelloWorld/HardwareSerial.h:408
    4748:	4620      	mov	r0, r4
    474a:	bd38      	pop	{r3, r4, r5, pc}

0000474c <_GLOBAL__sub_I_Serial5>:
Print():
C:\Teensy\Projects\HelloWorld/Print.h:50
    474c:	4b04      	ldr	r3, [pc, #16]	; (4760 <_GLOBAL__sub_I_Serial5+0x14>)
    474e:	2200      	movs	r2, #0
    4750:	711a      	strb	r2, [r3, #4]
Stream():
C:\Teensy\Projects\HelloWorld/Stream.h:30
    4752:	f44f 717a 	mov.w	r1, #1000	; 0x3e8
    4756:	731a      	strb	r2, [r3, #12]
HardwareSerial5():
C:\Teensy\Projects\HelloWorld/HardwareSerial.h:380
    4758:	4a02      	ldr	r2, [pc, #8]	; (4764 <_GLOBAL__sub_I_Serial5+0x18>)
HardwareSerial():
C:\Teensy\Projects\HelloWorld/Stream.h:30
    475a:	6099      	str	r1, [r3, #8]
HardwareSerial5():
C:\Teensy\Projects\HelloWorld/HardwareSerial.h:380
    475c:	601a      	str	r2, [r3, #0]
    475e:	4770      	bx	lr
    4760:	1fff0fa0 	.word	0x1fff0fa0
    4764:	0000a2b0 	.word	0x0000a2b0

00004768 <_Z12serialEvent6v>:
_Z12serialEvent6v():
C:\Teensy\Projects\HelloWorld/HardwareSerial6.cpp:8
    4768:	4770      	bx	lr

0000476a <_ZN15HardwareSerial65writeEm>:
_ZN15HardwareSerial65writeEm():
C:\Teensy\Projects\HelloWorld/HardwareSerial.h:442
    476a:	b508      	push	{r3, lr}
    476c:	6803      	ldr	r3, [r0, #0]
    476e:	b2c9      	uxtb	r1, r1
    4770:	681b      	ldr	r3, [r3, #0]
    4772:	4798      	blx	r3
    4774:	bd08      	pop	{r3, pc}

00004776 <_ZN15HardwareSerial65writeEl>:
_ZN15HardwareSerial65writeEl():
C:\Teensy\Projects\HelloWorld/HardwareSerial.h:443
    4776:	b508      	push	{r3, lr}
    4778:	6803      	ldr	r3, [r0, #0]
    477a:	b2c9      	uxtb	r1, r1
    477c:	681b      	ldr	r3, [r3, #0]
    477e:	4798      	blx	r3
    4780:	bd08      	pop	{r3, pc}

00004782 <_ZN15HardwareSerial65writeEj>:
_ZN15HardwareSerial65writeEj():
C:\Teensy\Projects\HelloWorld/HardwareSerial.h:444
    4782:	b508      	push	{r3, lr}
    4784:	6803      	ldr	r3, [r0, #0]
    4786:	b2c9      	uxtb	r1, r1
    4788:	681b      	ldr	r3, [r3, #0]
    478a:	4798      	blx	r3
    478c:	bd08      	pop	{r3, pc}

0000478e <_ZN15HardwareSerial65writeEi>:
_ZN15HardwareSerial65writeEi():
C:\Teensy\Projects\HelloWorld/HardwareSerial.h:445
    478e:	b508      	push	{r3, lr}
    4790:	6803      	ldr	r3, [r0, #0]
    4792:	b2c9      	uxtb	r1, r1
    4794:	681b      	ldr	r3, [r3, #0]
    4796:	4798      	blx	r3
    4798:	bd08      	pop	{r3, pc}

0000479a <_ZN15HardwareSerial65beginEm>:
_ZN15HardwareSerial65beginEm():
C:\Teensy\Projects\HelloWorld/HardwareSerial.h:419
    479a:	4608      	mov	r0, r1
    479c:	f7fe bc42 	b.w	3024 <serial6_begin>

000047a0 <_ZN15HardwareSerial65beginEmm>:
_ZN15HardwareSerial65beginEmm():
C:\Teensy\Projects\HelloWorld/HardwareSerial.h:420
    47a0:	b510      	push	{r4, lr}
C:\Teensy\Projects\HelloWorld/HardwareSerial.h:421
    47a2:	4608      	mov	r0, r1
C:\Teensy\Projects\HelloWorld/HardwareSerial.h:420
    47a4:	4614      	mov	r4, r2
C:\Teensy\Projects\HelloWorld/HardwareSerial.h:421
    47a6:	f7fe fc3d 	bl	3024 <serial6_begin>
C:\Teensy\Projects\HelloWorld/HardwareSerial.h:422
    47aa:	4620      	mov	r0, r4
    47ac:	e8bd 4010 	ldmia.w	sp!, {r4, lr}
    47b0:	f7fe bcd0 	b.w	3154 <serial6_format>

000047b4 <_ZN15HardwareSerial63endEv>:
_ZN15HardwareSerial63endEv():
C:\Teensy\Projects\HelloWorld/HardwareSerial.h:429
    47b4:	f7fe bd08 	b.w	31c8 <serial6_end>

000047b8 <_ZN15HardwareSerial617transmitterEnableEh>:
_ZN15HardwareSerial617transmitterEnableEh():
C:\Teensy\Projects\HelloWorld/HardwareSerial.h:430
    47b8:	4608      	mov	r0, r1
    47ba:	f7fe bd2f 	b.w	321c <serial6_set_transmit_pin>

000047be <_ZN15HardwareSerial65setRXEh>:
_ZN15HardwareSerial65setRXEh():
C:\Teensy\Projects\HelloWorld/HardwareSerial.h:431
    47be:	4608      	mov	r0, r1
    47c0:	f7fe bd6e 	b.w	32a0 <serial6_set_rx>

000047c4 <_ZN15HardwareSerial65setTXEhb>:
_ZN15HardwareSerial65setTXEhb():
C:\Teensy\Projects\HelloWorld/HardwareSerial.h:432
    47c4:	4608      	mov	r0, r1
    47c6:	4611      	mov	r1, r2
    47c8:	f7fe bd42 	b.w	3250 <serial6_set_tx>

000047cc <_ZN15HardwareSerial69attachRtsEh>:
_ZN15HardwareSerial69attachRtsEh():
C:\Teensy\Projects\HelloWorld/HardwareSerial.h:433
    47cc:	b508      	push	{r3, lr}
    47ce:	4608      	mov	r0, r1
    47d0:	f7fe fd67 	bl	32a2 <serial6_set_rts>
    47d4:	3000      	adds	r0, #0
    47d6:	bf18      	it	ne
    47d8:	2001      	movne	r0, #1
    47da:	bd08      	pop	{r3, pc}

000047dc <_ZN15HardwareSerial69attachCtsEh>:
_ZN15HardwareSerial69attachCtsEh():
C:\Teensy\Projects\HelloWorld/HardwareSerial.h:434
    47dc:	b508      	push	{r3, lr}
    47de:	4608      	mov	r0, r1
    47e0:	f7fe fd80 	bl	32e4 <serial6_set_cts>
    47e4:	3000      	adds	r0, #0
    47e6:	bf18      	it	ne
    47e8:	2001      	movne	r0, #1
    47ea:	bd08      	pop	{r3, pc}

000047ec <_ZN15HardwareSerial69availableEv>:
_ZN15HardwareSerial69availableEv():
C:\Teensy\Projects\HelloWorld/HardwareSerial.h:435
    47ec:	f7fe bdfc 	b.w	33e8 <serial6_available>

000047f0 <_ZN15HardwareSerial64peekEv>:
_ZN15HardwareSerial64peekEv():
C:\Teensy\Projects\HelloWorld/HardwareSerial.h:436
    47f0:	f7fe be28 	b.w	3444 <serial6_peek>

000047f4 <_ZN15HardwareSerial64readEv>:
_ZN15HardwareSerial64readEv():
C:\Teensy\Projects\HelloWorld/HardwareSerial.h:437
    47f4:	f7fe be04 	b.w	3400 <serial6_getchar>

000047f8 <_ZN15HardwareSerial65flushEv>:
_ZN15HardwareSerial65flushEv():
C:\Teensy\Projects\HelloWorld/HardwareSerial.h:438
    47f8:	f7fe bddd 	b.w	33b6 <serial6_flush>

000047fc <_ZN15HardwareSerial65clearEv>:
_ZN15HardwareSerial65clearEv():
C:\Teensy\Projects\HelloWorld/HardwareSerial.h:439
    47fc:	f7fe be36 	b.w	346c <serial6_clear>

00004800 <_ZN15HardwareSerial617availableForWriteEv>:
_ZN15HardwareSerial617availableForWriteEv():
C:\Teensy\Projects\HelloWorld/HardwareSerial.h:440
    4800:	f7fe bde4 	b.w	33cc <serial6_write_buffer_free>

00004804 <_ZN15HardwareSerial65writeEh>:
_ZN15HardwareSerial65writeEh():
C:\Teensy\Projects\HelloWorld/HardwareSerial.h:441
    4804:	b508      	push	{r3, lr}
    4806:	4608      	mov	r0, r1
    4808:	f7fe fd8a 	bl	3320 <serial6_putchar>
    480c:	2001      	movs	r0, #1
    480e:	bd08      	pop	{r3, pc}

00004810 <_ZN15HardwareSerial69write9bitEm>:
_ZN15HardwareSerial69write9bitEm():
C:\Teensy\Projects\HelloWorld/HardwareSerial.h:451
    4810:	b508      	push	{r3, lr}
    4812:	4608      	mov	r0, r1
    4814:	f7fe fd84 	bl	3320 <serial6_putchar>
    4818:	2001      	movs	r0, #1
    481a:	bd08      	pop	{r3, pc}

0000481c <_ZN15HardwareSerial65writeEPKhj>:
_ZN15HardwareSerial65writeEPKhj():
C:\Teensy\Projects\HelloWorld/HardwareSerial.h:446
    481c:	b510      	push	{r4, lr}
C:\Teensy\Projects\HelloWorld/HardwareSerial.h:447
    481e:	4608      	mov	r0, r1
C:\Teensy\Projects\HelloWorld/HardwareSerial.h:446
    4820:	4614      	mov	r4, r2
C:\Teensy\Projects\HelloWorld/HardwareSerial.h:447
    4822:	4611      	mov	r1, r2
    4824:	f7fe fdbc 	bl	33a0 <serial6_write>
    4828:	4620      	mov	r0, r4
    482a:	bd10      	pop	{r4, pc}

0000482c <_ZN15HardwareSerial65writeEPKc>:
_ZN15HardwareSerial65writeEPKc():
C:\Teensy\Projects\HelloWorld/HardwareSerial.h:448
    482c:	b538      	push	{r3, r4, r5, lr}
    482e:	4608      	mov	r0, r1
    4830:	460d      	mov	r5, r1
    4832:	f002 f862 	bl	68fa <strlen>
    4836:	4604      	mov	r4, r0
C:\Teensy\Projects\HelloWorld/HardwareSerial.h:449
    4838:	4621      	mov	r1, r4
    483a:	4628      	mov	r0, r5
    483c:	f7fe fdb0 	bl	33a0 <serial6_write>
C:\Teensy\Projects\HelloWorld/HardwareSerial.h:450
    4840:	4620      	mov	r0, r4
    4842:	bd38      	pop	{r3, r4, r5, pc}

00004844 <_GLOBAL__sub_I_Serial6>:
Print():
C:\Teensy\Projects\HelloWorld/Print.h:50
    4844:	4b04      	ldr	r3, [pc, #16]	; (4858 <_GLOBAL__sub_I_Serial6+0x14>)
    4846:	2200      	movs	r2, #0
    4848:	711a      	strb	r2, [r3, #4]
Stream():
C:\Teensy\Projects\HelloWorld/Stream.h:30
    484a:	f44f 717a 	mov.w	r1, #1000	; 0x3e8
    484e:	731a      	strb	r2, [r3, #12]
HardwareSerial6():
C:\Teensy\Projects\HelloWorld/HardwareSerial.h:415
    4850:	4a02      	ldr	r2, [pc, #8]	; (485c <_GLOBAL__sub_I_Serial6+0x18>)
HardwareSerial():
C:\Teensy\Projects\HelloWorld/Stream.h:30
    4852:	6099      	str	r1, [r3, #8]
HardwareSerial6():
C:\Teensy\Projects\HelloWorld/HardwareSerial.h:415
    4854:	601a      	str	r2, [r3, #0]
    4856:	4770      	bx	lr
    4858:	1fff0fb0 	.word	0x1fff0fb0
    485c:	0000a310 	.word	0x0000a310

00004860 <main>:
main():
C:\Teensy\Projects\HelloWorld/main.cpp:7
    4860:	b538      	push	{r3, r4, r5, lr}
C:\Teensy\Projects\HelloWorld/main.cpp:11
    4862:	201d      	movs	r0, #29
    4864:	2101      	movs	r1, #1
    4866:	f7fc fb81 	bl	f6c <pinMode>
C:\Teensy\Projects\HelloWorld/main.cpp:12
    486a:	2100      	movs	r1, #0
    486c:	201e      	movs	r0, #30
    486e:	f7fc fb7d 	bl	f6c <pinMode>
C:\Teensy\Projects\HelloWorld/main.cpp:14
    4872:	4b1c      	ldr	r3, [pc, #112]	; (48e4 <main+0x84>)
    4874:	2201      	movs	r2, #1
    4876:	701a      	strb	r2, [r3, #0]
C:\Teensy\Projects\HelloWorld/main.cpp:19
    4878:	4a1b      	ldr	r2, [pc, #108]	; (48e8 <main+0x88>)
    487a:	f44f 73a2 	mov.w	r3, #324	; 0x144
    487e:	6013      	str	r3, [r2, #0]
C:\Teensy\Projects\HelloWorld/main.cpp:20
    4880:	f8c2 3fcc 	str.w	r3, [r2, #4044]	; 0xfcc
_ZN16usb_serial_class5flushEv():
C:\Teensy\Projects\HelloWorld/usb_serial.h:79
    4884:	f7ff fc70 	bl	4168 <usb_serial_flush_output>
main():
C:\Teensy\Projects\HelloWorld/main.cpp:26
    4888:	f44f 707a 	mov.w	r0, #1000	; 0x3e8
    488c:	f7fc fde8 	bl	1460 <delay>
C:\Teensy\Projects\HelloWorld/main.cpp:27
    4890:	4816      	ldr	r0, [pc, #88]	; (48ec <main+0x8c>)
    4892:	4917      	ldr	r1, [pc, #92]	; (48f0 <main+0x90>)
    4894:	f000 f87f 	bl	4996 <_ZN5Print6printfEPKcz>
C:\Teensy\Projects\HelloWorld/main.cpp:22
    4898:	2500      	movs	r5, #0
C:\Teensy\Projects\HelloWorld/main.cpp:31
    489a:	2001      	movs	r0, #1
    489c:	f7fc fde0 	bl	1460 <delay>
C:\Teensy\Projects\HelloWorld/main.cpp:35
    48a0:	4b14      	ldr	r3, [pc, #80]	; (48f4 <main+0x94>)
    48a2:	f8d3 30f0 	ldr.w	r3, [r3, #240]	; 0xf0
    48a6:	f893 2200 	ldrb.w	r2, [r3, #512]	; 0x200
    48aa:	4b13      	ldr	r3, [pc, #76]	; (48f8 <main+0x98>)
    48ac:	b11a      	cbz	r2, 48b6 <main+0x56>
C:\Teensy\Projects\HelloWorld/main.cpp:37
    48ae:	681a      	ldr	r2, [r3, #0]
    48b0:	f442 2280 	orr.w	r2, r2, #262144	; 0x40000
    48b4:	e002      	b.n	48bc <main+0x5c>
C:\Teensy\Projects\HelloWorld/main.cpp:41
    48b6:	681a      	ldr	r2, [r3, #0]
    48b8:	f422 2280 	bic.w	r2, r2, #262144	; 0x40000
C:\Teensy\Projects\HelloWorld/main.cpp:43
    48bc:	4c0f      	ldr	r4, [pc, #60]	; (48fc <main+0x9c>)
C:\Teensy\Projects\HelloWorld/main.cpp:41
    48be:	601a      	str	r2, [r3, #0]
C:\Teensy\Projects\HelloWorld/main.cpp:43
    48c0:	6823      	ldr	r3, [r4, #0]
    48c2:	f043 0320 	orr.w	r3, r3, #32
    48c6:	6023      	str	r3, [r4, #0]
C:\Teensy\Projects\HelloWorld/main.cpp:45
    48c8:	2001      	movs	r0, #1
    48ca:	f7fc fdc9 	bl	1460 <delay>
C:\Teensy\Projects\HelloWorld/main.cpp:46
    48ce:	6823      	ldr	r3, [r4, #0]
C:\Teensy\Projects\HelloWorld/main.cpp:47
    48d0:	4806      	ldr	r0, [pc, #24]	; (48ec <main+0x8c>)
    48d2:	490b      	ldr	r1, [pc, #44]	; (4900 <main+0xa0>)
C:\Teensy\Projects\HelloWorld/main.cpp:46
    48d4:	f023 0320 	bic.w	r3, r3, #32
C:\Teensy\Projects\HelloWorld/main.cpp:47
    48d8:	462a      	mov	r2, r5
C:\Teensy\Projects\HelloWorld/main.cpp:46
    48da:	6023      	str	r3, [r4, #0]
C:\Teensy\Projects\HelloWorld/main.cpp:47
    48dc:	f000 f85b 	bl	4996 <_ZN5Print6printfEPKcz>
C:\Teensy\Projects\HelloWorld/main.cpp:48
    48e0:	3501      	adds	r5, #1
C:\Teensy\Projects\HelloWorld/main.cpp:49
    48e2:	e7da      	b.n	489a <main+0x3a>
    48e4:	43fe1294 	.word	0x43fe1294
    48e8:	4004a048 	.word	0x4004a048
    48ec:	1fff0fc0 	.word	0x1fff0fc0
    48f0:	0000a368 	.word	0x0000a368
    48f4:	00009ecc 	.word	0x00009ecc
    48f8:	400ff040 	.word	0x400ff040
    48fc:	400ff080 	.word	0x400ff080
    4900:	0000a377 	.word	0x0000a377
$d():
    4904:	ffffffff 	.word	0xffffffff

00004908 <_ZN5Print5writeEPKhj>:
_ZN5Print5writeEPKhj():
C:\Teensy\Projects\HelloWorld/Print.cpp:31
    4908:	b5f8      	push	{r3, r4, r5, r6, r7, lr}
    490a:	4606      	mov	r6, r0
    490c:	460c      	mov	r4, r1
    490e:	188f      	adds	r7, r1, r2
C:\Teensy\Projects\HelloWorld/Print.cpp:32
    4910:	2500      	movs	r5, #0
C:\Teensy\Projects\HelloWorld/Print.cpp:33 (discriminator 1)
    4912:	42bc      	cmp	r4, r7
    4914:	d007      	beq.n	4926 <_ZN5Print5writeEPKhj+0x1e>
C:\Teensy\Projects\HelloWorld/Print.cpp:33 (discriminator 2)
    4916:	6833      	ldr	r3, [r6, #0]
    4918:	f814 1b01 	ldrb.w	r1, [r4], #1
    491c:	681b      	ldr	r3, [r3, #0]
    491e:	4630      	mov	r0, r6
    4920:	4798      	blx	r3
    4922:	4405      	add	r5, r0
    4924:	e7f5      	b.n	4912 <_ZN5Print5writeEPKhj+0xa>
C:\Teensy\Projects\HelloWorld/Print.cpp:35
    4926:	4628      	mov	r0, r5
    4928:	bdf8      	pop	{r3, r4, r5, r6, r7, pc}

0000492a <_ZN5Print5printERK6String>:
_ZN5Print5printERK6String():
C:\Teensy\Projects\HelloWorld/Print.cpp:39
    492a:	e92d 41f0 	stmdb	sp!, {r4, r5, r6, r7, r8, lr}
C:\Teensy\Projects\HelloWorld/Print.cpp:42
    492e:	2500      	movs	r5, #0
C:\Teensy\Projects\HelloWorld/Print.cpp:38
    4930:	688c      	ldr	r4, [r1, #8]
C:\Teensy\Projects\HelloWorld/Print.cpp:39
    4932:	b08a      	sub	sp, #40	; 0x28
    4934:	4607      	mov	r7, r0
    4936:	4688      	mov	r8, r1
C:\Teensy\Projects\HelloWorld/Print.cpp:41
    4938:	462e      	mov	r6, r5
C:\Teensy\Projects\HelloWorld/Print.cpp:44 (discriminator 1)
    493a:	b194      	cbz	r4, 4962 <_ZN5Print5printERK6String+0x38>
C:\Teensy\Projects\HelloWorld/Print.cpp:45
    493c:	462b      	mov	r3, r5
    493e:	4640      	mov	r0, r8
    4940:	a901      	add	r1, sp, #4
    4942:	2221      	movs	r2, #33	; 0x21
    4944:	f000 fc7f 	bl	5246 <_ZNK6String8getBytesEPhjj>
C:\Teensy\Projects\HelloWorld/Print.cpp:50
    4948:	683b      	ldr	r3, [r7, #0]
    494a:	2c20      	cmp	r4, #32
    494c:	bf34      	ite	cc
    494e:	4622      	movcc	r2, r4
    4950:	2220      	movcs	r2, #32
    4952:	685b      	ldr	r3, [r3, #4]
    4954:	4638      	mov	r0, r7
    4956:	a901      	add	r1, sp, #4
C:\Teensy\Projects\HelloWorld/Print.cpp:48
    4958:	4415      	add	r5, r2
C:\Teensy\Projects\HelloWorld/Print.cpp:49
    495a:	1aa4      	subs	r4, r4, r2
C:\Teensy\Projects\HelloWorld/Print.cpp:50
    495c:	4798      	blx	r3
    495e:	4406      	add	r6, r0
    4960:	e7eb      	b.n	493a <_ZN5Print5printERK6String+0x10>
C:\Teensy\Projects\HelloWorld/Print.cpp:53
    4962:	4630      	mov	r0, r6
    4964:	b00a      	add	sp, #40	; 0x28
    4966:	e8bd 81f0 	ldmia.w	sp!, {r4, r5, r6, r7, r8, pc}

0000496a <_ZN5Print7printlnEv>:
_ZN5Print7printlnEv():
C:\Teensy\Projects\HelloWorld/Print.cpp:69
    496a:	b507      	push	{r0, r1, r2, lr}
C:\Teensy\Projects\HelloWorld/Print.cpp:70
    496c:	4b05      	ldr	r3, [pc, #20]	; (4984 <_ZN5Print7printlnEv+0x1a>)
    496e:	881b      	ldrh	r3, [r3, #0]
    4970:	f8ad 3004 	strh.w	r3, [sp, #4]
C:\Teensy\Projects\HelloWorld/Print.cpp:71
    4974:	6803      	ldr	r3, [r0, #0]
    4976:	a901      	add	r1, sp, #4
    4978:	685b      	ldr	r3, [r3, #4]
    497a:	2202      	movs	r2, #2
    497c:	4798      	blx	r3
C:\Teensy\Projects\HelloWorld/Print.cpp:72
    497e:	b003      	add	sp, #12
    4980:	f85d fb04 	ldr.w	pc, [sp], #4
    4984:	0000a380 	.word	0x0000a380

00004988 <_write>:
_write():
C:\Teensy\Projects\HelloWorld/Print.cpp:77
    4988:	b510      	push	{r4, lr}
C:\Teensy\Projects\HelloWorld/Print.cpp:78
    498a:	6803      	ldr	r3, [r0, #0]
C:\Teensy\Projects\HelloWorld/Print.cpp:77
    498c:	4614      	mov	r4, r2
C:\Teensy\Projects\HelloWorld/Print.cpp:78
    498e:	685b      	ldr	r3, [r3, #4]
    4990:	4798      	blx	r3
C:\Teensy\Projects\HelloWorld/Print.cpp:80
    4992:	4620      	mov	r0, r4
    4994:	bd10      	pop	{r4, pc}

00004996 <_ZN5Print6printfEPKcz>:
_ZN5Print6printfEPKcz():
C:\Teensy\Projects\HelloWorld/Print.cpp:84
    4996:	b40e      	push	{r1, r2, r3}
    4998:	b503      	push	{r0, r1, lr}
    499a:	aa03      	add	r2, sp, #12
    499c:	f852 1b04 	ldr.w	r1, [r2], #4
C:\Teensy\Projects\HelloWorld/Print.cpp:86
    49a0:	9201      	str	r2, [sp, #4]
C:\Teensy\Projects\HelloWorld/Print.cpp:90
    49a2:	f002 ff49 	bl	7838 <vdiprintf>
C:\Teensy\Projects\HelloWorld/Print.cpp:92
    49a6:	b002      	add	sp, #8
    49a8:	f85d eb04 	ldr.w	lr, [sp], #4
    49ac:	b003      	add	sp, #12
    49ae:	4770      	bx	lr

000049b0 <_ZN5Print6printfEPK19__FlashStringHelperz>:
_ZN5Print6printfEPK19__FlashStringHelperz():
C:\Teensy\Projects\HelloWorld/Print.cpp:95
    49b0:	b40e      	push	{r1, r2, r3}
    49b2:	b503      	push	{r0, r1, lr}
    49b4:	aa03      	add	r2, sp, #12
    49b6:	f852 1b04 	ldr.w	r1, [r2], #4
C:\Teensy\Projects\HelloWorld/Print.cpp:97
    49ba:	9201      	str	r2, [sp, #4]
C:\Teensy\Projects\HelloWorld/Print.cpp:101
    49bc:	f002 ff3c 	bl	7838 <vdiprintf>
C:\Teensy\Projects\HelloWorld/Print.cpp:103
    49c0:	b002      	add	sp, #8
    49c2:	f85d eb04 	ldr.w	lr, [sp], #4
    49c6:	b003      	add	sp, #12
    49c8:	4770      	bx	lr

000049ca <_ZN5Print11printNumberEmhh>:
_ZN5Print11printNumberEmhh():
C:\Teensy\Projects\HelloWorld/Print.cpp:243
    49ca:	b570      	push	{r4, r5, r6, lr}
    49cc:	4605      	mov	r5, r0
    49ce:	b08a      	sub	sp, #40	; 0x28
C:\Teensy\Projects\HelloWorld/Print.cpp:250
    49d0:	b922      	cbnz	r2, 49dc <_ZN5Print11printNumberEmhh+0x12>
C:\Teensy\Projects\HelloWorld/Print.cpp:251
    49d2:	6803      	ldr	r3, [r0, #0]
    49d4:	b2c9      	uxtb	r1, r1
    49d6:	681b      	ldr	r3, [r3, #0]
    49d8:	4798      	blx	r3
    49da:	e02c      	b.n	4a36 <_ZN5Print11printNumberEmhh+0x6c>
C:\Teensy\Projects\HelloWorld/Print.cpp:253
    49dc:	2a01      	cmp	r2, #1
    49de:	bf08      	it	eq
    49e0:	220a      	moveq	r2, #10
C:\Teensy\Projects\HelloWorld/Print.cpp:257
    49e2:	b921      	cbnz	r1, 49ee <_ZN5Print11printNumberEmhh+0x24>
C:\Teensy\Projects\HelloWorld/Print.cpp:258
    49e4:	2230      	movs	r2, #48	; 0x30
    49e6:	f88d 2025 	strb.w	r2, [sp, #37]	; 0x25
C:\Teensy\Projects\HelloWorld/Print.cpp:259
    49ea:	2421      	movs	r4, #33	; 0x21
    49ec:	e013      	b.n	4a16 <_ZN5Print11printNumberEmhh+0x4c>
C:\Teensy\Projects\HelloWorld/Print.cpp:257
    49ee:	2421      	movs	r4, #33	; 0x21
C:\Teensy\Projects\HelloWorld/Print.cpp:263
    49f0:	fbb1 f0f2 	udiv	r0, r1, r2
    49f4:	fb02 1110 	mls	r1, r2, r0, r1
    49f8:	b2c9      	uxtb	r1, r1
C:\Teensy\Projects\HelloWorld/Print.cpp:264
    49fa:	2909      	cmp	r1, #9
    49fc:	ae0a      	add	r6, sp, #40	; 0x28
    49fe:	bf94      	ite	ls
    4a00:	3130      	addls	r1, #48	; 0x30
    4a02:	3137      	addhi	r1, #55	; 0x37
    4a04:	4426      	add	r6, r4
    4a06:	b2c9      	uxtb	r1, r1
    4a08:	f806 1c24 	strb.w	r1, [r6, #-36]
C:\Teensy\Projects\HelloWorld/Print.cpp:266
    4a0c:	4601      	mov	r1, r0
    4a0e:	b110      	cbz	r0, 4a16 <_ZN5Print11printNumberEmhh+0x4c>
C:\Teensy\Projects\HelloWorld/Print.cpp:267
    4a10:	3c01      	subs	r4, #1
    4a12:	b2e4      	uxtb	r4, r4
C:\Teensy\Projects\HelloWorld/Print.cpp:257
    4a14:	e7ec      	b.n	49f0 <_ZN5Print11printNumberEmhh+0x26>
C:\Teensy\Projects\HelloWorld/Print.cpp:270
    4a16:	b133      	cbz	r3, 4a26 <_ZN5Print11printNumberEmhh+0x5c>
C:\Teensy\Projects\HelloWorld/Print.cpp:271
    4a18:	3c01      	subs	r4, #1
    4a1a:	b2e4      	uxtb	r4, r4
C:\Teensy\Projects\HelloWorld/Print.cpp:272
    4a1c:	ab0a      	add	r3, sp, #40	; 0x28
    4a1e:	4423      	add	r3, r4
    4a20:	222d      	movs	r2, #45	; 0x2d
    4a22:	f803 2c24 	strb.w	r2, [r3, #-36]
C:\Teensy\Projects\HelloWorld/Print.cpp:274
    4a26:	682b      	ldr	r3, [r5, #0]
    4a28:	a901      	add	r1, sp, #4
    4a2a:	685b      	ldr	r3, [r3, #4]
    4a2c:	4628      	mov	r0, r5
    4a2e:	4421      	add	r1, r4
    4a30:	f1c4 0222 	rsb	r2, r4, #34	; 0x22
    4a34:	4798      	blx	r3
C:\Teensy\Projects\HelloWorld/Print.cpp:275
    4a36:	b00a      	add	sp, #40	; 0x28
    4a38:	bd70      	pop	{r4, r5, r6, pc}

00004a3a <_ZN5Print5printEl>:
_ZN5Print5printEl():
C:\Teensy\Projects\HelloWorld/Print.cpp:60
    4a3a:	2900      	cmp	r1, #0
C:\Teensy\Projects\HelloWorld/Print.cpp:62
    4a3c:	bfba      	itte	lt
    4a3e:	4249      	neglt	r1, r1
C:\Teensy\Projects\HelloWorld/Print.cpp:61
    4a40:	232d      	movlt	r3, #45	; 0x2d
C:\Teensy\Projects\HelloWorld/Print.cpp:58
    4a42:	2300      	movge	r3, #0
C:\Teensy\Projects\HelloWorld/Print.cpp:64
    4a44:	220a      	movs	r2, #10
    4a46:	f7ff bfc0 	b.w	49ca <_ZN5Print11printNumberEmhh>

00004a4a <_ZN5Print10printFloatEdh>:
_ZN5Print10printFloatEdh():
C:\Teensy\Projects\HelloWorld/Print.cpp:280
    4a4a:	e92d 47ff 	stmdb	sp!, {r0, r1, r2, r3, r4, r5, r6, r7, r8, r9, sl, lr}
    4a4e:	4680      	mov	r8, r0
C:\Teensy\Projects\HelloWorld/Print.cpp:284
    4a50:	4619      	mov	r1, r3
    4a52:	4610      	mov	r0, r2
C:\Teensy\Projects\HelloWorld/Print.cpp:280
    4a54:	4614      	mov	r4, r2
    4a56:	461d      	mov	r5, r3
    4a58:	f89d 9030 	ldrb.w	r9, [sp, #48]	; 0x30
C:\Teensy\Projects\HelloWorld/Print.cpp:284
    4a5c:	f000 fdda 	bl	5614 <__fpclassifyd>
    4a60:	b910      	cbnz	r0, 4a68 <_ZN5Print10printFloatEdh+0x1e>
_ZN5Print5printEPKc():
C:\Teensy\Projects\HelloWorld/Print.h:57
    4a62:	4640      	mov	r0, r8
    4a64:	494c      	ldr	r1, [pc, #304]	; (4b98 <_ZN5Print10printFloatEdh+0x14e>)
    4a66:	e007      	b.n	4a78 <_ZN5Print10printFloatEdh+0x2e>
_ZN5Print10printFloatEdh():
C:\Teensy\Projects\HelloWorld/Print.cpp:285 (discriminator 2)
    4a68:	4620      	mov	r0, r4
    4a6a:	4629      	mov	r1, r5
    4a6c:	f000 fdd2 	bl	5614 <__fpclassifyd>
    4a70:	2801      	cmp	r0, #1
    4a72:	d105      	bne.n	4a80 <_ZN5Print10printFloatEdh+0x36>
_ZN5Print5printEPKc():
C:\Teensy\Projects\HelloWorld/Print.h:57
    4a74:	4949      	ldr	r1, [pc, #292]	; (4b9c <_ZN5Print10printFloatEdh+0x152>)
    4a76:	4640      	mov	r0, r8
    4a78:	f7ff fbb8 	bl	41ec <_ZN5Print5writeEPKc>
    4a7c:	4606      	mov	r6, r0
_ZN5Print10printFloatEdh():
C:\Teensy\Projects\HelloWorld/Print.cpp:285
    4a7e:	e080      	b.n	4b82 <_ZN5Print10printFloatEdh+0x138>
C:\Teensy\Projects\HelloWorld/Print.cpp:286
    4a80:	4620      	mov	r0, r4
    4a82:	4629      	mov	r1, r5
    4a84:	f04f 4260 	mov.w	r2, #3758096384	; 0xe0000000
    4a88:	4b45      	ldr	r3, [pc, #276]	; (4ba0 <_ZN5Print10printFloatEdh+0x156>)
    4a8a:	f001 fa33 	bl	5ef4 <__aeabi_dcmpgt>
    4a8e:	b110      	cbz	r0, 4a96 <_ZN5Print10printFloatEdh+0x4c>
_ZN5Print5printEPKc():
C:\Teensy\Projects\HelloWorld/Print.h:57
    4a90:	4640      	mov	r0, r8
    4a92:	4944      	ldr	r1, [pc, #272]	; (4ba4 <_ZN5Print10printFloatEdh+0x15a>)
    4a94:	e7f0      	b.n	4a78 <_ZN5Print10printFloatEdh+0x2e>
_ZN5Print10printFloatEdh():
C:\Teensy\Projects\HelloWorld/Print.cpp:287
    4a96:	4620      	mov	r0, r4
    4a98:	4629      	mov	r1, r5
    4a9a:	f04f 4260 	mov.w	r2, #3758096384	; 0xe0000000
    4a9e:	4b42      	ldr	r3, [pc, #264]	; (4ba8 <_ZN5Print10printFloatEdh+0x15e>)
    4aa0:	f001 fa0a 	bl	5eb8 <__aeabi_dcmplt>
    4aa4:	2800      	cmp	r0, #0
    4aa6:	d1f3      	bne.n	4a90 <_ZN5Print10printFloatEdh+0x46>
C:\Teensy\Projects\HelloWorld/Print.cpp:290
    4aa8:	4620      	mov	r0, r4
    4aaa:	4629      	mov	r1, r5
    4aac:	2200      	movs	r2, #0
    4aae:	2300      	movs	r3, #0
    4ab0:	f001 fa02 	bl	5eb8 <__aeabi_dcmplt>
    4ab4:	b120      	cbz	r0, 4ac0 <_ZN5Print10printFloatEdh+0x76>
C:\Teensy\Projects\HelloWorld/Print.cpp:292
    4ab6:	f105 4700 	add.w	r7, r5, #2147483648	; 0x80000000
    4aba:	463d      	mov	r5, r7
C:\Teensy\Projects\HelloWorld/Print.cpp:291
    4abc:	2601      	movs	r6, #1
    4abe:	e000      	b.n	4ac2 <_ZN5Print10printFloatEdh+0x78>
C:\Teensy\Projects\HelloWorld/Print.cpp:281
    4ac0:	4606      	mov	r6, r0
C:\Teensy\Projects\HelloWorld/Print.cpp:296
    4ac2:	4b3a      	ldr	r3, [pc, #232]	; (4bac <_ZN5Print10printFloatEdh+0x162>)
C:\Teensy\Projects\HelloWorld/Print.cpp:297
    4ac4:	2700      	movs	r7, #0
C:\Teensy\Projects\HelloWorld/Print.cpp:296
    4ac6:	2200      	movs	r2, #0
C:\Teensy\Projects\HelloWorld/Print.cpp:297 (discriminator 1)
    4ac8:	b2f9      	uxtb	r1, r7
    4aca:	4549      	cmp	r1, r9
    4acc:	d20a      	bcs.n	4ae4 <_ZN5Print10printFloatEdh+0x9a>
C:\Teensy\Projects\HelloWorld/Print.cpp:298 (discriminator 2)
    4ace:	4610      	mov	r0, r2
    4ad0:	4619      	mov	r1, r3
    4ad2:	a32f      	add	r3, pc, #188	; (adr r3, 4b90 <_ZN5Print10printFloatEdh+0x146>)
    4ad4:	e9d3 2300 	ldrd	r2, r3, [r3]
    4ad8:	f000 ff7c 	bl	59d4 <__aeabi_dmul>
    4adc:	3701      	adds	r7, #1
    4ade:	4602      	mov	r2, r0
    4ae0:	460b      	mov	r3, r1
    4ae2:	e7f1      	b.n	4ac8 <_ZN5Print10printFloatEdh+0x7e>
C:\Teensy\Projects\HelloWorld/Print.cpp:300
    4ae4:	4620      	mov	r0, r4
    4ae6:	4629      	mov	r1, r5
    4ae8:	f000 fdc2 	bl	5670 <__adddf3>
    4aec:	460d      	mov	r5, r1
    4aee:	4604      	mov	r4, r0
C:\Teensy\Projects\HelloWorld/Print.cpp:303
    4af0:	f001 fa32 	bl	5f58 <__aeabi_d2uiz>
    4af4:	4607      	mov	r7, r0
C:\Teensy\Projects\HelloWorld/Print.cpp:305
    4af6:	4633      	mov	r3, r6
    4af8:	4640      	mov	r0, r8
    4afa:	4639      	mov	r1, r7
    4afc:	220a      	movs	r2, #10
    4afe:	f7ff ff64 	bl	49ca <_ZN5Print11printNumberEmhh>
    4b02:	4606      	mov	r6, r0
C:\Teensy\Projects\HelloWorld/Print.cpp:308
    4b04:	f1b9 0f00 	cmp.w	r9, #0
    4b08:	d03b      	beq.n	4b82 <_ZN5Print10printFloatEdh+0x138>
C:\Teensy\Projects\HelloWorld/Print.cpp:304
    4b0a:	4638      	mov	r0, r7
    4b0c:	f000 feec 	bl	58e8 <__aeabi_ui2d>
    4b10:	f1b9 0f0f 	cmp.w	r9, #15
    4b14:	bf28      	it	cs
    4b16:	f04f 090f 	movcs.w	r9, #15
    4b1a:	460b      	mov	r3, r1
    4b1c:	4602      	mov	r2, r0
    4b1e:	4629      	mov	r1, r5
    4b20:	4620      	mov	r0, r4
    4b22:	f000 fda3 	bl	566c <__aeabi_dsub>
    4b26:	f109 0901 	add.w	r9, r9, #1
C:\Teensy\Projects\HelloWorld/Print.cpp:310
    4b2a:	232e      	movs	r3, #46	; 0x2e
    4b2c:	f88d 3000 	strb.w	r3, [sp]
    4b30:	fa5f f989 	uxtb.w	r9, r9
    4b34:	f04f 0a01 	mov.w	sl, #1
C:\Teensy\Projects\HelloWorld/Print.cpp:316
    4b38:	2200      	movs	r2, #0
    4b3a:	4b1d      	ldr	r3, [pc, #116]	; (4bb0 <_ZN5Print10printFloatEdh+0x166>)
    4b3c:	f000 ff4a 	bl	59d4 <__aeabi_dmul>
    4b40:	460d      	mov	r5, r1
    4b42:	4604      	mov	r4, r0
C:\Teensy\Projects\HelloWorld/Print.cpp:317
    4b44:	f001 fa08 	bl	5f58 <__aeabi_d2uiz>
C:\Teensy\Projects\HelloWorld/Print.cpp:318
    4b48:	ab04      	add	r3, sp, #16
    4b4a:	4453      	add	r3, sl
C:\Teensy\Projects\HelloWorld/Print.cpp:317
    4b4c:	b2c0      	uxtb	r0, r0
C:\Teensy\Projects\HelloWorld/Print.cpp:318
    4b4e:	f100 0230 	add.w	r2, r0, #48	; 0x30
    4b52:	f803 2c10 	strb.w	r2, [r3, #-16]
C:\Teensy\Projects\HelloWorld/Print.cpp:319
    4b56:	f000 fed7 	bl	5908 <__aeabi_i2d>
C:\Teensy\Projects\HelloWorld/Print.cpp:318
    4b5a:	f10a 0701 	add.w	r7, sl, #1
C:\Teensy\Projects\HelloWorld/Print.cpp:319
    4b5e:	4602      	mov	r2, r0
    4b60:	460b      	mov	r3, r1
C:\Teensy\Projects\HelloWorld/Print.cpp:318
    4b62:	b2ff      	uxtb	r7, r7
C:\Teensy\Projects\HelloWorld/Print.cpp:319
    4b64:	4620      	mov	r0, r4
    4b66:	4629      	mov	r1, r5
    4b68:	f000 fd80 	bl	566c <__aeabi_dsub>
C:\Teensy\Projects\HelloWorld/Print.cpp:315
    4b6c:	454f      	cmp	r7, r9
    4b6e:	d001      	beq.n	4b74 <_ZN5Print10printFloatEdh+0x12a>
C:\Teensy\Projects\HelloWorld/Print.cpp:318
    4b70:	46ba      	mov	sl, r7
    4b72:	e7e1      	b.n	4b38 <_ZN5Print10printFloatEdh+0xee>
C:\Teensy\Projects\HelloWorld/Print.cpp:321
    4b74:	f8d8 3000 	ldr.w	r3, [r8]
    4b78:	4640      	mov	r0, r8
    4b7a:	685b      	ldr	r3, [r3, #4]
    4b7c:	4669      	mov	r1, sp
    4b7e:	464a      	mov	r2, r9
    4b80:	4798      	blx	r3
C:\Teensy\Projects\HelloWorld/Print.cpp:324
    4b82:	4630      	mov	r0, r6
    4b84:	b004      	add	sp, #16
    4b86:	e8bd 87f0 	ldmia.w	sp!, {r4, r5, r6, r7, r8, r9, sl, pc}
    4b8a:	bf00      	nop
    4b8c:	f3af 8000 	nop.w
    4b90:	9999999a 	.word	0x9999999a
    4b94:	3fb99999 	.word	0x3fb99999
    4b98:	0000a398 	.word	0x0000a398
    4b9c:	0000a39c 	.word	0x0000a39c
    4ba0:	41efffff 	.word	0x41efffff
    4ba4:	0000a3a0 	.word	0x0000a3a0
    4ba8:	c1efffff 	.word	0xc1efffff
    4bac:	3fe00000 	.word	0x3fe00000
    4bb0:	40240000 	.word	0x40240000
$t():
    4bb4:	f3af 8000 	nop.w

00004bb8 <_Z11serialEventv>:
_Z11serialEventv():
C:\Teensy\Projects\HelloWorld/usb_inst.cpp:64
    4bb8:	4770      	bx	lr

00004bba <_ZN16usb_serial_class9availableEv>:
_ZN16usb_serial_class9availableEv():
C:\Teensy\Projects\HelloWorld/usb_serial.h:76
    4bba:	f7ff b9e9 	b.w	3f90 <usb_serial_available>

00004bbe <_ZN16usb_serial_class4readEv>:
_ZN16usb_serial_class4readEv():
C:\Teensy\Projects\HelloWorld/usb_serial.h:77
    4bbe:	f7ff b9a5 	b.w	3f0c <usb_serial_getchar>

00004bc2 <_ZN16usb_serial_class4peekEv>:
_ZN16usb_serial_class4peekEv():
C:\Teensy\Projects\HelloWorld/usb_serial.h:78
    4bc2:	f7ff b9c9 	b.w	3f58 <usb_serial_peekchar>

00004bc6 <_ZN16usb_serial_class5flushEv>:
_ZN16usb_serial_class5flushEv():
C:\Teensy\Projects\HelloWorld/usb_serial.h:79
    4bc6:	f7ff bacf 	b.w	4168 <usb_serial_flush_output>

00004bca <_ZN16usb_serial_class5clearEv>:
_ZN16usb_serial_class5clearEv():
C:\Teensy\Projects\HelloWorld/usb_serial.h:80
    4bca:	f7ff ba2d 	b.w	4028 <usb_serial_flush_input>

00004bce <_ZN16usb_serial_class5writeEh>:
_ZN16usb_serial_class5writeEh():
C:\Teensy\Projects\HelloWorld/usb_serial.h:81
    4bce:	4608      	mov	r0, r1
    4bd0:	f7ff ba9e 	b.w	4110 <usb_serial_putchar>

00004bd4 <_ZN16usb_serial_class5writeEPKhj>:
_ZN16usb_serial_class5writeEPKhj():
C:\Teensy\Projects\HelloWorld/usb_serial.h:82
    4bd4:	4608      	mov	r0, r1
    4bd6:	4611      	mov	r1, r2
    4bd8:	f7ff ba3e 	b.w	4058 <usb_serial_write>

00004bdc <_GLOBAL__sub_I_Serial>:
Print():
C:\Teensy\Projects\HelloWorld/Print.h:50
    4bdc:	4b04      	ldr	r3, [pc, #16]	; (4bf0 <_GLOBAL__sub_I_Serial+0x14>)
    4bde:	2200      	movs	r2, #0
    4be0:	711a      	strb	r2, [r3, #4]
Stream():
C:\Teensy\Projects\HelloWorld/Stream.h:30
    4be2:	f44f 717a 	mov.w	r1, #1000	; 0x3e8
    4be6:	731a      	strb	r2, [r3, #12]
usb_serial_class():
C:\Teensy\Projects\HelloWorld/usb_serial.h:71
    4be8:	4a02      	ldr	r2, [pc, #8]	; (4bf4 <_GLOBAL__sub_I_Serial+0x18>)
Stream():
C:\Teensy\Projects\HelloWorld/Stream.h:30
    4bea:	6099      	str	r1, [r3, #8]
usb_serial_class():
C:\Teensy\Projects\HelloWorld/usb_serial.h:71
    4bec:	601a      	str	r2, [r3, #0]
    4bee:	4770      	bx	lr
    4bf0:	1fff0fc0 	.word	0x1fff0fc0
    4bf4:	0000a3b0 	.word	0x0000a3b0

00004bf8 <_ZN6StringC1EOS_>:
_ZN6String4initEv():
C:\Teensy\Projects\HelloWorld/WString.cpp:124
    4bf8:	2200      	movs	r2, #0
_ZN6StringC2EOS_():
C:\Teensy\Projects\HelloWorld/WString.cpp:48
    4bfa:	b510      	push	{r4, lr}
_ZN6String4initEv():
C:\Teensy\Projects\HelloWorld/WString.cpp:124
    4bfc:	6002      	str	r2, [r0, #0]
C:\Teensy\Projects\HelloWorld/WString.cpp:125
    4bfe:	6042      	str	r2, [r0, #4]
_ZN6String4moveERS_():
C:\Teensy\Projects\HelloWorld/WString.cpp:187
    4c00:	680c      	ldr	r4, [r1, #0]
_ZN6String4initEv():
C:\Teensy\Projects\HelloWorld/WString.cpp:126
    4c02:	6082      	str	r2, [r0, #8]
_ZN6String4moveERS_():
C:\Teensy\Projects\HelloWorld/WString.cpp:187
    4c04:	6004      	str	r4, [r0, #0]
C:\Teensy\Projects\HelloWorld/WString.cpp:188
    4c06:	684c      	ldr	r4, [r1, #4]
    4c08:	6044      	str	r4, [r0, #4]
C:\Teensy\Projects\HelloWorld/WString.cpp:189
    4c0a:	688c      	ldr	r4, [r1, #8]
_ZN6String4initEv():
C:\Teensy\Projects\HelloWorld/WString.cpp:127
    4c0c:	7302      	strb	r2, [r0, #12]
_ZN6String4moveERS_():
C:\Teensy\Projects\HelloWorld/WString.cpp:189
    4c0e:	6084      	str	r4, [r0, #8]
C:\Teensy\Projects\HelloWorld/WString.cpp:190
    4c10:	600a      	str	r2, [r1, #0]
C:\Teensy\Projects\HelloWorld/WString.cpp:191
    4c12:	604a      	str	r2, [r1, #4]
C:\Teensy\Projects\HelloWorld/WString.cpp:192
    4c14:	608a      	str	r2, [r1, #8]
_ZN6StringC2EOS_():
C:\Teensy\Projects\HelloWorld/WString.cpp:52
    4c16:	bd10      	pop	{r4, pc}

00004c18 <_ZN6StringC1EO15StringSumHelper>:
_ZN6String4initEv():
C:\Teensy\Projects\HelloWorld/WString.cpp:124
    4c18:	2200      	movs	r2, #0
_ZN6StringC2EO15StringSumHelper():
C:\Teensy\Projects\HelloWorld/WString.cpp:53
    4c1a:	b510      	push	{r4, lr}
_ZN6String4initEv():
C:\Teensy\Projects\HelloWorld/WString.cpp:124
    4c1c:	6002      	str	r2, [r0, #0]
C:\Teensy\Projects\HelloWorld/WString.cpp:125
    4c1e:	6042      	str	r2, [r0, #4]
_ZN6String4moveERS_():
C:\Teensy\Projects\HelloWorld/WString.cpp:187
    4c20:	680c      	ldr	r4, [r1, #0]
_ZN6String4initEv():
C:\Teensy\Projects\HelloWorld/WString.cpp:126
    4c22:	6082      	str	r2, [r0, #8]
_ZN6String4moveERS_():
C:\Teensy\Projects\HelloWorld/WString.cpp:187
    4c24:	6004      	str	r4, [r0, #0]
C:\Teensy\Projects\HelloWorld/WString.cpp:188
    4c26:	684c      	ldr	r4, [r1, #4]
    4c28:	6044      	str	r4, [r0, #4]
C:\Teensy\Projects\HelloWorld/WString.cpp:189
    4c2a:	688c      	ldr	r4, [r1, #8]
_ZN6String4initEv():
C:\Teensy\Projects\HelloWorld/WString.cpp:127
    4c2c:	7302      	strb	r2, [r0, #12]
_ZN6String4moveERS_():
C:\Teensy\Projects\HelloWorld/WString.cpp:189
    4c2e:	6084      	str	r4, [r0, #8]
C:\Teensy\Projects\HelloWorld/WString.cpp:190
    4c30:	600a      	str	r2, [r1, #0]
C:\Teensy\Projects\HelloWorld/WString.cpp:191
    4c32:	604a      	str	r2, [r1, #4]
C:\Teensy\Projects\HelloWorld/WString.cpp:192
    4c34:	608a      	str	r2, [r1, #8]
_ZN6StringC2EO15StringSumHelper():
C:\Teensy\Projects\HelloWorld/WString.cpp:57
    4c36:	bd10      	pop	{r4, pc}

00004c38 <_ZN6StringD1Ev>:
_ZN6StringD2Ev():
C:\Teensy\Projects\HelloWorld/WString.cpp:113
    4c38:	b510      	push	{r4, lr}
    4c3a:	4604      	mov	r4, r0
C:\Teensy\Projects\HelloWorld/WString.cpp:115
    4c3c:	6800      	ldr	r0, [r0, #0]
    4c3e:	f001 fd57 	bl	66f0 <free>
C:\Teensy\Projects\HelloWorld/WString.cpp:116
    4c42:	4620      	mov	r0, r4
    4c44:	bd10      	pop	{r4, pc}

00004c46 <_ZN6String12changeBufferEj>:
_ZN6String12changeBufferEj():
C:\Teensy\Projects\HelloWorld/WString.cpp:141
    4c46:	b538      	push	{r3, r4, r5, lr}
    4c48:	4604      	mov	r4, r0
    4c4a:	460d      	mov	r5, r1
C:\Teensy\Projects\HelloWorld/WString.cpp:142
    4c4c:	6800      	ldr	r0, [r0, #0]
    4c4e:	3101      	adds	r1, #1
    4c50:	f001 fe1a 	bl	6888 <realloc>
C:\Teensy\Projects\HelloWorld/WString.cpp:143
    4c54:	b110      	cbz	r0, 4c5c <_ZN6String12changeBufferEj+0x16>
C:\Teensy\Projects\HelloWorld/WString.cpp:145
    4c56:	e884 0021 	stmia.w	r4, {r0, r5}
C:\Teensy\Projects\HelloWorld/WString.cpp:146
    4c5a:	2001      	movs	r0, #1
C:\Teensy\Projects\HelloWorld/WString.cpp:149
    4c5c:	bd38      	pop	{r3, r4, r5, pc}

00004c5e <_ZN6String7reserveEj>:
_ZN6String7reserveEj():
C:\Teensy\Projects\HelloWorld/WString.cpp:132
    4c5e:	6843      	ldr	r3, [r0, #4]
    4c60:	428b      	cmp	r3, r1
C:\Teensy\Projects\HelloWorld/WString.cpp:131
    4c62:	b510      	push	{r4, lr}
    4c64:	4604      	mov	r4, r0
C:\Teensy\Projects\HelloWorld/WString.cpp:132
    4c66:	d206      	bcs.n	4c76 <_ZN6String7reserveEj+0x18>
C:\Teensy\Projects\HelloWorld/WString.cpp:133
    4c68:	f7ff ffed 	bl	4c46 <_ZN6String12changeBufferEj>
    4c6c:	b120      	cbz	r0, 4c78 <_ZN6String7reserveEj+0x1a>
C:\Teensy\Projects\HelloWorld/WString.cpp:134
    4c6e:	68a3      	ldr	r3, [r4, #8]
    4c70:	b90b      	cbnz	r3, 4c76 <_ZN6String7reserveEj+0x18>
    4c72:	6822      	ldr	r2, [r4, #0]
    4c74:	7013      	strb	r3, [r2, #0]
    4c76:	2001      	movs	r0, #1
C:\Teensy\Projects\HelloWorld/WString.cpp:138
    4c78:	bd10      	pop	{r4, pc}

00004c7a <_ZN6String4copyEPKcj>:
_ZN6String4copyEPKcj():
C:\Teensy\Projects\HelloWorld/WString.cpp:156
    4c7a:	b5f8      	push	{r3, r4, r5, r6, r7, lr}
    4c7c:	4604      	mov	r4, r0
    4c7e:	460f      	mov	r7, r1
C:\Teensy\Projects\HelloWorld/WString.cpp:157
    4c80:	4615      	mov	r5, r2
    4c82:	b922      	cbnz	r2, 4c8e <_ZN6String4copyEPKcj+0x14>
C:\Teensy\Projects\HelloWorld/WString.cpp:158
    4c84:	6803      	ldr	r3, [r0, #0]
    4c86:	b103      	cbz	r3, 4c8a <_ZN6String4copyEPKcj+0x10>
C:\Teensy\Projects\HelloWorld/WString.cpp:158 (discriminator 1)
    4c88:	701a      	strb	r2, [r3, #0]
C:\Teensy\Projects\HelloWorld/WString.cpp:159
    4c8a:	2300      	movs	r3, #0
    4c8c:	e00b      	b.n	4ca6 <_ZN6String4copyEPKcj+0x2c>
C:\Teensy\Projects\HelloWorld/WString.cpp:162
    4c8e:	4611      	mov	r1, r2
    4c90:	f7ff ffe5 	bl	4c5e <_ZN6String7reserveEj>
    4c94:	4606      	mov	r6, r0
    4c96:	b940      	cbnz	r0, 4caa <_ZN6String4copyEPKcj+0x30>
C:\Teensy\Projects\HelloWorld/WString.cpp:163
    4c98:	6820      	ldr	r0, [r4, #0]
    4c9a:	b110      	cbz	r0, 4ca2 <_ZN6String4copyEPKcj+0x28>
C:\Teensy\Projects\HelloWorld/WString.cpp:164
    4c9c:	f001 fd28 	bl	66f0 <free>
C:\Teensy\Projects\HelloWorld/WString.cpp:165
    4ca0:	6026      	str	r6, [r4, #0]
C:\Teensy\Projects\HelloWorld/WString.cpp:167
    4ca2:	2300      	movs	r3, #0
    4ca4:	6063      	str	r3, [r4, #4]
    4ca6:	60a3      	str	r3, [r4, #8]
    4ca8:	e004      	b.n	4cb4 <_ZN6String4copyEPKcj+0x3a>
C:\Teensy\Projects\HelloWorld/WString.cpp:170
    4caa:	60a5      	str	r5, [r4, #8]
C:\Teensy\Projects\HelloWorld/WString.cpp:171
    4cac:	6820      	ldr	r0, [r4, #0]
    4cae:	4639      	mov	r1, r7
    4cb0:	f001 fe1b 	bl	68ea <strcpy>
C:\Teensy\Projects\HelloWorld/WString.cpp:173
    4cb4:	4620      	mov	r0, r4
    4cb6:	bdf8      	pop	{r3, r4, r5, r6, r7, pc}

00004cb8 <_ZN6StringC1EPKc>:
_ZN6StringC2EPKc():
C:\Teensy\Projects\HelloWorld/WString.cpp:29
    4cb8:	b538      	push	{r3, r4, r5, lr}
_ZN6String4initEv():
C:\Teensy\Projects\HelloWorld/WString.cpp:124
    4cba:	2300      	movs	r3, #0
_ZN6StringC2EPKc():
C:\Teensy\Projects\HelloWorld/WString.cpp:29
    4cbc:	4604      	mov	r4, r0
_ZN6String4initEv():
C:\Teensy\Projects\HelloWorld/WString.cpp:124
    4cbe:	6003      	str	r3, [r0, #0]
C:\Teensy\Projects\HelloWorld/WString.cpp:125
    4cc0:	6043      	str	r3, [r0, #4]
C:\Teensy\Projects\HelloWorld/WString.cpp:126
    4cc2:	6083      	str	r3, [r0, #8]
C:\Teensy\Projects\HelloWorld/WString.cpp:127
    4cc4:	7303      	strb	r3, [r0, #12]
_ZN6StringC2EPKc():
C:\Teensy\Projects\HelloWorld/WString.cpp:32
    4cc6:	460d      	mov	r5, r1
    4cc8:	b139      	cbz	r1, 4cda <_ZN6StringC1EPKc+0x22>
C:\Teensy\Projects\HelloWorld/WString.cpp:32 (discriminator 1)
    4cca:	4608      	mov	r0, r1
    4ccc:	f001 fe15 	bl	68fa <strlen>
    4cd0:	4629      	mov	r1, r5
    4cd2:	4602      	mov	r2, r0
    4cd4:	4620      	mov	r0, r4
    4cd6:	f7ff ffd0 	bl	4c7a <_ZN6String4copyEPKcj>
C:\Teensy\Projects\HelloWorld/WString.cpp:33
    4cda:	4620      	mov	r0, r4
    4cdc:	bd38      	pop	{r3, r4, r5, pc}

00004cde <_ZN6StringC1EPK19__FlashStringHelper>:
_ZN6StringC2EPK19__FlashStringHelper():
C:\Teensy\Projects\HelloWorld/WString.cpp:35
    4cde:	b510      	push	{r4, lr}
_ZN6String4initEv():
C:\Teensy\Projects\HelloWorld/WString.cpp:124
    4ce0:	2300      	movs	r3, #0
_ZN6StringC2EPK19__FlashStringHelper():
C:\Teensy\Projects\HelloWorld/WString.cpp:35
    4ce2:	4604      	mov	r4, r0
_ZN6String4initEv():
C:\Teensy\Projects\HelloWorld/WString.cpp:124
    4ce4:	6003      	str	r3, [r0, #0]
C:\Teensy\Projects\HelloWorld/WString.cpp:125
    4ce6:	6043      	str	r3, [r0, #4]
C:\Teensy\Projects\HelloWorld/WString.cpp:126
    4ce8:	6083      	str	r3, [r0, #8]
C:\Teensy\Projects\HelloWorld/WString.cpp:127
    4cea:	7303      	strb	r3, [r0, #12]
_ZN6StringaSEPK19__FlashStringHelper():
C:\Teensy\Projects\HelloWorld/WString.cpp:227
    4cec:	f000 fc56 	bl	559c <_ZN6String4copyEPK19__FlashStringHelper>
_ZN6StringC2EPK19__FlashStringHelper():
C:\Teensy\Projects\HelloWorld/WString.cpp:39
    4cf0:	4620      	mov	r0, r4
    4cf2:	bd10      	pop	{r4, pc}

00004cf4 <_ZN6String4moveERS_>:
_ZN6String4moveERS_():
C:\Teensy\Projects\HelloWorld/WString.cpp:176
    4cf4:	b538      	push	{r3, r4, r5, lr}
    4cf6:	4605      	mov	r5, r0
C:\Teensy\Projects\HelloWorld/WString.cpp:177
    4cf8:	6800      	ldr	r0, [r0, #0]
C:\Teensy\Projects\HelloWorld/WString.cpp:176
    4cfa:	460c      	mov	r4, r1
C:\Teensy\Projects\HelloWorld/WString.cpp:177
    4cfc:	b160      	cbz	r0, 4d18 <_ZN6String4moveERS_+0x24>
C:\Teensy\Projects\HelloWorld/WString.cpp:178
    4cfe:	686a      	ldr	r2, [r5, #4]
    4d00:	688b      	ldr	r3, [r1, #8]
    4d02:	429a      	cmp	r2, r3
    4d04:	d306      	bcc.n	4d14 <_ZN6String4moveERS_+0x20>
C:\Teensy\Projects\HelloWorld/WString.cpp:179
    4d06:	6809      	ldr	r1, [r1, #0]
    4d08:	f001 fdef 	bl	68ea <strcpy>
C:\Teensy\Projects\HelloWorld/WString.cpp:180
    4d0c:	68a3      	ldr	r3, [r4, #8]
    4d0e:	60ab      	str	r3, [r5, #8]
C:\Teensy\Projects\HelloWorld/WString.cpp:181
    4d10:	2300      	movs	r3, #0
    4d12:	e00a      	b.n	4d2a <_ZN6String4moveERS_+0x36>
C:\Teensy\Projects\HelloWorld/WString.cpp:184
    4d14:	f001 fcec 	bl	66f0 <free>
C:\Teensy\Projects\HelloWorld/WString.cpp:187
    4d18:	6823      	ldr	r3, [r4, #0]
    4d1a:	602b      	str	r3, [r5, #0]
C:\Teensy\Projects\HelloWorld/WString.cpp:188
    4d1c:	6863      	ldr	r3, [r4, #4]
    4d1e:	606b      	str	r3, [r5, #4]
C:\Teensy\Projects\HelloWorld/WString.cpp:189
    4d20:	68a3      	ldr	r3, [r4, #8]
    4d22:	60ab      	str	r3, [r5, #8]
C:\Teensy\Projects\HelloWorld/WString.cpp:190
    4d24:	2300      	movs	r3, #0
    4d26:	6023      	str	r3, [r4, #0]
C:\Teensy\Projects\HelloWorld/WString.cpp:191
    4d28:	6063      	str	r3, [r4, #4]
C:\Teensy\Projects\HelloWorld/WString.cpp:192
    4d2a:	60a3      	str	r3, [r4, #8]
    4d2c:	bd38      	pop	{r3, r4, r5, pc}

00004d2e <_ZN6StringaSERKS_>:
_ZN6StringaSERKS_():
C:\Teensy\Projects\HelloWorld/WString.cpp:197
    4d2e:	4281      	cmp	r1, r0
C:\Teensy\Projects\HelloWorld/WString.cpp:196
    4d30:	460b      	mov	r3, r1
C:\Teensy\Projects\HelloWorld/WString.cpp:197
    4d32:	d003      	beq.n	4d3c <_ZN6StringaSERKS_+0xe>
C:\Teensy\Projects\HelloWorld/WString.cpp:198
    4d34:	6809      	ldr	r1, [r1, #0]
    4d36:	689a      	ldr	r2, [r3, #8]
    4d38:	f7ff bf9f 	b.w	4c7a <_ZN6String4copyEPKcj>
C:\Teensy\Projects\HelloWorld/WString.cpp:199
    4d3c:	4770      	bx	lr

00004d3e <_ZN6StringC1ERKS_>:
_ZN6StringC2ERKS_():
C:\Teensy\Projects\HelloWorld/WString.cpp:41
    4d3e:	b510      	push	{r4, lr}
_ZN6String4initEv():
C:\Teensy\Projects\HelloWorld/WString.cpp:124
    4d40:	2300      	movs	r3, #0
_ZN6StringC2ERKS_():
C:\Teensy\Projects\HelloWorld/WString.cpp:41
    4d42:	4604      	mov	r4, r0
_ZN6String4initEv():
C:\Teensy\Projects\HelloWorld/WString.cpp:124
    4d44:	6003      	str	r3, [r0, #0]
C:\Teensy\Projects\HelloWorld/WString.cpp:125
    4d46:	6043      	str	r3, [r0, #4]
C:\Teensy\Projects\HelloWorld/WString.cpp:126
    4d48:	6083      	str	r3, [r0, #8]
C:\Teensy\Projects\HelloWorld/WString.cpp:127
    4d4a:	7303      	strb	r3, [r0, #12]
_ZN6StringC2ERKS_():
C:\Teensy\Projects\HelloWorld/WString.cpp:44
    4d4c:	f7ff ffef 	bl	4d2e <_ZN6StringaSERKS_>
C:\Teensy\Projects\HelloWorld/WString.cpp:45
    4d50:	4620      	mov	r0, r4
    4d52:	bd10      	pop	{r4, pc}

00004d54 <_ZN6StringaSEOS_>:
_ZN6StringaSEOS_():
C:\Teensy\Projects\HelloWorld/WString.cpp:204
    4d54:	4288      	cmp	r0, r1
C:\Teensy\Projects\HelloWorld/WString.cpp:203
    4d56:	b510      	push	{r4, lr}
    4d58:	4604      	mov	r4, r0
C:\Teensy\Projects\HelloWorld/WString.cpp:204
    4d5a:	d001      	beq.n	4d60 <_ZN6StringaSEOS_+0xc>
C:\Teensy\Projects\HelloWorld/WString.cpp:204 (discriminator 1)
    4d5c:	f7ff ffca 	bl	4cf4 <_ZN6String4moveERS_>
C:\Teensy\Projects\HelloWorld/WString.cpp:206
    4d60:	4620      	mov	r0, r4
    4d62:	bd10      	pop	{r4, pc}

00004d64 <_ZN6StringaSEO15StringSumHelper>:
_ZN6StringaSEO15StringSumHelper():
C:\Teensy\Projects\HelloWorld/WString.cpp:210
    4d64:	4288      	cmp	r0, r1
C:\Teensy\Projects\HelloWorld/WString.cpp:209
    4d66:	b510      	push	{r4, lr}
    4d68:	4604      	mov	r4, r0
C:\Teensy\Projects\HelloWorld/WString.cpp:210
    4d6a:	d001      	beq.n	4d70 <_ZN6StringaSEO15StringSumHelper+0xc>
C:\Teensy\Projects\HelloWorld/WString.cpp:210 (discriminator 1)
    4d6c:	f7ff ffc2 	bl	4cf4 <_ZN6String4moveERS_>
C:\Teensy\Projects\HelloWorld/WString.cpp:212
    4d70:	4620      	mov	r0, r4
    4d72:	bd10      	pop	{r4, pc}

00004d74 <_ZN6StringaSEPKc>:
_ZN6StringaSEPKc():
C:\Teensy\Projects\HelloWorld/WString.cpp:216
    4d74:	b538      	push	{r3, r4, r5, lr}
    4d76:	4605      	mov	r5, r0
C:\Teensy\Projects\HelloWorld/WString.cpp:217
    4d78:	460c      	mov	r4, r1
    4d7a:	b141      	cbz	r1, 4d8e <_ZN6StringaSEPKc+0x1a>
C:\Teensy\Projects\HelloWorld/WString.cpp:218
    4d7c:	4608      	mov	r0, r1
    4d7e:	f001 fdbc 	bl	68fa <strlen>
    4d82:	4621      	mov	r1, r4
    4d84:	4602      	mov	r2, r0
    4d86:	4628      	mov	r0, r5
    4d88:	f7ff ff77 	bl	4c7a <_ZN6String4copyEPKcj>
    4d8c:	e000      	b.n	4d90 <_ZN6StringaSEPKc+0x1c>
C:\Teensy\Projects\HelloWorld/WString.cpp:220
    4d8e:	60a9      	str	r1, [r5, #8]
C:\Teensy\Projects\HelloWorld/WString.cpp:223
    4d90:	4628      	mov	r0, r5
    4d92:	bd38      	pop	{r3, r4, r5, pc}

00004d94 <_ZN6StringC1Eh>:
_ZN6StringC2Eh():
C:\Teensy\Projects\HelloWorld/WString.cpp:66
    4d94:	b513      	push	{r0, r1, r4, lr}
_ZN6String4initEv():
C:\Teensy\Projects\HelloWorld/WString.cpp:124
    4d96:	2300      	movs	r3, #0
_ZN6StringC2Eh():
C:\Teensy\Projects\HelloWorld/WString.cpp:66
    4d98:	4604      	mov	r4, r0
_ZN6String4initEv():
C:\Teensy\Projects\HelloWorld/WString.cpp:124
    4d9a:	6003      	str	r3, [r0, #0]
C:\Teensy\Projects\HelloWorld/WString.cpp:125
    4d9c:	6043      	str	r3, [r0, #4]
C:\Teensy\Projects\HelloWorld/WString.cpp:126
    4d9e:	6083      	str	r3, [r0, #8]
C:\Teensy\Projects\HelloWorld/WString.cpp:127
    4da0:	7303      	strb	r3, [r0, #12]
utoa():
C:\Teensy\Projects\HelloWorld/avr_functions.h:100
    4da2:	220a      	movs	r2, #10
    4da4:	4608      	mov	r0, r1
    4da6:	a901      	add	r1, sp, #4
    4da8:	f7fb fe2e 	bl	a08 <ultoa>
_ZN6StringC2Eh():
C:\Teensy\Projects\HelloWorld/WString.cpp:71
    4dac:	4620      	mov	r0, r4
    4dae:	a901      	add	r1, sp, #4
    4db0:	f7ff ffe0 	bl	4d74 <_ZN6StringaSEPKc>
C:\Teensy\Projects\HelloWorld/WString.cpp:72
    4db4:	4620      	mov	r0, r4
    4db6:	b002      	add	sp, #8
    4db8:	bd10      	pop	{r4, pc}

00004dba <_ZN6StringC1Eih>:
_ZN6StringC2Eih():
C:\Teensy\Projects\HelloWorld/WString.cpp:74
    4dba:	b510      	push	{r4, lr}
_ZN6String4initEv():
C:\Teensy\Projects\HelloWorld/WString.cpp:124
    4dbc:	2300      	movs	r3, #0
_ZN6StringC2Eih():
C:\Teensy\Projects\HelloWorld/WString.cpp:74
    4dbe:	b086      	sub	sp, #24
    4dc0:	4604      	mov	r4, r0
_ZN6String4initEv():
C:\Teensy\Projects\HelloWorld/WString.cpp:124
    4dc2:	6003      	str	r3, [r0, #0]
C:\Teensy\Projects\HelloWorld/WString.cpp:125
    4dc4:	6043      	str	r3, [r0, #4]
C:\Teensy\Projects\HelloWorld/WString.cpp:126
    4dc6:	6083      	str	r3, [r0, #8]
C:\Teensy\Projects\HelloWorld/WString.cpp:127
    4dc8:	7303      	strb	r3, [r0, #12]
itoa():
C:\Teensy\Projects\HelloWorld/avr_functions.h:102
    4dca:	4608      	mov	r0, r1
    4dcc:	a901      	add	r1, sp, #4
    4dce:	f7fb fe39 	bl	a44 <ltoa>
_ZN6StringC2Eih():
C:\Teensy\Projects\HelloWorld/WString.cpp:79
    4dd2:	4620      	mov	r0, r4
    4dd4:	a901      	add	r1, sp, #4
    4dd6:	f7ff ffcd 	bl	4d74 <_ZN6StringaSEPKc>
C:\Teensy\Projects\HelloWorld/WString.cpp:80
    4dda:	4620      	mov	r0, r4
    4ddc:	b006      	add	sp, #24
    4dde:	bd10      	pop	{r4, pc}

00004de0 <_ZN6StringC1Ejh>:
_ZN6StringC2Ejh():
C:\Teensy\Projects\HelloWorld/WString.cpp:82
    4de0:	b510      	push	{r4, lr}
_ZN6String4initEv():
C:\Teensy\Projects\HelloWorld/WString.cpp:124
    4de2:	2300      	movs	r3, #0
_ZN6StringC2Ejh():
C:\Teensy\Projects\HelloWorld/WString.cpp:82
    4de4:	b086      	sub	sp, #24
    4de6:	4604      	mov	r4, r0
_ZN6String4initEv():
C:\Teensy\Projects\HelloWorld/WString.cpp:124
    4de8:	6003      	str	r3, [r0, #0]
C:\Teensy\Projects\HelloWorld/WString.cpp:125
    4dea:	6043      	str	r3, [r0, #4]
C:\Teensy\Projects\HelloWorld/WString.cpp:126
    4dec:	6083      	str	r3, [r0, #8]
C:\Teensy\Projects\HelloWorld/WString.cpp:127
    4dee:	7303      	strb	r3, [r0, #12]
utoa():
C:\Teensy\Projects\HelloWorld/avr_functions.h:100
    4df0:	4608      	mov	r0, r1
    4df2:	a901      	add	r1, sp, #4
    4df4:	f7fb fe08 	bl	a08 <ultoa>
_ZN6StringC2Ejh():
C:\Teensy\Projects\HelloWorld/WString.cpp:87
    4df8:	4620      	mov	r0, r4
    4dfa:	a901      	add	r1, sp, #4
    4dfc:	f7ff ffba 	bl	4d74 <_ZN6StringaSEPKc>
C:\Teensy\Projects\HelloWorld/WString.cpp:88
    4e00:	4620      	mov	r0, r4
    4e02:	b006      	add	sp, #24
    4e04:	bd10      	pop	{r4, pc}

00004e06 <_ZN6StringC1Elh>:
_ZN6StringC2Elh():
C:\Teensy\Projects\HelloWorld/WString.cpp:90
    4e06:	b510      	push	{r4, lr}
_ZN6String4initEv():
C:\Teensy\Projects\HelloWorld/WString.cpp:124
    4e08:	2300      	movs	r3, #0
_ZN6StringC2Elh():
C:\Teensy\Projects\HelloWorld/WString.cpp:90
    4e0a:	b08a      	sub	sp, #40	; 0x28
    4e0c:	4604      	mov	r4, r0
_ZN6String4initEv():
C:\Teensy\Projects\HelloWorld/WString.cpp:124
    4e0e:	6003      	str	r3, [r0, #0]
C:\Teensy\Projects\HelloWorld/WString.cpp:125
    4e10:	6043      	str	r3, [r0, #4]
C:\Teensy\Projects\HelloWorld/WString.cpp:126
    4e12:	6083      	str	r3, [r0, #8]
C:\Teensy\Projects\HelloWorld/WString.cpp:127
    4e14:	7303      	strb	r3, [r0, #12]
_ZN6StringC2Elh():
C:\Teensy\Projects\HelloWorld/WString.cpp:94
    4e16:	4608      	mov	r0, r1
    4e18:	a901      	add	r1, sp, #4
    4e1a:	f7fb fe13 	bl	a44 <ltoa>
C:\Teensy\Projects\HelloWorld/WString.cpp:95
    4e1e:	4620      	mov	r0, r4
    4e20:	a901      	add	r1, sp, #4
    4e22:	f7ff ffa7 	bl	4d74 <_ZN6StringaSEPKc>
C:\Teensy\Projects\HelloWorld/WString.cpp:96
    4e26:	4620      	mov	r0, r4
    4e28:	b00a      	add	sp, #40	; 0x28
    4e2a:	bd10      	pop	{r4, pc}

00004e2c <_ZN6StringC1Emh>:
_ZN6StringC2Emh():
C:\Teensy\Projects\HelloWorld/WString.cpp:98
    4e2c:	b510      	push	{r4, lr}
_ZN6String4initEv():
C:\Teensy\Projects\HelloWorld/WString.cpp:124
    4e2e:	2300      	movs	r3, #0
_ZN6StringC2Emh():
C:\Teensy\Projects\HelloWorld/WString.cpp:98
    4e30:	b08a      	sub	sp, #40	; 0x28
    4e32:	4604      	mov	r4, r0
_ZN6String4initEv():
C:\Teensy\Projects\HelloWorld/WString.cpp:124
    4e34:	6003      	str	r3, [r0, #0]
C:\Teensy\Projects\HelloWorld/WString.cpp:125
    4e36:	6043      	str	r3, [r0, #4]
C:\Teensy\Projects\HelloWorld/WString.cpp:126
    4e38:	6083      	str	r3, [r0, #8]
C:\Teensy\Projects\HelloWorld/WString.cpp:127
    4e3a:	7303      	strb	r3, [r0, #12]
_ZN6StringC2Emh():
C:\Teensy\Projects\HelloWorld/WString.cpp:102
    4e3c:	4608      	mov	r0, r1
    4e3e:	a901      	add	r1, sp, #4
    4e40:	f7fb fde2 	bl	a08 <ultoa>
C:\Teensy\Projects\HelloWorld/WString.cpp:103
    4e44:	4620      	mov	r0, r4
    4e46:	a901      	add	r1, sp, #4
    4e48:	f7ff ff94 	bl	4d74 <_ZN6StringaSEPKc>
C:\Teensy\Projects\HelloWorld/WString.cpp:104
    4e4c:	4620      	mov	r0, r4
    4e4e:	b00a      	add	sp, #40	; 0x28
    4e50:	bd10      	pop	{r4, pc}

00004e52 <_ZN6StringC1Efh>:
_ZN6StringC2Efh():
C:\Teensy\Projects\HelloWorld/WString.cpp:106
    4e52:	b510      	push	{r4, lr}
_ZN6String4initEv():
C:\Teensy\Projects\HelloWorld/WString.cpp:124
    4e54:	2300      	movs	r3, #0
_ZN6StringC2Efh():
C:\Teensy\Projects\HelloWorld/WString.cpp:106
    4e56:	b08a      	sub	sp, #40	; 0x28
    4e58:	4604      	mov	r4, r0
_ZN6String4initEv():
C:\Teensy\Projects\HelloWorld/WString.cpp:124
    4e5a:	6003      	str	r3, [r0, #0]
C:\Teensy\Projects\HelloWorld/WString.cpp:125
    4e5c:	6043      	str	r3, [r0, #4]
C:\Teensy\Projects\HelloWorld/WString.cpp:126
    4e5e:	6083      	str	r3, [r0, #8]
C:\Teensy\Projects\HelloWorld/WString.cpp:127
    4e60:	7303      	strb	r3, [r0, #12]
_ZN6StringC2Efh():
C:\Teensy\Projects\HelloWorld/WString.cpp:110
    4e62:	466b      	mov	r3, sp
    4e64:	4608      	mov	r0, r1
    4e66:	1c91      	adds	r1, r2, #2
    4e68:	f7fb fdfc 	bl	a64 <dtostrf>
    4e6c:	4601      	mov	r1, r0
    4e6e:	4620      	mov	r0, r4
    4e70:	f7ff ff80 	bl	4d74 <_ZN6StringaSEPKc>
C:\Teensy\Projects\HelloWorld/WString.cpp:111
    4e74:	4620      	mov	r0, r4
    4e76:	b00a      	add	sp, #40	; 0x28
    4e78:	bd10      	pop	{r4, pc}

00004e7a <_ZN6StringaSEPK19__FlashStringHelper>:
_ZN6StringaSEPK19__FlashStringHelper():
C:\Teensy\Projects\HelloWorld/WString.cpp:226
    4e7a:	b510      	push	{r4, lr}
    4e7c:	4604      	mov	r4, r0
C:\Teensy\Projects\HelloWorld/WString.cpp:227
    4e7e:	f000 fb8d 	bl	559c <_ZN6String4copyEPK19__FlashStringHelper>
C:\Teensy\Projects\HelloWorld/WString.cpp:229
    4e82:	4620      	mov	r0, r4
    4e84:	bd10      	pop	{r4, pc}

00004e86 <_ZN6StringaSEc>:
_ZN6StringaSEc():
C:\Teensy\Projects\HelloWorld/WString.cpp:232
    4e86:	b507      	push	{r0, r1, r2, lr}
C:\Teensy\Projects\HelloWorld/WString.cpp:235
    4e88:	2300      	movs	r3, #0
C:\Teensy\Projects\HelloWorld/WString.cpp:234
    4e8a:	f88d 1004 	strb.w	r1, [sp, #4]
C:\Teensy\Projects\HelloWorld/WString.cpp:236
    4e8e:	2201      	movs	r2, #1
    4e90:	a901      	add	r1, sp, #4
C:\Teensy\Projects\HelloWorld/WString.cpp:235
    4e92:	f88d 3005 	strb.w	r3, [sp, #5]
C:\Teensy\Projects\HelloWorld/WString.cpp:236
    4e96:	f7ff fef0 	bl	4c7a <_ZN6String4copyEPKcj>
C:\Teensy\Projects\HelloWorld/WString.cpp:237
    4e9a:	b003      	add	sp, #12
    4e9c:	f85d fb04 	ldr.w	pc, [sp], #4

00004ea0 <_ZN6StringC1Ec>:
_ZN6StringC2Ec():
C:\Teensy\Projects\HelloWorld/WString.cpp:60
    4ea0:	b510      	push	{r4, lr}
_ZN6String4initEv():
C:\Teensy\Projects\HelloWorld/WString.cpp:124
    4ea2:	2300      	movs	r3, #0
_ZN6StringC2Ec():
C:\Teensy\Projects\HelloWorld/WString.cpp:60
    4ea4:	4604      	mov	r4, r0
_ZN6String4initEv():
C:\Teensy\Projects\HelloWorld/WString.cpp:124
    4ea6:	6003      	str	r3, [r0, #0]
C:\Teensy\Projects\HelloWorld/WString.cpp:125
    4ea8:	6043      	str	r3, [r0, #4]
C:\Teensy\Projects\HelloWorld/WString.cpp:126
    4eaa:	6083      	str	r3, [r0, #8]
C:\Teensy\Projects\HelloWorld/WString.cpp:127
    4eac:	7303      	strb	r3, [r0, #12]
_ZN6StringC2Ec():
C:\Teensy\Projects\HelloWorld/WString.cpp:63
    4eae:	f7ff ffea 	bl	4e86 <_ZN6StringaSEc>
C:\Teensy\Projects\HelloWorld/WString.cpp:64
    4eb2:	4620      	mov	r0, r4
    4eb4:	bd10      	pop	{r4, pc}

00004eb6 <_ZN6String6appendEPKcj>:
_ZN6String6appendEPKcj():
C:\Teensy\Projects\HelloWorld/WString.cpp:249
    4eb6:	e92d 43f8 	stmdb	sp!, {r3, r4, r5, r6, r7, r8, r9, lr}
C:\Teensy\Projects\HelloWorld/WString.cpp:253
    4eba:	6803      	ldr	r3, [r0, #0]
C:\Teensy\Projects\HelloWorld/WString.cpp:250
    4ebc:	6886      	ldr	r6, [r0, #8]
C:\Teensy\Projects\HelloWorld/WString.cpp:253
    4ebe:	4299      	cmp	r1, r3
C:\Teensy\Projects\HelloWorld/WString.cpp:249
    4ec0:	4604      	mov	r4, r0
    4ec2:	460d      	mov	r5, r1
    4ec4:	4690      	mov	r8, r2
C:\Teensy\Projects\HelloWorld/WString.cpp:253
    4ec6:	d306      	bcc.n	4ed6 <_ZN6String6appendEPKcj+0x20>
C:\Teensy\Projects\HelloWorld/WString.cpp:253 (discriminator 1)
    4ec8:	199a      	adds	r2, r3, r6
    4eca:	4291      	cmp	r1, r2
    4ecc:	d203      	bcs.n	4ed6 <_ZN6String6appendEPKcj+0x20>
C:\Teensy\Projects\HelloWorld/WString.cpp:255
    4ece:	ebc3 0901 	rsb	r9, r3, r1
C:\Teensy\Projects\HelloWorld/WString.cpp:254
    4ed2:	2701      	movs	r7, #1
    4ed4:	e000      	b.n	4ed8 <_ZN6String6appendEPKcj+0x22>
C:\Teensy\Projects\HelloWorld/WString.cpp:251
    4ed6:	2700      	movs	r7, #0
C:\Teensy\Projects\HelloWorld/WString.cpp:257
    4ed8:	f1b8 0f00 	cmp.w	r8, #0
    4edc:	d016      	beq.n	4f0c <_ZN6String6appendEPKcj+0x56>
C:\Teensy\Projects\HelloWorld/WString.cpp:250 (discriminator 2)
    4ede:	4446      	add	r6, r8
C:\Teensy\Projects\HelloWorld/WString.cpp:257 (discriminator 2)
    4ee0:	4620      	mov	r0, r4
    4ee2:	4631      	mov	r1, r6
    4ee4:	f7ff febb 	bl	4c5e <_ZN6String7reserveEj>
    4ee8:	b180      	cbz	r0, 4f0c <_ZN6String6appendEPKcj+0x56>
    4eea:	68a0      	ldr	r0, [r4, #8]
    4eec:	6821      	ldr	r1, [r4, #0]
C:\Teensy\Projects\HelloWorld/WString.cpp:258
    4eee:	b147      	cbz	r7, 4f02 <_ZN6String6appendEPKcj+0x4c>
C:\Teensy\Projects\HelloWorld/WString.cpp:259
    4ef0:	4408      	add	r0, r1
    4ef2:	4642      	mov	r2, r8
    4ef4:	4449      	add	r1, r9
    4ef6:	f001 fc03 	bl	6700 <memcpy>
C:\Teensy\Projects\HelloWorld/WString.cpp:260
    4efa:	6823      	ldr	r3, [r4, #0]
    4efc:	2200      	movs	r2, #0
    4efe:	559a      	strb	r2, [r3, r6]
    4f00:	e003      	b.n	4f0a <_ZN6String6appendEPKcj+0x54>
C:\Teensy\Projects\HelloWorld/WString.cpp:263
    4f02:	4408      	add	r0, r1
    4f04:	4629      	mov	r1, r5
    4f06:	f001 fcf0 	bl	68ea <strcpy>
C:\Teensy\Projects\HelloWorld/WString.cpp:264
    4f0a:	60a6      	str	r6, [r4, #8]
C:\Teensy\Projects\HelloWorld/WString.cpp:266
    4f0c:	4620      	mov	r0, r4
    4f0e:	e8bd 83f8 	ldmia.w	sp!, {r3, r4, r5, r6, r7, r8, r9, pc}

00004f12 <_ZN6String6appendERKS_>:
_ZN6String6appendERKS_():
C:\Teensy\Projects\HelloWorld/WString.cpp:244
    4f12:	460b      	mov	r3, r1
C:\Teensy\Projects\HelloWorld/WString.cpp:245
    4f14:	6809      	ldr	r1, [r1, #0]
    4f16:	689a      	ldr	r2, [r3, #8]
    4f18:	f7ff bfcd 	b.w	4eb6 <_ZN6String6appendEPKcj>

00004f1c <_ZN6String6appendEPKc>:
_ZN6String6appendEPKc():
C:\Teensy\Projects\HelloWorld/WString.cpp:269
    4f1c:	b538      	push	{r3, r4, r5, lr}
    4f1e:	4605      	mov	r5, r0
C:\Teensy\Projects\HelloWorld/WString.cpp:270
    4f20:	460c      	mov	r4, r1
    4f22:	b139      	cbz	r1, 4f34 <_ZN6String6appendEPKc+0x18>
C:\Teensy\Projects\HelloWorld/WString.cpp:270 (discriminator 1)
    4f24:	4608      	mov	r0, r1
    4f26:	f001 fce8 	bl	68fa <strlen>
    4f2a:	4621      	mov	r1, r4
    4f2c:	4602      	mov	r2, r0
    4f2e:	4628      	mov	r0, r5
    4f30:	f7ff ffc1 	bl	4eb6 <_ZN6String6appendEPKcj>
C:\Teensy\Projects\HelloWorld/WString.cpp:272
    4f34:	4628      	mov	r0, r5
    4f36:	bd38      	pop	{r3, r4, r5, pc}

00004f38 <_ZN6String6appendEc>:
_ZN6String6appendEc():
C:\Teensy\Projects\HelloWorld/WString.cpp:275
    4f38:	b513      	push	{r0, r1, r4, lr}
C:\Teensy\Projects\HelloWorld/WString.cpp:278
    4f3a:	2300      	movs	r3, #0
C:\Teensy\Projects\HelloWorld/WString.cpp:277
    4f3c:	f88d 1004 	strb.w	r1, [sp, #4]
C:\Teensy\Projects\HelloWorld/WString.cpp:279
    4f40:	2201      	movs	r2, #1
    4f42:	a901      	add	r1, sp, #4
C:\Teensy\Projects\HelloWorld/WString.cpp:275
    4f44:	4604      	mov	r4, r0
C:\Teensy\Projects\HelloWorld/WString.cpp:278
    4f46:	f88d 3005 	strb.w	r3, [sp, #5]
C:\Teensy\Projects\HelloWorld/WString.cpp:279
    4f4a:	f7ff ffb4 	bl	4eb6 <_ZN6String6appendEPKcj>
C:\Teensy\Projects\HelloWorld/WString.cpp:281
    4f4e:	4620      	mov	r0, r4
    4f50:	b002      	add	sp, #8
    4f52:	bd10      	pop	{r4, pc}

00004f54 <_ZN6String6appendEi>:
_ZN6String6appendEi():
C:\Teensy\Projects\HelloWorld/WString.cpp:284
    4f54:	b51f      	push	{r0, r1, r2, r3, r4, lr}
    4f56:	4604      	mov	r4, r0
C:\Teensy\Projects\HelloWorld/WString.cpp:286
    4f58:	220a      	movs	r2, #10
    4f5a:	4608      	mov	r0, r1
    4f5c:	a901      	add	r1, sp, #4
    4f5e:	f7fb fd71 	bl	a44 <ltoa>
C:\Teensy\Projects\HelloWorld/WString.cpp:287
    4f62:	a801      	add	r0, sp, #4
    4f64:	f001 fcc9 	bl	68fa <strlen>
    4f68:	a901      	add	r1, sp, #4
    4f6a:	4602      	mov	r2, r0
    4f6c:	4620      	mov	r0, r4
    4f6e:	f7ff ffa2 	bl	4eb6 <_ZN6String6appendEPKcj>
C:\Teensy\Projects\HelloWorld/WString.cpp:289
    4f72:	4620      	mov	r0, r4
    4f74:	b004      	add	sp, #16
    4f76:	bd10      	pop	{r4, pc}

00004f78 <_ZN6String6appendEj>:
_ZN6String6appendEj():
C:\Teensy\Projects\HelloWorld/WString.cpp:292
    4f78:	b51f      	push	{r0, r1, r2, r3, r4, lr}
    4f7a:	4604      	mov	r4, r0
C:\Teensy\Projects\HelloWorld/WString.cpp:294
    4f7c:	220a      	movs	r2, #10
    4f7e:	4608      	mov	r0, r1
    4f80:	a901      	add	r1, sp, #4
    4f82:	f7fb fd41 	bl	a08 <ultoa>
C:\Teensy\Projects\HelloWorld/WString.cpp:295
    4f86:	a801      	add	r0, sp, #4
    4f88:	f001 fcb7 	bl	68fa <strlen>
    4f8c:	a901      	add	r1, sp, #4
    4f8e:	4602      	mov	r2, r0
    4f90:	4620      	mov	r0, r4
    4f92:	f7ff ff90 	bl	4eb6 <_ZN6String6appendEPKcj>
C:\Teensy\Projects\HelloWorld/WString.cpp:297
    4f96:	4620      	mov	r0, r4
    4f98:	b004      	add	sp, #16
    4f9a:	bd10      	pop	{r4, pc}

00004f9c <_ZN6String6appendEl>:
_ZN6String6appendEl():
C:\Teensy\Projects\HelloWorld/WString.cpp:300
    4f9c:	b51f      	push	{r0, r1, r2, r3, r4, lr}
    4f9e:	4604      	mov	r4, r0
C:\Teensy\Projects\HelloWorld/WString.cpp:302
    4fa0:	220a      	movs	r2, #10
    4fa2:	4608      	mov	r0, r1
    4fa4:	a901      	add	r1, sp, #4
    4fa6:	f7fb fd4d 	bl	a44 <ltoa>
C:\Teensy\Projects\HelloWorld/WString.cpp:303
    4faa:	a801      	add	r0, sp, #4
    4fac:	f001 fca5 	bl	68fa <strlen>
    4fb0:	a901      	add	r1, sp, #4
    4fb2:	4602      	mov	r2, r0
    4fb4:	4620      	mov	r0, r4
    4fb6:	f7ff ff7e 	bl	4eb6 <_ZN6String6appendEPKcj>
C:\Teensy\Projects\HelloWorld/WString.cpp:305
    4fba:	4620      	mov	r0, r4
    4fbc:	b004      	add	sp, #16
    4fbe:	bd10      	pop	{r4, pc}

00004fc0 <_ZN6String6appendEm>:
_ZN6String6appendEm():
C:\Teensy\Projects\HelloWorld/WString.cpp:308
    4fc0:	b51f      	push	{r0, r1, r2, r3, r4, lr}
    4fc2:	4604      	mov	r4, r0
C:\Teensy\Projects\HelloWorld/WString.cpp:310
    4fc4:	220a      	movs	r2, #10
    4fc6:	4608      	mov	r0, r1
    4fc8:	a901      	add	r1, sp, #4
    4fca:	f7fb fd1d 	bl	a08 <ultoa>
C:\Teensy\Projects\HelloWorld/WString.cpp:311
    4fce:	a801      	add	r0, sp, #4
    4fd0:	f001 fc93 	bl	68fa <strlen>
    4fd4:	a901      	add	r1, sp, #4
    4fd6:	4602      	mov	r2, r0
    4fd8:	4620      	mov	r0, r4
    4fda:	f7ff ff6c 	bl	4eb6 <_ZN6String6appendEPKcj>
C:\Teensy\Projects\HelloWorld/WString.cpp:313
    4fde:	4620      	mov	r0, r4
    4fe0:	b004      	add	sp, #16
    4fe2:	bd10      	pop	{r4, pc}

00004fe4 <_ZN6String6appendEf>:
_ZN6String6appendEf():
C:\Teensy\Projects\HelloWorld/WString.cpp:316
    4fe4:	b510      	push	{r4, lr}
    4fe6:	b088      	sub	sp, #32
    4fe8:	4604      	mov	r4, r0
C:\Teensy\Projects\HelloWorld/WString.cpp:318
    4fea:	466b      	mov	r3, sp
    4fec:	2202      	movs	r2, #2
    4fee:	4608      	mov	r0, r1
    4ff0:	2104      	movs	r1, #4
    4ff2:	f7fb fd37 	bl	a64 <dtostrf>
C:\Teensy\Projects\HelloWorld/WString.cpp:319
    4ff6:	4668      	mov	r0, sp
    4ff8:	f001 fc7f 	bl	68fa <strlen>
    4ffc:	4669      	mov	r1, sp
    4ffe:	4602      	mov	r2, r0
    5000:	4620      	mov	r0, r4
    5002:	f7ff ff58 	bl	4eb6 <_ZN6String6appendEPKcj>
C:\Teensy\Projects\HelloWorld/WString.cpp:321
    5006:	4620      	mov	r0, r4
    5008:	b008      	add	sp, #32
    500a:	bd10      	pop	{r4, pc}

0000500c <_ZplRK15StringSumHelperRK6String>:
_ZplRK15StringSumHelperRK6String():
C:\Teensy\Projects\HelloWorld/WString.cpp:330
    500c:	b510      	push	{r4, lr}
    500e:	460b      	mov	r3, r1
    5010:	4604      	mov	r4, r0
C:\Teensy\Projects\HelloWorld/WString.cpp:332
    5012:	6809      	ldr	r1, [r1, #0]
    5014:	689a      	ldr	r2, [r3, #8]
    5016:	f7ff ff4e 	bl	4eb6 <_ZN6String6appendEPKcj>
C:\Teensy\Projects\HelloWorld/WString.cpp:334
    501a:	4620      	mov	r0, r4
    501c:	bd10      	pop	{r4, pc}

0000501e <_ZplRK15StringSumHelperPKc>:
_ZplRK15StringSumHelperPKc():
C:\Teensy\Projects\HelloWorld/WString.cpp:337
    501e:	b538      	push	{r3, r4, r5, lr}
    5020:	4605      	mov	r5, r0
C:\Teensy\Projects\HelloWorld/WString.cpp:339
    5022:	460c      	mov	r4, r1
    5024:	b139      	cbz	r1, 5036 <_ZplRK15StringSumHelperPKc+0x18>
C:\Teensy\Projects\HelloWorld/WString.cpp:339 (discriminator 1)
    5026:	4608      	mov	r0, r1
    5028:	f001 fc67 	bl	68fa <strlen>
    502c:	4621      	mov	r1, r4
    502e:	4602      	mov	r2, r0
    5030:	4628      	mov	r0, r5
    5032:	f7ff ff40 	bl	4eb6 <_ZN6String6appendEPKcj>
C:\Teensy\Projects\HelloWorld/WString.cpp:341
    5036:	4628      	mov	r0, r5
    5038:	bd38      	pop	{r3, r4, r5, pc}

0000503a <_ZplRK15StringSumHelperPK19__FlashStringHelper>:
_ZplRK15StringSumHelperPK19__FlashStringHelper():
C:\Teensy\Projects\HelloWorld/WString.cpp:344
    503a:	b538      	push	{r3, r4, r5, lr}
    503c:	4604      	mov	r4, r0
_ZN6String6appendEPK19__FlashStringHelper():
C:\Teensy\Projects\HelloWorld/WString.h:90
    503e:	4608      	mov	r0, r1
_ZplRK15StringSumHelperPK19__FlashStringHelper():
C:\Teensy\Projects\HelloWorld/WString.cpp:344
    5040:	460d      	mov	r5, r1
_ZN6String6appendEPK19__FlashStringHelper():
C:\Teensy\Projects\HelloWorld/WString.h:90
    5042:	f001 fc5a 	bl	68fa <strlen>
    5046:	4629      	mov	r1, r5
    5048:	4602      	mov	r2, r0
    504a:	4620      	mov	r0, r4
    504c:	f7ff ff33 	bl	4eb6 <_ZN6String6appendEPKcj>
_ZplRK15StringSumHelperPK19__FlashStringHelper():
C:\Teensy\Projects\HelloWorld/WString.cpp:348
    5050:	4620      	mov	r0, r4
    5052:	bd38      	pop	{r3, r4, r5, pc}

00005054 <_ZplRK15StringSumHelperc>:
_ZplRK15StringSumHelperc():
C:\Teensy\Projects\HelloWorld/WString.cpp:351
    5054:	b510      	push	{r4, lr}
    5056:	4604      	mov	r4, r0
C:\Teensy\Projects\HelloWorld/WString.cpp:353
    5058:	f7ff ff6e 	bl	4f38 <_ZN6String6appendEc>
C:\Teensy\Projects\HelloWorld/WString.cpp:355
    505c:	4620      	mov	r0, r4
    505e:	bd10      	pop	{r4, pc}

00005060 <_ZplRK15StringSumHelperh>:
_ZplRK15StringSumHelperh():
C:\Teensy\Projects\HelloWorld/WString.cpp:358
    5060:	b510      	push	{r4, lr}
    5062:	4604      	mov	r4, r0
_ZN6String6appendEh():
C:\Teensy\Projects\HelloWorld/WString.h:92
    5064:	f7ff ff76 	bl	4f54 <_ZN6String6appendEi>
_ZplRK15StringSumHelperh():
C:\Teensy\Projects\HelloWorld/WString.cpp:362
    5068:	4620      	mov	r0, r4
    506a:	bd10      	pop	{r4, pc}

0000506c <_ZplRK15StringSumHelperi>:
_ZplRK15StringSumHelperi():
C:\Teensy\Projects\HelloWorld/WString.cpp:365
    506c:	b510      	push	{r4, lr}
    506e:	4604      	mov	r4, r0
C:\Teensy\Projects\HelloWorld/WString.cpp:367
    5070:	f7ff ff94 	bl	4f9c <_ZN6String6appendEl>
C:\Teensy\Projects\HelloWorld/WString.cpp:369
    5074:	4620      	mov	r0, r4
    5076:	bd10      	pop	{r4, pc}

00005078 <_ZplRK15StringSumHelperj>:
_ZplRK15StringSumHelperj():
C:\Teensy\Projects\HelloWorld/WString.cpp:372
    5078:	b510      	push	{r4, lr}
    507a:	4604      	mov	r4, r0
C:\Teensy\Projects\HelloWorld/WString.cpp:374
    507c:	f7ff ffa0 	bl	4fc0 <_ZN6String6appendEm>
C:\Teensy\Projects\HelloWorld/WString.cpp:376
    5080:	4620      	mov	r0, r4
    5082:	bd10      	pop	{r4, pc}

00005084 <_ZplRK15StringSumHelperl>:
_ZplRK15StringSumHelperl():
C:\Teensy\Projects\HelloWorld/WString.cpp:379
    5084:	b510      	push	{r4, lr}
    5086:	4604      	mov	r4, r0
C:\Teensy\Projects\HelloWorld/WString.cpp:381
    5088:	f7ff ff88 	bl	4f9c <_ZN6String6appendEl>
C:\Teensy\Projects\HelloWorld/WString.cpp:383
    508c:	4620      	mov	r0, r4
    508e:	bd10      	pop	{r4, pc}

00005090 <_ZplRK15StringSumHelperm>:
_ZplRK15StringSumHelperm():
C:\Teensy\Projects\HelloWorld/WString.cpp:386
    5090:	b510      	push	{r4, lr}
    5092:	4604      	mov	r4, r0
C:\Teensy\Projects\HelloWorld/WString.cpp:388
    5094:	f7ff ff94 	bl	4fc0 <_ZN6String6appendEm>
C:\Teensy\Projects\HelloWorld/WString.cpp:390
    5098:	4620      	mov	r0, r4
    509a:	bd10      	pop	{r4, pc}

0000509c <_ZplRK15StringSumHelperf>:
_ZplRK15StringSumHelperf():
C:\Teensy\Projects\HelloWorld/WString.cpp:393
    509c:	b510      	push	{r4, lr}
    509e:	4604      	mov	r4, r0
C:\Teensy\Projects\HelloWorld/WString.cpp:395
    50a0:	f7ff ffa0 	bl	4fe4 <_ZN6String6appendEf>
C:\Teensy\Projects\HelloWorld/WString.cpp:397
    50a4:	4620      	mov	r0, r4
    50a6:	bd10      	pop	{r4, pc}

000050a8 <_ZplRK15StringSumHelperd>:
_ZplRK15StringSumHelperd():
C:\Teensy\Projects\HelloWorld/WString.cpp:400
    50a8:	b510      	push	{r4, lr}
_ZN6String6appendEd():
C:\Teensy\Projects\HelloWorld/WString.h:98
    50aa:	4619      	mov	r1, r3
_ZplRK15StringSumHelperd():
C:\Teensy\Projects\HelloWorld/WString.cpp:400
    50ac:	4604      	mov	r4, r0
_ZN6String6appendEd():
C:\Teensy\Projects\HelloWorld/WString.h:98
    50ae:	4610      	mov	r0, r2
    50b0:	f000 ff72 	bl	5f98 <__aeabi_d2f>
    50b4:	4601      	mov	r1, r0
    50b6:	4620      	mov	r0, r4
    50b8:	f7ff ff94 	bl	4fe4 <_ZN6String6appendEf>
_ZplRK15StringSumHelperd():
C:\Teensy\Projects\HelloWorld/WString.cpp:404
    50bc:	4620      	mov	r0, r4
    50be:	bd10      	pop	{r4, pc}

000050c0 <_ZNK6String9compareToERKS_>:
_ZNK6String9compareToERKS_():
C:\Teensy\Projects\HelloWorld/WString.cpp:412
    50c0:	6803      	ldr	r3, [r0, #0]
    50c2:	680a      	ldr	r2, [r1, #0]
    50c4:	b10b      	cbz	r3, 50ca <_ZNK6String9compareToERKS_+0xa>
C:\Teensy\Projects\HelloWorld/WString.cpp:412 (discriminator 1)
    50c6:	b95a      	cbnz	r2, 50e0 <_ZNK6String9compareToERKS_+0x20>
    50c8:	e005      	b.n	50d6 <_ZNK6String9compareToERKS_+0x16>
C:\Teensy\Projects\HelloWorld/WString.cpp:413
    50ca:	b122      	cbz	r2, 50d6 <_ZNK6String9compareToERKS_+0x16>
C:\Teensy\Projects\HelloWorld/WString.cpp:413 (discriminator 1)
    50cc:	6889      	ldr	r1, [r1, #8]
    50ce:	b111      	cbz	r1, 50d6 <_ZNK6String9compareToERKS_+0x16>
    50d0:	7810      	ldrb	r0, [r2, #0]
    50d2:	4240      	negs	r0, r0
    50d4:	4770      	bx	lr
C:\Teensy\Projects\HelloWorld/WString.cpp:414
    50d6:	b13b      	cbz	r3, 50e8 <_ZNK6String9compareToERKS_+0x28>
C:\Teensy\Projects\HelloWorld/WString.cpp:414 (discriminator 1)
    50d8:	6880      	ldr	r0, [r0, #8]
    50da:	b130      	cbz	r0, 50ea <_ZNK6String9compareToERKS_+0x2a>
    50dc:	7818      	ldrb	r0, [r3, #0]
    50de:	4770      	bx	lr
C:\Teensy\Projects\HelloWorld/WString.cpp:417
    50e0:	4618      	mov	r0, r3
    50e2:	4611      	mov	r1, r2
    50e4:	f001 bbf7 	b.w	68d6 <strcmp>
C:\Teensy\Projects\HelloWorld/WString.cpp:415
    50e8:	4618      	mov	r0, r3
C:\Teensy\Projects\HelloWorld/WString.cpp:418
    50ea:	4770      	bx	lr

000050ec <_ZNK6String6equalsERKS_>:
_ZNK6String6equalsERKS_():
C:\Teensy\Projects\HelloWorld/WString.cpp:421
    50ec:	b508      	push	{r3, lr}
C:\Teensy\Projects\HelloWorld/WString.cpp:422
    50ee:	6882      	ldr	r2, [r0, #8]
    50f0:	688b      	ldr	r3, [r1, #8]
    50f2:	429a      	cmp	r2, r3
    50f4:	d106      	bne.n	5104 <_ZNK6String6equalsERKS_+0x18>
C:\Teensy\Projects\HelloWorld/WString.cpp:422 (discriminator 1)
    50f6:	f7ff ffe3 	bl	50c0 <_ZNK6String9compareToERKS_>
    50fa:	f1d0 0001 	rsbs	r0, r0, #1
    50fe:	bf38      	it	cc
    5100:	2000      	movcc	r0, #0
    5102:	bd08      	pop	{r3, pc}
C:\Teensy\Projects\HelloWorld/WString.cpp:422
    5104:	2000      	movs	r0, #0
C:\Teensy\Projects\HelloWorld/WString.cpp:423
    5106:	bd08      	pop	{r3, pc}

00005108 <_ZNK6String6equalsEPKc>:
_ZNK6String6equalsEPKc():
C:\Teensy\Projects\HelloWorld/WString.cpp:427
    5108:	6882      	ldr	r2, [r0, #8]
C:\Teensy\Projects\HelloWorld/WString.cpp:426
    510a:	b508      	push	{r3, lr}
    510c:	460b      	mov	r3, r1
C:\Teensy\Projects\HelloWorld/WString.cpp:427
    510e:	b912      	cbnz	r2, 5116 <_ZNK6String6equalsEPKc+0xe>
C:\Teensy\Projects\HelloWorld/WString.cpp:427 (discriminator 1)
    5110:	b919      	cbnz	r1, 511a <_ZNK6String6equalsEPKc+0x12>
C:\Teensy\Projects\HelloWorld/WString.cpp:427
    5112:	2001      	movs	r0, #1
    5114:	bd08      	pop	{r3, pc}
C:\Teensy\Projects\HelloWorld/WString.cpp:428
    5116:	b911      	cbnz	r1, 511e <_ZNK6String6equalsEPKc+0x16>
C:\Teensy\Projects\HelloWorld/WString.cpp:428 (discriminator 1)
    5118:	6803      	ldr	r3, [r0, #0]
    511a:	7818      	ldrb	r0, [r3, #0]
    511c:	e002      	b.n	5124 <_ZNK6String6equalsEPKc+0x1c>
C:\Teensy\Projects\HelloWorld/WString.cpp:429
    511e:	6800      	ldr	r0, [r0, #0]
    5120:	f001 fbd9 	bl	68d6 <strcmp>
    5124:	f1d0 0001 	rsbs	r0, r0, #1
    5128:	bf38      	it	cc
    512a:	2000      	movcc	r0, #0
C:\Teensy\Projects\HelloWorld/WString.cpp:430
    512c:	bd08      	pop	{r3, pc}

0000512e <_ZNK6StringltERKS_>:
_ZNK6StringltERKS_():
C:\Teensy\Projects\HelloWorld/WString.cpp:433
    512e:	b508      	push	{r3, lr}
C:\Teensy\Projects\HelloWorld/WString.cpp:434
    5130:	f7ff ffc6 	bl	50c0 <_ZNK6String9compareToERKS_>
C:\Teensy\Projects\HelloWorld/WString.cpp:435
    5134:	0fc0      	lsrs	r0, r0, #31
    5136:	bd08      	pop	{r3, pc}

00005138 <_ZNK6StringgtERKS_>:
_ZNK6StringgtERKS_():
C:\Teensy\Projects\HelloWorld/WString.cpp:438
    5138:	b508      	push	{r3, lr}
C:\Teensy\Projects\HelloWorld/WString.cpp:439
    513a:	f7ff ffc1 	bl	50c0 <_ZNK6String9compareToERKS_>
C:\Teensy\Projects\HelloWorld/WString.cpp:440
    513e:	2800      	cmp	r0, #0
    5140:	bfd4      	ite	le
    5142:	2000      	movle	r0, #0
    5144:	2001      	movgt	r0, #1
    5146:	bd08      	pop	{r3, pc}

00005148 <_ZNK6StringleERKS_>:
_ZNK6StringleERKS_():
C:\Teensy\Projects\HelloWorld/WString.cpp:443
    5148:	b508      	push	{r3, lr}
C:\Teensy\Projects\HelloWorld/WString.cpp:444
    514a:	f7ff ffb9 	bl	50c0 <_ZNK6String9compareToERKS_>
C:\Teensy\Projects\HelloWorld/WString.cpp:445
    514e:	2800      	cmp	r0, #0
    5150:	bfcc      	ite	gt
    5152:	2000      	movgt	r0, #0
    5154:	2001      	movle	r0, #1
    5156:	bd08      	pop	{r3, pc}

00005158 <_ZNK6StringgeERKS_>:
_ZNK6StringgeERKS_():
C:\Teensy\Projects\HelloWorld/WString.cpp:448
    5158:	b508      	push	{r3, lr}
C:\Teensy\Projects\HelloWorld/WString.cpp:449
    515a:	f7ff ffb1 	bl	50c0 <_ZNK6String9compareToERKS_>
C:\Teensy\Projects\HelloWorld/WString.cpp:450
    515e:	43c0      	mvns	r0, r0
    5160:	0fc0      	lsrs	r0, r0, #31
    5162:	bd08      	pop	{r3, pc}

00005164 <_ZNK6String16equalsIgnoreCaseERKS_>:
_ZNK6String16equalsIgnoreCaseERKS_():
C:\Teensy\Projects\HelloWorld/WString.cpp:454
    5164:	4288      	cmp	r0, r1
C:\Teensy\Projects\HelloWorld/WString.cpp:453
    5166:	b5f8      	push	{r3, r4, r5, r6, r7, lr}
C:\Teensy\Projects\HelloWorld/WString.cpp:454
    5168:	d014      	beq.n	5194 <_ZNK6String16equalsIgnoreCaseERKS_+0x30>
C:\Teensy\Projects\HelloWorld/WString.cpp:455
    516a:	6883      	ldr	r3, [r0, #8]
    516c:	688a      	ldr	r2, [r1, #8]
    516e:	4293      	cmp	r3, r2
    5170:	d112      	bne.n	5198 <_ZNK6String16equalsIgnoreCaseERKS_+0x34>
C:\Teensy\Projects\HelloWorld/WString.cpp:456
    5172:	b17b      	cbz	r3, 5194 <_ZNK6String16equalsIgnoreCaseERKS_+0x30>
C:\Teensy\Projects\HelloWorld/WString.cpp:457
    5174:	6806      	ldr	r6, [r0, #0]
C:\Teensy\Projects\HelloWorld/WString.cpp:458
    5176:	680d      	ldr	r5, [r1, #0]
C:\Teensy\Projects\HelloWorld/WString.cpp:459
    5178:	2400      	movs	r4, #0
C:\Teensy\Projects\HelloWorld/WString.cpp:459 (discriminator 1)
    517a:	5d30      	ldrb	r0, [r6, r4]
    517c:	b150      	cbz	r0, 5194 <_ZNK6String16equalsIgnoreCaseERKS_+0x30>
C:\Teensy\Projects\HelloWorld/WString.cpp:460
    517e:	f002 fb13 	bl	77a8 <tolower>
    5182:	4607      	mov	r7, r0
    5184:	5d28      	ldrb	r0, [r5, r4]
    5186:	f002 fb0f 	bl	77a8 <tolower>
    518a:	4287      	cmp	r7, r0
    518c:	f104 0401 	add.w	r4, r4, #1
    5190:	d0f3      	beq.n	517a <_ZNK6String16equalsIgnoreCaseERKS_+0x16>
    5192:	e001      	b.n	5198 <_ZNK6String16equalsIgnoreCaseERKS_+0x34>
C:\Teensy\Projects\HelloWorld/WString.cpp:454
    5194:	2001      	movs	r0, #1
    5196:	bdf8      	pop	{r3, r4, r5, r6, r7, pc}
C:\Teensy\Projects\HelloWorld/WString.cpp:455
    5198:	2000      	movs	r0, #0
C:\Teensy\Projects\HelloWorld/WString.cpp:463
    519a:	bdf8      	pop	{r3, r4, r5, r6, r7, pc}

0000519c <_ZNK6String10startsWithERKS_j>:
_ZNK6String10startsWithERKS_j():
C:\Teensy\Projects\HelloWorld/WString.cpp:472
    519c:	b510      	push	{r4, lr}
C:\Teensy\Projects\HelloWorld/WString.cpp:473
    519e:	688b      	ldr	r3, [r1, #8]
    51a0:	6884      	ldr	r4, [r0, #8]
    51a2:	1ae4      	subs	r4, r4, r3
    51a4:	42a2      	cmp	r2, r4
    51a6:	d80c      	bhi.n	51c2 <_ZNK6String10startsWithERKS_j+0x26>
C:\Teensy\Projects\HelloWorld/WString.cpp:473 (discriminator 2)
    51a8:	6800      	ldr	r0, [r0, #0]
    51aa:	b168      	cbz	r0, 51c8 <_ZNK6String10startsWithERKS_j+0x2c>
C:\Teensy\Projects\HelloWorld/WString.cpp:473 (discriminator 1)
    51ac:	6809      	ldr	r1, [r1, #0]
    51ae:	b151      	cbz	r1, 51c6 <_ZNK6String10startsWithERKS_j+0x2a>
C:\Teensy\Projects\HelloWorld/WString.cpp:474
    51b0:	4410      	add	r0, r2
    51b2:	461a      	mov	r2, r3
    51b4:	f001 fba9 	bl	690a <strncmp>
    51b8:	f1d0 0001 	rsbs	r0, r0, #1
    51bc:	bf38      	it	cc
    51be:	2000      	movcc	r0, #0
    51c0:	bd10      	pop	{r4, pc}
C:\Teensy\Projects\HelloWorld/WString.cpp:473
    51c2:	2000      	movs	r0, #0
    51c4:	bd10      	pop	{r4, pc}
    51c6:	4608      	mov	r0, r1
C:\Teensy\Projects\HelloWorld/WString.cpp:475
    51c8:	bd10      	pop	{r4, pc}

000051ca <_ZNK6String10startsWithERKS_>:
_ZNK6String10startsWithERKS_():
C:\Teensy\Projects\HelloWorld/WString.cpp:467
    51ca:	6882      	ldr	r2, [r0, #8]
    51cc:	688b      	ldr	r3, [r1, #8]
    51ce:	429a      	cmp	r2, r3
    51d0:	d302      	bcc.n	51d8 <_ZNK6String10startsWithERKS_+0xe>
C:\Teensy\Projects\HelloWorld/WString.cpp:468
    51d2:	2200      	movs	r2, #0
    51d4:	f7ff bfe2 	b.w	519c <_ZNK6String10startsWithERKS_j>
C:\Teensy\Projects\HelloWorld/WString.cpp:469
    51d8:	2000      	movs	r0, #0
    51da:	4770      	bx	lr

000051dc <_ZNK6String8endsWithERKS_>:
_ZNK6String8endsWithERKS_():
C:\Teensy\Projects\HelloWorld/WString.cpp:478
    51dc:	b508      	push	{r3, lr}
C:\Teensy\Projects\HelloWorld/WString.cpp:479
    51de:	6882      	ldr	r2, [r0, #8]
    51e0:	688b      	ldr	r3, [r1, #8]
    51e2:	429a      	cmp	r2, r3
    51e4:	d30c      	bcc.n	5200 <_ZNK6String8endsWithERKS_+0x24>
C:\Teensy\Projects\HelloWorld/WString.cpp:479 (discriminator 2)
    51e6:	6800      	ldr	r0, [r0, #0]
    51e8:	b168      	cbz	r0, 5206 <_ZNK6String8endsWithERKS_+0x2a>
C:\Teensy\Projects\HelloWorld/WString.cpp:479 (discriminator 1)
    51ea:	6809      	ldr	r1, [r1, #0]
    51ec:	b151      	cbz	r1, 5204 <_ZNK6String8endsWithERKS_+0x28>
C:\Teensy\Projects\HelloWorld/WString.cpp:480
    51ee:	1ad3      	subs	r3, r2, r3
    51f0:	4418      	add	r0, r3
    51f2:	f001 fb70 	bl	68d6 <strcmp>
    51f6:	f1d0 0001 	rsbs	r0, r0, #1
    51fa:	bf38      	it	cc
    51fc:	2000      	movcc	r0, #0
    51fe:	bd08      	pop	{r3, pc}
C:\Teensy\Projects\HelloWorld/WString.cpp:479
    5200:	2000      	movs	r0, #0
    5202:	bd08      	pop	{r3, pc}
    5204:	4608      	mov	r0, r1
C:\Teensy\Projects\HelloWorld/WString.cpp:481
    5206:	bd08      	pop	{r3, pc}

00005208 <_ZN6String9setCharAtEjc>:
_ZN6String9setCharAtEjc():
C:\Teensy\Projects\HelloWorld/WString.cpp:494
    5208:	6883      	ldr	r3, [r0, #8]
    520a:	4299      	cmp	r1, r3
    520c:	bf3c      	itt	cc
    520e:	6803      	ldrcc	r3, [r0, #0]
    5210:	545a      	strbcc	r2, [r3, r1]
    5212:	4770      	bx	lr

00005214 <_ZN6StringixEj>:
_ZN6StringixEj():
C:\Teensy\Projects\HelloWorld/WString.cpp:500
    5214:	6883      	ldr	r3, [r0, #8]
    5216:	4299      	cmp	r1, r3
    5218:	d201      	bcs.n	521e <_ZN6StringixEj+0xa>
C:\Teensy\Projects\HelloWorld/WString.cpp:500 (discriminator 1)
    521a:	6800      	ldr	r0, [r0, #0]
    521c:	b918      	cbnz	r0, 5226 <_ZN6StringixEj+0x12>
C:\Teensy\Projects\HelloWorld/WString.cpp:501
    521e:	4803      	ldr	r0, [pc, #12]	; (522c <_ZN6StringixEj+0x18>)
    5220:	2300      	movs	r3, #0
    5222:	7003      	strb	r3, [r0, #0]
C:\Teensy\Projects\HelloWorld/WString.cpp:502
    5224:	4770      	bx	lr
C:\Teensy\Projects\HelloWorld/WString.cpp:504
    5226:	4408      	add	r0, r1
C:\Teensy\Projects\HelloWorld/WString.cpp:505
    5228:	4770      	bx	lr
    522a:	bf00      	nop
    522c:	1fff0fd0 	.word	0x1fff0fd0

00005230 <_ZNK6StringixEj>:
_ZNK6StringixEj():
C:\Teensy\Projects\HelloWorld/WString.cpp:509
    5230:	6883      	ldr	r3, [r0, #8]
    5232:	4299      	cmp	r1, r3
    5234:	d203      	bcs.n	523e <_ZNK6StringixEj+0xe>
C:\Teensy\Projects\HelloWorld/WString.cpp:509 (discriminator 2)
    5236:	6800      	ldr	r0, [r0, #0]
    5238:	b110      	cbz	r0, 5240 <_ZNK6StringixEj+0x10>
C:\Teensy\Projects\HelloWorld/WString.cpp:510
    523a:	5c40      	ldrb	r0, [r0, r1]
    523c:	4770      	bx	lr
C:\Teensy\Projects\HelloWorld/WString.cpp:509
    523e:	2000      	movs	r0, #0
C:\Teensy\Projects\HelloWorld/WString.cpp:511
    5240:	4770      	bx	lr

00005242 <_ZNK6String6charAtEj>:
_ZNK6String6charAtEj():
C:\Teensy\Projects\HelloWorld/WString.cpp:489
    5242:	f7ff bff5 	b.w	5230 <_ZNK6StringixEj>

00005246 <_ZNK6String8getBytesEPhjj>:
_ZNK6String8getBytesEPhjj():
C:\Teensy\Projects\HelloWorld/WString.cpp:514
    5246:	b538      	push	{r3, r4, r5, lr}
    5248:	460c      	mov	r4, r1
C:\Teensy\Projects\HelloWorld/WString.cpp:515
    524a:	b19a      	cbz	r2, 5274 <_ZNK6String8getBytesEPhjj+0x2e>
C:\Teensy\Projects\HelloWorld/WString.cpp:515 (discriminator 2)
    524c:	b191      	cbz	r1, 5274 <_ZNK6String8getBytesEPhjj+0x2e>
C:\Teensy\Projects\HelloWorld/WString.cpp:516
    524e:	6881      	ldr	r1, [r0, #8]
    5250:	428b      	cmp	r3, r1
    5252:	d302      	bcc.n	525a <_ZNK6String8getBytesEPhjj+0x14>
C:\Teensy\Projects\HelloWorld/WString.cpp:517
    5254:	2300      	movs	r3, #0
    5256:	7023      	strb	r3, [r4, #0]
C:\Teensy\Projects\HelloWorld/WString.cpp:518
    5258:	bd38      	pop	{r3, r4, r5, pc}
C:\Teensy\Projects\HelloWorld/WString.cpp:521
    525a:	1ac9      	subs	r1, r1, r3
C:\Teensy\Projects\HelloWorld/WString.cpp:520
    525c:	1e55      	subs	r5, r2, #1
    525e:	428d      	cmp	r5, r1
    5260:	bf28      	it	cs
    5262:	460d      	movcs	r5, r1
C:\Teensy\Projects\HelloWorld/WString.cpp:522
    5264:	6801      	ldr	r1, [r0, #0]
    5266:	462a      	mov	r2, r5
    5268:	4419      	add	r1, r3
    526a:	4620      	mov	r0, r4
    526c:	f001 fb64 	bl	6938 <strncpy>
C:\Teensy\Projects\HelloWorld/WString.cpp:523
    5270:	2300      	movs	r3, #0
    5272:	5563      	strb	r3, [r4, r5]
    5274:	bd38      	pop	{r3, r4, r5, pc}

00005276 <_ZNK6String7indexOfEcj>:
_ZNK6String7indexOfEcj():
C:\Teensy\Projects\HelloWorld/WString.cpp:537
    5276:	6883      	ldr	r3, [r0, #8]
    5278:	429a      	cmp	r2, r3
C:\Teensy\Projects\HelloWorld/WString.cpp:536
    527a:	b510      	push	{r4, lr}
C:\Teensy\Projects\HelloWorld/WString.cpp:537
    527c:	d206      	bcs.n	528c <_ZNK6String7indexOfEcj+0x16>
C:\Teensy\Projects\HelloWorld/WString.cpp:538
    527e:	6804      	ldr	r4, [r0, #0]
    5280:	18a0      	adds	r0, r4, r2
    5282:	f001 fb1b 	bl	68bc <strchr>
C:\Teensy\Projects\HelloWorld/WString.cpp:539
    5286:	b108      	cbz	r0, 528c <_ZNK6String7indexOfEcj+0x16>
C:\Teensy\Projects\HelloWorld/WString.cpp:540
    5288:	1b00      	subs	r0, r0, r4
    528a:	bd10      	pop	{r4, pc}
C:\Teensy\Projects\HelloWorld/WString.cpp:537
    528c:	f04f 30ff 	mov.w	r0, #4294967295
C:\Teensy\Projects\HelloWorld/WString.cpp:541
    5290:	bd10      	pop	{r4, pc}

00005292 <_ZNK6String7indexOfEc>:
_ZNK6String7indexOfEc():
C:\Teensy\Projects\HelloWorld/WString.cpp:532
    5292:	2200      	movs	r2, #0
    5294:	f7ff bfef 	b.w	5276 <_ZNK6String7indexOfEcj>

00005298 <_ZNK6String7indexOfERKS_j>:
_ZNK6String7indexOfERKS_j():
C:\Teensy\Projects\HelloWorld/WString.cpp:550
    5298:	6883      	ldr	r3, [r0, #8]
    529a:	429a      	cmp	r2, r3
C:\Teensy\Projects\HelloWorld/WString.cpp:549
    529c:	b510      	push	{r4, lr}
C:\Teensy\Projects\HelloWorld/WString.cpp:550
    529e:	d207      	bcs.n	52b0 <_ZNK6String7indexOfERKS_j+0x18>
C:\Teensy\Projects\HelloWorld/WString.cpp:551
    52a0:	6804      	ldr	r4, [r0, #0]
    52a2:	6809      	ldr	r1, [r1, #0]
    52a4:	18a0      	adds	r0, r4, r2
    52a6:	f001 fb6c 	bl	6982 <strstr>
C:\Teensy\Projects\HelloWorld/WString.cpp:552
    52aa:	b108      	cbz	r0, 52b0 <_ZNK6String7indexOfERKS_j+0x18>
C:\Teensy\Projects\HelloWorld/WString.cpp:553
    52ac:	1b00      	subs	r0, r0, r4
    52ae:	bd10      	pop	{r4, pc}
C:\Teensy\Projects\HelloWorld/WString.cpp:550
    52b0:	f04f 30ff 	mov.w	r0, #4294967295
C:\Teensy\Projects\HelloWorld/WString.cpp:554
    52b4:	bd10      	pop	{r4, pc}

000052b6 <_ZNK6String7indexOfERKS_>:
_ZNK6String7indexOfERKS_():
C:\Teensy\Projects\HelloWorld/WString.cpp:545
    52b6:	2200      	movs	r2, #0
    52b8:	f7ff bfee 	b.w	5298 <_ZNK6String7indexOfERKS_j>

000052bc <_ZNK6String11lastIndexOfEcj>:
_ZNK6String11lastIndexOfEcj():
C:\Teensy\Projects\HelloWorld/WString.cpp:562
    52bc:	b5f8      	push	{r3, r4, r5, r6, r7, lr}
C:\Teensy\Projects\HelloWorld/WString.cpp:563
    52be:	6883      	ldr	r3, [r0, #8]
    52c0:	429a      	cmp	r2, r3
C:\Teensy\Projects\HelloWorld/WString.cpp:562
    52c2:	4604      	mov	r4, r0
C:\Teensy\Projects\HelloWorld/WString.cpp:563
    52c4:	d302      	bcc.n	52cc <_ZNK6String11lastIndexOfEcj+0x10>
    52c6:	f04f 30ff 	mov.w	r0, #4294967295
    52ca:	bdf8      	pop	{r3, r4, r5, r6, r7, pc}
C:\Teensy\Projects\HelloWorld/WString.cpp:564
    52cc:	6803      	ldr	r3, [r0, #0]
    52ce:	1c55      	adds	r5, r2, #1
C:\Teensy\Projects\HelloWorld/WString.cpp:565
    52d0:	2200      	movs	r2, #0
C:\Teensy\Projects\HelloWorld/WString.cpp:564
    52d2:	5d5f      	ldrb	r7, [r3, r5]
C:\Teensy\Projects\HelloWorld/WString.cpp:565
    52d4:	555a      	strb	r2, [r3, r5]
C:\Teensy\Projects\HelloWorld/WString.cpp:566
    52d6:	6806      	ldr	r6, [r0, #0]
    52d8:	4630      	mov	r0, r6
    52da:	f001 fb3f 	bl	695c <strrchr>
C:\Teensy\Projects\HelloWorld/WString.cpp:567
    52de:	5577      	strb	r7, [r6, r5]
C:\Teensy\Projects\HelloWorld/WString.cpp:568
    52e0:	2800      	cmp	r0, #0
    52e2:	d0f0      	beq.n	52c6 <_ZNK6String11lastIndexOfEcj+0xa>
C:\Teensy\Projects\HelloWorld/WString.cpp:569
    52e4:	6823      	ldr	r3, [r4, #0]
    52e6:	1ac0      	subs	r0, r0, r3
C:\Teensy\Projects\HelloWorld/WString.cpp:570
    52e8:	bdf8      	pop	{r3, r4, r5, r6, r7, pc}

000052ea <_ZNK6String11lastIndexOfEc>:
_ZNK6String11lastIndexOfEc():
C:\Teensy\Projects\HelloWorld/WString.cpp:558
    52ea:	6882      	ldr	r2, [r0, #8]
    52ec:	3a01      	subs	r2, #1
    52ee:	f7ff bfe5 	b.w	52bc <_ZNK6String11lastIndexOfEcj>

000052f2 <_ZNK6String11lastIndexOfERKS_j>:
_ZNK6String11lastIndexOfERKS_j():
C:\Teensy\Projects\HelloWorld/WString.cpp:578
    52f2:	b5f8      	push	{r3, r4, r5, r6, r7, lr}
    52f4:	4615      	mov	r5, r2
C:\Teensy\Projects\HelloWorld/WString.cpp:579
    52f6:	688a      	ldr	r2, [r1, #8]
C:\Teensy\Projects\HelloWorld/WString.cpp:578
    52f8:	460f      	mov	r7, r1
C:\Teensy\Projects\HelloWorld/WString.cpp:579
    52fa:	b1c2      	cbz	r2, 532e <_ZNK6String11lastIndexOfERKS_j+0x3c>
C:\Teensy\Projects\HelloWorld/WString.cpp:579 (discriminator 2)
    52fc:	6883      	ldr	r3, [r0, #8]
    52fe:	b1b3      	cbz	r3, 532e <_ZNK6String11lastIndexOfERKS_j+0x3c>
C:\Teensy\Projects\HelloWorld/WString.cpp:579 (discriminator 1)
    5300:	429a      	cmp	r2, r3
    5302:	d814      	bhi.n	532e <_ZNK6String11lastIndexOfERKS_j+0x3c>
C:\Teensy\Projects\HelloWorld/WString.cpp:582
    5304:	6806      	ldr	r6, [r0, #0]
C:\Teensy\Projects\HelloWorld/WString.cpp:580
    5306:	429d      	cmp	r5, r3
    5308:	bf28      	it	cs
    530a:	f103 35ff 	addcs.w	r5, r3, #4294967295
C:\Teensy\Projects\HelloWorld/WString.cpp:582
    530e:	4630      	mov	r0, r6
C:\Teensy\Projects\HelloWorld/WString.cpp:581
    5310:	f04f 34ff 	mov.w	r4, #4294967295
C:\Teensy\Projects\HelloWorld/WString.cpp:582 (discriminator 1)
    5314:	1973      	adds	r3, r6, r5
    5316:	4298      	cmp	r0, r3
    5318:	d80c      	bhi.n	5334 <_ZNK6String11lastIndexOfERKS_j+0x42>
C:\Teensy\Projects\HelloWorld/WString.cpp:583
    531a:	6839      	ldr	r1, [r7, #0]
    531c:	f001 fb31 	bl	6982 <strstr>
C:\Teensy\Projects\HelloWorld/WString.cpp:584
    5320:	b140      	cbz	r0, 5334 <_ZNK6String11lastIndexOfERKS_j+0x42>
C:\Teensy\Projects\HelloWorld/WString.cpp:585
    5322:	1b83      	subs	r3, r0, r6
C:\Teensy\Projects\HelloWorld/WString.cpp:582
    5324:	42ab      	cmp	r3, r5
    5326:	bf98      	it	ls
    5328:	461c      	movls	r4, r3
    532a:	3001      	adds	r0, #1
    532c:	e7f2      	b.n	5314 <_ZNK6String11lastIndexOfERKS_j+0x22>
C:\Teensy\Projects\HelloWorld/WString.cpp:579
    532e:	f04f 30ff 	mov.w	r0, #4294967295
    5332:	bdf8      	pop	{r3, r4, r5, r6, r7, pc}
    5334:	4620      	mov	r0, r4
C:\Teensy\Projects\HelloWorld/WString.cpp:588
    5336:	bdf8      	pop	{r3, r4, r5, r6, r7, pc}

00005338 <_ZNK6String11lastIndexOfERKS_>:
_ZNK6String11lastIndexOfERKS_():
C:\Teensy\Projects\HelloWorld/WString.cpp:574
    5338:	6882      	ldr	r2, [r0, #8]
    533a:	688b      	ldr	r3, [r1, #8]
    533c:	1ad2      	subs	r2, r2, r3
    533e:	f7ff bfd8 	b.w	52f2 <_ZNK6String11lastIndexOfERKS_j>

00005342 <_ZNK6String9substringEjj>:
_ZNK6String9substringEjj():
C:\Teensy\Projects\HelloWorld/WString.cpp:597
    5342:	429a      	cmp	r2, r3
C:\Teensy\Projects\HelloWorld/WString.cpp:596
    5344:	b5f8      	push	{r3, r4, r5, r6, r7, lr}
    5346:	4604      	mov	r4, r0
    5348:	460d      	mov	r5, r1
C:\Teensy\Projects\HelloWorld/WString.cpp:597
    534a:	d902      	bls.n	5352 <_ZNK6String9substringEjj+0x10>
    534c:	4611      	mov	r1, r2
    534e:	461a      	mov	r2, r3
    5350:	460b      	mov	r3, r1
_ZN6String4initEv():
C:\Teensy\Projects\HelloWorld/WString.cpp:124
    5352:	2000      	movs	r0, #0
C:\Teensy\Projects\HelloWorld/WString.cpp:126
    5354:	60a0      	str	r0, [r4, #8]
_ZNK6String9substringEjj():
C:\Teensy\Projects\HelloWorld/WString.cpp:603
    5356:	68ae      	ldr	r6, [r5, #8]
String():
C:\Teensy\Projects\HelloWorld/WString.cpp:124
    5358:	6020      	str	r0, [r4, #0]
_ZNK6String9substringEjj():
C:\Teensy\Projects\HelloWorld/WString.cpp:603
    535a:	42b2      	cmp	r2, r6
_ZN6String4initEv():
C:\Teensy\Projects\HelloWorld/WString.cpp:125
    535c:	6060      	str	r0, [r4, #4]
C:\Teensy\Projects\HelloWorld/WString.cpp:127
    535e:	7320      	strb	r0, [r4, #12]
_ZNK6String9substringEjj():
C:\Teensy\Projects\HelloWorld/WString.cpp:603
    5360:	d80c      	bhi.n	537c <_ZNK6String9substringEjj+0x3a>
    5362:	42b3      	cmp	r3, r6
    5364:	bf38      	it	cc
    5366:	461e      	movcc	r6, r3
C:\Teensy\Projects\HelloWorld/WString.cpp:605
    5368:	682b      	ldr	r3, [r5, #0]
    536a:	5d9f      	ldrb	r7, [r3, r6]
C:\Teensy\Projects\HelloWorld/WString.cpp:606
    536c:	5598      	strb	r0, [r3, r6]
C:\Teensy\Projects\HelloWorld/WString.cpp:607
    536e:	6829      	ldr	r1, [r5, #0]
    5370:	4620      	mov	r0, r4
    5372:	4411      	add	r1, r2
    5374:	f7ff fcfe 	bl	4d74 <_ZN6StringaSEPKc>
C:\Teensy\Projects\HelloWorld/WString.cpp:608
    5378:	682b      	ldr	r3, [r5, #0]
    537a:	559f      	strb	r7, [r3, r6]
C:\Teensy\Projects\HelloWorld/WString.cpp:610
    537c:	4620      	mov	r0, r4
    537e:	bdf8      	pop	{r3, r4, r5, r6, r7, pc}

00005380 <_ZNK6String9substringEj>:
_ZNK6String9substringEj():
C:\Teensy\Projects\HelloWorld/WString.cpp:591
    5380:	b510      	push	{r4, lr}
C:\Teensy\Projects\HelloWorld/WString.cpp:592
    5382:	688b      	ldr	r3, [r1, #8]
C:\Teensy\Projects\HelloWorld/WString.cpp:591
    5384:	4604      	mov	r4, r0
C:\Teensy\Projects\HelloWorld/WString.cpp:592
    5386:	f7ff ffdc 	bl	5342 <_ZNK6String9substringEjj>
C:\Teensy\Projects\HelloWorld/WString.cpp:593
    538a:	4620      	mov	r0, r4
    538c:	bd10      	pop	{r4, pc}

0000538e <_ZN6String7replaceEcc>:
_ZN6String7replaceEcc():
C:\Teensy\Projects\HelloWorld/WString.cpp:618
    538e:	6803      	ldr	r3, [r0, #0]
C:\Teensy\Projects\HelloWorld/WString.cpp:617
    5390:	b510      	push	{r4, lr}
C:\Teensy\Projects\HelloWorld/WString.cpp:618
    5392:	b13b      	cbz	r3, 53a4 <_ZN6String7replaceEcc+0x16>
C:\Teensy\Projects\HelloWorld/WString.cpp:619 (discriminator 1)
    5394:	f813 4b01 	ldrb.w	r4, [r3], #1
    5398:	b124      	cbz	r4, 53a4 <_ZN6String7replaceEcc+0x16>
C:\Teensy\Projects\HelloWorld/WString.cpp:620
    539a:	428c      	cmp	r4, r1
    539c:	bf08      	it	eq
    539e:	f803 2c01 	strbeq.w	r2, [r3, #-1]
    53a2:	e7f7      	b.n	5394 <_ZN6String7replaceEcc+0x6>
C:\Teensy\Projects\HelloWorld/WString.cpp:623
    53a4:	bd10      	pop	{r4, pc}

000053a6 <_ZN6String7replaceERKS_S1_>:
_ZN6String7replaceERKS_S1_():
C:\Teensy\Projects\HelloWorld/WString.cpp:626
    53a6:	e92d 4ff7 	stmdb	sp!, {r0, r1, r2, r4, r5, r6, r7, r8, r9, sl, fp, lr}
C:\Teensy\Projects\HelloWorld/WString.cpp:627
    53aa:	f8d0 a008 	ldr.w	sl, [r0, #8]
C:\Teensy\Projects\HelloWorld/WString.cpp:626
    53ae:	4604      	mov	r4, r0
    53b0:	460f      	mov	r7, r1
    53b2:	4616      	mov	r6, r2
C:\Teensy\Projects\HelloWorld/WString.cpp:627
    53b4:	f1ba 0f00 	cmp.w	sl, #0
    53b8:	d075      	beq.n	54a6 <_ZN6String7replaceERKS_S1_+0x100>
C:\Teensy\Projects\HelloWorld/WString.cpp:627 (discriminator 2)
    53ba:	f8d1 b008 	ldr.w	fp, [r1, #8]
    53be:	f1bb 0f00 	cmp.w	fp, #0
    53c2:	d070      	beq.n	54a6 <_ZN6String7replaceERKS_S1_+0x100>
C:\Teensy\Projects\HelloWorld/WString.cpp:628
    53c4:	6893      	ldr	r3, [r2, #8]
C:\Teensy\Projects\HelloWorld/WString.cpp:629
    53c6:	6805      	ldr	r5, [r0, #0]
C:\Teensy\Projects\HelloWorld/WString.cpp:628
    53c8:	ebcb 0803 	rsb	r8, fp, r3
C:\Teensy\Projects\HelloWorld/WString.cpp:631
    53cc:	f1b8 0f00 	cmp.w	r8, #0
    53d0:	d10d      	bne.n	53ee <_ZN6String7replaceERKS_S1_+0x48>
C:\Teensy\Projects\HelloWorld/WString.cpp:632 (discriminator 1)
    53d2:	4628      	mov	r0, r5
    53d4:	6839      	ldr	r1, [r7, #0]
    53d6:	f001 fad4 	bl	6982 <strstr>
    53da:	4605      	mov	r5, r0
    53dc:	2800      	cmp	r0, #0
    53de:	d062      	beq.n	54a6 <_ZN6String7replaceERKS_S1_+0x100>
C:\Teensy\Projects\HelloWorld/WString.cpp:633
    53e0:	6831      	ldr	r1, [r6, #0]
    53e2:	68b2      	ldr	r2, [r6, #8]
    53e4:	f001 f98c 	bl	6700 <memcpy>
C:\Teensy\Projects\HelloWorld/WString.cpp:634
    53e8:	68b3      	ldr	r3, [r6, #8]
    53ea:	441d      	add	r5, r3
    53ec:	e7f1      	b.n	53d2 <_ZN6String7replaceERKS_S1_+0x2c>
C:\Teensy\Projects\HelloWorld/WString.cpp:636
    53ee:	db02      	blt.n	53f6 <_ZN6String7replaceERKS_S1_+0x50>
C:\Teensy\Projects\HelloWorld/WString.cpp:650
    53f0:	680b      	ldr	r3, [r1, #0]
    53f2:	46d1      	mov	r9, sl
    53f4:	e020      	b.n	5438 <_ZN6String7replaceERKS_S1_+0x92>
C:\Teensy\Projects\HelloWorld/WString.cpp:636
    53f6:	46a9      	mov	r9, r5
C:\Teensy\Projects\HelloWorld/WString.cpp:638 (discriminator 1)
    53f8:	4628      	mov	r0, r5
    53fa:	6839      	ldr	r1, [r7, #0]
    53fc:	f001 fac1 	bl	6982 <strstr>
    5400:	4682      	mov	sl, r0
    5402:	b1a0      	cbz	r0, 542e <_ZN6String7replaceERKS_S1_+0x88>
C:\Teensy\Projects\HelloWorld/WString.cpp:639
    5404:	ebc5 0b0a 	rsb	fp, r5, sl
C:\Teensy\Projects\HelloWorld/WString.cpp:640
    5408:	4629      	mov	r1, r5
    540a:	4648      	mov	r0, r9
    540c:	465a      	mov	r2, fp
C:\Teensy\Projects\HelloWorld/WString.cpp:641
    540e:	44d9      	add	r9, fp
C:\Teensy\Projects\HelloWorld/WString.cpp:640
    5410:	f001 f976 	bl	6700 <memcpy>
C:\Teensy\Projects\HelloWorld/WString.cpp:642
    5414:	4648      	mov	r0, r9
    5416:	6831      	ldr	r1, [r6, #0]
    5418:	68b2      	ldr	r2, [r6, #8]
    541a:	f001 f971 	bl	6700 <memcpy>
C:\Teensy\Projects\HelloWorld/WString.cpp:643
    541e:	68b3      	ldr	r3, [r6, #8]
C:\Teensy\Projects\HelloWorld/WString.cpp:644
    5420:	68bd      	ldr	r5, [r7, #8]
C:\Teensy\Projects\HelloWorld/WString.cpp:643
    5422:	4499      	add	r9, r3
C:\Teensy\Projects\HelloWorld/WString.cpp:645
    5424:	68a3      	ldr	r3, [r4, #8]
    5426:	4443      	add	r3, r8
C:\Teensy\Projects\HelloWorld/WString.cpp:644
    5428:	4455      	add	r5, sl
C:\Teensy\Projects\HelloWorld/WString.cpp:645
    542a:	60a3      	str	r3, [r4, #8]
    542c:	e7e4      	b.n	53f8 <_ZN6String7replaceERKS_S1_+0x52>
C:\Teensy\Projects\HelloWorld/WString.cpp:647
    542e:	4648      	mov	r0, r9
    5430:	4629      	mov	r1, r5
    5432:	f001 fa5a 	bl	68ea <strcpy>
    5436:	e036      	b.n	54a6 <_ZN6String7replaceERKS_S1_+0x100>
C:\Teensy\Projects\HelloWorld/WString.cpp:650 (discriminator 1)
    5438:	4619      	mov	r1, r3
    543a:	4628      	mov	r0, r5
    543c:	9301      	str	r3, [sp, #4]
    543e:	f001 faa0 	bl	6982 <strstr>
    5442:	9b01      	ldr	r3, [sp, #4]
    5444:	b118      	cbz	r0, 544e <_ZN6String7replaceERKS_S1_+0xa8>
C:\Teensy\Projects\HelloWorld/WString.cpp:651
    5446:	eb00 050b 	add.w	r5, r0, fp
C:\Teensy\Projects\HelloWorld/WString.cpp:652
    544a:	44c1      	add	r9, r8
    544c:	e7f4      	b.n	5438 <_ZN6String7replaceERKS_S1_+0x92>
C:\Teensy\Projects\HelloWorld/WString.cpp:654
    544e:	45d1      	cmp	r9, sl
    5450:	d029      	beq.n	54a6 <_ZN6String7replaceERKS_S1_+0x100>
C:\Teensy\Projects\HelloWorld/WString.cpp:655
    5452:	6863      	ldr	r3, [r4, #4]
    5454:	4599      	cmp	r9, r3
    5456:	d904      	bls.n	5462 <_ZN6String7replaceERKS_S1_+0xbc>
C:\Teensy\Projects\HelloWorld/WString.cpp:655 (discriminator 1)
    5458:	4620      	mov	r0, r4
    545a:	4649      	mov	r1, r9
    545c:	f7ff fbf3 	bl	4c46 <_ZN6String12changeBufferEj>
    5460:	b308      	cbz	r0, 54a6 <_ZN6String7replaceERKS_S1_+0x100>
C:\Teensy\Projects\HelloWorld/WString.cpp:656
    5462:	68a2      	ldr	r2, [r4, #8]
    5464:	3a01      	subs	r2, #1
C:\Teensy\Projects\HelloWorld/WString.cpp:657 (discriminator 1)
    5466:	2a00      	cmp	r2, #0
    5468:	db1d      	blt.n	54a6 <_ZN6String7replaceERKS_S1_+0x100>
    546a:	4620      	mov	r0, r4
    546c:	4639      	mov	r1, r7
    546e:	f7ff ff40 	bl	52f2 <_ZNK6String11lastIndexOfERKS_j>
    5472:	1e05      	subs	r5, r0, #0
    5474:	db17      	blt.n	54a6 <_ZN6String7replaceERKS_S1_+0x100>
C:\Teensy\Projects\HelloWorld/WString.cpp:658
    5476:	68ba      	ldr	r2, [r7, #8]
    5478:	6821      	ldr	r1, [r4, #0]
C:\Teensy\Projects\HelloWorld/WString.cpp:659
    547a:	68a3      	ldr	r3, [r4, #8]
C:\Teensy\Projects\HelloWorld/WString.cpp:658
    547c:	442a      	add	r2, r5
C:\Teensy\Projects\HelloWorld/WString.cpp:659
    547e:	4411      	add	r1, r2
    5480:	eb01 0008 	add.w	r0, r1, r8
    5484:	1a9a      	subs	r2, r3, r2
    5486:	f001 f944 	bl	6712 <memmove>
C:\Teensy\Projects\HelloWorld/WString.cpp:660
    548a:	68a3      	ldr	r3, [r4, #8]
C:\Teensy\Projects\HelloWorld/WString.cpp:661
    548c:	6822      	ldr	r2, [r4, #0]
C:\Teensy\Projects\HelloWorld/WString.cpp:660
    548e:	4443      	add	r3, r8
C:\Teensy\Projects\HelloWorld/WString.cpp:661
    5490:	2100      	movs	r1, #0
C:\Teensy\Projects\HelloWorld/WString.cpp:660
    5492:	60a3      	str	r3, [r4, #8]
C:\Teensy\Projects\HelloWorld/WString.cpp:661
    5494:	54d1      	strb	r1, [r2, r3]
C:\Teensy\Projects\HelloWorld/WString.cpp:662
    5496:	6820      	ldr	r0, [r4, #0]
    5498:	68b2      	ldr	r2, [r6, #8]
    549a:	6831      	ldr	r1, [r6, #0]
    549c:	4428      	add	r0, r5
    549e:	f001 f92f 	bl	6700 <memcpy>
C:\Teensy\Projects\HelloWorld/WString.cpp:663
    54a2:	1e6a      	subs	r2, r5, #1
    54a4:	e7df      	b.n	5466 <_ZN6String7replaceERKS_S1_+0xc0>
C:\Teensy\Projects\HelloWorld/WString.cpp:667
    54a6:	4620      	mov	r0, r4
    54a8:	b003      	add	sp, #12
    54aa:	e8bd 8ff0 	ldmia.w	sp!, {r4, r5, r6, r7, r8, r9, sl, fp, pc}

000054ae <_ZN6String6removeEj>:
_ZN6String6removeEj():
C:\Teensy\Projects\HelloWorld/WString.cpp:671
    54ae:	6883      	ldr	r3, [r0, #8]
    54b0:	4299      	cmp	r1, r3
    54b2:	d203      	bcs.n	54bc <_ZN6String6removeEj+0xe>
C:\Teensy\Projects\HelloWorld/WString.cpp:673
    54b4:	6803      	ldr	r3, [r0, #0]
C:\Teensy\Projects\HelloWorld/WString.cpp:672
    54b6:	6081      	str	r1, [r0, #8]
C:\Teensy\Projects\HelloWorld/WString.cpp:673
    54b8:	2200      	movs	r2, #0
    54ba:	545a      	strb	r2, [r3, r1]
C:\Teensy\Projects\HelloWorld/WString.cpp:676
    54bc:	4770      	bx	lr

000054be <_ZN6String6removeEjj>:
_ZN6String6removeEjj():
C:\Teensy\Projects\HelloWorld/WString.cpp:679
    54be:	b538      	push	{r3, r4, r5, lr}
    54c0:	460b      	mov	r3, r1
C:\Teensy\Projects\HelloWorld/WString.cpp:680
    54c2:	6881      	ldr	r1, [r0, #8]
    54c4:	428b      	cmp	r3, r1
C:\Teensy\Projects\HelloWorld/WString.cpp:679
    54c6:	4604      	mov	r4, r0
C:\Teensy\Projects\HelloWorld/WString.cpp:680
    54c8:	d212      	bcs.n	54f0 <_ZN6String6removeEjj+0x32>
C:\Teensy\Projects\HelloWorld/WString.cpp:680 (discriminator 1)
    54ca:	b18a      	cbz	r2, 54f0 <_ZN6String6removeEjj+0x32>
C:\Teensy\Projects\HelloWorld/WString.cpp:681
    54cc:	1898      	adds	r0, r3, r2
    54ce:	4288      	cmp	r0, r1
    54d0:	bf88      	it	hi
    54d2:	ebc3 0201 	rsbhi	r2, r3, r1
C:\Teensy\Projects\HelloWorld/WString.cpp:682
    54d6:	1a8d      	subs	r5, r1, r2
C:\Teensy\Projects\HelloWorld/WString.cpp:683
    54d8:	6821      	ldr	r1, [r4, #0]
C:\Teensy\Projects\HelloWorld/WString.cpp:682
    54da:	60a5      	str	r5, [r4, #8]
C:\Teensy\Projects\HelloWorld/WString.cpp:683
    54dc:	441a      	add	r2, r3
    54de:	18c8      	adds	r0, r1, r3
    54e0:	4411      	add	r1, r2
    54e2:	1aea      	subs	r2, r5, r3
    54e4:	f001 f915 	bl	6712 <memmove>
C:\Teensy\Projects\HelloWorld/WString.cpp:684
    54e8:	6822      	ldr	r2, [r4, #0]
    54ea:	68a3      	ldr	r3, [r4, #8]
    54ec:	2100      	movs	r1, #0
    54ee:	54d1      	strb	r1, [r2, r3]
C:\Teensy\Projects\HelloWorld/WString.cpp:687
    54f0:	4620      	mov	r0, r4
    54f2:	bd38      	pop	{r3, r4, r5, pc}

000054f4 <_ZN6String11toLowerCaseEv>:
_ZN6String11toLowerCaseEv():
C:\Teensy\Projects\HelloWorld/WString.cpp:690
    54f4:	b538      	push	{r3, r4, r5, lr}
C:\Teensy\Projects\HelloWorld/WString.cpp:691
    54f6:	6804      	ldr	r4, [r0, #0]
C:\Teensy\Projects\HelloWorld/WString.cpp:690
    54f8:	4605      	mov	r5, r0
C:\Teensy\Projects\HelloWorld/WString.cpp:691
    54fa:	b13c      	cbz	r4, 550c <_ZN6String11toLowerCaseEv+0x18>
C:\Teensy\Projects\HelloWorld/WString.cpp:692 (discriminator 1)
    54fc:	f814 0b01 	ldrb.w	r0, [r4], #1
    5500:	b120      	cbz	r0, 550c <_ZN6String11toLowerCaseEv+0x18>
C:\Teensy\Projects\HelloWorld/WString.cpp:693 (discriminator 2)
    5502:	f002 f951 	bl	77a8 <tolower>
    5506:	f804 0c01 	strb.w	r0, [r4, #-1]
    550a:	e7f7      	b.n	54fc <_ZN6String11toLowerCaseEv+0x8>
C:\Teensy\Projects\HelloWorld/WString.cpp:696
    550c:	4628      	mov	r0, r5
    550e:	bd38      	pop	{r3, r4, r5, pc}

00005510 <_ZN6String11toUpperCaseEv>:
_ZN6String11toUpperCaseEv():
C:\Teensy\Projects\HelloWorld/WString.cpp:699
    5510:	b538      	push	{r3, r4, r5, lr}
C:\Teensy\Projects\HelloWorld/WString.cpp:700
    5512:	6804      	ldr	r4, [r0, #0]
C:\Teensy\Projects\HelloWorld/WString.cpp:699
    5514:	4605      	mov	r5, r0
C:\Teensy\Projects\HelloWorld/WString.cpp:700
    5516:	b13c      	cbz	r4, 5528 <_ZN6String11toUpperCaseEv+0x18>
C:\Teensy\Projects\HelloWorld/WString.cpp:701 (discriminator 1)
    5518:	f814 0b01 	ldrb.w	r0, [r4], #1
    551c:	b120      	cbz	r0, 5528 <_ZN6String11toUpperCaseEv+0x18>
C:\Teensy\Projects\HelloWorld/WString.cpp:702 (discriminator 2)
    551e:	f002 f94f 	bl	77c0 <toupper>
    5522:	f804 0c01 	strb.w	r0, [r4, #-1]
    5526:	e7f7      	b.n	5518 <_ZN6String11toUpperCaseEv+0x8>
C:\Teensy\Projects\HelloWorld/WString.cpp:705
    5528:	4628      	mov	r0, r5
    552a:	bd38      	pop	{r3, r4, r5, pc}

0000552c <_ZN6String4trimEv>:
_ZN6String4trimEv():
C:\Teensy\Projects\HelloWorld/WString.cpp:708
    552c:	e92d 41f0 	stmdb	sp!, {r4, r5, r6, r7, r8, lr}
C:\Teensy\Projects\HelloWorld/WString.cpp:709
    5530:	6806      	ldr	r6, [r0, #0]
C:\Teensy\Projects\HelloWorld/WString.cpp:708
    5532:	4604      	mov	r4, r0
C:\Teensy\Projects\HelloWorld/WString.cpp:709
    5534:	b316      	cbz	r6, 557c <_ZN6String4trimEv+0x50>
C:\Teensy\Projects\HelloWorld/WString.cpp:709 (discriminator 2)
    5536:	6887      	ldr	r7, [r0, #8]
    5538:	b307      	cbz	r7, 557c <_ZN6String4trimEv+0x50>
    553a:	46b0      	mov	r8, r6
    553c:	4645      	mov	r5, r8
    553e:	f108 0801 	add.w	r8, r8, #1
C:\Teensy\Projects\HelloWorld/WString.cpp:711 (discriminator 1)
    5542:	7828      	ldrb	r0, [r5, #0]
    5544:	f001 f8c2 	bl	66cc <isspace>
    5548:	2800      	cmp	r0, #0
    554a:	d1f7      	bne.n	553c <_ZN6String4trimEv+0x10>
C:\Teensy\Projects\HelloWorld/WString.cpp:712
    554c:	3f01      	subs	r7, #1
    554e:	4437      	add	r7, r6
C:\Teensy\Projects\HelloWorld/WString.cpp:713 (discriminator 1)
    5550:	7838      	ldrb	r0, [r7, #0]
    5552:	f001 f8bb 	bl	66cc <isspace>
    5556:	b948      	cbnz	r0, 556c <_ZN6String4trimEv+0x40>
C:\Teensy\Projects\HelloWorld/WString.cpp:714
    5558:	3701      	adds	r7, #1
    555a:	1b7a      	subs	r2, r7, r5
C:\Teensy\Projects\HelloWorld/WString.cpp:715
    555c:	42b5      	cmp	r5, r6
C:\Teensy\Projects\HelloWorld/WString.cpp:714
    555e:	60a2      	str	r2, [r4, #8]
C:\Teensy\Projects\HelloWorld/WString.cpp:715
    5560:	d908      	bls.n	5574 <_ZN6String4trimEv+0x48>
C:\Teensy\Projects\HelloWorld/WString.cpp:715 (discriminator 1)
    5562:	4630      	mov	r0, r6
    5564:	4629      	mov	r1, r5
    5566:	f001 f8cb 	bl	6700 <memcpy>
    556a:	e003      	b.n	5574 <_ZN6String4trimEv+0x48>
C:\Teensy\Projects\HelloWorld/WString.cpp:713 (discriminator 2)
    556c:	42af      	cmp	r7, r5
    556e:	d3f3      	bcc.n	5558 <_ZN6String4trimEv+0x2c>
C:\Teensy\Projects\HelloWorld/WString.cpp:713 (discriminator 1)
    5570:	3f01      	subs	r7, #1
    5572:	e7ed      	b.n	5550 <_ZN6String4trimEv+0x24>
C:\Teensy\Projects\HelloWorld/WString.cpp:716
    5574:	6822      	ldr	r2, [r4, #0]
    5576:	68a3      	ldr	r3, [r4, #8]
    5578:	2100      	movs	r1, #0
    557a:	54d1      	strb	r1, [r2, r3]
C:\Teensy\Projects\HelloWorld/WString.cpp:718
    557c:	4620      	mov	r0, r4
    557e:	e8bd 81f0 	ldmia.w	sp!, {r4, r5, r6, r7, r8, pc}

00005582 <_ZNK6String5toIntEv>:
_ZNK6String5toIntEv():
C:\Teensy\Projects\HelloWorld/WString.cpp:726
    5582:	6800      	ldr	r0, [r0, #0]
    5584:	b108      	cbz	r0, 558a <_ZNK6String5toIntEv+0x8>
C:\Teensy\Projects\HelloWorld/WString.cpp:726 (discriminator 1)
    5586:	f001 b861 	b.w	664c <atol>
C:\Teensy\Projects\HelloWorld/WString.cpp:728
    558a:	4770      	bx	lr

0000558c <_ZNK6String7toFloatEv>:
_ZNK6String7toFloatEv():
C:\Teensy\Projects\HelloWorld/WString.cpp:732
    558c:	6800      	ldr	r0, [r0, #0]
    558e:	b110      	cbz	r0, 5596 <_ZNK6String7toFloatEv+0xa>
C:\Teensy\Projects\HelloWorld/WString.cpp:732 (discriminator 1)
    5590:	2100      	movs	r1, #0
    5592:	f002 b861 	b.w	7658 <strtof>
C:\Teensy\Projects\HelloWorld/WString.cpp:734
    5596:	2000      	movs	r0, #0
    5598:	4770      	bx	lr
    559a:	bf00      	nop

0000559c <_ZN6String4copyEPK19__FlashStringHelper>:
_ZN6String4copyEPK19__FlashStringHelper():
C:\Teensy\Projects\HelloWorld/WString.h:76
    559c:	b538      	push	{r3, r4, r5, lr}
    559e:	4605      	mov	r5, r0
    55a0:	4608      	mov	r0, r1
    55a2:	460c      	mov	r4, r1
    55a4:	f001 f9a9 	bl	68fa <strlen>
    55a8:	4621      	mov	r1, r4
    55aa:	4602      	mov	r2, r0
    55ac:	4628      	mov	r0, r5
    55ae:	e8bd 4038 	ldmia.w	sp!, {r3, r4, r5, lr}
    55b2:	f7ff bb62 	b.w	4c7a <_ZN6String4copyEPKcj>
    55b6:	ffff b510 	vsli.32	d27, d0, #31

000055b8 <yield>:
yield():
C:\Teensy\Projects\HelloWorld/yield.cpp:38
    55b8:	b510      	push	{r4, lr}
C:\Teensy\Projects\HelloWorld/yield.cpp:41
    55ba:	4c15      	ldr	r4, [pc, #84]	; (5610 <yield+0x58>)
    55bc:	7823      	ldrb	r3, [r4, #0]
    55be:	bb33      	cbnz	r3, 560e <yield+0x56>
C:\Teensy\Projects\HelloWorld/yield.cpp:42
    55c0:	2301      	movs	r3, #1
    55c2:	7023      	strb	r3, [r4, #0]
_ZN16usb_serial_class9availableEv():
C:\Teensy\Projects\HelloWorld/usb_serial.h:76
    55c4:	f7fe fce4 	bl	3f90 <usb_serial_available>
yield():
C:\Teensy\Projects\HelloWorld/yield.cpp:43
    55c8:	b108      	cbz	r0, 55ce <yield+0x16>
C:\Teensy\Projects\HelloWorld/yield.cpp:43 (discriminator 1)
    55ca:	f7ff faf5 	bl	4bb8 <_Z11serialEventv>
_ZN14HardwareSerial9availableEv():
C:\Teensy\Projects\HelloWorld/HardwareSerial.h:253
    55ce:	f7fc fa6f 	bl	1ab0 <serial_available>
yield():
C:\Teensy\Projects\HelloWorld/yield.cpp:44
    55d2:	b108      	cbz	r0, 55d8 <yield+0x20>
C:\Teensy\Projects\HelloWorld/yield.cpp:44 (discriminator 1)
    55d4:	f7fe fe17 	bl	4206 <_Z12serialEvent1v>
_ZN15HardwareSerial29availableEv():
C:\Teensy\Projects\HelloWorld/HardwareSerial.h:288
    55d8:	f7fc fda6 	bl	2128 <serial2_available>
yield():
C:\Teensy\Projects\HelloWorld/yield.cpp:45
    55dc:	b108      	cbz	r0, 55e2 <yield+0x2a>
C:\Teensy\Projects\HelloWorld/yield.cpp:45 (discriminator 1)
    55de:	f7fe fe9b 	bl	4318 <_Z12serialEvent2v>
_ZN15HardwareSerial39availableEv():
C:\Teensy\Projects\HelloWorld/HardwareSerial.h:323
    55e2:	f7fc ffe9 	bl	25b8 <serial3_available>
yield():
C:\Teensy\Projects\HelloWorld/yield.cpp:46
    55e6:	b108      	cbz	r0, 55ec <yield+0x34>
C:\Teensy\Projects\HelloWorld/yield.cpp:46 (discriminator 1)
    55e8:	f7fe ff20 	bl	442c <_Z12serialEvent3v>
_ZN15HardwareSerial49availableEv():
C:\Teensy\Projects\HelloWorld/HardwareSerial.h:358
    55ec:	f7fd fa5a 	bl	2aa4 <serial4_available>
yield():
C:\Teensy\Projects\HelloWorld/yield.cpp:47
    55f0:	b108      	cbz	r0, 55f6 <yield+0x3e>
C:\Teensy\Projects\HelloWorld/yield.cpp:47 (discriminator 1)
    55f2:	f7fe ffa5 	bl	4540 <_Z12serialEvent4v>
_ZN15HardwareSerial59availableEv():
C:\Teensy\Projects\HelloWorld/HardwareSerial.h:393
    55f6:	f7fd fc71 	bl	2edc <serial5_available>
yield():
C:\Teensy\Projects\HelloWorld/yield.cpp:48
    55fa:	b108      	cbz	r0, 5600 <yield+0x48>
C:\Teensy\Projects\HelloWorld/yield.cpp:48 (discriminator 1)
    55fc:	f7ff f82a 	bl	4654 <_Z12serialEvent5v>
_ZN15HardwareSerial69availableEv():
C:\Teensy\Projects\HelloWorld/HardwareSerial.h:435
    5600:	f7fd fef2 	bl	33e8 <serial6_available>
yield():
C:\Teensy\Projects\HelloWorld/yield.cpp:49
    5604:	b108      	cbz	r0, 560a <yield+0x52>
C:\Teensy\Projects\HelloWorld/yield.cpp:49 (discriminator 1)
    5606:	f7ff f8af 	bl	4768 <_Z12serialEvent6v>
C:\Teensy\Projects\HelloWorld/yield.cpp:50
    560a:	2300      	movs	r3, #0
    560c:	7023      	strb	r3, [r4, #0]
    560e:	bd10      	pop	{r4, pc}
    5610:	1fff0fd1 	.word	0x1fff0fd1

00005614 <__fpclassifyd>:
__fpclassifyd():
    5614:	f031 4300 	bics.w	r3, r1, #2147483648	; 0x80000000
    5618:	b410      	push	{r4}
    561a:	d008      	beq.n	562e <__fpclassifyd+0x1a>
    561c:	4a0f      	ldr	r2, [pc, #60]	; (565c <__fpclassifyd+0x48>)
    561e:	f5a3 1480 	sub.w	r4, r3, #1048576	; 0x100000
    5622:	4294      	cmp	r4, r2
    5624:	d80a      	bhi.n	563c <__fpclassifyd+0x28>
    5626:	2004      	movs	r0, #4
    5628:	f85d 4b04 	ldr.w	r4, [sp], #4
    562c:	4770      	bx	lr
    562e:	2800      	cmp	r0, #0
    5630:	bf0c      	ite	eq
    5632:	2002      	moveq	r0, #2
    5634:	2003      	movne	r0, #3
    5636:	f85d 4b04 	ldr.w	r4, [sp], #4
    563a:	4770      	bx	lr
    563c:	f5b3 1f80 	cmp.w	r3, #1048576	; 0x100000
    5640:	d201      	bcs.n	5646 <__fpclassifyd+0x32>
    5642:	2003      	movs	r0, #3
    5644:	e7f7      	b.n	5636 <__fpclassifyd+0x22>
    5646:	4a06      	ldr	r2, [pc, #24]	; (5660 <__fpclassifyd+0x4c>)
    5648:	4293      	cmp	r3, r2
    564a:	d001      	beq.n	5650 <__fpclassifyd+0x3c>
    564c:	2000      	movs	r0, #0
    564e:	e7f2      	b.n	5636 <__fpclassifyd+0x22>
    5650:	f1d0 0001 	rsbs	r0, r0, #1
    5654:	bf38      	it	cc
    5656:	2000      	movcc	r0, #0
    5658:	e7ed      	b.n	5636 <__fpclassifyd+0x22>
    565a:	bf00      	nop
    565c:	7fdfffff 	.word	0x7fdfffff
    5660:	7ff00000 	.word	0x7ff00000

00005664 <__aeabi_drsub>:
$t():
    5664:	f081 4100 	eor.w	r1, r1, #2147483648	; 0x80000000
    5668:	e002      	b.n	5670 <__adddf3>
    566a:	bf00      	nop

0000566c <__aeabi_dsub>:
__aeabi_dsub():
    566c:	f083 4300 	eor.w	r3, r3, #2147483648	; 0x80000000

00005670 <__adddf3>:
    5670:	b530      	push	{r4, r5, lr}
    5672:	ea4f 0441 	mov.w	r4, r1, lsl #1
    5676:	ea4f 0543 	mov.w	r5, r3, lsl #1
    567a:	ea94 0f05 	teq	r4, r5
    567e:	bf08      	it	eq
    5680:	ea90 0f02 	teqeq	r0, r2
    5684:	bf1f      	itttt	ne
    5686:	ea54 0c00 	orrsne.w	ip, r4, r0
    568a:	ea55 0c02 	orrsne.w	ip, r5, r2
    568e:	ea7f 5c64 	mvnsne.w	ip, r4, asr #21
    5692:	ea7f 5c65 	mvnsne.w	ip, r5, asr #21
    5696:	f000 80e2 	beq.w	585e <__adddf3+0x1ee>
    569a:	ea4f 5454 	mov.w	r4, r4, lsr #21
    569e:	ebd4 5555 	rsbs	r5, r4, r5, lsr #21
    56a2:	bfb8      	it	lt
    56a4:	426d      	neglt	r5, r5
    56a6:	dd0c      	ble.n	56c2 <__adddf3+0x52>
    56a8:	442c      	add	r4, r5
    56aa:	ea80 0202 	eor.w	r2, r0, r2
    56ae:	ea81 0303 	eor.w	r3, r1, r3
    56b2:	ea82 0000 	eor.w	r0, r2, r0
    56b6:	ea83 0101 	eor.w	r1, r3, r1
    56ba:	ea80 0202 	eor.w	r2, r0, r2
    56be:	ea81 0303 	eor.w	r3, r1, r3
    56c2:	2d36      	cmp	r5, #54	; 0x36
    56c4:	bf88      	it	hi
    56c6:	bd30      	pophi	{r4, r5, pc}
    56c8:	f011 4f00 	tst.w	r1, #2147483648	; 0x80000000
    56cc:	ea4f 3101 	mov.w	r1, r1, lsl #12
    56d0:	f44f 1c80 	mov.w	ip, #1048576	; 0x100000
    56d4:	ea4c 3111 	orr.w	r1, ip, r1, lsr #12
    56d8:	d002      	beq.n	56e0 <__adddf3+0x70>
    56da:	4240      	negs	r0, r0
    56dc:	eb61 0141 	sbc.w	r1, r1, r1, lsl #1
    56e0:	f013 4f00 	tst.w	r3, #2147483648	; 0x80000000
    56e4:	ea4f 3303 	mov.w	r3, r3, lsl #12
    56e8:	ea4c 3313 	orr.w	r3, ip, r3, lsr #12
    56ec:	d002      	beq.n	56f4 <__adddf3+0x84>
    56ee:	4252      	negs	r2, r2
    56f0:	eb63 0343 	sbc.w	r3, r3, r3, lsl #1
    56f4:	ea94 0f05 	teq	r4, r5
    56f8:	f000 80a7 	beq.w	584a <__adddf3+0x1da>
    56fc:	f1a4 0401 	sub.w	r4, r4, #1
    5700:	f1d5 0e20 	rsbs	lr, r5, #32
    5704:	db0d      	blt.n	5722 <__adddf3+0xb2>
    5706:	fa02 fc0e 	lsl.w	ip, r2, lr
    570a:	fa22 f205 	lsr.w	r2, r2, r5
    570e:	1880      	adds	r0, r0, r2
    5710:	f141 0100 	adc.w	r1, r1, #0
    5714:	fa03 f20e 	lsl.w	r2, r3, lr
    5718:	1880      	adds	r0, r0, r2
    571a:	fa43 f305 	asr.w	r3, r3, r5
    571e:	4159      	adcs	r1, r3
    5720:	e00e      	b.n	5740 <__adddf3+0xd0>
    5722:	f1a5 0520 	sub.w	r5, r5, #32
    5726:	f10e 0e20 	add.w	lr, lr, #32
    572a:	2a01      	cmp	r2, #1
    572c:	fa03 fc0e 	lsl.w	ip, r3, lr
    5730:	bf28      	it	cs
    5732:	f04c 0c02 	orrcs.w	ip, ip, #2
    5736:	fa43 f305 	asr.w	r3, r3, r5
    573a:	18c0      	adds	r0, r0, r3
    573c:	eb51 71e3 	adcs.w	r1, r1, r3, asr #31
    5740:	f001 4500 	and.w	r5, r1, #2147483648	; 0x80000000
    5744:	d507      	bpl.n	5756 <__adddf3+0xe6>
    5746:	f04f 0e00 	mov.w	lr, #0
    574a:	f1dc 0c00 	rsbs	ip, ip, #0
    574e:	eb7e 0000 	sbcs.w	r0, lr, r0
    5752:	eb6e 0101 	sbc.w	r1, lr, r1
    5756:	f5b1 1f80 	cmp.w	r1, #1048576	; 0x100000
    575a:	d31b      	bcc.n	5794 <__adddf3+0x124>
    575c:	f5b1 1f00 	cmp.w	r1, #2097152	; 0x200000
    5760:	d30c      	bcc.n	577c <__adddf3+0x10c>
    5762:	0849      	lsrs	r1, r1, #1
    5764:	ea5f 0030 	movs.w	r0, r0, rrx
    5768:	ea4f 0c3c 	mov.w	ip, ip, rrx
    576c:	f104 0401 	add.w	r4, r4, #1
    5770:	ea4f 5244 	mov.w	r2, r4, lsl #21
    5774:	f512 0f80 	cmn.w	r2, #4194304	; 0x400000
    5778:	f080 809a 	bcs.w	58b0 <__adddf3+0x240>
    577c:	f1bc 4f00 	cmp.w	ip, #2147483648	; 0x80000000
    5780:	bf08      	it	eq
    5782:	ea5f 0c50 	movseq.w	ip, r0, lsr #1
    5786:	f150 0000 	adcs.w	r0, r0, #0
    578a:	eb41 5104 	adc.w	r1, r1, r4, lsl #20
    578e:	ea41 0105 	orr.w	r1, r1, r5
    5792:	bd30      	pop	{r4, r5, pc}
    5794:	ea5f 0c4c 	movs.w	ip, ip, lsl #1
    5798:	4140      	adcs	r0, r0
    579a:	eb41 0101 	adc.w	r1, r1, r1
    579e:	f411 1f80 	tst.w	r1, #1048576	; 0x100000
    57a2:	f1a4 0401 	sub.w	r4, r4, #1
    57a6:	d1e9      	bne.n	577c <__adddf3+0x10c>
    57a8:	f091 0f00 	teq	r1, #0
    57ac:	bf04      	itt	eq
    57ae:	4601      	moveq	r1, r0
    57b0:	2000      	moveq	r0, #0
    57b2:	fab1 f381 	clz	r3, r1
    57b6:	bf08      	it	eq
    57b8:	3320      	addeq	r3, #32
    57ba:	f1a3 030b 	sub.w	r3, r3, #11
    57be:	f1b3 0220 	subs.w	r2, r3, #32
    57c2:	da0c      	bge.n	57de <__adddf3+0x16e>
    57c4:	320c      	adds	r2, #12
    57c6:	dd08      	ble.n	57da <__adddf3+0x16a>
    57c8:	f102 0c14 	add.w	ip, r2, #20
    57cc:	f1c2 020c 	rsb	r2, r2, #12
    57d0:	fa01 f00c 	lsl.w	r0, r1, ip
    57d4:	fa21 f102 	lsr.w	r1, r1, r2
    57d8:	e00c      	b.n	57f4 <__adddf3+0x184>
    57da:	f102 0214 	add.w	r2, r2, #20
    57de:	bfd8      	it	le
    57e0:	f1c2 0c20 	rsble	ip, r2, #32
    57e4:	fa01 f102 	lsl.w	r1, r1, r2
    57e8:	fa20 fc0c 	lsr.w	ip, r0, ip
    57ec:	bfdc      	itt	le
    57ee:	ea41 010c 	orrle.w	r1, r1, ip
    57f2:	4090      	lslle	r0, r2
    57f4:	1ae4      	subs	r4, r4, r3
    57f6:	bfa2      	ittt	ge
    57f8:	eb01 5104 	addge.w	r1, r1, r4, lsl #20
    57fc:	4329      	orrge	r1, r5
    57fe:	bd30      	popge	{r4, r5, pc}
    5800:	ea6f 0404 	mvn.w	r4, r4
    5804:	3c1f      	subs	r4, #31
    5806:	da1c      	bge.n	5842 <__adddf3+0x1d2>
    5808:	340c      	adds	r4, #12
    580a:	dc0e      	bgt.n	582a <__adddf3+0x1ba>
    580c:	f104 0414 	add.w	r4, r4, #20
    5810:	f1c4 0220 	rsb	r2, r4, #32
    5814:	fa20 f004 	lsr.w	r0, r0, r4
    5818:	fa01 f302 	lsl.w	r3, r1, r2
    581c:	ea40 0003 	orr.w	r0, r0, r3
    5820:	fa21 f304 	lsr.w	r3, r1, r4
    5824:	ea45 0103 	orr.w	r1, r5, r3
    5828:	bd30      	pop	{r4, r5, pc}
    582a:	f1c4 040c 	rsb	r4, r4, #12
    582e:	f1c4 0220 	rsb	r2, r4, #32
    5832:	fa20 f002 	lsr.w	r0, r0, r2
    5836:	fa01 f304 	lsl.w	r3, r1, r4
    583a:	ea40 0003 	orr.w	r0, r0, r3
    583e:	4629      	mov	r1, r5
    5840:	bd30      	pop	{r4, r5, pc}
    5842:	fa21 f004 	lsr.w	r0, r1, r4
    5846:	4629      	mov	r1, r5
    5848:	bd30      	pop	{r4, r5, pc}
    584a:	f094 0f00 	teq	r4, #0
    584e:	f483 1380 	eor.w	r3, r3, #1048576	; 0x100000
    5852:	bf06      	itte	eq
    5854:	f481 1180 	eoreq.w	r1, r1, #1048576	; 0x100000
    5858:	3401      	addeq	r4, #1
    585a:	3d01      	subne	r5, #1
    585c:	e74e      	b.n	56fc <__adddf3+0x8c>
    585e:	ea7f 5c64 	mvns.w	ip, r4, asr #21
    5862:	bf18      	it	ne
    5864:	ea7f 5c65 	mvnsne.w	ip, r5, asr #21
    5868:	d029      	beq.n	58be <__adddf3+0x24e>
    586a:	ea94 0f05 	teq	r4, r5
    586e:	bf08      	it	eq
    5870:	ea90 0f02 	teqeq	r0, r2
    5874:	d005      	beq.n	5882 <__adddf3+0x212>
    5876:	ea54 0c00 	orrs.w	ip, r4, r0
    587a:	bf04      	itt	eq
    587c:	4619      	moveq	r1, r3
    587e:	4610      	moveq	r0, r2
    5880:	bd30      	pop	{r4, r5, pc}
    5882:	ea91 0f03 	teq	r1, r3
    5886:	bf1e      	ittt	ne
    5888:	2100      	movne	r1, #0
    588a:	2000      	movne	r0, #0
    588c:	bd30      	popne	{r4, r5, pc}
    588e:	ea5f 5c54 	movs.w	ip, r4, lsr #21
    5892:	d105      	bne.n	58a0 <__adddf3+0x230>
    5894:	0040      	lsls	r0, r0, #1
    5896:	4149      	adcs	r1, r1
    5898:	bf28      	it	cs
    589a:	f041 4100 	orrcs.w	r1, r1, #2147483648	; 0x80000000
    589e:	bd30      	pop	{r4, r5, pc}
    58a0:	f514 0480 	adds.w	r4, r4, #4194304	; 0x400000
    58a4:	bf3c      	itt	cc
    58a6:	f501 1180 	addcc.w	r1, r1, #1048576	; 0x100000
    58aa:	bd30      	popcc	{r4, r5, pc}
    58ac:	f001 4500 	and.w	r5, r1, #2147483648	; 0x80000000
    58b0:	f045 41fe 	orr.w	r1, r5, #2130706432	; 0x7f000000
    58b4:	f441 0170 	orr.w	r1, r1, #15728640	; 0xf00000
    58b8:	f04f 0000 	mov.w	r0, #0
    58bc:	bd30      	pop	{r4, r5, pc}
    58be:	ea7f 5c64 	mvns.w	ip, r4, asr #21
    58c2:	bf1a      	itte	ne
    58c4:	4619      	movne	r1, r3
    58c6:	4610      	movne	r0, r2
    58c8:	ea7f 5c65 	mvnseq.w	ip, r5, asr #21
    58cc:	bf1c      	itt	ne
    58ce:	460b      	movne	r3, r1
    58d0:	4602      	movne	r2, r0
    58d2:	ea50 3401 	orrs.w	r4, r0, r1, lsl #12
    58d6:	bf06      	itte	eq
    58d8:	ea52 3503 	orrseq.w	r5, r2, r3, lsl #12
    58dc:	ea91 0f03 	teqeq	r1, r3
    58e0:	f441 2100 	orrne.w	r1, r1, #524288	; 0x80000
    58e4:	bd30      	pop	{r4, r5, pc}
__adddf3():
    58e6:	bf00      	nop

000058e8 <__aeabi_ui2d>:
__aeabi_ui2d():
    58e8:	f090 0f00 	teq	r0, #0
    58ec:	bf04      	itt	eq
    58ee:	2100      	moveq	r1, #0
    58f0:	4770      	bxeq	lr
    58f2:	b530      	push	{r4, r5, lr}
    58f4:	f44f 6480 	mov.w	r4, #1024	; 0x400
    58f8:	f104 0432 	add.w	r4, r4, #50	; 0x32
    58fc:	f04f 0500 	mov.w	r5, #0
    5900:	f04f 0100 	mov.w	r1, #0
    5904:	e750      	b.n	57a8 <__adddf3+0x138>
    5906:	bf00      	nop

00005908 <__aeabi_i2d>:
__floatsidf():
    5908:	f090 0f00 	teq	r0, #0
    590c:	bf04      	itt	eq
    590e:	2100      	moveq	r1, #0
    5910:	4770      	bxeq	lr
    5912:	b530      	push	{r4, r5, lr}
    5914:	f44f 6480 	mov.w	r4, #1024	; 0x400
    5918:	f104 0432 	add.w	r4, r4, #50	; 0x32
    591c:	f010 4500 	ands.w	r5, r0, #2147483648	; 0x80000000
    5920:	bf48      	it	mi
    5922:	4240      	negmi	r0, r0
    5924:	f04f 0100 	mov.w	r1, #0
    5928:	e73e      	b.n	57a8 <__adddf3+0x138>
    592a:	bf00      	nop

0000592c <__aeabi_f2d>:
__extendsfdf2():
    592c:	0042      	lsls	r2, r0, #1
    592e:	ea4f 01e2 	mov.w	r1, r2, asr #3
    5932:	ea4f 0131 	mov.w	r1, r1, rrx
    5936:	ea4f 7002 	mov.w	r0, r2, lsl #28
    593a:	bf1f      	itttt	ne
    593c:	f012 437f 	andsne.w	r3, r2, #4278190080	; 0xff000000
    5940:	f093 4f7f 	teqne	r3, #4278190080	; 0xff000000
    5944:	f081 5160 	eorne.w	r1, r1, #939524096	; 0x38000000
    5948:	4770      	bxne	lr
    594a:	f092 0f00 	teq	r2, #0
    594e:	bf14      	ite	ne
    5950:	f093 4f7f 	teqne	r3, #4278190080	; 0xff000000
    5954:	4770      	bxeq	lr
    5956:	b530      	push	{r4, r5, lr}
    5958:	f44f 7460 	mov.w	r4, #896	; 0x380
    595c:	f001 4500 	and.w	r5, r1, #2147483648	; 0x80000000
    5960:	f021 4100 	bic.w	r1, r1, #2147483648	; 0x80000000
    5964:	e720      	b.n	57a8 <__adddf3+0x138>
    5966:	bf00      	nop

00005968 <__aeabi_ul2d>:
__aeabi_ul2d():
    5968:	ea50 0201 	orrs.w	r2, r0, r1
    596c:	bf08      	it	eq
    596e:	4770      	bxeq	lr
    5970:	b530      	push	{r4, r5, lr}
    5972:	f04f 0500 	mov.w	r5, #0
    5976:	e00a      	b.n	598e <__aeabi_l2d+0x16>

00005978 <__aeabi_l2d>:
    5978:	ea50 0201 	orrs.w	r2, r0, r1
    597c:	bf08      	it	eq
    597e:	4770      	bxeq	lr
    5980:	b530      	push	{r4, r5, lr}
    5982:	f011 4500 	ands.w	r5, r1, #2147483648	; 0x80000000
    5986:	d502      	bpl.n	598e <__aeabi_l2d+0x16>
    5988:	4240      	negs	r0, r0
    598a:	eb61 0141 	sbc.w	r1, r1, r1, lsl #1
    598e:	f44f 6480 	mov.w	r4, #1024	; 0x400
    5992:	f104 0432 	add.w	r4, r4, #50	; 0x32
    5996:	ea5f 5c91 	movs.w	ip, r1, lsr #22
    599a:	f43f aedc 	beq.w	5756 <__adddf3+0xe6>
    599e:	f04f 0203 	mov.w	r2, #3
    59a2:	ea5f 0cdc 	movs.w	ip, ip, lsr #3
    59a6:	bf18      	it	ne
    59a8:	3203      	addne	r2, #3
    59aa:	ea5f 0cdc 	movs.w	ip, ip, lsr #3
    59ae:	bf18      	it	ne
    59b0:	3203      	addne	r2, #3
    59b2:	eb02 02dc 	add.w	r2, r2, ip, lsr #3
    59b6:	f1c2 0320 	rsb	r3, r2, #32
    59ba:	fa00 fc03 	lsl.w	ip, r0, r3
    59be:	fa20 f002 	lsr.w	r0, r0, r2
    59c2:	fa01 fe03 	lsl.w	lr, r1, r3
    59c6:	ea40 000e 	orr.w	r0, r0, lr
    59ca:	fa21 f102 	lsr.w	r1, r1, r2
    59ce:	4414      	add	r4, r2
    59d0:	e6c1      	b.n	5756 <__adddf3+0xe6>
__floatdidf():
    59d2:	bf00      	nop

000059d4 <__aeabi_dmul>:
__aeabi_dmul():
    59d4:	b570      	push	{r4, r5, r6, lr}
    59d6:	f04f 0cff 	mov.w	ip, #255	; 0xff
    59da:	f44c 6ce0 	orr.w	ip, ip, #1792	; 0x700
    59de:	ea1c 5411 	ands.w	r4, ip, r1, lsr #20
    59e2:	bf1d      	ittte	ne
    59e4:	ea1c 5513 	andsne.w	r5, ip, r3, lsr #20
    59e8:	ea94 0f0c 	teqne	r4, ip
    59ec:	ea95 0f0c 	teqne	r5, ip
    59f0:	f000 f8de 	bleq	5bb0 <__aeabi_dmul+0x1dc>
    59f4:	442c      	add	r4, r5
    59f6:	ea81 0603 	eor.w	r6, r1, r3
    59fa:	ea21 514c 	bic.w	r1, r1, ip, lsl #21
    59fe:	ea23 534c 	bic.w	r3, r3, ip, lsl #21
    5a02:	ea50 3501 	orrs.w	r5, r0, r1, lsl #12
    5a06:	bf18      	it	ne
    5a08:	ea52 3503 	orrsne.w	r5, r2, r3, lsl #12
    5a0c:	f441 1180 	orr.w	r1, r1, #1048576	; 0x100000
    5a10:	f443 1380 	orr.w	r3, r3, #1048576	; 0x100000
    5a14:	d038      	beq.n	5a88 <__aeabi_dmul+0xb4>
    5a16:	fba0 ce02 	umull	ip, lr, r0, r2
    5a1a:	f04f 0500 	mov.w	r5, #0
    5a1e:	fbe1 e502 	umlal	lr, r5, r1, r2
    5a22:	f006 4200 	and.w	r2, r6, #2147483648	; 0x80000000
    5a26:	fbe0 e503 	umlal	lr, r5, r0, r3
    5a2a:	f04f 0600 	mov.w	r6, #0
    5a2e:	fbe1 5603 	umlal	r5, r6, r1, r3
    5a32:	f09c 0f00 	teq	ip, #0
    5a36:	bf18      	it	ne
    5a38:	f04e 0e01 	orrne.w	lr, lr, #1
    5a3c:	f1a4 04ff 	sub.w	r4, r4, #255	; 0xff
    5a40:	f5b6 7f00 	cmp.w	r6, #512	; 0x200
    5a44:	f564 7440 	sbc.w	r4, r4, #768	; 0x300
    5a48:	d204      	bcs.n	5a54 <__aeabi_dmul+0x80>
    5a4a:	ea5f 0e4e 	movs.w	lr, lr, lsl #1
    5a4e:	416d      	adcs	r5, r5
    5a50:	eb46 0606 	adc.w	r6, r6, r6
    5a54:	ea42 21c6 	orr.w	r1, r2, r6, lsl #11
    5a58:	ea41 5155 	orr.w	r1, r1, r5, lsr #21
    5a5c:	ea4f 20c5 	mov.w	r0, r5, lsl #11
    5a60:	ea40 505e 	orr.w	r0, r0, lr, lsr #21
    5a64:	ea4f 2ece 	mov.w	lr, lr, lsl #11
    5a68:	f1b4 0cfd 	subs.w	ip, r4, #253	; 0xfd
    5a6c:	bf88      	it	hi
    5a6e:	f5bc 6fe0 	cmphi.w	ip, #1792	; 0x700
    5a72:	d81e      	bhi.n	5ab2 <__aeabi_dmul+0xde>
    5a74:	f1be 4f00 	cmp.w	lr, #2147483648	; 0x80000000
    5a78:	bf08      	it	eq
    5a7a:	ea5f 0e50 	movseq.w	lr, r0, lsr #1
    5a7e:	f150 0000 	adcs.w	r0, r0, #0
    5a82:	eb41 5104 	adc.w	r1, r1, r4, lsl #20
    5a86:	bd70      	pop	{r4, r5, r6, pc}
    5a88:	f006 4600 	and.w	r6, r6, #2147483648	; 0x80000000
    5a8c:	ea46 0101 	orr.w	r1, r6, r1
    5a90:	ea40 0002 	orr.w	r0, r0, r2
    5a94:	ea81 0103 	eor.w	r1, r1, r3
    5a98:	ebb4 045c 	subs.w	r4, r4, ip, lsr #1
    5a9c:	bfc2      	ittt	gt
    5a9e:	ebd4 050c 	rsbsgt	r5, r4, ip
    5aa2:	ea41 5104 	orrgt.w	r1, r1, r4, lsl #20
    5aa6:	bd70      	popgt	{r4, r5, r6, pc}
    5aa8:	f441 1180 	orr.w	r1, r1, #1048576	; 0x100000
    5aac:	f04f 0e00 	mov.w	lr, #0
    5ab0:	3c01      	subs	r4, #1
    5ab2:	f300 80ab 	bgt.w	5c0c <__aeabi_dmul+0x238>
    5ab6:	f114 0f36 	cmn.w	r4, #54	; 0x36
    5aba:	bfde      	ittt	le
    5abc:	2000      	movle	r0, #0
    5abe:	f001 4100 	andle.w	r1, r1, #2147483648	; 0x80000000
    5ac2:	bd70      	pople	{r4, r5, r6, pc}
    5ac4:	f1c4 0400 	rsb	r4, r4, #0
    5ac8:	3c20      	subs	r4, #32
    5aca:	da35      	bge.n	5b38 <__aeabi_dmul+0x164>
    5acc:	340c      	adds	r4, #12
    5ace:	dc1b      	bgt.n	5b08 <__aeabi_dmul+0x134>
    5ad0:	f104 0414 	add.w	r4, r4, #20
    5ad4:	f1c4 0520 	rsb	r5, r4, #32
    5ad8:	fa00 f305 	lsl.w	r3, r0, r5
    5adc:	fa20 f004 	lsr.w	r0, r0, r4
    5ae0:	fa01 f205 	lsl.w	r2, r1, r5
    5ae4:	ea40 0002 	orr.w	r0, r0, r2
    5ae8:	f001 4200 	and.w	r2, r1, #2147483648	; 0x80000000
    5aec:	f021 4100 	bic.w	r1, r1, #2147483648	; 0x80000000
    5af0:	eb10 70d3 	adds.w	r0, r0, r3, lsr #31
    5af4:	fa21 f604 	lsr.w	r6, r1, r4
    5af8:	eb42 0106 	adc.w	r1, r2, r6
    5afc:	ea5e 0e43 	orrs.w	lr, lr, r3, lsl #1
    5b00:	bf08      	it	eq
    5b02:	ea20 70d3 	biceq.w	r0, r0, r3, lsr #31
    5b06:	bd70      	pop	{r4, r5, r6, pc}
    5b08:	f1c4 040c 	rsb	r4, r4, #12
    5b0c:	f1c4 0520 	rsb	r5, r4, #32
    5b10:	fa00 f304 	lsl.w	r3, r0, r4
    5b14:	fa20 f005 	lsr.w	r0, r0, r5
    5b18:	fa01 f204 	lsl.w	r2, r1, r4
    5b1c:	ea40 0002 	orr.w	r0, r0, r2
    5b20:	f001 4100 	and.w	r1, r1, #2147483648	; 0x80000000
    5b24:	eb10 70d3 	adds.w	r0, r0, r3, lsr #31
    5b28:	f141 0100 	adc.w	r1, r1, #0
    5b2c:	ea5e 0e43 	orrs.w	lr, lr, r3, lsl #1
    5b30:	bf08      	it	eq
    5b32:	ea20 70d3 	biceq.w	r0, r0, r3, lsr #31
    5b36:	bd70      	pop	{r4, r5, r6, pc}
    5b38:	f1c4 0520 	rsb	r5, r4, #32
    5b3c:	fa00 f205 	lsl.w	r2, r0, r5
    5b40:	ea4e 0e02 	orr.w	lr, lr, r2
    5b44:	fa20 f304 	lsr.w	r3, r0, r4
    5b48:	fa01 f205 	lsl.w	r2, r1, r5
    5b4c:	ea43 0302 	orr.w	r3, r3, r2
    5b50:	fa21 f004 	lsr.w	r0, r1, r4
    5b54:	f001 4100 	and.w	r1, r1, #2147483648	; 0x80000000
    5b58:	fa21 f204 	lsr.w	r2, r1, r4
    5b5c:	ea20 0002 	bic.w	r0, r0, r2
    5b60:	eb00 70d3 	add.w	r0, r0, r3, lsr #31
    5b64:	ea5e 0e43 	orrs.w	lr, lr, r3, lsl #1
    5b68:	bf08      	it	eq
    5b6a:	ea20 70d3 	biceq.w	r0, r0, r3, lsr #31
    5b6e:	bd70      	pop	{r4, r5, r6, pc}
    5b70:	f094 0f00 	teq	r4, #0
    5b74:	d10f      	bne.n	5b96 <__aeabi_dmul+0x1c2>
    5b76:	f001 4600 	and.w	r6, r1, #2147483648	; 0x80000000
    5b7a:	0040      	lsls	r0, r0, #1
    5b7c:	eb41 0101 	adc.w	r1, r1, r1
    5b80:	f411 1f80 	tst.w	r1, #1048576	; 0x100000
    5b84:	bf08      	it	eq
    5b86:	3c01      	subeq	r4, #1
    5b88:	d0f7      	beq.n	5b7a <__aeabi_dmul+0x1a6>
    5b8a:	ea41 0106 	orr.w	r1, r1, r6
    5b8e:	f095 0f00 	teq	r5, #0
    5b92:	bf18      	it	ne
    5b94:	4770      	bxne	lr
    5b96:	f003 4600 	and.w	r6, r3, #2147483648	; 0x80000000
    5b9a:	0052      	lsls	r2, r2, #1
    5b9c:	eb43 0303 	adc.w	r3, r3, r3
    5ba0:	f413 1f80 	tst.w	r3, #1048576	; 0x100000
    5ba4:	bf08      	it	eq
    5ba6:	3d01      	subeq	r5, #1
    5ba8:	d0f7      	beq.n	5b9a <__aeabi_dmul+0x1c6>
    5baa:	ea43 0306 	orr.w	r3, r3, r6
    5bae:	4770      	bx	lr
    5bb0:	ea94 0f0c 	teq	r4, ip
    5bb4:	ea0c 5513 	and.w	r5, ip, r3, lsr #20
    5bb8:	bf18      	it	ne
    5bba:	ea95 0f0c 	teqne	r5, ip
    5bbe:	d00c      	beq.n	5bda <__aeabi_dmul+0x206>
    5bc0:	ea50 0641 	orrs.w	r6, r0, r1, lsl #1
    5bc4:	bf18      	it	ne
    5bc6:	ea52 0643 	orrsne.w	r6, r2, r3, lsl #1
    5bca:	d1d1      	bne.n	5b70 <__aeabi_dmul+0x19c>
    5bcc:	ea81 0103 	eor.w	r1, r1, r3
    5bd0:	f001 4100 	and.w	r1, r1, #2147483648	; 0x80000000
    5bd4:	f04f 0000 	mov.w	r0, #0
    5bd8:	bd70      	pop	{r4, r5, r6, pc}
    5bda:	ea50 0641 	orrs.w	r6, r0, r1, lsl #1
    5bde:	bf06      	itte	eq
    5be0:	4610      	moveq	r0, r2
    5be2:	4619      	moveq	r1, r3
    5be4:	ea52 0643 	orrsne.w	r6, r2, r3, lsl #1
    5be8:	d019      	beq.n	5c1e <__aeabi_dmul+0x24a>
    5bea:	ea94 0f0c 	teq	r4, ip
    5bee:	d102      	bne.n	5bf6 <__aeabi_dmul+0x222>
    5bf0:	ea50 3601 	orrs.w	r6, r0, r1, lsl #12
    5bf4:	d113      	bne.n	5c1e <__aeabi_dmul+0x24a>
    5bf6:	ea95 0f0c 	teq	r5, ip
    5bfa:	d105      	bne.n	5c08 <__aeabi_dmul+0x234>
    5bfc:	ea52 3603 	orrs.w	r6, r2, r3, lsl #12
    5c00:	bf1c      	itt	ne
    5c02:	4610      	movne	r0, r2
    5c04:	4619      	movne	r1, r3
    5c06:	d10a      	bne.n	5c1e <__aeabi_dmul+0x24a>
    5c08:	ea81 0103 	eor.w	r1, r1, r3
    5c0c:	f001 4100 	and.w	r1, r1, #2147483648	; 0x80000000
    5c10:	f041 41fe 	orr.w	r1, r1, #2130706432	; 0x7f000000
    5c14:	f441 0170 	orr.w	r1, r1, #15728640	; 0xf00000
    5c18:	f04f 0000 	mov.w	r0, #0
    5c1c:	bd70      	pop	{r4, r5, r6, pc}
    5c1e:	f041 41fe 	orr.w	r1, r1, #2130706432	; 0x7f000000
    5c22:	f441 0178 	orr.w	r1, r1, #16252928	; 0xf80000
    5c26:	bd70      	pop	{r4, r5, r6, pc}

00005c28 <__aeabi_ddiv>:
__aeabi_ddiv():
    5c28:	b570      	push	{r4, r5, r6, lr}
    5c2a:	f04f 0cff 	mov.w	ip, #255	; 0xff
    5c2e:	f44c 6ce0 	orr.w	ip, ip, #1792	; 0x700
    5c32:	ea1c 5411 	ands.w	r4, ip, r1, lsr #20
    5c36:	bf1d      	ittte	ne
    5c38:	ea1c 5513 	andsne.w	r5, ip, r3, lsr #20
    5c3c:	ea94 0f0c 	teqne	r4, ip
    5c40:	ea95 0f0c 	teqne	r5, ip
    5c44:	f000 f8a7 	bleq	5d96 <__aeabi_ddiv+0x16e>
    5c48:	eba4 0405 	sub.w	r4, r4, r5
    5c4c:	ea81 0e03 	eor.w	lr, r1, r3
    5c50:	ea52 3503 	orrs.w	r5, r2, r3, lsl #12
    5c54:	ea4f 3101 	mov.w	r1, r1, lsl #12
    5c58:	f000 8088 	beq.w	5d6c <__aeabi_ddiv+0x144>
    5c5c:	ea4f 3303 	mov.w	r3, r3, lsl #12
    5c60:	f04f 5580 	mov.w	r5, #268435456	; 0x10000000
    5c64:	ea45 1313 	orr.w	r3, r5, r3, lsr #4
    5c68:	ea43 6312 	orr.w	r3, r3, r2, lsr #24
    5c6c:	ea4f 2202 	mov.w	r2, r2, lsl #8
    5c70:	ea45 1511 	orr.w	r5, r5, r1, lsr #4
    5c74:	ea45 6510 	orr.w	r5, r5, r0, lsr #24
    5c78:	ea4f 2600 	mov.w	r6, r0, lsl #8
    5c7c:	f00e 4100 	and.w	r1, lr, #2147483648	; 0x80000000
    5c80:	429d      	cmp	r5, r3
    5c82:	bf08      	it	eq
    5c84:	4296      	cmpeq	r6, r2
    5c86:	f144 04fd 	adc.w	r4, r4, #253	; 0xfd
    5c8a:	f504 7440 	add.w	r4, r4, #768	; 0x300
    5c8e:	d202      	bcs.n	5c96 <__aeabi_ddiv+0x6e>
    5c90:	085b      	lsrs	r3, r3, #1
    5c92:	ea4f 0232 	mov.w	r2, r2, rrx
    5c96:	1ab6      	subs	r6, r6, r2
    5c98:	eb65 0503 	sbc.w	r5, r5, r3
    5c9c:	085b      	lsrs	r3, r3, #1
    5c9e:	ea4f 0232 	mov.w	r2, r2, rrx
    5ca2:	f44f 1080 	mov.w	r0, #1048576	; 0x100000
    5ca6:	f44f 2c00 	mov.w	ip, #524288	; 0x80000
    5caa:	ebb6 0e02 	subs.w	lr, r6, r2
    5cae:	eb75 0e03 	sbcs.w	lr, r5, r3
    5cb2:	bf22      	ittt	cs
    5cb4:	1ab6      	subcs	r6, r6, r2
    5cb6:	4675      	movcs	r5, lr
    5cb8:	ea40 000c 	orrcs.w	r0, r0, ip
    5cbc:	085b      	lsrs	r3, r3, #1
    5cbe:	ea4f 0232 	mov.w	r2, r2, rrx
    5cc2:	ebb6 0e02 	subs.w	lr, r6, r2
    5cc6:	eb75 0e03 	sbcs.w	lr, r5, r3
    5cca:	bf22      	ittt	cs
    5ccc:	1ab6      	subcs	r6, r6, r2
    5cce:	4675      	movcs	r5, lr
    5cd0:	ea40 005c 	orrcs.w	r0, r0, ip, lsr #1
    5cd4:	085b      	lsrs	r3, r3, #1
    5cd6:	ea4f 0232 	mov.w	r2, r2, rrx
    5cda:	ebb6 0e02 	subs.w	lr, r6, r2
    5cde:	eb75 0e03 	sbcs.w	lr, r5, r3
    5ce2:	bf22      	ittt	cs
    5ce4:	1ab6      	subcs	r6, r6, r2
    5ce6:	4675      	movcs	r5, lr
    5ce8:	ea40 009c 	orrcs.w	r0, r0, ip, lsr #2
    5cec:	085b      	lsrs	r3, r3, #1
    5cee:	ea4f 0232 	mov.w	r2, r2, rrx
    5cf2:	ebb6 0e02 	subs.w	lr, r6, r2
    5cf6:	eb75 0e03 	sbcs.w	lr, r5, r3
    5cfa:	bf22      	ittt	cs
    5cfc:	1ab6      	subcs	r6, r6, r2
    5cfe:	4675      	movcs	r5, lr
    5d00:	ea40 00dc 	orrcs.w	r0, r0, ip, lsr #3
    5d04:	ea55 0e06 	orrs.w	lr, r5, r6
    5d08:	d018      	beq.n	5d3c <__aeabi_ddiv+0x114>
    5d0a:	ea4f 1505 	mov.w	r5, r5, lsl #4
    5d0e:	ea45 7516 	orr.w	r5, r5, r6, lsr #28
    5d12:	ea4f 1606 	mov.w	r6, r6, lsl #4
    5d16:	ea4f 03c3 	mov.w	r3, r3, lsl #3
    5d1a:	ea43 7352 	orr.w	r3, r3, r2, lsr #29
    5d1e:	ea4f 02c2 	mov.w	r2, r2, lsl #3
    5d22:	ea5f 1c1c 	movs.w	ip, ip, lsr #4
    5d26:	d1c0      	bne.n	5caa <__aeabi_ddiv+0x82>
    5d28:	f411 1f80 	tst.w	r1, #1048576	; 0x100000
    5d2c:	d10b      	bne.n	5d46 <__aeabi_ddiv+0x11e>
    5d2e:	ea41 0100 	orr.w	r1, r1, r0
    5d32:	f04f 0000 	mov.w	r0, #0
    5d36:	f04f 4c00 	mov.w	ip, #2147483648	; 0x80000000
    5d3a:	e7b6      	b.n	5caa <__aeabi_ddiv+0x82>
    5d3c:	f411 1f80 	tst.w	r1, #1048576	; 0x100000
    5d40:	bf04      	itt	eq
    5d42:	4301      	orreq	r1, r0
    5d44:	2000      	moveq	r0, #0
    5d46:	f1b4 0cfd 	subs.w	ip, r4, #253	; 0xfd
    5d4a:	bf88      	it	hi
    5d4c:	f5bc 6fe0 	cmphi.w	ip, #1792	; 0x700
    5d50:	f63f aeaf 	bhi.w	5ab2 <__aeabi_dmul+0xde>
    5d54:	ebb5 0c03 	subs.w	ip, r5, r3
    5d58:	bf04      	itt	eq
    5d5a:	ebb6 0c02 	subseq.w	ip, r6, r2
    5d5e:	ea5f 0c50 	movseq.w	ip, r0, lsr #1
    5d62:	f150 0000 	adcs.w	r0, r0, #0
    5d66:	eb41 5104 	adc.w	r1, r1, r4, lsl #20
    5d6a:	bd70      	pop	{r4, r5, r6, pc}
    5d6c:	f00e 4e00 	and.w	lr, lr, #2147483648	; 0x80000000
    5d70:	ea4e 3111 	orr.w	r1, lr, r1, lsr #12
    5d74:	eb14 045c 	adds.w	r4, r4, ip, lsr #1
    5d78:	bfc2      	ittt	gt
    5d7a:	ebd4 050c 	rsbsgt	r5, r4, ip
    5d7e:	ea41 5104 	orrgt.w	r1, r1, r4, lsl #20
    5d82:	bd70      	popgt	{r4, r5, r6, pc}
    5d84:	f441 1180 	orr.w	r1, r1, #1048576	; 0x100000
    5d88:	f04f 0e00 	mov.w	lr, #0
    5d8c:	3c01      	subs	r4, #1
    5d8e:	e690      	b.n	5ab2 <__aeabi_dmul+0xde>
    5d90:	ea45 0e06 	orr.w	lr, r5, r6
    5d94:	e68d      	b.n	5ab2 <__aeabi_dmul+0xde>
    5d96:	ea0c 5513 	and.w	r5, ip, r3, lsr #20
    5d9a:	ea94 0f0c 	teq	r4, ip
    5d9e:	bf08      	it	eq
    5da0:	ea95 0f0c 	teqeq	r5, ip
    5da4:	f43f af3b 	beq.w	5c1e <__aeabi_dmul+0x24a>
    5da8:	ea94 0f0c 	teq	r4, ip
    5dac:	d10a      	bne.n	5dc4 <__aeabi_ddiv+0x19c>
    5dae:	ea50 3401 	orrs.w	r4, r0, r1, lsl #12
    5db2:	f47f af34 	bne.w	5c1e <__aeabi_dmul+0x24a>
    5db6:	ea95 0f0c 	teq	r5, ip
    5dba:	f47f af25 	bne.w	5c08 <__aeabi_dmul+0x234>
    5dbe:	4610      	mov	r0, r2
    5dc0:	4619      	mov	r1, r3
    5dc2:	e72c      	b.n	5c1e <__aeabi_dmul+0x24a>
    5dc4:	ea95 0f0c 	teq	r5, ip
    5dc8:	d106      	bne.n	5dd8 <__aeabi_ddiv+0x1b0>
    5dca:	ea52 3503 	orrs.w	r5, r2, r3, lsl #12
    5dce:	f43f aefd 	beq.w	5bcc <__aeabi_dmul+0x1f8>
    5dd2:	4610      	mov	r0, r2
    5dd4:	4619      	mov	r1, r3
    5dd6:	e722      	b.n	5c1e <__aeabi_dmul+0x24a>
    5dd8:	ea50 0641 	orrs.w	r6, r0, r1, lsl #1
    5ddc:	bf18      	it	ne
    5dde:	ea52 0643 	orrsne.w	r6, r2, r3, lsl #1
    5de2:	f47f aec5 	bne.w	5b70 <__aeabi_dmul+0x19c>
    5de6:	ea50 0441 	orrs.w	r4, r0, r1, lsl #1
    5dea:	f47f af0d 	bne.w	5c08 <__aeabi_dmul+0x234>
    5dee:	ea52 0543 	orrs.w	r5, r2, r3, lsl #1
    5df2:	f47f aeeb 	bne.w	5bcc <__aeabi_dmul+0x1f8>
    5df6:	e712      	b.n	5c1e <__aeabi_dmul+0x24a>

00005df8 <__gedf2>:
__gtdf2():
    5df8:	f04f 3cff 	mov.w	ip, #4294967295
    5dfc:	e006      	b.n	5e0c <__cmpdf2+0x4>
    5dfe:	bf00      	nop

00005e00 <__ledf2>:
    5e00:	f04f 0c01 	mov.w	ip, #1
    5e04:	e002      	b.n	5e0c <__cmpdf2+0x4>
    5e06:	bf00      	nop

00005e08 <__cmpdf2>:
    5e08:	f04f 0c01 	mov.w	ip, #1
    5e0c:	f84d cd04 	str.w	ip, [sp, #-4]!
    5e10:	ea4f 0c41 	mov.w	ip, r1, lsl #1
    5e14:	ea7f 5c6c 	mvns.w	ip, ip, asr #21
    5e18:	ea4f 0c43 	mov.w	ip, r3, lsl #1
    5e1c:	bf18      	it	ne
    5e1e:	ea7f 5c6c 	mvnsne.w	ip, ip, asr #21
    5e22:	d01b      	beq.n	5e5c <__cmpdf2+0x54>
    5e24:	b001      	add	sp, #4
    5e26:	ea50 0c41 	orrs.w	ip, r0, r1, lsl #1
    5e2a:	bf0c      	ite	eq
    5e2c:	ea52 0c43 	orrseq.w	ip, r2, r3, lsl #1
    5e30:	ea91 0f03 	teqne	r1, r3
    5e34:	bf02      	ittt	eq
    5e36:	ea90 0f02 	teqeq	r0, r2
    5e3a:	2000      	moveq	r0, #0
    5e3c:	4770      	bxeq	lr
    5e3e:	f110 0f00 	cmn.w	r0, #0
    5e42:	ea91 0f03 	teq	r1, r3
    5e46:	bf58      	it	pl
    5e48:	4299      	cmppl	r1, r3
    5e4a:	bf08      	it	eq
    5e4c:	4290      	cmpeq	r0, r2
    5e4e:	bf2c      	ite	cs
    5e50:	17d8      	asrcs	r0, r3, #31
    5e52:	ea6f 70e3 	mvncc.w	r0, r3, asr #31
    5e56:	f040 0001 	orr.w	r0, r0, #1
    5e5a:	4770      	bx	lr
    5e5c:	ea4f 0c41 	mov.w	ip, r1, lsl #1
    5e60:	ea7f 5c6c 	mvns.w	ip, ip, asr #21
    5e64:	d102      	bne.n	5e6c <__cmpdf2+0x64>
    5e66:	ea50 3c01 	orrs.w	ip, r0, r1, lsl #12
    5e6a:	d107      	bne.n	5e7c <__cmpdf2+0x74>
    5e6c:	ea4f 0c43 	mov.w	ip, r3, lsl #1
    5e70:	ea7f 5c6c 	mvns.w	ip, ip, asr #21
    5e74:	d1d6      	bne.n	5e24 <__cmpdf2+0x1c>
    5e76:	ea52 3c03 	orrs.w	ip, r2, r3, lsl #12
    5e7a:	d0d3      	beq.n	5e24 <__cmpdf2+0x1c>
    5e7c:	f85d 0b04 	ldr.w	r0, [sp], #4
    5e80:	4770      	bx	lr
__cmpdf2():
    5e82:	bf00      	nop

00005e84 <__aeabi_cdrcmple>:
__aeabi_cdrcmple():
    5e84:	4684      	mov	ip, r0
    5e86:	4610      	mov	r0, r2
    5e88:	4662      	mov	r2, ip
    5e8a:	468c      	mov	ip, r1
    5e8c:	4619      	mov	r1, r3
    5e8e:	4663      	mov	r3, ip
    5e90:	e000      	b.n	5e94 <__aeabi_cdcmpeq>
    5e92:	bf00      	nop

00005e94 <__aeabi_cdcmpeq>:
    5e94:	b501      	push	{r0, lr}
    5e96:	f7ff ffb7 	bl	5e08 <__cmpdf2>
    5e9a:	2800      	cmp	r0, #0
    5e9c:	bf48      	it	mi
    5e9e:	f110 0f00 	cmnmi.w	r0, #0
    5ea2:	bd01      	pop	{r0, pc}

00005ea4 <__aeabi_dcmpeq>:
__aeabi_dcmpeq():
    5ea4:	f84d ed08 	str.w	lr, [sp, #-8]!
    5ea8:	f7ff fff4 	bl	5e94 <__aeabi_cdcmpeq>
    5eac:	bf0c      	ite	eq
    5eae:	2001      	moveq	r0, #1
    5eb0:	2000      	movne	r0, #0
    5eb2:	f85d fb08 	ldr.w	pc, [sp], #8
    5eb6:	bf00      	nop

00005eb8 <__aeabi_dcmplt>:
__aeabi_dcmplt():
    5eb8:	f84d ed08 	str.w	lr, [sp, #-8]!
    5ebc:	f7ff ffea 	bl	5e94 <__aeabi_cdcmpeq>
    5ec0:	bf34      	ite	cc
    5ec2:	2001      	movcc	r0, #1
    5ec4:	2000      	movcs	r0, #0
    5ec6:	f85d fb08 	ldr.w	pc, [sp], #8
    5eca:	bf00      	nop

00005ecc <__aeabi_dcmple>:
__aeabi_dcmple():
    5ecc:	f84d ed08 	str.w	lr, [sp, #-8]!
    5ed0:	f7ff ffe0 	bl	5e94 <__aeabi_cdcmpeq>
    5ed4:	bf94      	ite	ls
    5ed6:	2001      	movls	r0, #1
    5ed8:	2000      	movhi	r0, #0
    5eda:	f85d fb08 	ldr.w	pc, [sp], #8
    5ede:	bf00      	nop

00005ee0 <__aeabi_dcmpge>:
__aeabi_dcmpge():
    5ee0:	f84d ed08 	str.w	lr, [sp, #-8]!
    5ee4:	f7ff ffce 	bl	5e84 <__aeabi_cdrcmple>
    5ee8:	bf94      	ite	ls
    5eea:	2001      	movls	r0, #1
    5eec:	2000      	movhi	r0, #0
    5eee:	f85d fb08 	ldr.w	pc, [sp], #8
    5ef2:	bf00      	nop

00005ef4 <__aeabi_dcmpgt>:
__aeabi_dcmpgt():
    5ef4:	f84d ed08 	str.w	lr, [sp, #-8]!
    5ef8:	f7ff ffc4 	bl	5e84 <__aeabi_cdrcmple>
    5efc:	bf34      	ite	cc
    5efe:	2001      	movcc	r0, #1
    5f00:	2000      	movcs	r0, #0
    5f02:	f85d fb08 	ldr.w	pc, [sp], #8
    5f06:	bf00      	nop

00005f08 <__aeabi_d2iz>:
__fixdfsi():
    5f08:	ea4f 0241 	mov.w	r2, r1, lsl #1
    5f0c:	f512 1200 	adds.w	r2, r2, #2097152	; 0x200000
    5f10:	d215      	bcs.n	5f3e <__aeabi_d2iz+0x36>
    5f12:	d511      	bpl.n	5f38 <__aeabi_d2iz+0x30>
    5f14:	f46f 7378 	mvn.w	r3, #992	; 0x3e0
    5f18:	ebb3 5262 	subs.w	r2, r3, r2, asr #21
    5f1c:	d912      	bls.n	5f44 <__aeabi_d2iz+0x3c>
    5f1e:	ea4f 23c1 	mov.w	r3, r1, lsl #11
    5f22:	f043 4300 	orr.w	r3, r3, #2147483648	; 0x80000000
    5f26:	ea43 5350 	orr.w	r3, r3, r0, lsr #21
    5f2a:	f011 4f00 	tst.w	r1, #2147483648	; 0x80000000
    5f2e:	fa23 f002 	lsr.w	r0, r3, r2
    5f32:	bf18      	it	ne
    5f34:	4240      	negne	r0, r0
    5f36:	4770      	bx	lr
    5f38:	f04f 0000 	mov.w	r0, #0
    5f3c:	4770      	bx	lr
    5f3e:	ea50 3001 	orrs.w	r0, r0, r1, lsl #12
    5f42:	d105      	bne.n	5f50 <__aeabi_d2iz+0x48>
    5f44:	f011 4000 	ands.w	r0, r1, #2147483648	; 0x80000000
    5f48:	bf08      	it	eq
    5f4a:	f06f 4000 	mvneq.w	r0, #2147483648	; 0x80000000
    5f4e:	4770      	bx	lr
    5f50:	f04f 0000 	mov.w	r0, #0
    5f54:	4770      	bx	lr
    5f56:	bf00      	nop

00005f58 <__aeabi_d2uiz>:
__fixunsdfsi():
    5f58:	004a      	lsls	r2, r1, #1
    5f5a:	d211      	bcs.n	5f80 <__aeabi_d2uiz+0x28>
    5f5c:	f512 1200 	adds.w	r2, r2, #2097152	; 0x200000
    5f60:	d211      	bcs.n	5f86 <__aeabi_d2uiz+0x2e>
    5f62:	d50d      	bpl.n	5f80 <__aeabi_d2uiz+0x28>
    5f64:	f46f 7378 	mvn.w	r3, #992	; 0x3e0
    5f68:	ebb3 5262 	subs.w	r2, r3, r2, asr #21
    5f6c:	d40e      	bmi.n	5f8c <__aeabi_d2uiz+0x34>
    5f6e:	ea4f 23c1 	mov.w	r3, r1, lsl #11
    5f72:	f043 4300 	orr.w	r3, r3, #2147483648	; 0x80000000
    5f76:	ea43 5350 	orr.w	r3, r3, r0, lsr #21
    5f7a:	fa23 f002 	lsr.w	r0, r3, r2
    5f7e:	4770      	bx	lr
    5f80:	f04f 0000 	mov.w	r0, #0
    5f84:	4770      	bx	lr
    5f86:	ea50 3001 	orrs.w	r0, r0, r1, lsl #12
    5f8a:	d102      	bne.n	5f92 <__aeabi_d2uiz+0x3a>
    5f8c:	f04f 30ff 	mov.w	r0, #4294967295
    5f90:	4770      	bx	lr
    5f92:	f04f 0000 	mov.w	r0, #0
    5f96:	4770      	bx	lr

00005f98 <__aeabi_d2f>:
__aeabi_d2f():
    5f98:	ea4f 0241 	mov.w	r2, r1, lsl #1
    5f9c:	f1b2 43e0 	subs.w	r3, r2, #1879048192	; 0x70000000
    5fa0:	bf24      	itt	cs
    5fa2:	f5b3 1c00 	subscs.w	ip, r3, #2097152	; 0x200000
    5fa6:	f1dc 5cfe 	rsbscs	ip, ip, #532676608	; 0x1fc00000
    5faa:	d90d      	bls.n	5fc8 <__aeabi_d2f+0x30>
    5fac:	f001 4c00 	and.w	ip, r1, #2147483648	; 0x80000000
    5fb0:	ea4f 02c0 	mov.w	r2, r0, lsl #3
    5fb4:	ea4c 7050 	orr.w	r0, ip, r0, lsr #29
    5fb8:	f1b2 4f00 	cmp.w	r2, #2147483648	; 0x80000000
    5fbc:	eb40 0083 	adc.w	r0, r0, r3, lsl #2
    5fc0:	bf08      	it	eq
    5fc2:	f020 0001 	biceq.w	r0, r0, #1
    5fc6:	4770      	bx	lr
    5fc8:	f011 4f80 	tst.w	r1, #1073741824	; 0x40000000
    5fcc:	d121      	bne.n	6012 <__aeabi_d2f+0x7a>
    5fce:	f113 7238 	adds.w	r2, r3, #48234496	; 0x2e00000
    5fd2:	bfbc      	itt	lt
    5fd4:	f001 4000 	andlt.w	r0, r1, #2147483648	; 0x80000000
    5fd8:	4770      	bxlt	lr
    5fda:	f441 1180 	orr.w	r1, r1, #1048576	; 0x100000
    5fde:	ea4f 5252 	mov.w	r2, r2, lsr #21
    5fe2:	f1c2 0218 	rsb	r2, r2, #24
    5fe6:	f1c2 0c20 	rsb	ip, r2, #32
    5fea:	fa10 f30c 	lsls.w	r3, r0, ip
    5fee:	fa20 f002 	lsr.w	r0, r0, r2
    5ff2:	bf18      	it	ne
    5ff4:	f040 0001 	orrne.w	r0, r0, #1
    5ff8:	ea4f 23c1 	mov.w	r3, r1, lsl #11
    5ffc:	ea4f 23d3 	mov.w	r3, r3, lsr #11
    6000:	fa03 fc0c 	lsl.w	ip, r3, ip
    6004:	ea40 000c 	orr.w	r0, r0, ip
    6008:	fa23 f302 	lsr.w	r3, r3, r2
    600c:	ea4f 0343 	mov.w	r3, r3, lsl #1
    6010:	e7cc      	b.n	5fac <__aeabi_d2f+0x14>
    6012:	ea7f 5362 	mvns.w	r3, r2, asr #21
    6016:	d107      	bne.n	6028 <__aeabi_d2f+0x90>
    6018:	ea50 3301 	orrs.w	r3, r0, r1, lsl #12
    601c:	bf1e      	ittt	ne
    601e:	f04f 40fe 	movne.w	r0, #2130706432	; 0x7f000000
    6022:	f440 0040 	orrne.w	r0, r0, #12582912	; 0xc00000
    6026:	4770      	bxne	lr
    6028:	f001 4000 	and.w	r0, r1, #2147483648	; 0x80000000
    602c:	f040 40fe 	orr.w	r0, r0, #2130706432	; 0x7f000000
    6030:	f440 0000 	orr.w	r0, r0, #8388608	; 0x800000
    6034:	4770      	bx	lr
    6036:	bf00      	nop

00006038 <__aeabi_frsub>:
__aeabi_frsub():
    6038:	f080 4000 	eor.w	r0, r0, #2147483648	; 0x80000000
    603c:	e002      	b.n	6044 <__addsf3>
    603e:	bf00      	nop

00006040 <__aeabi_fsub>:
    6040:	f081 4100 	eor.w	r1, r1, #2147483648	; 0x80000000

00006044 <__addsf3>:
    6044:	0042      	lsls	r2, r0, #1
    6046:	bf1f      	itttt	ne
    6048:	ea5f 0341 	movsne.w	r3, r1, lsl #1
    604c:	ea92 0f03 	teqne	r2, r3
    6050:	ea7f 6c22 	mvnsne.w	ip, r2, asr #24
    6054:	ea7f 6c23 	mvnsne.w	ip, r3, asr #24
    6058:	d06a      	beq.n	6130 <__addsf3+0xec>
    605a:	ea4f 6212 	mov.w	r2, r2, lsr #24
    605e:	ebd2 6313 	rsbs	r3, r2, r3, lsr #24
    6062:	bfc1      	itttt	gt
    6064:	18d2      	addgt	r2, r2, r3
    6066:	4041      	eorgt	r1, r0
    6068:	4048      	eorgt	r0, r1
    606a:	4041      	eorgt	r1, r0
    606c:	bfb8      	it	lt
    606e:	425b      	neglt	r3, r3
    6070:	2b19      	cmp	r3, #25
    6072:	bf88      	it	hi
    6074:	4770      	bxhi	lr
    6076:	f010 4f00 	tst.w	r0, #2147483648	; 0x80000000
    607a:	f440 0000 	orr.w	r0, r0, #8388608	; 0x800000
    607e:	f020 407f 	bic.w	r0, r0, #4278190080	; 0xff000000
    6082:	bf18      	it	ne
    6084:	4240      	negne	r0, r0
    6086:	f011 4f00 	tst.w	r1, #2147483648	; 0x80000000
    608a:	f441 0100 	orr.w	r1, r1, #8388608	; 0x800000
    608e:	f021 417f 	bic.w	r1, r1, #4278190080	; 0xff000000
    6092:	bf18      	it	ne
    6094:	4249      	negne	r1, r1
    6096:	ea92 0f03 	teq	r2, r3
    609a:	d03f      	beq.n	611c <__addsf3+0xd8>
    609c:	f1a2 0201 	sub.w	r2, r2, #1
    60a0:	fa41 fc03 	asr.w	ip, r1, r3
    60a4:	eb10 000c 	adds.w	r0, r0, ip
    60a8:	f1c3 0320 	rsb	r3, r3, #32
    60ac:	fa01 f103 	lsl.w	r1, r1, r3
    60b0:	f000 4300 	and.w	r3, r0, #2147483648	; 0x80000000
    60b4:	d502      	bpl.n	60bc <__addsf3+0x78>
    60b6:	4249      	negs	r1, r1
    60b8:	eb60 0040 	sbc.w	r0, r0, r0, lsl #1
    60bc:	f5b0 0f00 	cmp.w	r0, #8388608	; 0x800000
    60c0:	d313      	bcc.n	60ea <__addsf3+0xa6>
    60c2:	f1b0 7f80 	cmp.w	r0, #16777216	; 0x1000000
    60c6:	d306      	bcc.n	60d6 <__addsf3+0x92>
    60c8:	0840      	lsrs	r0, r0, #1
    60ca:	ea4f 0131 	mov.w	r1, r1, rrx
    60ce:	f102 0201 	add.w	r2, r2, #1
    60d2:	2afe      	cmp	r2, #254	; 0xfe
    60d4:	d251      	bcs.n	617a <__addsf3+0x136>
    60d6:	f1b1 4f00 	cmp.w	r1, #2147483648	; 0x80000000
    60da:	eb40 50c2 	adc.w	r0, r0, r2, lsl #23
    60de:	bf08      	it	eq
    60e0:	f020 0001 	biceq.w	r0, r0, #1
    60e4:	ea40 0003 	orr.w	r0, r0, r3
    60e8:	4770      	bx	lr
    60ea:	0049      	lsls	r1, r1, #1
    60ec:	eb40 0000 	adc.w	r0, r0, r0
    60f0:	f410 0f00 	tst.w	r0, #8388608	; 0x800000
    60f4:	f1a2 0201 	sub.w	r2, r2, #1
    60f8:	d1ed      	bne.n	60d6 <__addsf3+0x92>
    60fa:	fab0 fc80 	clz	ip, r0
    60fe:	f1ac 0c08 	sub.w	ip, ip, #8
    6102:	ebb2 020c 	subs.w	r2, r2, ip
    6106:	fa00 f00c 	lsl.w	r0, r0, ip
    610a:	bfaa      	itet	ge
    610c:	eb00 50c2 	addge.w	r0, r0, r2, lsl #23
    6110:	4252      	neglt	r2, r2
    6112:	4318      	orrge	r0, r3
    6114:	bfbc      	itt	lt
    6116:	40d0      	lsrlt	r0, r2
    6118:	4318      	orrlt	r0, r3
    611a:	4770      	bx	lr
    611c:	f092 0f00 	teq	r2, #0
    6120:	f481 0100 	eor.w	r1, r1, #8388608	; 0x800000
    6124:	bf06      	itte	eq
    6126:	f480 0000 	eoreq.w	r0, r0, #8388608	; 0x800000
    612a:	3201      	addeq	r2, #1
    612c:	3b01      	subne	r3, #1
    612e:	e7b5      	b.n	609c <__addsf3+0x58>
    6130:	ea4f 0341 	mov.w	r3, r1, lsl #1
    6134:	ea7f 6c22 	mvns.w	ip, r2, asr #24
    6138:	bf18      	it	ne
    613a:	ea7f 6c23 	mvnsne.w	ip, r3, asr #24
    613e:	d021      	beq.n	6184 <__addsf3+0x140>
    6140:	ea92 0f03 	teq	r2, r3
    6144:	d004      	beq.n	6150 <__addsf3+0x10c>
    6146:	f092 0f00 	teq	r2, #0
    614a:	bf08      	it	eq
    614c:	4608      	moveq	r0, r1
    614e:	4770      	bx	lr
    6150:	ea90 0f01 	teq	r0, r1
    6154:	bf1c      	itt	ne
    6156:	2000      	movne	r0, #0
    6158:	4770      	bxne	lr
    615a:	f012 4f7f 	tst.w	r2, #4278190080	; 0xff000000
    615e:	d104      	bne.n	616a <__addsf3+0x126>
    6160:	0040      	lsls	r0, r0, #1
    6162:	bf28      	it	cs
    6164:	f040 4000 	orrcs.w	r0, r0, #2147483648	; 0x80000000
    6168:	4770      	bx	lr
    616a:	f112 7200 	adds.w	r2, r2, #33554432	; 0x2000000
    616e:	bf3c      	itt	cc
    6170:	f500 0000 	addcc.w	r0, r0, #8388608	; 0x800000
    6174:	4770      	bxcc	lr
    6176:	f000 4300 	and.w	r3, r0, #2147483648	; 0x80000000
    617a:	f043 40fe 	orr.w	r0, r3, #2130706432	; 0x7f000000
    617e:	f440 0000 	orr.w	r0, r0, #8388608	; 0x800000
    6182:	4770      	bx	lr
    6184:	ea7f 6222 	mvns.w	r2, r2, asr #24
    6188:	bf16      	itet	ne
    618a:	4608      	movne	r0, r1
    618c:	ea7f 6323 	mvnseq.w	r3, r3, asr #24
    6190:	4601      	movne	r1, r0
    6192:	0242      	lsls	r2, r0, #9
    6194:	bf06      	itte	eq
    6196:	ea5f 2341 	movseq.w	r3, r1, lsl #9
    619a:	ea90 0f01 	teqeq	r0, r1
    619e:	f440 0080 	orrne.w	r0, r0, #4194304	; 0x400000
    61a2:	4770      	bx	lr

000061a4 <__aeabi_ui2f>:
__aeabi_ui2f():
    61a4:	f04f 0300 	mov.w	r3, #0
    61a8:	e004      	b.n	61b4 <__aeabi_i2f+0x8>
    61aa:	bf00      	nop

000061ac <__aeabi_i2f>:
    61ac:	f010 4300 	ands.w	r3, r0, #2147483648	; 0x80000000
    61b0:	bf48      	it	mi
    61b2:	4240      	negmi	r0, r0
    61b4:	ea5f 0c00 	movs.w	ip, r0
    61b8:	bf08      	it	eq
    61ba:	4770      	bxeq	lr
    61bc:	f043 4396 	orr.w	r3, r3, #1258291200	; 0x4b000000
    61c0:	4601      	mov	r1, r0
    61c2:	f04f 0000 	mov.w	r0, #0
    61c6:	e01c      	b.n	6202 <__aeabi_l2f+0x2a>

000061c8 <__aeabi_ul2f>:
__floatundisf():
    61c8:	ea50 0201 	orrs.w	r2, r0, r1
    61cc:	bf08      	it	eq
    61ce:	4770      	bxeq	lr
    61d0:	f04f 0300 	mov.w	r3, #0
    61d4:	e00a      	b.n	61ec <__aeabi_l2f+0x14>
    61d6:	bf00      	nop

000061d8 <__aeabi_l2f>:
    61d8:	ea50 0201 	orrs.w	r2, r0, r1
    61dc:	bf08      	it	eq
    61de:	4770      	bxeq	lr
    61e0:	f011 4300 	ands.w	r3, r1, #2147483648	; 0x80000000
    61e4:	d502      	bpl.n	61ec <__aeabi_l2f+0x14>
    61e6:	4240      	negs	r0, r0
    61e8:	eb61 0141 	sbc.w	r1, r1, r1, lsl #1
    61ec:	ea5f 0c01 	movs.w	ip, r1
    61f0:	bf02      	ittt	eq
    61f2:	4684      	moveq	ip, r0
    61f4:	4601      	moveq	r1, r0
    61f6:	2000      	moveq	r0, #0
    61f8:	f043 43b6 	orr.w	r3, r3, #1526726656	; 0x5b000000
    61fc:	bf08      	it	eq
    61fe:	f1a3 5380 	subeq.w	r3, r3, #268435456	; 0x10000000
    6202:	f5a3 0300 	sub.w	r3, r3, #8388608	; 0x800000
    6206:	fabc f28c 	clz	r2, ip
    620a:	3a08      	subs	r2, #8
    620c:	eba3 53c2 	sub.w	r3, r3, r2, lsl #23
    6210:	db10      	blt.n	6234 <__aeabi_l2f+0x5c>
    6212:	fa01 fc02 	lsl.w	ip, r1, r2
    6216:	4463      	add	r3, ip
    6218:	fa00 fc02 	lsl.w	ip, r0, r2
    621c:	f1c2 0220 	rsb	r2, r2, #32
    6220:	f1bc 4f00 	cmp.w	ip, #2147483648	; 0x80000000
    6224:	fa20 f202 	lsr.w	r2, r0, r2
    6228:	eb43 0002 	adc.w	r0, r3, r2
    622c:	bf08      	it	eq
    622e:	f020 0001 	biceq.w	r0, r0, #1
    6232:	4770      	bx	lr
    6234:	f102 0220 	add.w	r2, r2, #32
    6238:	fa01 fc02 	lsl.w	ip, r1, r2
    623c:	f1c2 0220 	rsb	r2, r2, #32
    6240:	ea50 004c 	orrs.w	r0, r0, ip, lsl #1
    6244:	fa21 f202 	lsr.w	r2, r1, r2
    6248:	eb43 0002 	adc.w	r0, r3, r2
    624c:	bf08      	it	eq
    624e:	ea20 70dc 	biceq.w	r0, r0, ip, lsr #31
    6252:	4770      	bx	lr

00006254 <__aeabi_fmul>:
__mulsf3():
    6254:	f04f 0cff 	mov.w	ip, #255	; 0xff
    6258:	ea1c 52d0 	ands.w	r2, ip, r0, lsr #23
    625c:	bf1e      	ittt	ne
    625e:	ea1c 53d1 	andsne.w	r3, ip, r1, lsr #23
    6262:	ea92 0f0c 	teqne	r2, ip
    6266:	ea93 0f0c 	teqne	r3, ip
    626a:	d06f      	beq.n	634c <__aeabi_fmul+0xf8>
    626c:	441a      	add	r2, r3
    626e:	ea80 0c01 	eor.w	ip, r0, r1
    6272:	0240      	lsls	r0, r0, #9
    6274:	bf18      	it	ne
    6276:	ea5f 2141 	movsne.w	r1, r1, lsl #9
    627a:	d01e      	beq.n	62ba <__aeabi_fmul+0x66>
    627c:	f04f 6300 	mov.w	r3, #134217728	; 0x8000000
    6280:	ea43 1050 	orr.w	r0, r3, r0, lsr #5
    6284:	ea43 1151 	orr.w	r1, r3, r1, lsr #5
    6288:	fba0 3101 	umull	r3, r1, r0, r1
    628c:	f00c 4000 	and.w	r0, ip, #2147483648	; 0x80000000
    6290:	f5b1 0f00 	cmp.w	r1, #8388608	; 0x800000
    6294:	bf3e      	ittt	cc
    6296:	0049      	lslcc	r1, r1, #1
    6298:	ea41 71d3 	orrcc.w	r1, r1, r3, lsr #31
    629c:	005b      	lslcc	r3, r3, #1
    629e:	ea40 0001 	orr.w	r0, r0, r1
    62a2:	f162 027f 	sbc.w	r2, r2, #127	; 0x7f
    62a6:	2afd      	cmp	r2, #253	; 0xfd
    62a8:	d81d      	bhi.n	62e6 <__aeabi_fmul+0x92>
    62aa:	f1b3 4f00 	cmp.w	r3, #2147483648	; 0x80000000
    62ae:	eb40 50c2 	adc.w	r0, r0, r2, lsl #23
    62b2:	bf08      	it	eq
    62b4:	f020 0001 	biceq.w	r0, r0, #1
    62b8:	4770      	bx	lr
    62ba:	f090 0f00 	teq	r0, #0
    62be:	f00c 4c00 	and.w	ip, ip, #2147483648	; 0x80000000
    62c2:	bf08      	it	eq
    62c4:	0249      	lsleq	r1, r1, #9
    62c6:	ea4c 2050 	orr.w	r0, ip, r0, lsr #9
    62ca:	ea40 2051 	orr.w	r0, r0, r1, lsr #9
    62ce:	3a7f      	subs	r2, #127	; 0x7f
    62d0:	bfc2      	ittt	gt
    62d2:	f1d2 03ff 	rsbsgt	r3, r2, #255	; 0xff
    62d6:	ea40 50c2 	orrgt.w	r0, r0, r2, lsl #23
    62da:	4770      	bxgt	lr
    62dc:	f440 0000 	orr.w	r0, r0, #8388608	; 0x800000
    62e0:	f04f 0300 	mov.w	r3, #0
    62e4:	3a01      	subs	r2, #1
    62e6:	dc5d      	bgt.n	63a4 <__aeabi_fmul+0x150>
    62e8:	f112 0f19 	cmn.w	r2, #25
    62ec:	bfdc      	itt	le
    62ee:	f000 4000 	andle.w	r0, r0, #2147483648	; 0x80000000
    62f2:	4770      	bxle	lr
    62f4:	f1c2 0200 	rsb	r2, r2, #0
    62f8:	0041      	lsls	r1, r0, #1
    62fa:	fa21 f102 	lsr.w	r1, r1, r2
    62fe:	f1c2 0220 	rsb	r2, r2, #32
    6302:	fa00 fc02 	lsl.w	ip, r0, r2
    6306:	ea5f 0031 	movs.w	r0, r1, rrx
    630a:	f140 0000 	adc.w	r0, r0, #0
    630e:	ea53 034c 	orrs.w	r3, r3, ip, lsl #1
    6312:	bf08      	it	eq
    6314:	ea20 70dc 	biceq.w	r0, r0, ip, lsr #31
    6318:	4770      	bx	lr
    631a:	f092 0f00 	teq	r2, #0
    631e:	f000 4c00 	and.w	ip, r0, #2147483648	; 0x80000000
    6322:	bf02      	ittt	eq
    6324:	0040      	lsleq	r0, r0, #1
    6326:	f410 0f00 	tsteq.w	r0, #8388608	; 0x800000
    632a:	3a01      	subeq	r2, #1
    632c:	d0f9      	beq.n	6322 <__aeabi_fmul+0xce>
    632e:	ea40 000c 	orr.w	r0, r0, ip
    6332:	f093 0f00 	teq	r3, #0
    6336:	f001 4c00 	and.w	ip, r1, #2147483648	; 0x80000000
    633a:	bf02      	ittt	eq
    633c:	0049      	lsleq	r1, r1, #1
    633e:	f411 0f00 	tsteq.w	r1, #8388608	; 0x800000
    6342:	3b01      	subeq	r3, #1
    6344:	d0f9      	beq.n	633a <__aeabi_fmul+0xe6>
    6346:	ea41 010c 	orr.w	r1, r1, ip
    634a:	e78f      	b.n	626c <__aeabi_fmul+0x18>
    634c:	ea0c 53d1 	and.w	r3, ip, r1, lsr #23
    6350:	ea92 0f0c 	teq	r2, ip
    6354:	bf18      	it	ne
    6356:	ea93 0f0c 	teqne	r3, ip
    635a:	d00a      	beq.n	6372 <__aeabi_fmul+0x11e>
    635c:	f030 4c00 	bics.w	ip, r0, #2147483648	; 0x80000000
    6360:	bf18      	it	ne
    6362:	f031 4c00 	bicsne.w	ip, r1, #2147483648	; 0x80000000
    6366:	d1d8      	bne.n	631a <__aeabi_fmul+0xc6>
    6368:	ea80 0001 	eor.w	r0, r0, r1
    636c:	f000 4000 	and.w	r0, r0, #2147483648	; 0x80000000
    6370:	4770      	bx	lr
    6372:	f090 0f00 	teq	r0, #0
    6376:	bf17      	itett	ne
    6378:	f090 4f00 	teqne	r0, #2147483648	; 0x80000000
    637c:	4608      	moveq	r0, r1
    637e:	f091 0f00 	teqne	r1, #0
    6382:	f091 4f00 	teqne	r1, #2147483648	; 0x80000000
    6386:	d014      	beq.n	63b2 <__aeabi_fmul+0x15e>
    6388:	ea92 0f0c 	teq	r2, ip
    638c:	d101      	bne.n	6392 <__aeabi_fmul+0x13e>
    638e:	0242      	lsls	r2, r0, #9
    6390:	d10f      	bne.n	63b2 <__aeabi_fmul+0x15e>
    6392:	ea93 0f0c 	teq	r3, ip
    6396:	d103      	bne.n	63a0 <__aeabi_fmul+0x14c>
    6398:	024b      	lsls	r3, r1, #9
    639a:	bf18      	it	ne
    639c:	4608      	movne	r0, r1
    639e:	d108      	bne.n	63b2 <__aeabi_fmul+0x15e>
    63a0:	ea80 0001 	eor.w	r0, r0, r1
    63a4:	f000 4000 	and.w	r0, r0, #2147483648	; 0x80000000
    63a8:	f040 40fe 	orr.w	r0, r0, #2130706432	; 0x7f000000
    63ac:	f440 0000 	orr.w	r0, r0, #8388608	; 0x800000
    63b0:	4770      	bx	lr
    63b2:	f040 40fe 	orr.w	r0, r0, #2130706432	; 0x7f000000
    63b6:	f440 0040 	orr.w	r0, r0, #12582912	; 0xc00000
    63ba:	4770      	bx	lr

000063bc <__aeabi_fdiv>:
__divsf3():
    63bc:	f04f 0cff 	mov.w	ip, #255	; 0xff
    63c0:	ea1c 52d0 	ands.w	r2, ip, r0, lsr #23
    63c4:	bf1e      	ittt	ne
    63c6:	ea1c 53d1 	andsne.w	r3, ip, r1, lsr #23
    63ca:	ea92 0f0c 	teqne	r2, ip
    63ce:	ea93 0f0c 	teqne	r3, ip
    63d2:	d069      	beq.n	64a8 <__aeabi_fdiv+0xec>
    63d4:	eba2 0203 	sub.w	r2, r2, r3
    63d8:	ea80 0c01 	eor.w	ip, r0, r1
    63dc:	0249      	lsls	r1, r1, #9
    63de:	ea4f 2040 	mov.w	r0, r0, lsl #9
    63e2:	d037      	beq.n	6454 <__aeabi_fdiv+0x98>
    63e4:	f04f 5380 	mov.w	r3, #268435456	; 0x10000000
    63e8:	ea43 1111 	orr.w	r1, r3, r1, lsr #4
    63ec:	ea43 1310 	orr.w	r3, r3, r0, lsr #4
    63f0:	f00c 4000 	and.w	r0, ip, #2147483648	; 0x80000000
    63f4:	428b      	cmp	r3, r1
    63f6:	bf38      	it	cc
    63f8:	005b      	lslcc	r3, r3, #1
    63fa:	f142 027d 	adc.w	r2, r2, #125	; 0x7d
    63fe:	f44f 0c00 	mov.w	ip, #8388608	; 0x800000
    6402:	428b      	cmp	r3, r1
    6404:	bf24      	itt	cs
    6406:	1a5b      	subcs	r3, r3, r1
    6408:	ea40 000c 	orrcs.w	r0, r0, ip
    640c:	ebb3 0f51 	cmp.w	r3, r1, lsr #1
    6410:	bf24      	itt	cs
    6412:	eba3 0351 	subcs.w	r3, r3, r1, lsr #1
    6416:	ea40 005c 	orrcs.w	r0, r0, ip, lsr #1
    641a:	ebb3 0f91 	cmp.w	r3, r1, lsr #2
    641e:	bf24      	itt	cs
    6420:	eba3 0391 	subcs.w	r3, r3, r1, lsr #2
    6424:	ea40 009c 	orrcs.w	r0, r0, ip, lsr #2
    6428:	ebb3 0fd1 	cmp.w	r3, r1, lsr #3
    642c:	bf24      	itt	cs
    642e:	eba3 03d1 	subcs.w	r3, r3, r1, lsr #3
    6432:	ea40 00dc 	orrcs.w	r0, r0, ip, lsr #3
    6436:	011b      	lsls	r3, r3, #4
    6438:	bf18      	it	ne
    643a:	ea5f 1c1c 	movsne.w	ip, ip, lsr #4
    643e:	d1e0      	bne.n	6402 <__aeabi_fdiv+0x46>
    6440:	2afd      	cmp	r2, #253	; 0xfd
    6442:	f63f af50 	bhi.w	62e6 <__aeabi_fmul+0x92>
    6446:	428b      	cmp	r3, r1
    6448:	eb40 50c2 	adc.w	r0, r0, r2, lsl #23
    644c:	bf08      	it	eq
    644e:	f020 0001 	biceq.w	r0, r0, #1
    6452:	4770      	bx	lr
    6454:	f00c 4c00 	and.w	ip, ip, #2147483648	; 0x80000000
    6458:	ea4c 2050 	orr.w	r0, ip, r0, lsr #9
    645c:	327f      	adds	r2, #127	; 0x7f
    645e:	bfc2      	ittt	gt
    6460:	f1d2 03ff 	rsbsgt	r3, r2, #255	; 0xff
    6464:	ea40 50c2 	orrgt.w	r0, r0, r2, lsl #23
    6468:	4770      	bxgt	lr
    646a:	f440 0000 	orr.w	r0, r0, #8388608	; 0x800000
    646e:	f04f 0300 	mov.w	r3, #0
    6472:	3a01      	subs	r2, #1
    6474:	e737      	b.n	62e6 <__aeabi_fmul+0x92>
    6476:	f092 0f00 	teq	r2, #0
    647a:	f000 4c00 	and.w	ip, r0, #2147483648	; 0x80000000
    647e:	bf02      	ittt	eq
    6480:	0040      	lsleq	r0, r0, #1
    6482:	f410 0f00 	tsteq.w	r0, #8388608	; 0x800000
    6486:	3a01      	subeq	r2, #1
    6488:	d0f9      	beq.n	647e <__aeabi_fdiv+0xc2>
    648a:	ea40 000c 	orr.w	r0, r0, ip
    648e:	f093 0f00 	teq	r3, #0
    6492:	f001 4c00 	and.w	ip, r1, #2147483648	; 0x80000000
    6496:	bf02      	ittt	eq
    6498:	0049      	lsleq	r1, r1, #1
    649a:	f411 0f00 	tsteq.w	r1, #8388608	; 0x800000
    649e:	3b01      	subeq	r3, #1
    64a0:	d0f9      	beq.n	6496 <__aeabi_fdiv+0xda>
    64a2:	ea41 010c 	orr.w	r1, r1, ip
    64a6:	e795      	b.n	63d4 <__aeabi_fdiv+0x18>
    64a8:	ea0c 53d1 	and.w	r3, ip, r1, lsr #23
    64ac:	ea92 0f0c 	teq	r2, ip
    64b0:	d108      	bne.n	64c4 <__aeabi_fdiv+0x108>
    64b2:	0242      	lsls	r2, r0, #9
    64b4:	f47f af7d 	bne.w	63b2 <__aeabi_fmul+0x15e>
    64b8:	ea93 0f0c 	teq	r3, ip
    64bc:	f47f af70 	bne.w	63a0 <__aeabi_fmul+0x14c>
    64c0:	4608      	mov	r0, r1
    64c2:	e776      	b.n	63b2 <__aeabi_fmul+0x15e>
    64c4:	ea93 0f0c 	teq	r3, ip
    64c8:	d104      	bne.n	64d4 <__aeabi_fdiv+0x118>
    64ca:	024b      	lsls	r3, r1, #9
    64cc:	f43f af4c 	beq.w	6368 <__aeabi_fmul+0x114>
    64d0:	4608      	mov	r0, r1
    64d2:	e76e      	b.n	63b2 <__aeabi_fmul+0x15e>
    64d4:	f030 4c00 	bics.w	ip, r0, #2147483648	; 0x80000000
    64d8:	bf18      	it	ne
    64da:	f031 4c00 	bicsne.w	ip, r1, #2147483648	; 0x80000000
    64de:	d1ca      	bne.n	6476 <__aeabi_fdiv+0xba>
    64e0:	f030 4200 	bics.w	r2, r0, #2147483648	; 0x80000000
    64e4:	f47f af5c 	bne.w	63a0 <__aeabi_fmul+0x14c>
    64e8:	f031 4300 	bics.w	r3, r1, #2147483648	; 0x80000000
    64ec:	f47f af3c 	bne.w	6368 <__aeabi_fmul+0x114>
    64f0:	e75f      	b.n	63b2 <__aeabi_fmul+0x15e>
    64f2:	bf00      	nop

000064f4 <__gesf2>:
__gtsf2():
    64f4:	f04f 3cff 	mov.w	ip, #4294967295
    64f8:	e006      	b.n	6508 <__cmpsf2+0x4>
    64fa:	bf00      	nop

000064fc <__lesf2>:
    64fc:	f04f 0c01 	mov.w	ip, #1
    6500:	e002      	b.n	6508 <__cmpsf2+0x4>
    6502:	bf00      	nop

00006504 <__cmpsf2>:
    6504:	f04f 0c01 	mov.w	ip, #1
    6508:	f84d cd04 	str.w	ip, [sp, #-4]!
    650c:	ea4f 0240 	mov.w	r2, r0, lsl #1
    6510:	ea4f 0341 	mov.w	r3, r1, lsl #1
    6514:	ea7f 6c22 	mvns.w	ip, r2, asr #24
    6518:	bf18      	it	ne
    651a:	ea7f 6c23 	mvnsne.w	ip, r3, asr #24
    651e:	d011      	beq.n	6544 <__cmpsf2+0x40>
    6520:	b001      	add	sp, #4
    6522:	ea52 0c53 	orrs.w	ip, r2, r3, lsr #1
    6526:	bf18      	it	ne
    6528:	ea90 0f01 	teqne	r0, r1
    652c:	bf58      	it	pl
    652e:	ebb2 0003 	subspl.w	r0, r2, r3
    6532:	bf88      	it	hi
    6534:	17c8      	asrhi	r0, r1, #31
    6536:	bf38      	it	cc
    6538:	ea6f 70e1 	mvncc.w	r0, r1, asr #31
    653c:	bf18      	it	ne
    653e:	f040 0001 	orrne.w	r0, r0, #1
    6542:	4770      	bx	lr
    6544:	ea7f 6c22 	mvns.w	ip, r2, asr #24
    6548:	d102      	bne.n	6550 <__cmpsf2+0x4c>
    654a:	ea5f 2c40 	movs.w	ip, r0, lsl #9
    654e:	d105      	bne.n	655c <__cmpsf2+0x58>
    6550:	ea7f 6c23 	mvns.w	ip, r3, asr #24
    6554:	d1e4      	bne.n	6520 <__cmpsf2+0x1c>
    6556:	ea5f 2c41 	movs.w	ip, r1, lsl #9
    655a:	d0e1      	beq.n	6520 <__cmpsf2+0x1c>
    655c:	f85d 0b04 	ldr.w	r0, [sp], #4
    6560:	4770      	bx	lr
__nesf2():
    6562:	bf00      	nop

00006564 <__aeabi_cfrcmple>:
__aeabi_cfrcmple():
    6564:	4684      	mov	ip, r0
    6566:	4608      	mov	r0, r1
    6568:	4661      	mov	r1, ip
    656a:	e7ff      	b.n	656c <__aeabi_cfcmpeq>

0000656c <__aeabi_cfcmpeq>:
    656c:	b50f      	push	{r0, r1, r2, r3, lr}
    656e:	f7ff ffc9 	bl	6504 <__cmpsf2>
    6572:	2800      	cmp	r0, #0
    6574:	bf48      	it	mi
    6576:	f110 0f00 	cmnmi.w	r0, #0
    657a:	bd0f      	pop	{r0, r1, r2, r3, pc}

0000657c <__aeabi_fcmpeq>:
__aeabi_fcmpeq():
    657c:	f84d ed08 	str.w	lr, [sp, #-8]!
    6580:	f7ff fff4 	bl	656c <__aeabi_cfcmpeq>
    6584:	bf0c      	ite	eq
    6586:	2001      	moveq	r0, #1
    6588:	2000      	movne	r0, #0
    658a:	f85d fb08 	ldr.w	pc, [sp], #8
    658e:	bf00      	nop

00006590 <__aeabi_fcmplt>:
__aeabi_fcmplt():
    6590:	f84d ed08 	str.w	lr, [sp, #-8]!
    6594:	f7ff ffea 	bl	656c <__aeabi_cfcmpeq>
    6598:	bf34      	ite	cc
    659a:	2001      	movcc	r0, #1
    659c:	2000      	movcs	r0, #0
    659e:	f85d fb08 	ldr.w	pc, [sp], #8
    65a2:	bf00      	nop

000065a4 <__aeabi_fcmple>:
__aeabi_fcmple():
    65a4:	f84d ed08 	str.w	lr, [sp, #-8]!
    65a8:	f7ff ffe0 	bl	656c <__aeabi_cfcmpeq>
    65ac:	bf94      	ite	ls
    65ae:	2001      	movls	r0, #1
    65b0:	2000      	movhi	r0, #0
    65b2:	f85d fb08 	ldr.w	pc, [sp], #8
    65b6:	bf00      	nop

000065b8 <__aeabi_fcmpge>:
__aeabi_fcmpge():
    65b8:	f84d ed08 	str.w	lr, [sp, #-8]!
    65bc:	f7ff ffd2 	bl	6564 <__aeabi_cfrcmple>
    65c0:	bf94      	ite	ls
    65c2:	2001      	movls	r0, #1
    65c4:	2000      	movhi	r0, #0
    65c6:	f85d fb08 	ldr.w	pc, [sp], #8
    65ca:	bf00      	nop

000065cc <__aeabi_fcmpgt>:
__aeabi_fcmpgt():
    65cc:	f84d ed08 	str.w	lr, [sp, #-8]!
    65d0:	f7ff ffc8 	bl	6564 <__aeabi_cfrcmple>
    65d4:	bf34      	ite	cc
    65d6:	2001      	movcc	r0, #1
    65d8:	2000      	movcs	r0, #0
    65da:	f85d fb08 	ldr.w	pc, [sp], #8
    65de:	bf00      	nop

000065e0 <__aeabi_fcmpun>:
__aeabi_fcmpun():
    65e0:	ea4f 0240 	mov.w	r2, r0, lsl #1
    65e4:	ea4f 0341 	mov.w	r3, r1, lsl #1
    65e8:	ea7f 6c22 	mvns.w	ip, r2, asr #24
    65ec:	d102      	bne.n	65f4 <__aeabi_fcmpun+0x14>
    65ee:	ea5f 2c40 	movs.w	ip, r0, lsl #9
    65f2:	d108      	bne.n	6606 <__aeabi_fcmpun+0x26>
    65f4:	ea7f 6c23 	mvns.w	ip, r3, asr #24
    65f8:	d102      	bne.n	6600 <__aeabi_fcmpun+0x20>
    65fa:	ea5f 2c41 	movs.w	ip, r1, lsl #9
    65fe:	d102      	bne.n	6606 <__aeabi_fcmpun+0x26>
    6600:	f04f 0000 	mov.w	r0, #0
    6604:	4770      	bx	lr
    6606:	f04f 0001 	mov.w	r0, #1
    660a:	4770      	bx	lr

0000660c <__aeabi_f2uiz>:
__aeabi_f2uiz():
    660c:	0042      	lsls	r2, r0, #1
    660e:	d20e      	bcs.n	662e <__aeabi_f2uiz+0x22>
    6610:	f1b2 4ffe 	cmp.w	r2, #2130706432	; 0x7f000000
    6614:	d30b      	bcc.n	662e <__aeabi_f2uiz+0x22>
    6616:	f04f 039e 	mov.w	r3, #158	; 0x9e
    661a:	ebb3 6212 	subs.w	r2, r3, r2, lsr #24
    661e:	d409      	bmi.n	6634 <__aeabi_f2uiz+0x28>
    6620:	ea4f 2300 	mov.w	r3, r0, lsl #8
    6624:	f043 4300 	orr.w	r3, r3, #2147483648	; 0x80000000
    6628:	fa23 f002 	lsr.w	r0, r3, r2
    662c:	4770      	bx	lr
    662e:	f04f 0000 	mov.w	r0, #0
    6632:	4770      	bx	lr
    6634:	f112 0f61 	cmn.w	r2, #97	; 0x61
    6638:	d101      	bne.n	663e <__aeabi_f2uiz+0x32>
    663a:	0242      	lsls	r2, r0, #9
    663c:	d102      	bne.n	6644 <__aeabi_f2uiz+0x38>
    663e:	f04f 30ff 	mov.w	r0, #4294967295
    6642:	4770      	bx	lr
    6644:	f04f 0000 	mov.w	r0, #0
    6648:	4770      	bx	lr
    664a:	bf00      	nop

0000664c <atol>:
atol():
    664c:	2100      	movs	r1, #0
    664e:	220a      	movs	r2, #10
    6650:	f001 b89c 	b.w	778c <strtol>

00006654 <fcvt>:
fcvt():
    6654:	b513      	push	{r0, r1, r4, lr}
    6656:	9c04      	ldr	r4, [sp, #16]
    6658:	9400      	str	r4, [sp, #0]
    665a:	2400      	movs	r4, #0
    665c:	9401      	str	r4, [sp, #4]
    665e:	f001 f90b 	bl	7878 <fcvtbuf>
    6662:	b002      	add	sp, #8
    6664:	bd10      	pop	{r4, pc}

00006666 <fcvtf>:
fcvtf():
    6666:	b573      	push	{r0, r1, r4, r5, r6, lr}
    6668:	4614      	mov	r4, r2
    666a:	461e      	mov	r6, r3
    666c:	460d      	mov	r5, r1
    666e:	f7ff f95d 	bl	592c <__aeabi_f2d>
    6672:	9600      	str	r6, [sp, #0]
    6674:	462a      	mov	r2, r5
    6676:	4623      	mov	r3, r4
    6678:	f7ff ffec 	bl	6654 <fcvt>
    667c:	b002      	add	sp, #8
    667e:	bd70      	pop	{r4, r5, r6, pc}

00006680 <__libc_init_array>:
__libc_init_array():
    6680:	b570      	push	{r4, r5, r6, lr}
    6682:	4b0e      	ldr	r3, [pc, #56]	; (66bc <__libc_init_array+0x3c>)
    6684:	4d0e      	ldr	r5, [pc, #56]	; (66c0 <__libc_init_array+0x40>)
    6686:	1aed      	subs	r5, r5, r3
    6688:	10ad      	asrs	r5, r5, #2
    668a:	2400      	movs	r4, #0
    668c:	461e      	mov	r6, r3
    668e:	42ac      	cmp	r4, r5
    6690:	d004      	beq.n	669c <__libc_init_array+0x1c>
    6692:	f856 2024 	ldr.w	r2, [r6, r4, lsl #2]
    6696:	4790      	blx	r2
    6698:	3401      	adds	r4, #1
    669a:	e7f8      	b.n	668e <__libc_init_array+0xe>
    669c:	f004 f81a 	bl	a6d4 <_init>
    66a0:	4d08      	ldr	r5, [pc, #32]	; (66c4 <__libc_init_array+0x44>)
    66a2:	4b09      	ldr	r3, [pc, #36]	; (66c8 <__libc_init_array+0x48>)
    66a4:	1aed      	subs	r5, r5, r3
    66a6:	10ad      	asrs	r5, r5, #2
    66a8:	2400      	movs	r4, #0
    66aa:	461e      	mov	r6, r3
    66ac:	42ac      	cmp	r4, r5
    66ae:	d004      	beq.n	66ba <__libc_init_array+0x3a>
    66b0:	f856 2024 	ldr.w	r2, [r6, r4, lsl #2]
    66b4:	4790      	blx	r2
    66b6:	3401      	adds	r4, #1
    66b8:	e7f8      	b.n	66ac <__libc_init_array+0x2c>
    66ba:	bd70      	pop	{r4, r5, r6, pc}
    66bc:	0000a6e0 	.word	0x0000a6e0
    66c0:	0000a6e0 	.word	0x0000a6e0
    66c4:	0000a700 	.word	0x0000a700
    66c8:	0000a6e0 	.word	0x0000a6e0

000066cc <isspace>:
isspace():
    66cc:	4b03      	ldr	r3, [pc, #12]	; (66dc <isspace+0x10>)
    66ce:	681b      	ldr	r3, [r3, #0]
    66d0:	4418      	add	r0, r3
    66d2:	7840      	ldrb	r0, [r0, #1]
    66d4:	f000 0008 	and.w	r0, r0, #8
    66d8:	4770      	bx	lr
    66da:	bf00      	nop
    66dc:	1fff0b18 	.word	0x1fff0b18

000066e0 <malloc>:
malloc():
    66e0:	4b02      	ldr	r3, [pc, #8]	; (66ec <malloc+0xc>)
    66e2:	4601      	mov	r1, r0
    66e4:	6818      	ldr	r0, [r3, #0]
    66e6:	f000 b87b 	b.w	67e0 <_malloc_r>
    66ea:	bf00      	nop
    66ec:	1fff0b14 	.word	0x1fff0b14

000066f0 <free>:
free():
    66f0:	4b02      	ldr	r3, [pc, #8]	; (66fc <free+0xc>)
    66f2:	4601      	mov	r1, r0
    66f4:	6818      	ldr	r0, [r3, #0]
    66f6:	f000 b82f 	b.w	6758 <_free_r>
    66fa:	bf00      	nop
    66fc:	1fff0b14 	.word	0x1fff0b14

00006700 <memcpy>:
memcpy():
    6700:	b510      	push	{r4, lr}
    6702:	2300      	movs	r3, #0
    6704:	4293      	cmp	r3, r2
    6706:	d003      	beq.n	6710 <memcpy+0x10>
    6708:	5ccc      	ldrb	r4, [r1, r3]
    670a:	54c4      	strb	r4, [r0, r3]
    670c:	3301      	adds	r3, #1
    670e:	e7f9      	b.n	6704 <memcpy+0x4>
    6710:	bd10      	pop	{r4, pc}

00006712 <memmove>:
memmove():
    6712:	4281      	cmp	r1, r0
    6714:	b570      	push	{r4, r5, r6, lr}
    6716:	d301      	bcc.n	671c <memmove+0xa>
    6718:	2300      	movs	r3, #0
    671a:	e00e      	b.n	673a <memmove+0x28>
    671c:	188c      	adds	r4, r1, r2
    671e:	42a0      	cmp	r0, r4
    6720:	d2fa      	bcs.n	6718 <memmove+0x6>
    6722:	1885      	adds	r5, r0, r2
    6724:	4613      	mov	r3, r2
    6726:	f113 33ff 	adds.w	r3, r3, #4294967295
    672a:	d305      	bcc.n	6738 <memmove+0x26>
    672c:	4251      	negs	r1, r2
    672e:	1866      	adds	r6, r4, r1
    6730:	4429      	add	r1, r5
    6732:	5cf6      	ldrb	r6, [r6, r3]
    6734:	54ce      	strb	r6, [r1, r3]
    6736:	e7f6      	b.n	6726 <memmove+0x14>
    6738:	bd70      	pop	{r4, r5, r6, pc}
    673a:	4293      	cmp	r3, r2
    673c:	d003      	beq.n	6746 <memmove+0x34>
    673e:	5ccc      	ldrb	r4, [r1, r3]
    6740:	54c4      	strb	r4, [r0, r3]
    6742:	3301      	adds	r3, #1
    6744:	e7f9      	b.n	673a <memmove+0x28>
    6746:	bd70      	pop	{r4, r5, r6, pc}

00006748 <memset>:
memset():
    6748:	4402      	add	r2, r0
    674a:	4603      	mov	r3, r0
    674c:	4293      	cmp	r3, r2
    674e:	d002      	beq.n	6756 <memset+0xe>
    6750:	f803 1b01 	strb.w	r1, [r3], #1
    6754:	e7fa      	b.n	674c <memset+0x4>
    6756:	4770      	bx	lr

00006758 <_free_r>:
_free_r():
    6758:	b530      	push	{r4, r5, lr}
    675a:	2900      	cmp	r1, #0
    675c:	d03c      	beq.n	67d8 <_free_r+0x80>
    675e:	f851 2c04 	ldr.w	r2, [r1, #-4]
    6762:	1f0b      	subs	r3, r1, #4
    6764:	491d      	ldr	r1, [pc, #116]	; (67dc <_free_r+0x84>)
    6766:	2a00      	cmp	r2, #0
    6768:	bfb8      	it	lt
    676a:	189b      	addlt	r3, r3, r2
    676c:	680a      	ldr	r2, [r1, #0]
    676e:	460c      	mov	r4, r1
    6770:	b912      	cbnz	r2, 6778 <_free_r+0x20>
    6772:	605a      	str	r2, [r3, #4]
    6774:	600b      	str	r3, [r1, #0]
    6776:	bd30      	pop	{r4, r5, pc}
    6778:	4293      	cmp	r3, r2
    677a:	d20d      	bcs.n	6798 <_free_r+0x40>
    677c:	6819      	ldr	r1, [r3, #0]
    677e:	1858      	adds	r0, r3, r1
    6780:	4290      	cmp	r0, r2
    6782:	d103      	bne.n	678c <_free_r+0x34>
    6784:	585a      	ldr	r2, [r3, r1]
    6786:	4411      	add	r1, r2
    6788:	6842      	ldr	r2, [r0, #4]
    678a:	6019      	str	r1, [r3, #0]
    678c:	605a      	str	r2, [r3, #4]
    678e:	6023      	str	r3, [r4, #0]
    6790:	bd30      	pop	{r4, r5, pc}
    6792:	4299      	cmp	r1, r3
    6794:	d803      	bhi.n	679e <_free_r+0x46>
    6796:	460a      	mov	r2, r1
    6798:	6851      	ldr	r1, [r2, #4]
    679a:	2900      	cmp	r1, #0
    679c:	d1f9      	bne.n	6792 <_free_r+0x3a>
    679e:	6814      	ldr	r4, [r2, #0]
    67a0:	1915      	adds	r5, r2, r4
    67a2:	429d      	cmp	r5, r3
    67a4:	d10a      	bne.n	67bc <_free_r+0x64>
    67a6:	681b      	ldr	r3, [r3, #0]
    67a8:	4423      	add	r3, r4
    67aa:	18d0      	adds	r0, r2, r3
    67ac:	4288      	cmp	r0, r1
    67ae:	6013      	str	r3, [r2, #0]
    67b0:	d112      	bne.n	67d8 <_free_r+0x80>
    67b2:	6808      	ldr	r0, [r1, #0]
    67b4:	4403      	add	r3, r0
    67b6:	6013      	str	r3, [r2, #0]
    67b8:	684b      	ldr	r3, [r1, #4]
    67ba:	e00c      	b.n	67d6 <_free_r+0x7e>
    67bc:	d902      	bls.n	67c4 <_free_r+0x6c>
    67be:	230c      	movs	r3, #12
    67c0:	6003      	str	r3, [r0, #0]
    67c2:	bd30      	pop	{r4, r5, pc}
    67c4:	6818      	ldr	r0, [r3, #0]
    67c6:	181c      	adds	r4, r3, r0
    67c8:	428c      	cmp	r4, r1
    67ca:	d103      	bne.n	67d4 <_free_r+0x7c>
    67cc:	680c      	ldr	r4, [r1, #0]
    67ce:	6849      	ldr	r1, [r1, #4]
    67d0:	4420      	add	r0, r4
    67d2:	6018      	str	r0, [r3, #0]
    67d4:	6059      	str	r1, [r3, #4]
    67d6:	6053      	str	r3, [r2, #4]
    67d8:	bd30      	pop	{r4, r5, pc}
    67da:	bf00      	nop
    67dc:	1fff0fd8 	.word	0x1fff0fd8

000067e0 <_malloc_r>:
_malloc_r():
    67e0:	b570      	push	{r4, r5, r6, lr}
    67e2:	1ccd      	adds	r5, r1, #3
    67e4:	f025 0503 	bic.w	r5, r5, #3
    67e8:	3508      	adds	r5, #8
    67ea:	2d0c      	cmp	r5, #12
    67ec:	bf38      	it	cc
    67ee:	250c      	movcc	r5, #12
    67f0:	2d00      	cmp	r5, #0
    67f2:	4606      	mov	r6, r0
    67f4:	db3f      	blt.n	6876 <_malloc_r+0x96>
    67f6:	428d      	cmp	r5, r1
    67f8:	d33d      	bcc.n	6876 <_malloc_r+0x96>
    67fa:	4b21      	ldr	r3, [pc, #132]	; (6880 <_malloc_r+0xa0>)
    67fc:	681c      	ldr	r4, [r3, #0]
    67fe:	4618      	mov	r0, r3
    6800:	4621      	mov	r1, r4
    6802:	b1a1      	cbz	r1, 682e <_malloc_r+0x4e>
    6804:	680b      	ldr	r3, [r1, #0]
    6806:	1b5b      	subs	r3, r3, r5
    6808:	d40e      	bmi.n	6828 <_malloc_r+0x48>
    680a:	2b0b      	cmp	r3, #11
    680c:	d903      	bls.n	6816 <_malloc_r+0x36>
    680e:	600b      	str	r3, [r1, #0]
    6810:	18cc      	adds	r4, r1, r3
    6812:	50cd      	str	r5, [r1, r3]
    6814:	e01f      	b.n	6856 <_malloc_r+0x76>
    6816:	428c      	cmp	r4, r1
    6818:	d102      	bne.n	6820 <_malloc_r+0x40>
    681a:	6862      	ldr	r2, [r4, #4]
    681c:	6002      	str	r2, [r0, #0]
    681e:	e01a      	b.n	6856 <_malloc_r+0x76>
    6820:	684b      	ldr	r3, [r1, #4]
    6822:	6063      	str	r3, [r4, #4]
    6824:	460c      	mov	r4, r1
    6826:	e016      	b.n	6856 <_malloc_r+0x76>
    6828:	460c      	mov	r4, r1
    682a:	6849      	ldr	r1, [r1, #4]
    682c:	e7e9      	b.n	6802 <_malloc_r+0x22>
    682e:	4c15      	ldr	r4, [pc, #84]	; (6884 <_malloc_r+0xa4>)
    6830:	6823      	ldr	r3, [r4, #0]
    6832:	b91b      	cbnz	r3, 683c <_malloc_r+0x5c>
    6834:	4630      	mov	r0, r6
    6836:	f000 f831 	bl	689c <_sbrk_r>
    683a:	6020      	str	r0, [r4, #0]
    683c:	4629      	mov	r1, r5
    683e:	4630      	mov	r0, r6
    6840:	f000 f82c 	bl	689c <_sbrk_r>
    6844:	1c43      	adds	r3, r0, #1
    6846:	4601      	mov	r1, r0
    6848:	d015      	beq.n	6876 <_malloc_r+0x96>
    684a:	1cc4      	adds	r4, r0, #3
    684c:	f024 0403 	bic.w	r4, r4, #3
    6850:	4284      	cmp	r4, r0
    6852:	d10a      	bne.n	686a <_malloc_r+0x8a>
    6854:	6025      	str	r5, [r4, #0]
    6856:	f104 000b 	add.w	r0, r4, #11
    685a:	1d23      	adds	r3, r4, #4
    685c:	f020 0007 	bic.w	r0, r0, #7
    6860:	1ac3      	subs	r3, r0, r3
    6862:	d00b      	beq.n	687c <_malloc_r+0x9c>
    6864:	425a      	negs	r2, r3
    6866:	50e2      	str	r2, [r4, r3]
    6868:	bd70      	pop	{r4, r5, r6, pc}
    686a:	4630      	mov	r0, r6
    686c:	1a61      	subs	r1, r4, r1
    686e:	f000 f815 	bl	689c <_sbrk_r>
    6872:	3001      	adds	r0, #1
    6874:	d1ee      	bne.n	6854 <_malloc_r+0x74>
    6876:	230c      	movs	r3, #12
    6878:	6033      	str	r3, [r6, #0]
    687a:	2000      	movs	r0, #0
    687c:	bd70      	pop	{r4, r5, r6, pc}
    687e:	bf00      	nop
    6880:	1fff0fd8 	.word	0x1fff0fd8
    6884:	1fff0fd4 	.word	0x1fff0fd4

00006888 <realloc>:
realloc():
    6888:	460a      	mov	r2, r1
    688a:	4903      	ldr	r1, [pc, #12]	; (6898 <realloc+0x10>)
    688c:	4603      	mov	r3, r0
    688e:	6808      	ldr	r0, [r1, #0]
    6890:	4619      	mov	r1, r3
    6892:	f002 b83c 	b.w	890e <_realloc_r>
    6896:	bf00      	nop
    6898:	1fff0b14 	.word	0x1fff0b14

0000689c <_sbrk_r>:
_sbrk_r():
    689c:	b538      	push	{r3, r4, r5, lr}
    689e:	4c06      	ldr	r4, [pc, #24]	; (68b8 <_sbrk_r+0x1c>)
    68a0:	2300      	movs	r3, #0
    68a2:	4605      	mov	r5, r0
    68a4:	4608      	mov	r0, r1
    68a6:	6023      	str	r3, [r4, #0]
    68a8:	f7fa f86d 	bl	986 <_sbrk>
    68ac:	1c43      	adds	r3, r0, #1
    68ae:	d102      	bne.n	68b6 <_sbrk_r+0x1a>
    68b0:	6823      	ldr	r3, [r4, #0]
    68b2:	b103      	cbz	r3, 68b6 <_sbrk_r+0x1a>
    68b4:	602b      	str	r3, [r5, #0]
    68b6:	bd38      	pop	{r3, r4, r5, pc}
    68b8:	1fff10f0 	.word	0x1fff10f0

000068bc <strchr>:
strchr():
    68bc:	b2c9      	uxtb	r1, r1
    68be:	4602      	mov	r2, r0
    68c0:	f810 3b01 	ldrb.w	r3, [r0], #1
    68c4:	b11b      	cbz	r3, 68ce <strchr+0x12>
    68c6:	428b      	cmp	r3, r1
    68c8:	d1f9      	bne.n	68be <strchr+0x2>
    68ca:	4610      	mov	r0, r2
    68cc:	4770      	bx	lr
    68ce:	2900      	cmp	r1, #0
    68d0:	d0fb      	beq.n	68ca <strchr+0xe>
    68d2:	4618      	mov	r0, r3
    68d4:	4770      	bx	lr

000068d6 <strcmp>:
$t():
    68d6:	f810 2b01 	ldrb.w	r2, [r0], #1
    68da:	f811 3b01 	ldrb.w	r3, [r1], #1
    68de:	2a01      	cmp	r2, #1
    68e0:	bf28      	it	cs
    68e2:	429a      	cmpcs	r2, r3
    68e4:	d0f7      	beq.n	68d6 <strcmp>
    68e6:	1ad0      	subs	r0, r2, r3
    68e8:	4770      	bx	lr

000068ea <strcpy>:
strcpy():
    68ea:	4603      	mov	r3, r0
    68ec:	f811 2b01 	ldrb.w	r2, [r1], #1
    68f0:	f803 2b01 	strb.w	r2, [r3], #1
    68f4:	2a00      	cmp	r2, #0
    68f6:	d1f9      	bne.n	68ec <strcpy+0x2>
    68f8:	4770      	bx	lr

000068fa <strlen>:
strlen():
    68fa:	4603      	mov	r3, r0
    68fc:	f813 2b01 	ldrb.w	r2, [r3], #1
    6900:	2a00      	cmp	r2, #0
    6902:	d1fb      	bne.n	68fc <strlen+0x2>
    6904:	1a18      	subs	r0, r3, r0
    6906:	3801      	subs	r0, #1
    6908:	4770      	bx	lr

0000690a <strncmp>:
strncmp():
    690a:	b570      	push	{r4, r5, r6, lr}
    690c:	b192      	cbz	r2, 6934 <strncmp+0x2a>
    690e:	460b      	mov	r3, r1
    6910:	4605      	mov	r5, r0
    6912:	781c      	ldrb	r4, [r3, #0]
    6914:	f810 6b01 	ldrb.w	r6, [r0], #1
    6918:	42b4      	cmp	r4, r6
    691a:	f101 0101 	add.w	r1, r1, #1
    691e:	d101      	bne.n	6924 <strncmp+0x1a>
    6920:	2a01      	cmp	r2, #1
    6922:	d103      	bne.n	692c <strncmp+0x22>
    6924:	7828      	ldrb	r0, [r5, #0]
    6926:	781b      	ldrb	r3, [r3, #0]
    6928:	1ac0      	subs	r0, r0, r3
    692a:	bd70      	pop	{r4, r5, r6, pc}
    692c:	3a01      	subs	r2, #1
    692e:	2c00      	cmp	r4, #0
    6930:	d1ed      	bne.n	690e <strncmp+0x4>
    6932:	e7f7      	b.n	6924 <strncmp+0x1a>
    6934:	4610      	mov	r0, r2
    6936:	bd70      	pop	{r4, r5, r6, pc}

00006938 <strncpy>:
strncpy():
    6938:	b510      	push	{r4, lr}
    693a:	4603      	mov	r3, r0
    693c:	b132      	cbz	r2, 694c <strncpy+0x14>
    693e:	f811 4b01 	ldrb.w	r4, [r1], #1
    6942:	f803 4b01 	strb.w	r4, [r3], #1
    6946:	3a01      	subs	r2, #1
    6948:	2c00      	cmp	r4, #0
    694a:	d1f7      	bne.n	693c <strncpy+0x4>
    694c:	441a      	add	r2, r3
    694e:	4293      	cmp	r3, r2
    6950:	d003      	beq.n	695a <strncpy+0x22>
    6952:	2100      	movs	r1, #0
    6954:	f803 1b01 	strb.w	r1, [r3], #1
    6958:	e7f9      	b.n	694e <strncpy+0x16>
    695a:	bd10      	pop	{r4, pc}

0000695c <strrchr>:
strrchr():
    695c:	b538      	push	{r3, r4, r5, lr}
    695e:	4602      	mov	r2, r0
    6960:	460d      	mov	r5, r1
    6962:	b141      	cbz	r1, 6976 <strrchr+0x1a>
    6964:	2400      	movs	r4, #0
    6966:	4610      	mov	r0, r2
    6968:	4629      	mov	r1, r5
    696a:	f7ff ffa7 	bl	68bc <strchr>
    696e:	b130      	cbz	r0, 697e <strrchr+0x22>
    6970:	1c42      	adds	r2, r0, #1
    6972:	4604      	mov	r4, r0
    6974:	e7f7      	b.n	6966 <strrchr+0xa>
    6976:	e8bd 4038 	ldmia.w	sp!, {r3, r4, r5, lr}
    697a:	f7ff bf9f 	b.w	68bc <strchr>
    697e:	4620      	mov	r0, r4
    6980:	bd38      	pop	{r3, r4, r5, pc}

00006982 <strstr>:
strstr():
    6982:	b530      	push	{r4, r5, lr}
    6984:	7803      	ldrb	r3, [r0, #0]
    6986:	b10b      	cbz	r3, 698c <strstr+0xa>
    6988:	4604      	mov	r4, r0
    698a:	e004      	b.n	6996 <strstr+0x14>
    698c:	780b      	ldrb	r3, [r1, #0]
    698e:	2b00      	cmp	r3, #0
    6990:	bf18      	it	ne
    6992:	2000      	movne	r0, #0
    6994:	bd30      	pop	{r4, r5, pc}
    6996:	4622      	mov	r2, r4
    6998:	3401      	adds	r4, #1
    699a:	7810      	ldrb	r0, [r2, #0]
    699c:	b138      	cbz	r0, 69ae <strstr+0x2c>
    699e:	2300      	movs	r3, #0
    69a0:	5cc8      	ldrb	r0, [r1, r3]
    69a2:	b128      	cbz	r0, 69b0 <strstr+0x2e>
    69a4:	5cd5      	ldrb	r5, [r2, r3]
    69a6:	4285      	cmp	r5, r0
    69a8:	d1f5      	bne.n	6996 <strstr+0x14>
    69aa:	3301      	adds	r3, #1
    69ac:	e7f8      	b.n	69a0 <strstr+0x1e>
    69ae:	bd30      	pop	{r4, r5, pc}
    69b0:	4610      	mov	r0, r2
    69b2:	bd30      	pop	{r4, r5, pc}

000069b4 <match>:
match():
    69b4:	b530      	push	{r4, r5, lr}
    69b6:	6802      	ldr	r2, [r0, #0]
    69b8:	f811 5b01 	ldrb.w	r5, [r1], #1
    69bc:	1c54      	adds	r4, r2, #1
    69be:	b155      	cbz	r5, 69d6 <match+0x22>
    69c0:	7853      	ldrb	r3, [r2, #1]
    69c2:	4622      	mov	r2, r4
    69c4:	f1a3 0441 	sub.w	r4, r3, #65	; 0x41
    69c8:	2c19      	cmp	r4, #25
    69ca:	bf98      	it	ls
    69cc:	3320      	addls	r3, #32
    69ce:	42ab      	cmp	r3, r5
    69d0:	d0f2      	beq.n	69b8 <match+0x4>
    69d2:	2000      	movs	r0, #0
    69d4:	bd30      	pop	{r4, r5, pc}
    69d6:	6004      	str	r4, [r0, #0]
    69d8:	2001      	movs	r0, #1
    69da:	bd30      	pop	{r4, r5, pc}

000069dc <sulp>:
sulp():
    69dc:	e92d 41f0 	stmdb	sp!, {r4, r5, r6, r7, r8, lr}
    69e0:	460d      	mov	r5, r1
    69e2:	4690      	mov	r8, r2
    69e4:	f001 fe5c 	bl	86a0 <__ulp>
    69e8:	4606      	mov	r6, r0
    69ea:	460f      	mov	r7, r1
    69ec:	f1b8 0f00 	cmp.w	r8, #0
    69f0:	d00f      	beq.n	6a12 <sulp+0x36>
    69f2:	f3c5 530a 	ubfx	r3, r5, #20, #11
    69f6:	f1c3 036b 	rsb	r3, r3, #107	; 0x6b
    69fa:	2b00      	cmp	r3, #0
    69fc:	dd09      	ble.n	6a12 <sulp+0x36>
    69fe:	051c      	lsls	r4, r3, #20
    6a00:	f104 537f 	add.w	r3, r4, #1069547520	; 0x3fc00000
    6a04:	f503 1340 	add.w	r3, r3, #3145728	; 0x300000
    6a08:	2200      	movs	r2, #0
    6a0a:	f7fe ffe3 	bl	59d4 <__aeabi_dmul>
    6a0e:	e8bd 81f0 	ldmia.w	sp!, {r4, r5, r6, r7, r8, pc}
    6a12:	4630      	mov	r0, r6
    6a14:	4639      	mov	r1, r7
    6a16:	e8bd 81f0 	ldmia.w	sp!, {r4, r5, r6, r7, r8, pc}
    6a1a:	ffff ffff 			; <UNDEFINED> instruction: 0xffffffff
    6a1e:	ffff e92d 	vtbl.8	d30, {d15-d16}, d29

00006a20 <_strtod_r>:
_strtod_r():
    6a20:	e92d 4ff0 	stmdb	sp!, {r4, r5, r6, r7, r8, r9, sl, fp, lr}
    6a24:	b09f      	sub	sp, #124	; 0x7c
    6a26:	2300      	movs	r3, #0
    6a28:	4681      	mov	r9, r0
    6a2a:	9104      	str	r1, [sp, #16]
    6a2c:	9215      	str	r2, [sp, #84]	; 0x54
    6a2e:	931a      	str	r3, [sp, #104]	; 0x68
    6a30:	f04f 0a00 	mov.w	sl, #0
    6a34:	f04f 0b00 	mov.w	fp, #0
    6a38:	9119      	str	r1, [sp, #100]	; 0x64
    6a3a:	9a19      	ldr	r2, [sp, #100]	; 0x64
    6a3c:	7813      	ldrb	r3, [r2, #0]
    6a3e:	2b0d      	cmp	r3, #13
    6a40:	d805      	bhi.n	6a4e <_strtod_r+0x2e>
    6a42:	2b09      	cmp	r3, #9
    6a44:	d214      	bcs.n	6a70 <_strtod_r+0x50>
    6a46:	2b00      	cmp	r3, #0
    6a48:	f000 81b1 	beq.w	6dae <_strtod_r+0x38e>
    6a4c:	e013      	b.n	6a76 <_strtod_r+0x56>
    6a4e:	2b2b      	cmp	r3, #43	; 0x2b
    6a50:	d007      	beq.n	6a62 <_strtod_r+0x42>
    6a52:	2b2d      	cmp	r3, #45	; 0x2d
    6a54:	d002      	beq.n	6a5c <_strtod_r+0x3c>
    6a56:	2b20      	cmp	r3, #32
    6a58:	d10d      	bne.n	6a76 <_strtod_r+0x56>
    6a5a:	e009      	b.n	6a70 <_strtod_r+0x50>
    6a5c:	2601      	movs	r6, #1
    6a5e:	9609      	str	r6, [sp, #36]	; 0x24
    6a60:	e001      	b.n	6a66 <_strtod_r+0x46>
    6a62:	2700      	movs	r7, #0
    6a64:	9709      	str	r7, [sp, #36]	; 0x24
    6a66:	1c53      	adds	r3, r2, #1
    6a68:	9319      	str	r3, [sp, #100]	; 0x64
    6a6a:	7853      	ldrb	r3, [r2, #1]
    6a6c:	b92b      	cbnz	r3, 6a7a <_strtod_r+0x5a>
    6a6e:	e19e      	b.n	6dae <_strtod_r+0x38e>
    6a70:	3201      	adds	r2, #1
    6a72:	9219      	str	r2, [sp, #100]	; 0x64
    6a74:	e7e1      	b.n	6a3a <_strtod_r+0x1a>
    6a76:	2600      	movs	r6, #0
    6a78:	9609      	str	r6, [sp, #36]	; 0x24
    6a7a:	9c19      	ldr	r4, [sp, #100]	; 0x64
    6a7c:	7823      	ldrb	r3, [r4, #0]
    6a7e:	2b30      	cmp	r3, #48	; 0x30
    6a80:	d15a      	bne.n	6b38 <_strtod_r+0x118>
    6a82:	7863      	ldrb	r3, [r4, #1]
    6a84:	2b58      	cmp	r3, #88	; 0x58
    6a86:	d001      	beq.n	6a8c <_strtod_r+0x6c>
    6a88:	2b78      	cmp	r3, #120	; 0x78
    6a8a:	d149      	bne.n	6b20 <_strtod_r+0x100>
    6a8c:	ab1a      	add	r3, sp, #104	; 0x68
    6a8e:	9f09      	ldr	r7, [sp, #36]	; 0x24
    6a90:	9300      	str	r3, [sp, #0]
    6a92:	9701      	str	r7, [sp, #4]
    6a94:	4648      	mov	r0, r9
    6a96:	a919      	add	r1, sp, #100	; 0x64
    6a98:	4a9c      	ldr	r2, [pc, #624]	; (6d0c <_strtod_r+0x2ec>)
    6a9a:	ab1b      	add	r3, sp, #108	; 0x6c
    6a9c:	f001 f858 	bl	7b50 <__gethex>
    6aa0:	f010 0607 	ands.w	r6, r0, #7
    6aa4:	4605      	mov	r5, r0
    6aa6:	f000 85ad 	beq.w	7604 <_strtod_r+0xbe4>
    6aaa:	2e06      	cmp	r6, #6
    6aac:	d102      	bne.n	6ab4 <_strtod_r+0x94>
    6aae:	3401      	adds	r4, #1
    6ab0:	9419      	str	r4, [sp, #100]	; 0x64
    6ab2:	e17e      	b.n	6db2 <_strtod_r+0x392>
    6ab4:	9a1a      	ldr	r2, [sp, #104]	; 0x68
    6ab6:	b13a      	cbz	r2, 6ac8 <_strtod_r+0xa8>
    6ab8:	a81c      	add	r0, sp, #112	; 0x70
    6aba:	2135      	movs	r1, #53	; 0x35
    6abc:	f001 fedc 	bl	8878 <__copybits>
    6ac0:	4648      	mov	r0, r9
    6ac2:	991a      	ldr	r1, [sp, #104]	; 0x68
    6ac4:	f001 fb4f 	bl	8166 <_Bfree>
    6ac8:	9a1b      	ldr	r2, [sp, #108]	; 0x6c
    6aca:	2e06      	cmp	r6, #6
    6acc:	d821      	bhi.n	6b12 <_strtod_r+0xf2>
    6ace:	e8df f006 	tbb	[pc, r6]
    6ad2:	0d04      	.short	0x0d04
    6ad4:	0d1c1708 	.word	0x0d1c1708
    6ad8:	04          	.byte	0x04
    6ad9:	00          	.byte	0x00
    6ada:	f04f 0b00 	mov.w	fp, #0
    6ade:	46da      	mov	sl, fp
    6ae0:	e017      	b.n	6b12 <_strtod_r+0xf2>
    6ae2:	f8dd a070 	ldr.w	sl, [sp, #112]	; 0x70
    6ae6:	f8dd b074 	ldr.w	fp, [sp, #116]	; 0x74
    6aea:	e012      	b.n	6b12 <_strtod_r+0xf2>
    6aec:	9b1d      	ldr	r3, [sp, #116]	; 0x74
    6aee:	f8dd a070 	ldr.w	sl, [sp, #112]	; 0x70
    6af2:	f202 4233 	addw	r2, r2, #1075	; 0x433
    6af6:	f423 1380 	bic.w	r3, r3, #1048576	; 0x100000
    6afa:	ea43 5b02 	orr.w	fp, r3, r2, lsl #20
    6afe:	e008      	b.n	6b12 <_strtod_r+0xf2>
    6b00:	f8df b20c 	ldr.w	fp, [pc, #524]	; 6d10 <_strtod_r+0x2f0>
    6b04:	f04f 0a00 	mov.w	sl, #0
    6b08:	e003      	b.n	6b12 <_strtod_r+0xf2>
    6b0a:	f06f 4b00 	mvn.w	fp, #2147483648	; 0x80000000
    6b0e:	f04f 3aff 	mov.w	sl, #4294967295
    6b12:	072b      	lsls	r3, r5, #28
    6b14:	f140 8576 	bpl.w	7604 <_strtod_r+0xbe4>
    6b18:	f04b 4b00 	orr.w	fp, fp, #2147483648	; 0x80000000
    6b1c:	f000 bd72 	b.w	7604 <_strtod_r+0xbe4>
    6b20:	9b19      	ldr	r3, [sp, #100]	; 0x64
    6b22:	1c5a      	adds	r2, r3, #1
    6b24:	9219      	str	r2, [sp, #100]	; 0x64
    6b26:	785b      	ldrb	r3, [r3, #1]
    6b28:	2b30      	cmp	r3, #48	; 0x30
    6b2a:	d0f9      	beq.n	6b20 <_strtod_r+0x100>
    6b2c:	2b00      	cmp	r3, #0
    6b2e:	f000 8569 	beq.w	7604 <_strtod_r+0xbe4>
    6b32:	2301      	movs	r3, #1
    6b34:	9305      	str	r3, [sp, #20]
    6b36:	e001      	b.n	6b3c <_strtod_r+0x11c>
    6b38:	2600      	movs	r6, #0
    6b3a:	9605      	str	r6, [sp, #20]
    6b3c:	f04f 0800 	mov.w	r8, #0
    6b40:	9f19      	ldr	r7, [sp, #100]	; 0x64
    6b42:	9707      	str	r7, [sp, #28]
    6b44:	f8cd 800c 	str.w	r8, [sp, #12]
    6b48:	4644      	mov	r4, r8
    6b4a:	9e19      	ldr	r6, [sp, #100]	; 0x64
    6b4c:	7835      	ldrb	r5, [r6, #0]
    6b4e:	f1a5 0330 	sub.w	r3, r5, #48	; 0x30
    6b52:	b2da      	uxtb	r2, r3
    6b54:	2a09      	cmp	r2, #9
    6b56:	d810      	bhi.n	6b7a <_strtod_r+0x15a>
    6b58:	2c08      	cmp	r4, #8
    6b5a:	bfd8      	it	le
    6b5c:	9f03      	ldrle	r7, [sp, #12]
    6b5e:	f04f 020a 	mov.w	r2, #10
    6b62:	bfd8      	it	le
    6b64:	fb02 3707 	mlale	r7, r2, r7, r3
    6b68:	f106 0601 	add.w	r6, r6, #1
    6b6c:	bfd4      	ite	le
    6b6e:	9703      	strle	r7, [sp, #12]
    6b70:	fb02 3808 	mlagt	r8, r2, r8, r3
    6b74:	3401      	adds	r4, #1
    6b76:	9619      	str	r6, [sp, #100]	; 0x64
    6b78:	e7e7      	b.n	6b4a <_strtod_r+0x12a>
    6b7a:	4648      	mov	r0, r9
    6b7c:	f001 faba 	bl	80f4 <_localeconv_r>
    6b80:	6807      	ldr	r7, [r0, #0]
    6b82:	4648      	mov	r0, r9
    6b84:	f001 fab6 	bl	80f4 <_localeconv_r>
    6b88:	6800      	ldr	r0, [r0, #0]
    6b8a:	f7ff feb6 	bl	68fa <strlen>
    6b8e:	4639      	mov	r1, r7
    6b90:	4602      	mov	r2, r0
    6b92:	4630      	mov	r0, r6
    6b94:	f7ff feb9 	bl	690a <strncmp>
    6b98:	4606      	mov	r6, r0
    6b9a:	b128      	cbz	r0, 6ba8 <_strtod_r+0x188>
    6b9c:	2300      	movs	r3, #0
    6b9e:	462a      	mov	r2, r5
    6ba0:	4619      	mov	r1, r3
    6ba2:	4625      	mov	r5, r4
    6ba4:	930a      	str	r3, [sp, #40]	; 0x28
    6ba6:	e05f      	b.n	6c68 <_strtod_r+0x248>
    6ba8:	4648      	mov	r0, r9
    6baa:	9d19      	ldr	r5, [sp, #100]	; 0x64
    6bac:	f001 faa2 	bl	80f4 <_localeconv_r>
    6bb0:	6800      	ldr	r0, [r0, #0]
    6bb2:	f7ff fea2 	bl	68fa <strlen>
    6bb6:	182b      	adds	r3, r5, r0
    6bb8:	9319      	str	r3, [sp, #100]	; 0x64
    6bba:	5c2a      	ldrb	r2, [r5, r0]
    6bbc:	2c00      	cmp	r4, #0
    6bbe:	d145      	bne.n	6c4c <_strtod_r+0x22c>
    6bc0:	4623      	mov	r3, r4
    6bc2:	2a30      	cmp	r2, #48	; 0x30
    6bc4:	d105      	bne.n	6bd2 <_strtod_r+0x1b2>
    6bc6:	9a19      	ldr	r2, [sp, #100]	; 0x64
    6bc8:	1c51      	adds	r1, r2, #1
    6bca:	9119      	str	r1, [sp, #100]	; 0x64
    6bcc:	3301      	adds	r3, #1
    6bce:	7852      	ldrb	r2, [r2, #1]
    6bd0:	e7f7      	b.n	6bc2 <_strtod_r+0x1a2>
    6bd2:	f1a2 0131 	sub.w	r1, r2, #49	; 0x31
    6bd6:	2908      	cmp	r1, #8
    6bd8:	d842      	bhi.n	6c60 <_strtod_r+0x240>
    6bda:	9e19      	ldr	r6, [sp, #100]	; 0x64
    6bdc:	9607      	str	r6, [sp, #28]
    6bde:	4619      	mov	r1, r3
    6be0:	2300      	movs	r3, #0
    6be2:	461d      	mov	r5, r3
    6be4:	3a30      	subs	r2, #48	; 0x30
    6be6:	f103 0001 	add.w	r0, r3, #1
    6bea:	d029      	beq.n	6c40 <_strtod_r+0x220>
    6bec:	4401      	add	r1, r0
    6bee:	1c6e      	adds	r6, r5, #1
    6bf0:	1b77      	subs	r7, r6, r5
    6bf2:	4287      	cmp	r7, r0
    6bf4:	da10      	bge.n	6c18 <_strtod_r+0x1f8>
    6bf6:	1e77      	subs	r7, r6, #1
    6bf8:	2f08      	cmp	r7, #8
    6bfa:	dc06      	bgt.n	6c0a <_strtod_r+0x1ea>
    6bfc:	9f03      	ldr	r7, [sp, #12]
    6bfe:	f04f 0c0a 	mov.w	ip, #10
    6c02:	fb0c f707 	mul.w	r7, ip, r7
    6c06:	9703      	str	r7, [sp, #12]
    6c08:	e004      	b.n	6c14 <_strtod_r+0x1f4>
    6c0a:	2e10      	cmp	r6, #16
    6c0c:	bfdc      	itt	le
    6c0e:	270a      	movle	r7, #10
    6c10:	fb07 f808 	mulle.w	r8, r7, r8
    6c14:	3601      	adds	r6, #1
    6c16:	e7eb      	b.n	6bf0 <_strtod_r+0x1d0>
    6c18:	2b00      	cmp	r3, #0
    6c1a:	bfac      	ite	ge
    6c1c:	18eb      	addge	r3, r5, r3
    6c1e:	1c2b      	addlt	r3, r5, #0
    6c20:	2b08      	cmp	r3, #8
    6c22:	f103 0501 	add.w	r5, r3, #1
    6c26:	dc05      	bgt.n	6c34 <_strtod_r+0x214>
    6c28:	9e03      	ldr	r6, [sp, #12]
    6c2a:	230a      	movs	r3, #10
    6c2c:	fb03 2606 	mla	r6, r3, r6, r2
    6c30:	9603      	str	r6, [sp, #12]
    6c32:	e004      	b.n	6c3e <_strtod_r+0x21e>
    6c34:	2d10      	cmp	r5, #16
    6c36:	bfdc      	itt	le
    6c38:	230a      	movle	r3, #10
    6c3a:	fb03 2808 	mlale	r8, r3, r8, r2
    6c3e:	2000      	movs	r0, #0
    6c40:	9b19      	ldr	r3, [sp, #100]	; 0x64
    6c42:	1c5a      	adds	r2, r3, #1
    6c44:	9219      	str	r2, [sp, #100]	; 0x64
    6c46:	785a      	ldrb	r2, [r3, #1]
    6c48:	4603      	mov	r3, r0
    6c4a:	e002      	b.n	6c52 <_strtod_r+0x232>
    6c4c:	4625      	mov	r5, r4
    6c4e:	4633      	mov	r3, r6
    6c50:	4631      	mov	r1, r6
    6c52:	f1a2 0030 	sub.w	r0, r2, #48	; 0x30
    6c56:	2809      	cmp	r0, #9
    6c58:	d9c4      	bls.n	6be4 <_strtod_r+0x1c4>
    6c5a:	2701      	movs	r7, #1
    6c5c:	970a      	str	r7, [sp, #40]	; 0x28
    6c5e:	e003      	b.n	6c68 <_strtod_r+0x248>
    6c60:	2500      	movs	r5, #0
    6c62:	2001      	movs	r0, #1
    6c64:	4629      	mov	r1, r5
    6c66:	900a      	str	r0, [sp, #40]	; 0x28
    6c68:	f022 0620 	bic.w	r6, r2, #32
    6c6c:	2e45      	cmp	r6, #69	; 0x45
    6c6e:	d153      	bne.n	6d18 <_strtod_r+0x2f8>
    6c70:	b925      	cbnz	r5, 6c7c <_strtod_r+0x25c>
    6c72:	b91b      	cbnz	r3, 6c7c <_strtod_r+0x25c>
    6c74:	9e05      	ldr	r6, [sp, #20]
    6c76:	2e00      	cmp	r6, #0
    6c78:	f000 8099 	beq.w	6dae <_strtod_r+0x38e>
    6c7c:	9f19      	ldr	r7, [sp, #100]	; 0x64
    6c7e:	9704      	str	r7, [sp, #16]
    6c80:	1c7a      	adds	r2, r7, #1
    6c82:	9219      	str	r2, [sp, #100]	; 0x64
    6c84:	787a      	ldrb	r2, [r7, #1]
    6c86:	2a2b      	cmp	r2, #43	; 0x2b
    6c88:	d004      	beq.n	6c94 <_strtod_r+0x274>
    6c8a:	2a2d      	cmp	r2, #45	; 0x2d
    6c8c:	d005      	beq.n	6c9a <_strtod_r+0x27a>
    6c8e:	2600      	movs	r6, #0
    6c90:	960f      	str	r6, [sp, #60]	; 0x3c
    6c92:	e008      	b.n	6ca6 <_strtod_r+0x286>
    6c94:	2000      	movs	r0, #0
    6c96:	900f      	str	r0, [sp, #60]	; 0x3c
    6c98:	e001      	b.n	6c9e <_strtod_r+0x27e>
    6c9a:	2701      	movs	r7, #1
    6c9c:	970f      	str	r7, [sp, #60]	; 0x3c
    6c9e:	9e04      	ldr	r6, [sp, #16]
    6ca0:	1cb2      	adds	r2, r6, #2
    6ca2:	9219      	str	r2, [sp, #100]	; 0x64
    6ca4:	78b2      	ldrb	r2, [r6, #2]
    6ca6:	f1a2 0730 	sub.w	r7, r2, #48	; 0x30
    6caa:	2f09      	cmp	r7, #9
    6cac:	d832      	bhi.n	6d14 <_strtod_r+0x2f4>
    6cae:	2a30      	cmp	r2, #48	; 0x30
    6cb0:	d104      	bne.n	6cbc <_strtod_r+0x29c>
    6cb2:	9a19      	ldr	r2, [sp, #100]	; 0x64
    6cb4:	1c57      	adds	r7, r2, #1
    6cb6:	9719      	str	r7, [sp, #100]	; 0x64
    6cb8:	7852      	ldrb	r2, [r2, #1]
    6cba:	e7f8      	b.n	6cae <_strtod_r+0x28e>
    6cbc:	f1a2 0731 	sub.w	r7, r2, #49	; 0x31
    6cc0:	2f08      	cmp	r7, #8
    6cc2:	d829      	bhi.n	6d18 <_strtod_r+0x2f8>
    6cc4:	9819      	ldr	r0, [sp, #100]	; 0x64
    6cc6:	9006      	str	r0, [sp, #24]
    6cc8:	f1a2 0730 	sub.w	r7, r2, #48	; 0x30
    6ccc:	9a19      	ldr	r2, [sp, #100]	; 0x64
    6cce:	1c56      	adds	r6, r2, #1
    6cd0:	9619      	str	r6, [sp, #100]	; 0x64
    6cd2:	7852      	ldrb	r2, [r2, #1]
    6cd4:	960e      	str	r6, [sp, #56]	; 0x38
    6cd6:	f1a2 0630 	sub.w	r6, r2, #48	; 0x30
    6cda:	2e09      	cmp	r6, #9
    6cdc:	d805      	bhi.n	6cea <_strtod_r+0x2ca>
    6cde:	f04f 0c0a 	mov.w	ip, #10
    6ce2:	fb0c 2707 	mla	r7, ip, r7, r2
    6ce6:	3f30      	subs	r7, #48	; 0x30
    6ce8:	e7f0      	b.n	6ccc <_strtod_r+0x2ac>
    6cea:	980e      	ldr	r0, [sp, #56]	; 0x38
    6cec:	9e06      	ldr	r6, [sp, #24]
    6cee:	ebc6 0c00 	rsb	ip, r6, r0
    6cf2:	f1bc 0f08 	cmp.w	ip, #8
    6cf6:	f644 6c1f 	movw	ip, #19999	; 0x4e1f
    6cfa:	dc02      	bgt.n	6d02 <_strtod_r+0x2e2>
    6cfc:	4567      	cmp	r7, ip
    6cfe:	bfb8      	it	lt
    6d00:	46bc      	movlt	ip, r7
    6d02:	9f0f      	ldr	r7, [sp, #60]	; 0x3c
    6d04:	b157      	cbz	r7, 6d1c <_strtod_r+0x2fc>
    6d06:	f1cc 0c00 	rsb	ip, ip, #0
    6d0a:	e007      	b.n	6d1c <_strtod_r+0x2fc>
    6d0c:	0000a400 	.word	0x0000a400
    6d10:	7ff00000 	.word	0x7ff00000
    6d14:	9e04      	ldr	r6, [sp, #16]
    6d16:	9619      	str	r6, [sp, #100]	; 0x64
    6d18:	f04f 0c00 	mov.w	ip, #0
    6d1c:	2d00      	cmp	r5, #0
    6d1e:	d14c      	bne.n	6dba <_strtod_r+0x39a>
    6d20:	2b00      	cmp	r3, #0
    6d22:	f040 846f 	bne.w	7604 <_strtod_r+0xbe4>
    6d26:	9f05      	ldr	r7, [sp, #20]
    6d28:	2f00      	cmp	r7, #0
    6d2a:	f040 846b 	bne.w	7604 <_strtod_r+0xbe4>
    6d2e:	980a      	ldr	r0, [sp, #40]	; 0x28
    6d30:	2800      	cmp	r0, #0
    6d32:	d13c      	bne.n	6dae <_strtod_r+0x38e>
    6d34:	2a4e      	cmp	r2, #78	; 0x4e
    6d36:	d01b      	beq.n	6d70 <_strtod_r+0x350>
    6d38:	dc02      	bgt.n	6d40 <_strtod_r+0x320>
    6d3a:	2a49      	cmp	r2, #73	; 0x49
    6d3c:	d005      	beq.n	6d4a <_strtod_r+0x32a>
    6d3e:	e036      	b.n	6dae <_strtod_r+0x38e>
    6d40:	2a69      	cmp	r2, #105	; 0x69
    6d42:	d002      	beq.n	6d4a <_strtod_r+0x32a>
    6d44:	2a6e      	cmp	r2, #110	; 0x6e
    6d46:	d013      	beq.n	6d70 <_strtod_r+0x350>
    6d48:	e031      	b.n	6dae <_strtod_r+0x38e>
    6d4a:	a819      	add	r0, sp, #100	; 0x64
    6d4c:	49ac      	ldr	r1, [pc, #688]	; (7000 <_strtod_r+0x5e0>)
    6d4e:	f7ff fe31 	bl	69b4 <match>
    6d52:	b360      	cbz	r0, 6dae <_strtod_r+0x38e>
    6d54:	9b19      	ldr	r3, [sp, #100]	; 0x64
    6d56:	49ab      	ldr	r1, [pc, #684]	; (7004 <_strtod_r+0x5e4>)
    6d58:	3b01      	subs	r3, #1
    6d5a:	a819      	add	r0, sp, #100	; 0x64
    6d5c:	9319      	str	r3, [sp, #100]	; 0x64
    6d5e:	f7ff fe29 	bl	69b4 <match>
    6d62:	b910      	cbnz	r0, 6d6a <_strtod_r+0x34a>
    6d64:	9b19      	ldr	r3, [sp, #100]	; 0x64
    6d66:	3301      	adds	r3, #1
    6d68:	9319      	str	r3, [sp, #100]	; 0x64
    6d6a:	f8df b2b4 	ldr.w	fp, [pc, #692]	; 7020 <_strtod_r+0x600>
    6d6e:	e01a      	b.n	6da6 <_strtod_r+0x386>
    6d70:	a819      	add	r0, sp, #100	; 0x64
    6d72:	49a5      	ldr	r1, [pc, #660]	; (7008 <_strtod_r+0x5e8>)
    6d74:	f7ff fe1e 	bl	69b4 <match>
    6d78:	b1c8      	cbz	r0, 6dae <_strtod_r+0x38e>
    6d7a:	9b19      	ldr	r3, [sp, #100]	; 0x64
    6d7c:	781b      	ldrb	r3, [r3, #0]
    6d7e:	2b28      	cmp	r3, #40	; 0x28
    6d80:	d10f      	bne.n	6da2 <_strtod_r+0x382>
    6d82:	a819      	add	r0, sp, #100	; 0x64
    6d84:	49a1      	ldr	r1, [pc, #644]	; (700c <_strtod_r+0x5ec>)
    6d86:	aa1c      	add	r2, sp, #112	; 0x70
    6d88:	f001 f924 	bl	7fd4 <__hexnan>
    6d8c:	2805      	cmp	r0, #5
    6d8e:	d108      	bne.n	6da2 <_strtod_r+0x382>
    6d90:	9b1d      	ldr	r3, [sp, #116]	; 0x74
    6d92:	f8dd a070 	ldr.w	sl, [sp, #112]	; 0x70
    6d96:	f043 4bff 	orr.w	fp, r3, #2139095040	; 0x7f800000
    6d9a:	f44b 0be0 	orr.w	fp, fp, #7340032	; 0x700000
    6d9e:	f000 bc31 	b.w	7604 <_strtod_r+0xbe4>
    6da2:	f8df b280 	ldr.w	fp, [pc, #640]	; 7024 <_strtod_r+0x604>
    6da6:	f04f 0a00 	mov.w	sl, #0
    6daa:	f000 bc2b 	b.w	7604 <_strtod_r+0xbe4>
    6dae:	9b04      	ldr	r3, [sp, #16]
    6db0:	9319      	str	r3, [sp, #100]	; 0x64
    6db2:	2600      	movs	r6, #0
    6db4:	9609      	str	r6, [sp, #36]	; 0x24
    6db6:	f000 bc25 	b.w	7604 <_strtod_r+0xbe4>
    6dba:	ebc1 010c 	rsb	r1, r1, ip
    6dbe:	9803      	ldr	r0, [sp, #12]
    6dc0:	9106      	str	r1, [sp, #24]
    6dc2:	2d10      	cmp	r5, #16
    6dc4:	bfb4      	ite	lt
    6dc6:	46ac      	movlt	ip, r5
    6dc8:	f04f 0c10 	movge.w	ip, #16
    6dcc:	f8cd c008 	str.w	ip, [sp, #8]
    6dd0:	f7fe fd8a 	bl	58e8 <__aeabi_ui2d>
    6dd4:	f8dd c008 	ldr.w	ip, [sp, #8]
    6dd8:	2c00      	cmp	r4, #0
    6dda:	bf08      	it	eq
    6ddc:	462c      	moveq	r4, r5
    6dde:	f1bc 0f09 	cmp.w	ip, #9
    6de2:	4682      	mov	sl, r0
    6de4:	468b      	mov	fp, r1
    6de6:	dd15      	ble.n	6e14 <_strtod_r+0x3f4>
    6de8:	4b89      	ldr	r3, [pc, #548]	; (7010 <_strtod_r+0x5f0>)
    6dea:	eb03 03cc 	add.w	r3, r3, ip, lsl #3
    6dee:	e953 2312 	ldrd	r2, r3, [r3, #-72]	; 0x48
    6df2:	f7fe fdef 	bl	59d4 <__aeabi_dmul>
    6df6:	4606      	mov	r6, r0
    6df8:	4640      	mov	r0, r8
    6dfa:	460f      	mov	r7, r1
    6dfc:	f7fe fd74 	bl	58e8 <__aeabi_ui2d>
    6e00:	4602      	mov	r2, r0
    6e02:	460b      	mov	r3, r1
    6e04:	4630      	mov	r0, r6
    6e06:	4639      	mov	r1, r7
    6e08:	f7fe fc32 	bl	5670 <__adddf3>
    6e0c:	f8dd c008 	ldr.w	ip, [sp, #8]
    6e10:	4682      	mov	sl, r0
    6e12:	468b      	mov	fp, r1
    6e14:	2d0f      	cmp	r5, #15
    6e16:	dc37      	bgt.n	6e88 <_strtod_r+0x468>
    6e18:	9f06      	ldr	r7, [sp, #24]
    6e1a:	2f00      	cmp	r7, #0
    6e1c:	f000 83f2 	beq.w	7604 <_strtod_r+0xbe4>
    6e20:	dd23      	ble.n	6e6a <_strtod_r+0x44a>
    6e22:	2f16      	cmp	r7, #22
    6e24:	dc07      	bgt.n	6e36 <_strtod_r+0x416>
    6e26:	497a      	ldr	r1, [pc, #488]	; (7010 <_strtod_r+0x5f0>)
    6e28:	eb01 01c7 	add.w	r1, r1, r7, lsl #3
    6e2c:	e9d1 0100 	ldrd	r0, r1, [r1]
    6e30:	4652      	mov	r2, sl
    6e32:	465b      	mov	r3, fp
    6e34:	e014      	b.n	6e60 <_strtod_r+0x440>
    6e36:	9e06      	ldr	r6, [sp, #24]
    6e38:	f1c5 0325 	rsb	r3, r5, #37	; 0x25
    6e3c:	429e      	cmp	r6, r3
    6e3e:	dc23      	bgt.n	6e88 <_strtod_r+0x468>
    6e40:	4c73      	ldr	r4, [pc, #460]	; (7010 <_strtod_r+0x5f0>)
    6e42:	f1c5 050f 	rsb	r5, r5, #15
    6e46:	eb04 03c5 	add.w	r3, r4, r5, lsl #3
    6e4a:	1b75      	subs	r5, r6, r5
    6e4c:	e9d3 0100 	ldrd	r0, r1, [r3]
    6e50:	4652      	mov	r2, sl
    6e52:	465b      	mov	r3, fp
    6e54:	eb04 04c5 	add.w	r4, r4, r5, lsl #3
    6e58:	f7fe fdbc 	bl	59d4 <__aeabi_dmul>
    6e5c:	e9d4 2300 	ldrd	r2, r3, [r4]
    6e60:	f7fe fdb8 	bl	59d4 <__aeabi_dmul>
    6e64:	4682      	mov	sl, r0
    6e66:	468b      	mov	fp, r1
    6e68:	e3cc      	b.n	7604 <_strtod_r+0xbe4>
    6e6a:	9f06      	ldr	r7, [sp, #24]
    6e6c:	3716      	adds	r7, #22
    6e6e:	db0b      	blt.n	6e88 <_strtod_r+0x468>
    6e70:	f8dd c018 	ldr.w	ip, [sp, #24]
    6e74:	4f66      	ldr	r7, [pc, #408]	; (7010 <_strtod_r+0x5f0>)
    6e76:	eba7 07cc 	sub.w	r7, r7, ip, lsl #3
    6e7a:	4650      	mov	r0, sl
    6e7c:	4659      	mov	r1, fp
    6e7e:	e9d7 2300 	ldrd	r2, r3, [r7]
    6e82:	f7fe fed1 	bl	5c28 <__aeabi_ddiv>
    6e86:	e7ed      	b.n	6e64 <_strtod_r+0x444>
    6e88:	9e06      	ldr	r6, [sp, #24]
    6e8a:	ebcc 0805 	rsb	r8, ip, r5
    6e8e:	44b0      	add	r8, r6
    6e90:	f1b8 0f00 	cmp.w	r8, #0
    6e94:	dd61      	ble.n	6f5a <_strtod_r+0x53a>
    6e96:	f018 030f 	ands.w	r3, r8, #15
    6e9a:	d00a      	beq.n	6eb2 <_strtod_r+0x492>
    6e9c:	4a5c      	ldr	r2, [pc, #368]	; (7010 <_strtod_r+0x5f0>)
    6e9e:	eb02 03c3 	add.w	r3, r2, r3, lsl #3
    6ea2:	e9d3 0100 	ldrd	r0, r1, [r3]
    6ea6:	4652      	mov	r2, sl
    6ea8:	465b      	mov	r3, fp
    6eaa:	f7fe fd93 	bl	59d4 <__aeabi_dmul>
    6eae:	4682      	mov	sl, r0
    6eb0:	468b      	mov	fp, r1
    6eb2:	f038 080f 	bics.w	r8, r8, #15
    6eb6:	f000 80c8 	beq.w	704a <_strtod_r+0x62a>
    6eba:	f5b8 7f9a 	cmp.w	r8, #308	; 0x134
    6ebe:	dd13      	ble.n	6ee8 <_strtod_r+0x4c8>
    6ec0:	f04f 0800 	mov.w	r8, #0
    6ec4:	f8cd 800c 	str.w	r8, [sp, #12]
    6ec8:	f8cd 801c 	str.w	r8, [sp, #28]
    6ecc:	f8cd 8014 	str.w	r8, [sp, #20]
    6ed0:	9f07      	ldr	r7, [sp, #28]
    6ed2:	f8df b14c 	ldr.w	fp, [pc, #332]	; 7020 <_strtod_r+0x600>
    6ed6:	2322      	movs	r3, #34	; 0x22
    6ed8:	f8c9 3000 	str.w	r3, [r9]
    6edc:	f04f 0a00 	mov.w	sl, #0
    6ee0:	2f00      	cmp	r7, #0
    6ee2:	f040 837b 	bne.w	75dc <_strtod_r+0xbbc>
    6ee6:	e38d      	b.n	7604 <_strtod_r+0xbe4>
    6ee8:	ea4f 1828 	mov.w	r8, r8, asr #4
    6eec:	4650      	mov	r0, sl
    6eee:	4659      	mov	r1, fp
    6ef0:	2600      	movs	r6, #0
    6ef2:	f1b8 0f01 	cmp.w	r8, #1
    6ef6:	dd0d      	ble.n	6f14 <_strtod_r+0x4f4>
    6ef8:	f018 0f01 	tst.w	r8, #1
    6efc:	d006      	beq.n	6f0c <_strtod_r+0x4ec>
    6efe:	4b45      	ldr	r3, [pc, #276]	; (7014 <_strtod_r+0x5f4>)
    6f00:	eb03 03c6 	add.w	r3, r3, r6, lsl #3
    6f04:	e9d3 2300 	ldrd	r2, r3, [r3]
    6f08:	f7fe fd64 	bl	59d4 <__aeabi_dmul>
    6f0c:	3601      	adds	r6, #1
    6f0e:	ea4f 0868 	mov.w	r8, r8, asr #1
    6f12:	e7ee      	b.n	6ef2 <_strtod_r+0x4d2>
    6f14:	4b3f      	ldr	r3, [pc, #252]	; (7014 <_strtod_r+0x5f4>)
    6f16:	4682      	mov	sl, r0
    6f18:	f1a1 7b54 	sub.w	fp, r1, #55574528	; 0x3500000
    6f1c:	eb03 06c6 	add.w	r6, r3, r6, lsl #3
    6f20:	4652      	mov	r2, sl
    6f22:	465b      	mov	r3, fp
    6f24:	e9d6 0100 	ldrd	r0, r1, [r6]
    6f28:	f7fe fd54 	bl	59d4 <__aeabi_dmul>
    6f2c:	f021 4300 	bic.w	r3, r1, #2147483648	; 0x80000000
    6f30:	468b      	mov	fp, r1
    6f32:	0d1b      	lsrs	r3, r3, #20
    6f34:	4938      	ldr	r1, [pc, #224]	; (7018 <_strtod_r+0x5f8>)
    6f36:	051b      	lsls	r3, r3, #20
    6f38:	428b      	cmp	r3, r1
    6f3a:	4682      	mov	sl, r0
    6f3c:	d8c0      	bhi.n	6ec0 <_strtod_r+0x4a0>
    6f3e:	f5a1 1180 	sub.w	r1, r1, #1048576	; 0x100000
    6f42:	428b      	cmp	r3, r1
    6f44:	d906      	bls.n	6f54 <_strtod_r+0x534>
    6f46:	2600      	movs	r6, #0
    6f48:	f8df b0dc 	ldr.w	fp, [pc, #220]	; 7028 <_strtod_r+0x608>
    6f4c:	9604      	str	r6, [sp, #16]
    6f4e:	f04f 3aff 	mov.w	sl, #4294967295
    6f52:	e07c      	b.n	704e <_strtod_r+0x62e>
    6f54:	f10b 7b54 	add.w	fp, fp, #55574528	; 0x3500000
    6f58:	e077      	b.n	704a <_strtod_r+0x62a>
    6f5a:	d076      	beq.n	704a <_strtod_r+0x62a>
    6f5c:	f1c8 0800 	rsb	r8, r8, #0
    6f60:	f018 030f 	ands.w	r3, r8, #15
    6f64:	d00a      	beq.n	6f7c <_strtod_r+0x55c>
    6f66:	4a2a      	ldr	r2, [pc, #168]	; (7010 <_strtod_r+0x5f0>)
    6f68:	eb02 03c3 	add.w	r3, r2, r3, lsl #3
    6f6c:	4650      	mov	r0, sl
    6f6e:	4659      	mov	r1, fp
    6f70:	e9d3 2300 	ldrd	r2, r3, [r3]
    6f74:	f7fe fe58 	bl	5c28 <__aeabi_ddiv>
    6f78:	4682      	mov	sl, r0
    6f7a:	468b      	mov	fp, r1
    6f7c:	ea5f 1828 	movs.w	r8, r8, asr #4
    6f80:	d063      	beq.n	704a <_strtod_r+0x62a>
    6f82:	f1b8 0f1f 	cmp.w	r8, #31
    6f86:	dd08      	ble.n	6f9a <_strtod_r+0x57a>
    6f88:	f04f 0800 	mov.w	r8, #0
    6f8c:	f8cd 800c 	str.w	r8, [sp, #12]
    6f90:	f8cd 801c 	str.w	r8, [sp, #28]
    6f94:	f8cd 8014 	str.w	r8, [sp, #20]
    6f98:	e11e      	b.n	71d8 <_strtod_r+0x7b8>
    6f9a:	f018 0f10 	tst.w	r8, #16
    6f9e:	bf14      	ite	ne
    6fa0:	266a      	movne	r6, #106	; 0x6a
    6fa2:	2600      	moveq	r6, #0
    6fa4:	9604      	str	r6, [sp, #16]
    6fa6:	4e1d      	ldr	r6, [pc, #116]	; (701c <_strtod_r+0x5fc>)
    6fa8:	4650      	mov	r0, sl
    6faa:	4659      	mov	r1, fp
    6fac:	f1b8 0f00 	cmp.w	r8, #0
    6fb0:	dd0a      	ble.n	6fc8 <_strtod_r+0x5a8>
    6fb2:	f018 0f01 	tst.w	r8, #1
    6fb6:	d003      	beq.n	6fc0 <_strtod_r+0x5a0>
    6fb8:	e9d6 2300 	ldrd	r2, r3, [r6]
    6fbc:	f7fe fd0a 	bl	59d4 <__aeabi_dmul>
    6fc0:	ea4f 0868 	mov.w	r8, r8, asr #1
    6fc4:	3608      	adds	r6, #8
    6fc6:	e7f1      	b.n	6fac <_strtod_r+0x58c>
    6fc8:	9f04      	ldr	r7, [sp, #16]
    6fca:	4682      	mov	sl, r0
    6fcc:	468b      	mov	fp, r1
    6fce:	b39f      	cbz	r7, 7038 <_strtod_r+0x618>
    6fd0:	f3c1 530a 	ubfx	r3, r1, #20, #11
    6fd4:	f1c3 036b 	rsb	r3, r3, #107	; 0x6b
    6fd8:	2b00      	cmp	r3, #0
    6fda:	dd2d      	ble.n	7038 <_strtod_r+0x618>
    6fdc:	2b1f      	cmp	r3, #31
    6fde:	dd25      	ble.n	702c <_strtod_r+0x60c>
    6fe0:	2b34      	cmp	r3, #52	; 0x34
    6fe2:	f04f 0a00 	mov.w	sl, #0
    6fe6:	dd02      	ble.n	6fee <_strtod_r+0x5ce>
    6fe8:	f04f 7b5c 	mov.w	fp, #57671680	; 0x3700000
    6fec:	e024      	b.n	7038 <_strtod_r+0x618>
    6fee:	3b20      	subs	r3, #32
    6ff0:	f04f 31ff 	mov.w	r1, #4294967295
    6ff4:	fa01 f303 	lsl.w	r3, r1, r3
    6ff8:	ea03 0b0b 	and.w	fp, r3, fp
    6ffc:	e01c      	b.n	7038 <_strtod_r+0x618>
    6ffe:	bf00      	nop
    7000:	0000a39d 	.word	0x0000a39d
    7004:	0000a697 	.word	0x0000a697
    7008:	0000a399 	.word	0x0000a399
    700c:	0000a414 	.word	0x0000a414
    7010:	0000a598 	.word	0x0000a598
    7014:	0000a660 	.word	0x0000a660
    7018:	7ca00000 	.word	0x7ca00000
    701c:	0000a3d8 	.word	0x0000a3d8
    7020:	7ff00000 	.word	0x7ff00000
    7024:	fff80000 	.word	0xfff80000
    7028:	7fefffff 	.word	0x7fefffff
    702c:	f04f 32ff 	mov.w	r2, #4294967295
    7030:	fa02 f303 	lsl.w	r3, r2, r3
    7034:	ea03 0a00 	and.w	sl, r3, r0
    7038:	4650      	mov	r0, sl
    703a:	4659      	mov	r1, fp
    703c:	2200      	movs	r2, #0
    703e:	2300      	movs	r3, #0
    7040:	f7fe ff30 	bl	5ea4 <__aeabi_dcmpeq>
    7044:	2800      	cmp	r0, #0
    7046:	d19f      	bne.n	6f88 <_strtod_r+0x568>
    7048:	e001      	b.n	704e <_strtod_r+0x62e>
    704a:	2700      	movs	r7, #0
    704c:	9704      	str	r7, [sp, #16]
    704e:	9e03      	ldr	r6, [sp, #12]
    7050:	9600      	str	r6, [sp, #0]
    7052:	4648      	mov	r0, r9
    7054:	9907      	ldr	r1, [sp, #28]
    7056:	4622      	mov	r2, r4
    7058:	462b      	mov	r3, r5
    705a:	f001 f8d5 	bl	8208 <__s2b>
    705e:	9007      	str	r0, [sp, #28]
    7060:	2800      	cmp	r0, #0
    7062:	f43f af2d 	beq.w	6ec0 <_strtod_r+0x4a0>
    7066:	9f06      	ldr	r7, [sp, #24]
    7068:	427b      	negs	r3, r7
    706a:	2f00      	cmp	r7, #0
    706c:	bfa8      	it	ge
    706e:	2300      	movge	r3, #0
    7070:	f04f 0800 	mov.w	r8, #0
    7074:	930e      	str	r3, [sp, #56]	; 0x38
    7076:	f8cd 800c 	str.w	r8, [sp, #12]
    707a:	9e07      	ldr	r6, [sp, #28]
    707c:	4648      	mov	r0, r9
    707e:	6871      	ldr	r1, [r6, #4]
    7080:	f001 f83c 	bl	80fc <_Balloc>
    7084:	9005      	str	r0, [sp, #20]
    7086:	2800      	cmp	r0, #0
    7088:	f43f af22 	beq.w	6ed0 <_strtod_r+0x4b0>
    708c:	6932      	ldr	r2, [r6, #16]
    708e:	3202      	adds	r2, #2
    7090:	f106 010c 	add.w	r1, r6, #12
    7094:	0092      	lsls	r2, r2, #2
    7096:	300c      	adds	r0, #12
    7098:	f7ff fb32 	bl	6700 <memcpy>
    709c:	ab1b      	add	r3, sp, #108	; 0x6c
    709e:	9300      	str	r3, [sp, #0]
    70a0:	ab1c      	add	r3, sp, #112	; 0x70
    70a2:	9301      	str	r3, [sp, #4]
    70a4:	4648      	mov	r0, r9
    70a6:	4652      	mov	r2, sl
    70a8:	465b      	mov	r3, fp
    70aa:	e9cd ab0a 	strd	sl, fp, [sp, #40]	; 0x28
    70ae:	f001 fb6c 	bl	878a <__d2b>
    70b2:	901a      	str	r0, [sp, #104]	; 0x68
    70b4:	2800      	cmp	r0, #0
    70b6:	f43f af0b 	beq.w	6ed0 <_strtod_r+0x4b0>
    70ba:	4648      	mov	r0, r9
    70bc:	2101      	movs	r1, #1
    70be:	f001 f932 	bl	8326 <__i2b>
    70c2:	9003      	str	r0, [sp, #12]
    70c4:	2800      	cmp	r0, #0
    70c6:	f43f af03 	beq.w	6ed0 <_strtod_r+0x4b0>
    70ca:	9b1b      	ldr	r3, [sp, #108]	; 0x6c
    70cc:	f8dd c018 	ldr.w	ip, [sp, #24]
    70d0:	2b00      	cmp	r3, #0
    70d2:	ea2c 77ec 	bic.w	r7, ip, ip, asr #31
    70d6:	f2c0 808b 	blt.w	71f0 <_strtod_r+0x7d0>
    70da:	9c0e      	ldr	r4, [sp, #56]	; 0x38
    70dc:	463a      	mov	r2, r7
    70de:	441c      	add	r4, r3
    70e0:	9e04      	ldr	r6, [sp, #16]
    70e2:	9d1c      	ldr	r5, [sp, #112]	; 0x70
    70e4:	1b9b      	subs	r3, r3, r6
    70e6:	1959      	adds	r1, r3, r5
    70e8:	f46f 737f 	mvn.w	r3, #1020	; 0x3fc
    70ec:	4299      	cmp	r1, r3
    70ee:	f1c5 0536 	rsb	r5, r5, #54	; 0x36
    70f2:	f280 8087 	bge.w	7204 <_strtod_r+0x7e4>
    70f6:	1a5b      	subs	r3, r3, r1
    70f8:	2b1f      	cmp	r3, #31
    70fa:	ebc3 0505 	rsb	r5, r3, r5
    70fe:	f04f 0001 	mov.w	r0, #1
    7102:	dc78      	bgt.n	71f6 <_strtod_r+0x7d6>
    7104:	4098      	lsls	r0, r3
    7106:	2300      	movs	r3, #0
    7108:	9014      	str	r0, [sp, #80]	; 0x50
    710a:	930f      	str	r3, [sp, #60]	; 0x3c
    710c:	9804      	ldr	r0, [sp, #16]
    710e:	1966      	adds	r6, r4, r5
    7110:	4415      	add	r5, r2
    7112:	42a6      	cmp	r6, r4
    7114:	bfb4      	ite	lt
    7116:	4633      	movlt	r3, r6
    7118:	4623      	movge	r3, r4
    711a:	4405      	add	r5, r0
    711c:	42ab      	cmp	r3, r5
    711e:	bfa8      	it	ge
    7120:	462b      	movge	r3, r5
    7122:	2b00      	cmp	r3, #0
    7124:	dd02      	ble.n	712c <_strtod_r+0x70c>
    7126:	1af6      	subs	r6, r6, r3
    7128:	1aed      	subs	r5, r5, r3
    712a:	1ae4      	subs	r4, r4, r3
    712c:	990e      	ldr	r1, [sp, #56]	; 0x38
    712e:	2900      	cmp	r1, #0
    7130:	d16f      	bne.n	7212 <_strtod_r+0x7f2>
    7132:	2e00      	cmp	r6, #0
    7134:	f300 8087 	bgt.w	7246 <_strtod_r+0x826>
    7138:	2f00      	cmp	r7, #0
    713a:	f040 808e 	bne.w	725a <_strtod_r+0x83a>
    713e:	2d00      	cmp	r5, #0
    7140:	f300 8095 	bgt.w	726e <_strtod_r+0x84e>
    7144:	2c00      	cmp	r4, #0
    7146:	f300 809c 	bgt.w	7282 <_strtod_r+0x862>
    714a:	4648      	mov	r0, r9
    714c:	991a      	ldr	r1, [sp, #104]	; 0x68
    714e:	9a05      	ldr	r2, [sp, #20]
    7150:	f001 fa48 	bl	85e4 <__mdiff>
    7154:	4680      	mov	r8, r0
    7156:	2800      	cmp	r0, #0
    7158:	f43f aeba 	beq.w	6ed0 <_strtod_r+0x4b0>
    715c:	2300      	movs	r3, #0
    715e:	68c6      	ldr	r6, [r0, #12]
    7160:	9903      	ldr	r1, [sp, #12]
    7162:	60c3      	str	r3, [r0, #12]
    7164:	9608      	str	r6, [sp, #32]
    7166:	f001 fa20 	bl	85aa <__mcmp>
    716a:	2800      	cmp	r0, #0
    716c:	f280 8098 	bge.w	72a0 <_strtod_r+0x880>
    7170:	2e00      	cmp	r6, #0
    7172:	f040 8220 	bne.w	75b6 <_strtod_r+0xb96>
    7176:	f1ba 0f00 	cmp.w	sl, #0
    717a:	f040 821c 	bne.w	75b6 <_strtod_r+0xb96>
    717e:	f3cb 0313 	ubfx	r3, fp, #0, #20
    7182:	2b00      	cmp	r3, #0
    7184:	f040 8217 	bne.w	75b6 <_strtod_r+0xb96>
    7188:	f02b 4300 	bic.w	r3, fp, #2147483648	; 0x80000000
    718c:	0d1b      	lsrs	r3, r3, #20
    718e:	051b      	lsls	r3, r3, #20
    7190:	f1b3 6fd6 	cmp.w	r3, #112197632	; 0x6b00000
    7194:	f240 820f 	bls.w	75b6 <_strtod_r+0xb96>
    7198:	f8d8 3014 	ldr.w	r3, [r8, #20]
    719c:	2b00      	cmp	r3, #0
    719e:	d07a      	beq.n	7296 <_strtod_r+0x876>
    71a0:	4641      	mov	r1, r8
    71a2:	2201      	movs	r2, #1
    71a4:	4648      	mov	r0, r9
    71a6:	f001 f9ad 	bl	8504 <__lshift>
    71aa:	9903      	ldr	r1, [sp, #12]
    71ac:	4680      	mov	r8, r0
    71ae:	f001 f9fc 	bl	85aa <__mcmp>
    71b2:	2800      	cmp	r0, #0
    71b4:	f340 81ff 	ble.w	75b6 <_strtod_r+0xb96>
    71b8:	f02b 4300 	bic.w	r3, fp, #2147483648	; 0x80000000
    71bc:	9f04      	ldr	r7, [sp, #16]
    71be:	0d1b      	lsrs	r3, r3, #20
    71c0:	051b      	lsls	r3, r3, #20
    71c2:	2f00      	cmp	r7, #0
    71c4:	f000 809c 	beq.w	7300 <_strtod_r+0x8e0>
    71c8:	f1b3 6fd6 	cmp.w	r3, #112197632	; 0x6b00000
    71cc:	f200 8098 	bhi.w	7300 <_strtod_r+0x8e0>
    71d0:	f1b3 7f5c 	cmp.w	r3, #57671680	; 0x3700000
    71d4:	f200 81f1 	bhi.w	75ba <_strtod_r+0xb9a>
    71d8:	9e07      	ldr	r6, [sp, #28]
    71da:	2322      	movs	r3, #34	; 0x22
    71dc:	f04f 0a00 	mov.w	sl, #0
    71e0:	f04f 0b00 	mov.w	fp, #0
    71e4:	f8c9 3000 	str.w	r3, [r9]
    71e8:	2e00      	cmp	r6, #0
    71ea:	f040 81f7 	bne.w	75dc <_strtod_r+0xbbc>
    71ee:	e209      	b.n	7604 <_strtod_r+0xbe4>
    71f0:	1afa      	subs	r2, r7, r3
    71f2:	9c0e      	ldr	r4, [sp, #56]	; 0x38
    71f4:	e774      	b.n	70e0 <_strtod_r+0x6c0>
    71f6:	4e84      	ldr	r6, [pc, #528]	; (7408 <_strtod_r+0x9e8>)
    71f8:	9014      	str	r0, [sp, #80]	; 0x50
    71fa:	1a76      	subs	r6, r6, r1
    71fc:	fa00 f606 	lsl.w	r6, r0, r6
    7200:	960f      	str	r6, [sp, #60]	; 0x3c
    7202:	e783      	b.n	710c <_strtod_r+0x6ec>
    7204:	2600      	movs	r6, #0
    7206:	f04f 0c01 	mov.w	ip, #1
    720a:	960f      	str	r6, [sp, #60]	; 0x3c
    720c:	f8cd c050 	str.w	ip, [sp, #80]	; 0x50
    7210:	e77c      	b.n	710c <_strtod_r+0x6ec>
    7212:	4648      	mov	r0, r9
    7214:	9903      	ldr	r1, [sp, #12]
    7216:	9a0e      	ldr	r2, [sp, #56]	; 0x38
    7218:	f001 f926 	bl	8468 <__pow5mult>
    721c:	9003      	str	r0, [sp, #12]
    721e:	2800      	cmp	r0, #0
    7220:	f43f ae56 	beq.w	6ed0 <_strtod_r+0x4b0>
    7224:	4648      	mov	r0, r9
    7226:	9903      	ldr	r1, [sp, #12]
    7228:	9a1a      	ldr	r2, [sp, #104]	; 0x68
    722a:	f001 f885 	bl	8338 <__multiply>
    722e:	4603      	mov	r3, r0
    7230:	2800      	cmp	r0, #0
    7232:	f43f ae4d 	beq.w	6ed0 <_strtod_r+0x4b0>
    7236:	4648      	mov	r0, r9
    7238:	991a      	ldr	r1, [sp, #104]	; 0x68
    723a:	9302      	str	r3, [sp, #8]
    723c:	f000 ff93 	bl	8166 <_Bfree>
    7240:	9b02      	ldr	r3, [sp, #8]
    7242:	931a      	str	r3, [sp, #104]	; 0x68
    7244:	e775      	b.n	7132 <_strtod_r+0x712>
    7246:	4648      	mov	r0, r9
    7248:	991a      	ldr	r1, [sp, #104]	; 0x68
    724a:	4632      	mov	r2, r6
    724c:	f001 f95a 	bl	8504 <__lshift>
    7250:	901a      	str	r0, [sp, #104]	; 0x68
    7252:	2800      	cmp	r0, #0
    7254:	f47f af70 	bne.w	7138 <_strtod_r+0x718>
    7258:	e63a      	b.n	6ed0 <_strtod_r+0x4b0>
    725a:	4648      	mov	r0, r9
    725c:	9905      	ldr	r1, [sp, #20]
    725e:	463a      	mov	r2, r7
    7260:	f001 f902 	bl	8468 <__pow5mult>
    7264:	9005      	str	r0, [sp, #20]
    7266:	2800      	cmp	r0, #0
    7268:	f47f af69 	bne.w	713e <_strtod_r+0x71e>
    726c:	e630      	b.n	6ed0 <_strtod_r+0x4b0>
    726e:	4648      	mov	r0, r9
    7270:	9905      	ldr	r1, [sp, #20]
    7272:	462a      	mov	r2, r5
    7274:	f001 f946 	bl	8504 <__lshift>
    7278:	9005      	str	r0, [sp, #20]
    727a:	2800      	cmp	r0, #0
    727c:	f47f af62 	bne.w	7144 <_strtod_r+0x724>
    7280:	e626      	b.n	6ed0 <_strtod_r+0x4b0>
    7282:	4648      	mov	r0, r9
    7284:	9903      	ldr	r1, [sp, #12]
    7286:	4622      	mov	r2, r4
    7288:	f001 f93c 	bl	8504 <__lshift>
    728c:	9003      	str	r0, [sp, #12]
    728e:	2800      	cmp	r0, #0
    7290:	f47f af5b 	bne.w	714a <_strtod_r+0x72a>
    7294:	e61c      	b.n	6ed0 <_strtod_r+0x4b0>
    7296:	f8d8 3010 	ldr.w	r3, [r8, #16]
    729a:	2b01      	cmp	r3, #1
    729c:	dc80      	bgt.n	71a0 <_strtod_r+0x780>
    729e:	e18a      	b.n	75b6 <_strtod_r+0xb96>
    72a0:	d163      	bne.n	736a <_strtod_r+0x94a>
    72a2:	9f08      	ldr	r7, [sp, #32]
    72a4:	f3cb 0313 	ubfx	r3, fp, #0, #20
    72a8:	b32f      	cbz	r7, 72f6 <_strtod_r+0x8d6>
    72aa:	4958      	ldr	r1, [pc, #352]	; (740c <_strtod_r+0x9ec>)
    72ac:	428b      	cmp	r3, r1
    72ae:	465a      	mov	r2, fp
    72b0:	d12f      	bne.n	7312 <_strtod_r+0x8f2>
    72b2:	9e04      	ldr	r6, [sp, #16]
    72b4:	4651      	mov	r1, sl
    72b6:	b16e      	cbz	r6, 72d4 <_strtod_r+0x8b4>
    72b8:	4b55      	ldr	r3, [pc, #340]	; (7410 <_strtod_r+0x9f0>)
    72ba:	ea0b 0303 	and.w	r3, fp, r3
    72be:	f1b3 6fd4 	cmp.w	r3, #111149056	; 0x6a00000
    72c2:	d807      	bhi.n	72d4 <_strtod_r+0x8b4>
    72c4:	0d1b      	lsrs	r3, r3, #20
    72c6:	f1c3 036b 	rsb	r3, r3, #107	; 0x6b
    72ca:	f04f 30ff 	mov.w	r0, #4294967295
    72ce:	fa00 f303 	lsl.w	r3, r0, r3
    72d2:	e001      	b.n	72d8 <_strtod_r+0x8b8>
    72d4:	f04f 33ff 	mov.w	r3, #4294967295
    72d8:	4299      	cmp	r1, r3
    72da:	d11a      	bne.n	7312 <_strtod_r+0x8f2>
    72dc:	4b4d      	ldr	r3, [pc, #308]	; (7414 <_strtod_r+0x9f4>)
    72de:	429a      	cmp	r2, r3
    72e0:	d102      	bne.n	72e8 <_strtod_r+0x8c8>
    72e2:	3101      	adds	r1, #1
    72e4:	f43f adf4 	beq.w	6ed0 <_strtod_r+0x4b0>
    72e8:	4b49      	ldr	r3, [pc, #292]	; (7410 <_strtod_r+0x9f0>)
    72ea:	4013      	ands	r3, r2
    72ec:	f503 1b80 	add.w	fp, r3, #1048576	; 0x100000
    72f0:	f04f 0a00 	mov.w	sl, #0
    72f4:	e15f      	b.n	75b6 <_strtod_r+0xb96>
    72f6:	b963      	cbnz	r3, 7312 <_strtod_r+0x8f2>
    72f8:	f1ba 0f00 	cmp.w	sl, #0
    72fc:	d109      	bne.n	7312 <_strtod_r+0x8f2>
    72fe:	e75b      	b.n	71b8 <_strtod_r+0x798>
    7300:	f5a3 1380 	sub.w	r3, r3, #1048576	; 0x100000
    7304:	ea6f 5b13 	mvn.w	fp, r3, lsr #20
    7308:	ea6f 5b0b 	mvn.w	fp, fp, lsl #20
    730c:	f04f 3aff 	mov.w	sl, #4294967295
    7310:	e151      	b.n	75b6 <_strtod_r+0xb96>
    7312:	9b0f      	ldr	r3, [sp, #60]	; 0x3c
    7314:	b113      	cbz	r3, 731c <_strtod_r+0x8fc>
    7316:	ea13 0f0b 	tst.w	r3, fp
    731a:	e002      	b.n	7322 <_strtod_r+0x902>
    731c:	9e14      	ldr	r6, [sp, #80]	; 0x50
    731e:	ea16 0f0a 	tst.w	r6, sl
    7322:	f000 8148 	beq.w	75b6 <_strtod_r+0xb96>
    7326:	9f08      	ldr	r7, [sp, #32]
    7328:	9a04      	ldr	r2, [sp, #16]
    732a:	4650      	mov	r0, sl
    732c:	4659      	mov	r1, fp
    732e:	b157      	cbz	r7, 7346 <_strtod_r+0x926>
    7330:	f7ff fb54 	bl	69dc <sulp>
    7334:	4602      	mov	r2, r0
    7336:	460b      	mov	r3, r1
    7338:	e9dd 010a 	ldrd	r0, r1, [sp, #40]	; 0x28
    733c:	f7fe f998 	bl	5670 <__adddf3>
    7340:	4682      	mov	sl, r0
    7342:	468b      	mov	fp, r1
    7344:	e137      	b.n	75b6 <_strtod_r+0xb96>
    7346:	f7ff fb49 	bl	69dc <sulp>
    734a:	4602      	mov	r2, r0
    734c:	460b      	mov	r3, r1
    734e:	e9dd 010a 	ldrd	r0, r1, [sp, #40]	; 0x28
    7352:	f7fe f98b 	bl	566c <__aeabi_dsub>
    7356:	2200      	movs	r2, #0
    7358:	2300      	movs	r3, #0
    735a:	4682      	mov	sl, r0
    735c:	468b      	mov	fp, r1
    735e:	f7fe fda1 	bl	5ea4 <__aeabi_dcmpeq>
    7362:	2800      	cmp	r0, #0
    7364:	f47f af38 	bne.w	71d8 <_strtod_r+0x7b8>
    7368:	e125      	b.n	75b6 <_strtod_r+0xb96>
    736a:	4640      	mov	r0, r8
    736c:	9903      	ldr	r1, [sp, #12]
    736e:	f001 fa5e 	bl	882e <__ratio>
    7372:	2200      	movs	r2, #0
    7374:	f04f 4380 	mov.w	r3, #1073741824	; 0x40000000
    7378:	4604      	mov	r4, r0
    737a:	460d      	mov	r5, r1
    737c:	f7fe fda6 	bl	5ecc <__aeabi_dcmple>
    7380:	2800      	cmp	r0, #0
    7382:	d032      	beq.n	73ea <_strtod_r+0x9ca>
    7384:	9e08      	ldr	r6, [sp, #32]
    7386:	b126      	cbz	r6, 7392 <_strtod_r+0x972>
    7388:	4f23      	ldr	r7, [pc, #140]	; (7418 <_strtod_r+0x9f8>)
    738a:	2600      	movs	r6, #0
    738c:	4634      	mov	r4, r6
    738e:	463d      	mov	r5, r7
    7390:	e04c      	b.n	742c <_strtod_r+0xa0c>
    7392:	f1ba 0f00 	cmp.w	sl, #0
    7396:	d103      	bne.n	73a0 <_strtod_r+0x980>
    7398:	f3cb 0313 	ubfx	r3, fp, #0, #20
    739c:	b93b      	cbnz	r3, 73ae <_strtod_r+0x98e>
    739e:	e00b      	b.n	73b8 <_strtod_r+0x998>
    73a0:	f1ba 0f01 	cmp.w	sl, #1
    73a4:	d103      	bne.n	73ae <_strtod_r+0x98e>
    73a6:	f1bb 0f00 	cmp.w	fp, #0
    73aa:	f43f af15 	beq.w	71d8 <_strtod_r+0x7b8>
    73ae:	2600      	movs	r6, #0
    73b0:	4f1a      	ldr	r7, [pc, #104]	; (741c <_strtod_r+0x9fc>)
    73b2:	4d19      	ldr	r5, [pc, #100]	; (7418 <_strtod_r+0x9f8>)
    73b4:	2400      	movs	r4, #0
    73b6:	e039      	b.n	742c <_strtod_r+0xa0c>
    73b8:	4620      	mov	r0, r4
    73ba:	4629      	mov	r1, r5
    73bc:	2200      	movs	r2, #0
    73be:	4b16      	ldr	r3, [pc, #88]	; (7418 <_strtod_r+0x9f8>)
    73c0:	f7fe fd7a 	bl	5eb8 <__aeabi_dcmplt>
    73c4:	b940      	cbnz	r0, 73d8 <_strtod_r+0x9b8>
    73c6:	4620      	mov	r0, r4
    73c8:	4629      	mov	r1, r5
    73ca:	2200      	movs	r2, #0
    73cc:	4b14      	ldr	r3, [pc, #80]	; (7420 <_strtod_r+0xa00>)
    73ce:	f7fe fb01 	bl	59d4 <__aeabi_dmul>
    73d2:	4604      	mov	r4, r0
    73d4:	460d      	mov	r5, r1
    73d6:	e001      	b.n	73dc <_strtod_r+0x9bc>
    73d8:	4d11      	ldr	r5, [pc, #68]	; (7420 <_strtod_r+0xa00>)
    73da:	2400      	movs	r4, #0
    73dc:	f105 4700 	add.w	r7, r5, #2147483648	; 0x80000000
    73e0:	9416      	str	r4, [sp, #88]	; 0x58
    73e2:	9717      	str	r7, [sp, #92]	; 0x5c
    73e4:	e9dd 6716 	ldrd	r6, r7, [sp, #88]	; 0x58
    73e8:	e020      	b.n	742c <_strtod_r+0xa0c>
    73ea:	4620      	mov	r0, r4
    73ec:	4629      	mov	r1, r5
    73ee:	2200      	movs	r2, #0
    73f0:	4b0b      	ldr	r3, [pc, #44]	; (7420 <_strtod_r+0xa00>)
    73f2:	f7fe faef 	bl	59d4 <__aeabi_dmul>
    73f6:	9e08      	ldr	r6, [sp, #32]
    73f8:	4604      	mov	r4, r0
    73fa:	460d      	mov	r5, r1
    73fc:	b996      	cbnz	r6, 7424 <_strtod_r+0xa04>
    73fe:	f101 4700 	add.w	r7, r1, #2147483648	; 0x80000000
    7402:	9010      	str	r0, [sp, #64]	; 0x40
    7404:	9711      	str	r7, [sp, #68]	; 0x44
    7406:	e00f      	b.n	7428 <_strtod_r+0xa08>
    7408:	fffffbe3 	.word	0xfffffbe3
    740c:	000fffff 	.word	0x000fffff
    7410:	7ff00000 	.word	0x7ff00000
    7414:	7fefffff 	.word	0x7fefffff
    7418:	3ff00000 	.word	0x3ff00000
    741c:	bff00000 	.word	0xbff00000
    7420:	3fe00000 	.word	0x3fe00000
    7424:	e9cd 4510 	strd	r4, r5, [sp, #64]	; 0x40
    7428:	e9dd 6710 	ldrd	r6, r7, [sp, #64]	; 0x40
    742c:	f02b 4c00 	bic.w	ip, fp, #2147483648	; 0x80000000
    7430:	ea4f 5c1c 	mov.w	ip, ip, lsr #20
    7434:	4b84      	ldr	r3, [pc, #528]	; (7648 <_strtod_r+0xc28>)
    7436:	ea4f 5c0c 	mov.w	ip, ip, lsl #20
    743a:	459c      	cmp	ip, r3
    743c:	d131      	bne.n	74a2 <_strtod_r+0xa82>
    743e:	e9dd 010a 	ldrd	r0, r1, [sp, #40]	; 0x28
    7442:	f1ab 7b54 	sub.w	fp, fp, #55574528	; 0x3500000
    7446:	e9cd 010c 	strd	r0, r1, [sp, #48]	; 0x30
    744a:	4650      	mov	r0, sl
    744c:	4659      	mov	r1, fp
    744e:	f8cd c008 	str.w	ip, [sp, #8]
    7452:	f001 f925 	bl	86a0 <__ulp>
    7456:	4602      	mov	r2, r0
    7458:	460b      	mov	r3, r1
    745a:	4630      	mov	r0, r6
    745c:	4639      	mov	r1, r7
    745e:	f7fe fab9 	bl	59d4 <__aeabi_dmul>
    7462:	4602      	mov	r2, r0
    7464:	460b      	mov	r3, r1
    7466:	4650      	mov	r0, sl
    7468:	4659      	mov	r1, fp
    746a:	f7fe f901 	bl	5670 <__adddf3>
    746e:	f021 4300 	bic.w	r3, r1, #2147483648	; 0x80000000
    7472:	0d1b      	lsrs	r3, r3, #20
    7474:	4a75      	ldr	r2, [pc, #468]	; (764c <_strtod_r+0xc2c>)
    7476:	f8dd c008 	ldr.w	ip, [sp, #8]
    747a:	051b      	lsls	r3, r3, #20
    747c:	4293      	cmp	r3, r2
    747e:	4682      	mov	sl, r0
    7480:	d90c      	bls.n	749c <_strtod_r+0xa7c>
    7482:	4b73      	ldr	r3, [pc, #460]	; (7650 <_strtod_r+0xc30>)
    7484:	990d      	ldr	r1, [sp, #52]	; 0x34
    7486:	4299      	cmp	r1, r3
    7488:	d103      	bne.n	7492 <_strtod_r+0xa72>
    748a:	9a0c      	ldr	r2, [sp, #48]	; 0x30
    748c:	3201      	adds	r2, #1
    748e:	f43f ad1f 	beq.w	6ed0 <_strtod_r+0x4b0>
    7492:	f8df b1bc 	ldr.w	fp, [pc, #444]	; 7650 <_strtod_r+0xc30>
    7496:	f04f 3aff 	mov.w	sl, #4294967295
    749a:	e07b      	b.n	7594 <_strtod_r+0xb74>
    749c:	f101 7b54 	add.w	fp, r1, #55574528	; 0x3500000
    74a0:	e042      	b.n	7528 <_strtod_r+0xb08>
    74a2:	9b04      	ldr	r3, [sp, #16]
    74a4:	b353      	cbz	r3, 74fc <_strtod_r+0xadc>
    74a6:	f1bc 6fd4 	cmp.w	ip, #111149056	; 0x6a00000
    74aa:	d827      	bhi.n	74fc <_strtod_r+0xadc>
    74ac:	4620      	mov	r0, r4
    74ae:	4629      	mov	r1, r5
    74b0:	a35d      	add	r3, pc, #372	; (adr r3, 7628 <_strtod_r+0xc08>)
    74b2:	e9d3 2300 	ldrd	r2, r3, [r3]
    74b6:	f8cd c008 	str.w	ip, [sp, #8]
    74ba:	f7fe fd07 	bl	5ecc <__aeabi_dcmple>
    74be:	f8dd c008 	ldr.w	ip, [sp, #8]
    74c2:	b1b8      	cbz	r0, 74f4 <_strtod_r+0xad4>
    74c4:	4629      	mov	r1, r5
    74c6:	4620      	mov	r0, r4
    74c8:	f7fe fd46 	bl	5f58 <__aeabi_d2uiz>
    74cc:	2800      	cmp	r0, #0
    74ce:	bf08      	it	eq
    74d0:	2001      	moveq	r0, #1
    74d2:	f7fe fa09 	bl	58e8 <__aeabi_ui2d>
    74d6:	9e08      	ldr	r6, [sp, #32]
    74d8:	f8dd c008 	ldr.w	ip, [sp, #8]
    74dc:	4604      	mov	r4, r0
    74de:	460d      	mov	r5, r1
    74e0:	b926      	cbnz	r6, 74ec <_strtod_r+0xacc>
    74e2:	f101 4700 	add.w	r7, r1, #2147483648	; 0x80000000
    74e6:	9012      	str	r0, [sp, #72]	; 0x48
    74e8:	9713      	str	r7, [sp, #76]	; 0x4c
    74ea:	e001      	b.n	74f0 <_strtod_r+0xad0>
    74ec:	e9cd 4512 	strd	r4, r5, [sp, #72]	; 0x48
    74f0:	e9dd 6712 	ldrd	r6, r7, [sp, #72]	; 0x48
    74f4:	f107 63d6 	add.w	r3, r7, #112197632	; 0x6b00000
    74f8:	ebcc 0703 	rsb	r7, ip, r3
    74fc:	e9dd 010a 	ldrd	r0, r1, [sp, #40]	; 0x28
    7500:	f8cd c008 	str.w	ip, [sp, #8]
    7504:	f001 f8cc 	bl	86a0 <__ulp>
    7508:	4602      	mov	r2, r0
    750a:	460b      	mov	r3, r1
    750c:	4630      	mov	r0, r6
    750e:	4639      	mov	r1, r7
    7510:	f7fe fa60 	bl	59d4 <__aeabi_dmul>
    7514:	4602      	mov	r2, r0
    7516:	460b      	mov	r3, r1
    7518:	e9dd 010a 	ldrd	r0, r1, [sp, #40]	; 0x28
    751c:	f7fe f8a8 	bl	5670 <__adddf3>
    7520:	f8dd c008 	ldr.w	ip, [sp, #8]
    7524:	4682      	mov	sl, r0
    7526:	468b      	mov	fp, r1
    7528:	9f04      	ldr	r7, [sp, #16]
    752a:	2f00      	cmp	r7, #0
    752c:	d132      	bne.n	7594 <_strtod_r+0xb74>
    752e:	f02b 4300 	bic.w	r3, fp, #2147483648	; 0x80000000
    7532:	0d1b      	lsrs	r3, r3, #20
    7534:	051b      	lsls	r3, r3, #20
    7536:	459c      	cmp	ip, r3
    7538:	d12c      	bne.n	7594 <_strtod_r+0xb74>
    753a:	4629      	mov	r1, r5
    753c:	4620      	mov	r0, r4
    753e:	f7fe fce3 	bl	5f08 <__aeabi_d2iz>
    7542:	f7fe f9e1 	bl	5908 <__aeabi_i2d>
    7546:	4602      	mov	r2, r0
    7548:	460b      	mov	r3, r1
    754a:	4620      	mov	r0, r4
    754c:	4629      	mov	r1, r5
    754e:	f7fe f88d 	bl	566c <__aeabi_dsub>
    7552:	9f08      	ldr	r7, [sp, #32]
    7554:	4604      	mov	r4, r0
    7556:	460d      	mov	r5, r1
    7558:	b92f      	cbnz	r7, 7566 <_strtod_r+0xb46>
    755a:	f1ba 0f00 	cmp.w	sl, #0
    755e:	d102      	bne.n	7566 <_strtod_r+0xb46>
    7560:	f3cb 0613 	ubfx	r6, fp, #0, #20
    7564:	b186      	cbz	r6, 7588 <_strtod_r+0xb68>
    7566:	4620      	mov	r0, r4
    7568:	4629      	mov	r1, r5
    756a:	a331      	add	r3, pc, #196	; (adr r3, 7630 <_strtod_r+0xc10>)
    756c:	e9d3 2300 	ldrd	r2, r3, [r3]
    7570:	f7fe fca2 	bl	5eb8 <__aeabi_dcmplt>
    7574:	2800      	cmp	r0, #0
    7576:	d131      	bne.n	75dc <_strtod_r+0xbbc>
    7578:	4620      	mov	r0, r4
    757a:	4629      	mov	r1, r5
    757c:	a32e      	add	r3, pc, #184	; (adr r3, 7638 <_strtod_r+0xc18>)
    757e:	e9d3 2300 	ldrd	r2, r3, [r3]
    7582:	f7fe fcb7 	bl	5ef4 <__aeabi_dcmpgt>
    7586:	e004      	b.n	7592 <_strtod_r+0xb72>
    7588:	a32d      	add	r3, pc, #180	; (adr r3, 7640 <_strtod_r+0xc20>)
    758a:	e9d3 2300 	ldrd	r2, r3, [r3]
    758e:	f7fe fc93 	bl	5eb8 <__aeabi_dcmplt>
    7592:	bb18      	cbnz	r0, 75dc <_strtod_r+0xbbc>
    7594:	4648      	mov	r0, r9
    7596:	991a      	ldr	r1, [sp, #104]	; 0x68
    7598:	f000 fde5 	bl	8166 <_Bfree>
    759c:	4648      	mov	r0, r9
    759e:	9905      	ldr	r1, [sp, #20]
    75a0:	f000 fde1 	bl	8166 <_Bfree>
    75a4:	4648      	mov	r0, r9
    75a6:	9903      	ldr	r1, [sp, #12]
    75a8:	f000 fddd 	bl	8166 <_Bfree>
    75ac:	4648      	mov	r0, r9
    75ae:	4641      	mov	r1, r8
    75b0:	f000 fdd9 	bl	8166 <_Bfree>
    75b4:	e561      	b.n	707a <_strtod_r+0x65a>
    75b6:	9e04      	ldr	r6, [sp, #16]
    75b8:	b186      	cbz	r6, 75dc <_strtod_r+0xbbc>
    75ba:	2000      	movs	r0, #0
    75bc:	4f25      	ldr	r7, [pc, #148]	; (7654 <_strtod_r+0xc34>)
    75be:	900c      	str	r0, [sp, #48]	; 0x30
    75c0:	970d      	str	r7, [sp, #52]	; 0x34
    75c2:	4650      	mov	r0, sl
    75c4:	4659      	mov	r1, fp
    75c6:	e9dd 230c 	ldrd	r2, r3, [sp, #48]	; 0x30
    75ca:	f7fe fa03 	bl	59d4 <__aeabi_dmul>
    75ce:	4682      	mov	sl, r0
    75d0:	468b      	mov	fp, r1
    75d2:	b919      	cbnz	r1, 75dc <_strtod_r+0xbbc>
    75d4:	b910      	cbnz	r0, 75dc <_strtod_r+0xbbc>
    75d6:	2322      	movs	r3, #34	; 0x22
    75d8:	f8c9 3000 	str.w	r3, [r9]
    75dc:	4648      	mov	r0, r9
    75de:	991a      	ldr	r1, [sp, #104]	; 0x68
    75e0:	f000 fdc1 	bl	8166 <_Bfree>
    75e4:	4648      	mov	r0, r9
    75e6:	9905      	ldr	r1, [sp, #20]
    75e8:	f000 fdbd 	bl	8166 <_Bfree>
    75ec:	4648      	mov	r0, r9
    75ee:	9903      	ldr	r1, [sp, #12]
    75f0:	f000 fdb9 	bl	8166 <_Bfree>
    75f4:	4648      	mov	r0, r9
    75f6:	9907      	ldr	r1, [sp, #28]
    75f8:	f000 fdb5 	bl	8166 <_Bfree>
    75fc:	4648      	mov	r0, r9
    75fe:	4641      	mov	r1, r8
    7600:	f000 fdb1 	bl	8166 <_Bfree>
    7604:	9e15      	ldr	r6, [sp, #84]	; 0x54
    7606:	b10e      	cbz	r6, 760c <_strtod_r+0xbec>
    7608:	9b19      	ldr	r3, [sp, #100]	; 0x64
    760a:	6033      	str	r3, [r6, #0]
    760c:	9f09      	ldr	r7, [sp, #36]	; 0x24
    760e:	b11f      	cbz	r7, 7618 <_strtod_r+0xbf8>
    7610:	4650      	mov	r0, sl
    7612:	f10b 4100 	add.w	r1, fp, #2147483648	; 0x80000000
    7616:	e001      	b.n	761c <_strtod_r+0xbfc>
    7618:	4650      	mov	r0, sl
    761a:	4659      	mov	r1, fp
    761c:	b01f      	add	sp, #124	; 0x7c
    761e:	e8bd 8ff0 	ldmia.w	sp!, {r4, r5, r6, r7, r8, r9, sl, fp, pc}
    7622:	bf00      	nop
    7624:	f3af 8000 	nop.w
    7628:	ffc00000 	.word	0xffc00000
    762c:	41dfffff 	.word	0x41dfffff
    7630:	94a03595 	.word	0x94a03595
    7634:	3fdfffff 	.word	0x3fdfffff
    7638:	35afe535 	.word	0x35afe535
    763c:	3fe00000 	.word	0x3fe00000
    7640:	94a03595 	.word	0x94a03595
    7644:	3fcfffff 	.word	0x3fcfffff
    7648:	7fe00000 	.word	0x7fe00000
    764c:	7c9fffff 	.word	0x7c9fffff
    7650:	7fefffff 	.word	0x7fefffff
    7654:	39500000 	.word	0x39500000

00007658 <strtof>:
strtof():
    7658:	460a      	mov	r2, r1
    765a:	490a      	ldr	r1, [pc, #40]	; (7684 <strtof+0x2c>)
    765c:	b538      	push	{r3, r4, r5, lr}
    765e:	4603      	mov	r3, r0
    7660:	6808      	ldr	r0, [r1, #0]
    7662:	4619      	mov	r1, r3
    7664:	f7ff f9dc 	bl	6a20 <_strtod_r>
    7668:	4604      	mov	r4, r0
    766a:	460d      	mov	r5, r1
    766c:	f7fd ffd2 	bl	5614 <__fpclassifyd>
    7670:	b918      	cbnz	r0, 767a <strtof+0x22>
    7672:	e8bd 4038 	ldmia.w	sp!, {r3, r4, r5, lr}
    7676:	f001 b971 	b.w	895c <nanf>
    767a:	4620      	mov	r0, r4
    767c:	4629      	mov	r1, r5
    767e:	f7fe fc8b 	bl	5f98 <__aeabi_d2f>
    7682:	bd38      	pop	{r3, r4, r5, pc}
    7684:	1fff0b14 	.word	0x1fff0b14

00007688 <_strtol_r>:
_strtol_r():
    7688:	4684      	mov	ip, r0
    768a:	483f      	ldr	r0, [pc, #252]	; (7788 <_strtol_r+0x100>)
    768c:	e92d 4ff0 	stmdb	sp!, {r4, r5, r6, r7, r8, r9, sl, fp, lr}
    7690:	f8d0 8000 	ldr.w	r8, [r0]
    7694:	460e      	mov	r6, r1
    7696:	4634      	mov	r4, r6
    7698:	f814 5b01 	ldrb.w	r5, [r4], #1
    769c:	eb08 0005 	add.w	r0, r8, r5
    76a0:	7840      	ldrb	r0, [r0, #1]
    76a2:	f000 0008 	and.w	r0, r0, #8
    76a6:	f000 07ff 	and.w	r7, r0, #255	; 0xff
    76aa:	b108      	cbz	r0, 76b0 <_strtol_r+0x28>
    76ac:	4626      	mov	r6, r4
    76ae:	e7f2      	b.n	7696 <_strtol_r+0xe>
    76b0:	2d2d      	cmp	r5, #45	; 0x2d
    76b2:	d103      	bne.n	76bc <_strtol_r+0x34>
    76b4:	1cb4      	adds	r4, r6, #2
    76b6:	7875      	ldrb	r5, [r6, #1]
    76b8:	2701      	movs	r7, #1
    76ba:	e003      	b.n	76c4 <_strtol_r+0x3c>
    76bc:	2d2b      	cmp	r5, #43	; 0x2b
    76be:	bf04      	itt	eq
    76c0:	7875      	ldrbeq	r5, [r6, #1]
    76c2:	1cb4      	addeq	r4, r6, #2
    76c4:	f033 0010 	bics.w	r0, r3, #16
    76c8:	d10d      	bne.n	76e6 <_strtol_r+0x5e>
    76ca:	2d30      	cmp	r5, #48	; 0x30
    76cc:	d108      	bne.n	76e0 <_strtol_r+0x58>
    76ce:	7820      	ldrb	r0, [r4, #0]
    76d0:	f000 00df 	and.w	r0, r0, #223	; 0xdf
    76d4:	2858      	cmp	r0, #88	; 0x58
    76d6:	d151      	bne.n	777c <_strtol_r+0xf4>
    76d8:	7865      	ldrb	r5, [r4, #1]
    76da:	2310      	movs	r3, #16
    76dc:	3402      	adds	r4, #2
    76de:	e002      	b.n	76e6 <_strtol_r+0x5e>
    76e0:	2b00      	cmp	r3, #0
    76e2:	bf08      	it	eq
    76e4:	230a      	moveq	r3, #10
    76e6:	2f00      	cmp	r7, #0
    76e8:	bf0c      	ite	eq
    76ea:	f06f 4a00 	mvneq.w	sl, #2147483648	; 0x80000000
    76ee:	f04f 4a00 	movne.w	sl, #2147483648	; 0x80000000
    76f2:	fbba f9f3 	udiv	r9, sl, r3
    76f6:	2600      	movs	r6, #0
    76f8:	fb03 aa19 	mls	sl, r3, r9, sl
    76fc:	4630      	mov	r0, r6
    76fe:	eb08 0b05 	add.w	fp, r8, r5
    7702:	f89b b001 	ldrb.w	fp, [fp, #1]
    7706:	f01b 0f04 	tst.w	fp, #4
    770a:	d001      	beq.n	7710 <_strtol_r+0x88>
    770c:	3d30      	subs	r5, #48	; 0x30
    770e:	e00b      	b.n	7728 <_strtol_r+0xa0>
    7710:	f01b 0b03 	ands.w	fp, fp, #3
    7714:	d01b      	beq.n	774e <_strtol_r+0xc6>
    7716:	f1bb 0f01 	cmp.w	fp, #1
    771a:	bf14      	ite	ne
    771c:	f04f 0b57 	movne.w	fp, #87	; 0x57
    7720:	f04f 0b37 	moveq.w	fp, #55	; 0x37
    7724:	ebcb 0505 	rsb	r5, fp, r5
    7728:	429d      	cmp	r5, r3
    772a:	da10      	bge.n	774e <_strtol_r+0xc6>
    772c:	f1b6 3fff 	cmp.w	r6, #4294967295
    7730:	d00a      	beq.n	7748 <_strtol_r+0xc0>
    7732:	4548      	cmp	r0, r9
    7734:	d806      	bhi.n	7744 <_strtol_r+0xbc>
    7736:	d101      	bne.n	773c <_strtol_r+0xb4>
    7738:	4555      	cmp	r5, sl
    773a:	dc03      	bgt.n	7744 <_strtol_r+0xbc>
    773c:	fb03 5000 	mla	r0, r3, r0, r5
    7740:	2601      	movs	r6, #1
    7742:	e001      	b.n	7748 <_strtol_r+0xc0>
    7744:	f04f 36ff 	mov.w	r6, #4294967295
    7748:	f814 5b01 	ldrb.w	r5, [r4], #1
    774c:	e7d7      	b.n	76fe <_strtol_r+0x76>
    774e:	1c73      	adds	r3, r6, #1
    7750:	d10c      	bne.n	776c <_strtol_r+0xe4>
    7752:	2f00      	cmp	r7, #0
    7754:	f04f 0322 	mov.w	r3, #34	; 0x22
    7758:	bf0c      	ite	eq
    775a:	f06f 4000 	mvneq.w	r0, #2147483648	; 0x80000000
    775e:	f04f 4000 	movne.w	r0, #2147483648	; 0x80000000
    7762:	f8cc 3000 	str.w	r3, [ip]
    7766:	b92a      	cbnz	r2, 7774 <_strtol_r+0xec>
    7768:	e8bd 8ff0 	ldmia.w	sp!, {r4, r5, r6, r7, r8, r9, sl, fp, pc}
    776c:	b107      	cbz	r7, 7770 <_strtol_r+0xe8>
    776e:	4240      	negs	r0, r0
    7770:	b142      	cbz	r2, 7784 <_strtol_r+0xfc>
    7772:	b106      	cbz	r6, 7776 <_strtol_r+0xee>
    7774:	1e61      	subs	r1, r4, #1
    7776:	6011      	str	r1, [r2, #0]
    7778:	e8bd 8ff0 	ldmia.w	sp!, {r4, r5, r6, r7, r8, r9, sl, fp, pc}
    777c:	2b00      	cmp	r3, #0
    777e:	bf08      	it	eq
    7780:	2308      	moveq	r3, #8
    7782:	e7b0      	b.n	76e6 <_strtol_r+0x5e>
    7784:	e8bd 8ff0 	ldmia.w	sp!, {r4, r5, r6, r7, r8, r9, sl, fp, pc}
    7788:	1fff0b18 	.word	0x1fff0b18

0000778c <strtol>:
strtol():
    778c:	b530      	push	{r4, r5, lr}
    778e:	4613      	mov	r3, r2
    7790:	4a04      	ldr	r2, [pc, #16]	; (77a4 <strtol+0x18>)
    7792:	4605      	mov	r5, r0
    7794:	460c      	mov	r4, r1
    7796:	6810      	ldr	r0, [r2, #0]
    7798:	4629      	mov	r1, r5
    779a:	4622      	mov	r2, r4
    779c:	e8bd 4030 	ldmia.w	sp!, {r4, r5, lr}
    77a0:	f7ff bf72 	b.w	7688 <_strtol_r>
    77a4:	1fff0b14 	.word	0x1fff0b14

000077a8 <tolower>:
tolower():
    77a8:	4b04      	ldr	r3, [pc, #16]	; (77bc <tolower+0x14>)
    77aa:	681b      	ldr	r3, [r3, #0]
    77ac:	4403      	add	r3, r0
    77ae:	785b      	ldrb	r3, [r3, #1]
    77b0:	f003 0303 	and.w	r3, r3, #3
    77b4:	2b01      	cmp	r3, #1
    77b6:	bf08      	it	eq
    77b8:	3020      	addeq	r0, #32
    77ba:	4770      	bx	lr
    77bc:	1fff0b18 	.word	0x1fff0b18

000077c0 <toupper>:
toupper():
    77c0:	4b04      	ldr	r3, [pc, #16]	; (77d4 <toupper+0x14>)
    77c2:	681b      	ldr	r3, [r3, #0]
    77c4:	4403      	add	r3, r0
    77c6:	785b      	ldrb	r3, [r3, #1]
    77c8:	f003 0303 	and.w	r3, r3, #3
    77cc:	2b02      	cmp	r3, #2
    77ce:	bf08      	it	eq
    77d0:	3820      	subeq	r0, #32
    77d2:	4770      	bx	lr
    77d4:	1fff0b18 	.word	0x1fff0b18

000077d8 <_vdiprintf_r>:
_vdprintf_r():
    77d8:	e92d 41f0 	stmdb	sp!, {r4, r5, r6, r7, r8, lr}
    77dc:	f5ad 7d04 	sub.w	sp, sp, #528	; 0x210
    77e0:	461d      	mov	r5, r3
    77e2:	f44f 7300 	mov.w	r3, #512	; 0x200
    77e6:	460f      	mov	r7, r1
    77e8:	4690      	mov	r8, r2
    77ea:	9303      	str	r3, [sp, #12]
    77ec:	4604      	mov	r4, r0
    77ee:	b118      	cbz	r0, 77f8 <_vdiprintf_r+0x20>
    77f0:	6983      	ldr	r3, [r0, #24]
    77f2:	b90b      	cbnz	r3, 77f8 <_vdiprintf_r+0x20>
    77f4:	f000 f8f8 	bl	79e8 <__sinit>
    77f8:	ae04      	add	r6, sp, #16
    77fa:	9500      	str	r5, [sp, #0]
    77fc:	4620      	mov	r0, r4
    77fe:	4631      	mov	r1, r6
    7800:	aa03      	add	r2, sp, #12
    7802:	4643      	mov	r3, r8
    7804:	f001 f8f1 	bl	89ea <_vasniprintf_r>
    7808:	4605      	mov	r5, r0
    780a:	b170      	cbz	r0, 782a <_vdiprintf_r+0x52>
    780c:	4620      	mov	r0, r4
    780e:	4639      	mov	r1, r7
    7810:	462a      	mov	r2, r5
    7812:	9b03      	ldr	r3, [sp, #12]
    7814:	f000 f81e 	bl	7854 <_write_r>
    7818:	42b5      	cmp	r5, r6
    781a:	9003      	str	r0, [sp, #12]
    781c:	d003      	beq.n	7826 <_vdiprintf_r+0x4e>
    781e:	4620      	mov	r0, r4
    7820:	4629      	mov	r1, r5
    7822:	f7fe ff99 	bl	6758 <_free_r>
    7826:	9803      	ldr	r0, [sp, #12]
    7828:	e001      	b.n	782e <_vdiprintf_r+0x56>
    782a:	f04f 30ff 	mov.w	r0, #4294967295
    782e:	f50d 7d04 	add.w	sp, sp, #528	; 0x210
    7832:	e8bd 81f0 	ldmia.w	sp!, {r4, r5, r6, r7, r8, pc}
    7836:	ffff b530 	vsli.32	d27, d16, #31

00007838 <vdiprintf>:
vdiprintf():
    7838:	b530      	push	{r4, r5, lr}
    783a:	4613      	mov	r3, r2
    783c:	4a04      	ldr	r2, [pc, #16]	; (7850 <vdiprintf+0x18>)
    783e:	4605      	mov	r5, r0
    7840:	460c      	mov	r4, r1
    7842:	6810      	ldr	r0, [r2, #0]
    7844:	4629      	mov	r1, r5
    7846:	4622      	mov	r2, r4
    7848:	e8bd 4030 	ldmia.w	sp!, {r4, r5, lr}
    784c:	f7ff bfc4 	b.w	77d8 <_vdiprintf_r>
    7850:	1fff0b14 	.word	0x1fff0b14

00007854 <_write_r>:
_write_r():
    7854:	b538      	push	{r3, r4, r5, lr}
    7856:	4c07      	ldr	r4, [pc, #28]	; (7874 <_write_r+0x20>)
    7858:	4605      	mov	r5, r0
    785a:	2000      	movs	r0, #0
    785c:	6020      	str	r0, [r4, #0]
    785e:	4608      	mov	r0, r1
    7860:	4611      	mov	r1, r2
    7862:	461a      	mov	r2, r3
    7864:	f7fd f890 	bl	4988 <_write>
    7868:	1c43      	adds	r3, r0, #1
    786a:	d102      	bne.n	7872 <_write_r+0x1e>
    786c:	6823      	ldr	r3, [r4, #0]
    786e:	b103      	cbz	r3, 7872 <_write_r+0x1e>
    7870:	602b      	str	r3, [r5, #0]
    7872:	bd38      	pop	{r3, r4, r5, pc}
    7874:	1fff10f0 	.word	0x1fff10f0

00007878 <fcvtbuf>:
fcvtbuf():
    7878:	e92d 4ff0 	stmdb	sp!, {r4, r5, r6, r7, r8, r9, sl, fp, lr}
    787c:	b089      	sub	sp, #36	; 0x24
    787e:	469a      	mov	sl, r3
    7880:	f8dd 804c 	ldr.w	r8, [sp, #76]	; 0x4c
    7884:	4b2b      	ldr	r3, [pc, #172]	; (7934 <fcvtbuf+0xbc>)
    7886:	f8dd b048 	ldr.w	fp, [sp, #72]	; 0x48
    788a:	681e      	ldr	r6, [r3, #0]
    788c:	4604      	mov	r4, r0
    788e:	460d      	mov	r5, r1
    7890:	4691      	mov	r9, r2
    7892:	f1b8 0f00 	cmp.w	r8, #0
    7896:	d110      	bne.n	78ba <fcvtbuf+0x42>
    7898:	6b33      	ldr	r3, [r6, #48]	; 0x30
    789a:	3223      	adds	r2, #35	; 0x23
    789c:	4293      	cmp	r3, r2
    789e:	dc0a      	bgt.n	78b6 <fcvtbuf+0x3e>
    78a0:	f109 0724 	add.w	r7, r9, #36	; 0x24
    78a4:	4630      	mov	r0, r6
    78a6:	6b71      	ldr	r1, [r6, #52]	; 0x34
    78a8:	463a      	mov	r2, r7
    78aa:	f001 f830 	bl	890e <_realloc_r>
    78ae:	2800      	cmp	r0, #0
    78b0:	d03d      	beq.n	792e <fcvtbuf+0xb6>
    78b2:	6337      	str	r7, [r6, #48]	; 0x30
    78b4:	6370      	str	r0, [r6, #52]	; 0x34
    78b6:	f8d6 8034 	ldr.w	r8, [r6, #52]	; 0x34
    78ba:	4620      	mov	r0, r4
    78bc:	4629      	mov	r1, r5
    78be:	2200      	movs	r2, #0
    78c0:	4b1d      	ldr	r3, [pc, #116]	; (7938 <fcvtbuf+0xc0>)
    78c2:	f7fe faf9 	bl	5eb8 <__aeabi_dcmplt>
    78c6:	af07      	add	r7, sp, #28
    78c8:	b140      	cbz	r0, 78dc <fcvtbuf+0x64>
    78ca:	4620      	mov	r0, r4
    78cc:	4629      	mov	r1, r5
    78ce:	2200      	movs	r2, #0
    78d0:	4b1a      	ldr	r3, [pc, #104]	; (793c <fcvtbuf+0xc4>)
    78d2:	f7fe fb0f 	bl	5ef4 <__aeabi_dcmpgt>
    78d6:	b108      	cbz	r0, 78dc <fcvtbuf+0x64>
    78d8:	2302      	movs	r3, #2
    78da:	e000      	b.n	78de <fcvtbuf+0x66>
    78dc:	2303      	movs	r3, #3
    78de:	e88d 0e08 	stmia.w	sp, {r3, r9, sl, fp}
    78e2:	9704      	str	r7, [sp, #16]
    78e4:	462b      	mov	r3, r5
    78e6:	4630      	mov	r0, r6
    78e8:	4622      	mov	r2, r4
    78ea:	f001 f94d 	bl	8b88 <_dtoa_r>
    78ee:	f8da 1000 	ldr.w	r1, [sl]
    78f2:	4249      	negs	r1, r1
    78f4:	460b      	mov	r3, r1
    78f6:	1a46      	subs	r6, r0, r1
    78f8:	9d07      	ldr	r5, [sp, #28]
    78fa:	441e      	add	r6, r3
    78fc:	ebc1 0208 	rsb	r2, r1, r8
    7900:	42b5      	cmp	r5, r6
    7902:	f1c1 0400 	rsb	r4, r1, #0
    7906:	441a      	add	r2, r3
    7908:	d905      	bls.n	7916 <fcvtbuf+0x9e>
    790a:	1902      	adds	r2, r0, r4
    790c:	4444      	add	r4, r8
    790e:	5cd2      	ldrb	r2, [r2, r3]
    7910:	54e2      	strb	r2, [r4, r3]
    7912:	3301      	adds	r3, #1
    7914:	e7ef      	b.n	78f6 <fcvtbuf+0x7e>
    7916:	4610      	mov	r0, r2
    7918:	1a19      	subs	r1, r3, r0
    791a:	4411      	add	r1, r2
    791c:	4549      	cmp	r1, r9
    791e:	da03      	bge.n	7928 <fcvtbuf+0xb0>
    7920:	2130      	movs	r1, #48	; 0x30
    7922:	f802 1b01 	strb.w	r1, [r2], #1
    7926:	e7f7      	b.n	7918 <fcvtbuf+0xa0>
    7928:	2300      	movs	r3, #0
    792a:	7013      	strb	r3, [r2, #0]
    792c:	4640      	mov	r0, r8
    792e:	b009      	add	sp, #36	; 0x24
    7930:	e8bd 8ff0 	ldmia.w	sp!, {r4, r5, r6, r7, r8, r9, sl, fp, pc}
    7934:	1fff0b14 	.word	0x1fff0b14
    7938:	3ff00000 	.word	0x3ff00000
    793c:	bff00000 	.word	0xbff00000

00007940 <_cleanup_r>:
_cleanup_r():
    7940:	b5f8      	push	{r3, r4, r5, r6, r7, lr}
    7942:	4607      	mov	r7, r0
    7944:	f100 0448 	add.w	r4, r0, #72	; 0x48
    7948:	b194      	cbz	r4, 7970 <_cleanup_r+0x30>
    794a:	68a5      	ldr	r5, [r4, #8]
    794c:	6866      	ldr	r6, [r4, #4]
    794e:	3e01      	subs	r6, #1
    7950:	d40c      	bmi.n	796c <_cleanup_r+0x2c>
    7952:	89ab      	ldrh	r3, [r5, #12]
    7954:	2b01      	cmp	r3, #1
    7956:	d907      	bls.n	7968 <_cleanup_r+0x28>
    7958:	f9b5 300e 	ldrsh.w	r3, [r5, #14]
    795c:	3301      	adds	r3, #1
    795e:	d003      	beq.n	7968 <_cleanup_r+0x28>
    7960:	4638      	mov	r0, r7
    7962:	4629      	mov	r1, r5
    7964:	f001 ff54 	bl	9810 <_fflush_r>
    7968:	3568      	adds	r5, #104	; 0x68
    796a:	e7f0      	b.n	794e <_cleanup_r+0xe>
    796c:	6824      	ldr	r4, [r4, #0]
    796e:	e7eb      	b.n	7948 <_cleanup_r+0x8>
    7970:	bdf8      	pop	{r3, r4, r5, r6, r7, pc}
    7972:	ffff 2300 	vsubw.u<illegal width 64>	q9, <illegal reg q7.5>, d0

00007974 <std.isra.0>:
std.isra.0():
    7974:	2300      	movs	r3, #0
    7976:	b510      	push	{r4, lr}
    7978:	4604      	mov	r4, r0
    797a:	6003      	str	r3, [r0, #0]
    797c:	6043      	str	r3, [r0, #4]
    797e:	6083      	str	r3, [r0, #8]
    7980:	8181      	strh	r1, [r0, #12]
    7982:	6643      	str	r3, [r0, #100]	; 0x64
    7984:	81c2      	strh	r2, [r0, #14]
    7986:	6103      	str	r3, [r0, #16]
    7988:	6143      	str	r3, [r0, #20]
    798a:	6183      	str	r3, [r0, #24]
    798c:	4619      	mov	r1, r3
    798e:	305c      	adds	r0, #92	; 0x5c
    7990:	2208      	movs	r2, #8
    7992:	f7fe fed9 	bl	6748 <memset>
    7996:	4b05      	ldr	r3, [pc, #20]	; (79ac <std.isra.0+0x38>)
    7998:	6263      	str	r3, [r4, #36]	; 0x24
    799a:	4b05      	ldr	r3, [pc, #20]	; (79b0 <std.isra.0+0x3c>)
    799c:	62a3      	str	r3, [r4, #40]	; 0x28
    799e:	4b05      	ldr	r3, [pc, #20]	; (79b4 <std.isra.0+0x40>)
    79a0:	62e3      	str	r3, [r4, #44]	; 0x2c
    79a2:	4b05      	ldr	r3, [pc, #20]	; (79b8 <std.isra.0+0x44>)
    79a4:	6224      	str	r4, [r4, #32]
    79a6:	6323      	str	r3, [r4, #48]	; 0x30
    79a8:	bd10      	pop	{r4, pc}
    79aa:	bf00      	nop
    79ac:	00008965 	.word	0x00008965
    79b0:	00008987 	.word	0x00008987
    79b4:	000089bf 	.word	0x000089bf
    79b8:	000089e3 	.word	0x000089e3

000079bc <__sfmoreglue>:
__sfmoreglue():
    79bc:	b570      	push	{r4, r5, r6, lr}
    79be:	1e4b      	subs	r3, r1, #1
    79c0:	2568      	movs	r5, #104	; 0x68
    79c2:	435d      	muls	r5, r3
    79c4:	460e      	mov	r6, r1
    79c6:	f105 0174 	add.w	r1, r5, #116	; 0x74
    79ca:	f7fe ff09 	bl	67e0 <_malloc_r>
    79ce:	4604      	mov	r4, r0
    79d0:	b140      	cbz	r0, 79e4 <__sfmoreglue+0x28>
    79d2:	2100      	movs	r1, #0
    79d4:	e880 0042 	stmia.w	r0, {r1, r6}
    79d8:	300c      	adds	r0, #12
    79da:	60a0      	str	r0, [r4, #8]
    79dc:	f105 0268 	add.w	r2, r5, #104	; 0x68
    79e0:	f7fe feb2 	bl	6748 <memset>
    79e4:	4620      	mov	r0, r4
    79e6:	bd70      	pop	{r4, r5, r6, pc}

000079e8 <__sinit>:
__sinit():
    79e8:	6983      	ldr	r3, [r0, #24]
    79ea:	b510      	push	{r4, lr}
    79ec:	4604      	mov	r4, r0
    79ee:	bb33      	cbnz	r3, 7a3e <__sinit+0x56>
    79f0:	6483      	str	r3, [r0, #72]	; 0x48
    79f2:	64c3      	str	r3, [r0, #76]	; 0x4c
    79f4:	6503      	str	r3, [r0, #80]	; 0x50
    79f6:	4b12      	ldr	r3, [pc, #72]	; (7a40 <__sinit+0x58>)
    79f8:	4a12      	ldr	r2, [pc, #72]	; (7a44 <__sinit+0x5c>)
    79fa:	681b      	ldr	r3, [r3, #0]
    79fc:	6282      	str	r2, [r0, #40]	; 0x28
    79fe:	4298      	cmp	r0, r3
    7a00:	bf04      	itt	eq
    7a02:	2301      	moveq	r3, #1
    7a04:	6183      	streq	r3, [r0, #24]
    7a06:	f000 f81f 	bl	7a48 <__sfp>
    7a0a:	6060      	str	r0, [r4, #4]
    7a0c:	4620      	mov	r0, r4
    7a0e:	f000 f81b 	bl	7a48 <__sfp>
    7a12:	60a0      	str	r0, [r4, #8]
    7a14:	4620      	mov	r0, r4
    7a16:	f000 f817 	bl	7a48 <__sfp>
    7a1a:	2104      	movs	r1, #4
    7a1c:	60e0      	str	r0, [r4, #12]
    7a1e:	2200      	movs	r2, #0
    7a20:	6860      	ldr	r0, [r4, #4]
    7a22:	f7ff ffa7 	bl	7974 <std.isra.0>
    7a26:	68a0      	ldr	r0, [r4, #8]
    7a28:	2109      	movs	r1, #9
    7a2a:	2201      	movs	r2, #1
    7a2c:	f7ff ffa2 	bl	7974 <std.isra.0>
    7a30:	68e0      	ldr	r0, [r4, #12]
    7a32:	2112      	movs	r1, #18
    7a34:	2202      	movs	r2, #2
    7a36:	f7ff ff9d 	bl	7974 <std.isra.0>
    7a3a:	2301      	movs	r3, #1
    7a3c:	61a3      	str	r3, [r4, #24]
    7a3e:	bd10      	pop	{r4, pc}
    7a40:	0000a3d4 	.word	0x0000a3d4
    7a44:	00007941 	.word	0x00007941

00007a48 <__sfp>:
__sfp():
    7a48:	b5f8      	push	{r3, r4, r5, r6, r7, lr}
    7a4a:	4b1b      	ldr	r3, [pc, #108]	; (7ab8 <__sfp+0x70>)
    7a4c:	681e      	ldr	r6, [r3, #0]
    7a4e:	69b3      	ldr	r3, [r6, #24]
    7a50:	4607      	mov	r7, r0
    7a52:	b913      	cbnz	r3, 7a5a <__sfp+0x12>
    7a54:	4630      	mov	r0, r6
    7a56:	f7ff ffc7 	bl	79e8 <__sinit>
    7a5a:	3648      	adds	r6, #72	; 0x48
    7a5c:	68b4      	ldr	r4, [r6, #8]
    7a5e:	6873      	ldr	r3, [r6, #4]
    7a60:	3b01      	subs	r3, #1
    7a62:	d404      	bmi.n	7a6e <__sfp+0x26>
    7a64:	f9b4 500c 	ldrsh.w	r5, [r4, #12]
    7a68:	b175      	cbz	r5, 7a88 <__sfp+0x40>
    7a6a:	3468      	adds	r4, #104	; 0x68
    7a6c:	e7f8      	b.n	7a60 <__sfp+0x18>
    7a6e:	6833      	ldr	r3, [r6, #0]
    7a70:	b92b      	cbnz	r3, 7a7e <__sfp+0x36>
    7a72:	4638      	mov	r0, r7
    7a74:	2104      	movs	r1, #4
    7a76:	f7ff ffa1 	bl	79bc <__sfmoreglue>
    7a7a:	6030      	str	r0, [r6, #0]
    7a7c:	b108      	cbz	r0, 7a82 <__sfp+0x3a>
    7a7e:	6836      	ldr	r6, [r6, #0]
    7a80:	e7ec      	b.n	7a5c <__sfp+0x14>
    7a82:	230c      	movs	r3, #12
    7a84:	603b      	str	r3, [r7, #0]
    7a86:	bdf8      	pop	{r3, r4, r5, r6, r7, pc}
    7a88:	f64f 73ff 	movw	r3, #65535	; 0xffff
    7a8c:	81e3      	strh	r3, [r4, #14]
    7a8e:	2301      	movs	r3, #1
    7a90:	81a3      	strh	r3, [r4, #12]
    7a92:	6665      	str	r5, [r4, #100]	; 0x64
    7a94:	6025      	str	r5, [r4, #0]
    7a96:	60a5      	str	r5, [r4, #8]
    7a98:	6065      	str	r5, [r4, #4]
    7a9a:	6125      	str	r5, [r4, #16]
    7a9c:	6165      	str	r5, [r4, #20]
    7a9e:	61a5      	str	r5, [r4, #24]
    7aa0:	f104 005c 	add.w	r0, r4, #92	; 0x5c
    7aa4:	4629      	mov	r1, r5
    7aa6:	2208      	movs	r2, #8
    7aa8:	f7fe fe4e 	bl	6748 <memset>
    7aac:	6365      	str	r5, [r4, #52]	; 0x34
    7aae:	63a5      	str	r5, [r4, #56]	; 0x38
    7ab0:	64a5      	str	r5, [r4, #72]	; 0x48
    7ab2:	64e5      	str	r5, [r4, #76]	; 0x4c
    7ab4:	4620      	mov	r0, r4
    7ab6:	bdf8      	pop	{r3, r4, r5, r6, r7, pc}
    7ab8:	0000a3d4 	.word	0x0000a3d4

00007abc <rshift>:
rshift():
    7abc:	b5f0      	push	{r4, r5, r6, r7, lr}
    7abe:	6906      	ldr	r6, [r0, #16]
    7ac0:	114b      	asrs	r3, r1, #5
    7ac2:	42b3      	cmp	r3, r6
    7ac4:	f100 0214 	add.w	r2, r0, #20
    7ac8:	da26      	bge.n	7b18 <rshift+0x5c>
    7aca:	f011 011f 	ands.w	r1, r1, #31
    7ace:	eb02 0686 	add.w	r6, r2, r6, lsl #2
    7ad2:	eb02 0483 	add.w	r4, r2, r3, lsl #2
    7ad6:	d101      	bne.n	7adc <rshift+0x20>
    7ad8:	4613      	mov	r3, r2
    7ada:	e016      	b.n	7b0a <rshift+0x4e>
    7adc:	f852 5023 	ldr.w	r5, [r2, r3, lsl #2]
    7ae0:	f1c1 0c20 	rsb	ip, r1, #32
    7ae4:	3404      	adds	r4, #4
    7ae6:	40cd      	lsrs	r5, r1
    7ae8:	4613      	mov	r3, r2
    7aea:	42b4      	cmp	r4, r6
    7aec:	d209      	bcs.n	7b02 <rshift+0x46>
    7aee:	6827      	ldr	r7, [r4, #0]
    7af0:	fa07 f70c 	lsl.w	r7, r7, ip
    7af4:	433d      	orrs	r5, r7
    7af6:	f843 5b04 	str.w	r5, [r3], #4
    7afa:	f854 5b04 	ldr.w	r5, [r4], #4
    7afe:	40cd      	lsrs	r5, r1
    7b00:	e7f3      	b.n	7aea <rshift+0x2e>
    7b02:	601d      	str	r5, [r3, #0]
    7b04:	b14d      	cbz	r5, 7b1a <rshift+0x5e>
    7b06:	3304      	adds	r3, #4
    7b08:	e007      	b.n	7b1a <rshift+0x5e>
    7b0a:	42b4      	cmp	r4, r6
    7b0c:	d205      	bcs.n	7b1a <rshift+0x5e>
    7b0e:	f854 1b04 	ldr.w	r1, [r4], #4
    7b12:	f843 1b04 	str.w	r1, [r3], #4
    7b16:	e7f8      	b.n	7b0a <rshift+0x4e>
    7b18:	4613      	mov	r3, r2
    7b1a:	1a9b      	subs	r3, r3, r2
    7b1c:	109b      	asrs	r3, r3, #2
    7b1e:	6103      	str	r3, [r0, #16]
    7b20:	b903      	cbnz	r3, 7b24 <rshift+0x68>
    7b22:	6143      	str	r3, [r0, #20]
    7b24:	bdf0      	pop	{r4, r5, r6, r7, pc}

00007b26 <__hexdig_fun>:
__hexdig_fun():
    7b26:	f1a0 0330 	sub.w	r3, r0, #48	; 0x30
    7b2a:	2b09      	cmp	r3, #9
    7b2c:	d801      	bhi.n	7b32 <__hexdig_fun+0xc>
    7b2e:	3820      	subs	r0, #32
    7b30:	e00a      	b.n	7b48 <__hexdig_fun+0x22>
    7b32:	f1a0 0361 	sub.w	r3, r0, #97	; 0x61
    7b36:	2b05      	cmp	r3, #5
    7b38:	d801      	bhi.n	7b3e <__hexdig_fun+0x18>
    7b3a:	3847      	subs	r0, #71	; 0x47
    7b3c:	e004      	b.n	7b48 <__hexdig_fun+0x22>
    7b3e:	f1a0 0341 	sub.w	r3, r0, #65	; 0x41
    7b42:	2b05      	cmp	r3, #5
    7b44:	d802      	bhi.n	7b4c <__hexdig_fun+0x26>
    7b46:	3827      	subs	r0, #39	; 0x27
    7b48:	b2c0      	uxtb	r0, r0
    7b4a:	4770      	bx	lr
    7b4c:	2000      	movs	r0, #0
    7b4e:	4770      	bx	lr

00007b50 <__gethex>:
__gethex():
    7b50:	e92d 4ff0 	stmdb	sp!, {r4, r5, r6, r7, r8, r9, sl, fp, lr}
    7b54:	b089      	sub	sp, #36	; 0x24
    7b56:	4690      	mov	r8, r2
    7b58:	9105      	str	r1, [sp, #20]
    7b5a:	9306      	str	r3, [sp, #24]
    7b5c:	9003      	str	r0, [sp, #12]
    7b5e:	f000 fac9 	bl	80f4 <_localeconv_r>
    7b62:	6800      	ldr	r0, [r0, #0]
    7b64:	9004      	str	r0, [sp, #16]
    7b66:	f7fe fec8 	bl	68fa <strlen>
    7b6a:	9b04      	ldr	r3, [sp, #16]
    7b6c:	9905      	ldr	r1, [sp, #20]
    7b6e:	9002      	str	r0, [sp, #8]
    7b70:	4403      	add	r3, r0
    7b72:	f04f 0b00 	mov.w	fp, #0
    7b76:	f813 3c01 	ldrb.w	r3, [r3, #-1]
    7b7a:	9307      	str	r3, [sp, #28]
    7b7c:	680b      	ldr	r3, [r1, #0]
    7b7e:	3302      	adds	r3, #2
    7b80:	461f      	mov	r7, r3
    7b82:	f813 0b01 	ldrb.w	r0, [r3], #1
    7b86:	2830      	cmp	r0, #48	; 0x30
    7b88:	d102      	bne.n	7b90 <__gethex+0x40>
    7b8a:	f10b 0b01 	add.w	fp, fp, #1
    7b8e:	e7f7      	b.n	7b80 <__gethex+0x30>
    7b90:	f7ff ffc9 	bl	7b26 <__hexdig_fun>
    7b94:	4606      	mov	r6, r0
    7b96:	b9f8      	cbnz	r0, 7bd8 <__gethex+0x88>
    7b98:	4638      	mov	r0, r7
    7b9a:	9904      	ldr	r1, [sp, #16]
    7b9c:	9a02      	ldr	r2, [sp, #8]
    7b9e:	f7fe feb4 	bl	690a <strncmp>
    7ba2:	2800      	cmp	r0, #0
    7ba4:	d139      	bne.n	7c1a <__gethex+0xca>
    7ba6:	9b02      	ldr	r3, [sp, #8]
    7ba8:	9d02      	ldr	r5, [sp, #8]
    7baa:	5cf8      	ldrb	r0, [r7, r3]
    7bac:	443d      	add	r5, r7
    7bae:	f7ff ffba 	bl	7b26 <__hexdig_fun>
    7bb2:	2800      	cmp	r0, #0
    7bb4:	d033      	beq.n	7c1e <__gethex+0xce>
    7bb6:	462b      	mov	r3, r5
    7bb8:	7818      	ldrb	r0, [r3, #0]
    7bba:	2830      	cmp	r0, #48	; 0x30
    7bbc:	461f      	mov	r7, r3
    7bbe:	f103 0301 	add.w	r3, r3, #1
    7bc2:	d0f9      	beq.n	7bb8 <__gethex+0x68>
    7bc4:	f7ff ffaf 	bl	7b26 <__hexdig_fun>
    7bc8:	f1d0 0401 	rsbs	r4, r0, #1
    7bcc:	bf38      	it	cc
    7bce:	2400      	movcc	r4, #0
    7bd0:	462e      	mov	r6, r5
    7bd2:	f04f 0b01 	mov.w	fp, #1
    7bd6:	e001      	b.n	7bdc <__gethex+0x8c>
    7bd8:	2400      	movs	r4, #0
    7bda:	4626      	mov	r6, r4
    7bdc:	46b9      	mov	r9, r7
    7bde:	464d      	mov	r5, r9
    7be0:	f109 0901 	add.w	r9, r9, #1
    7be4:	7828      	ldrb	r0, [r5, #0]
    7be6:	f7ff ff9e 	bl	7b26 <__hexdig_fun>
    7bea:	2800      	cmp	r0, #0
    7bec:	d1f7      	bne.n	7bde <__gethex+0x8e>
    7bee:	4628      	mov	r0, r5
    7bf0:	9904      	ldr	r1, [sp, #16]
    7bf2:	9a02      	ldr	r2, [sp, #8]
    7bf4:	f7fe fe89 	bl	690a <strncmp>
    7bf8:	b958      	cbnz	r0, 7c12 <__gethex+0xc2>
    7bfa:	b95e      	cbnz	r6, 7c14 <__gethex+0xc4>
    7bfc:	9e02      	ldr	r6, [sp, #8]
    7bfe:	442e      	add	r6, r5
    7c00:	46b1      	mov	r9, r6
    7c02:	464d      	mov	r5, r9
    7c04:	f109 0901 	add.w	r9, r9, #1
    7c08:	7828      	ldrb	r0, [r5, #0]
    7c0a:	f7ff ff8c 	bl	7b26 <__hexdig_fun>
    7c0e:	2800      	cmp	r0, #0
    7c10:	d1f7      	bne.n	7c02 <__gethex+0xb2>
    7c12:	b136      	cbz	r6, 7c22 <__gethex+0xd2>
    7c14:	1b76      	subs	r6, r6, r5
    7c16:	00b6      	lsls	r6, r6, #2
    7c18:	e003      	b.n	7c22 <__gethex+0xd2>
    7c1a:	463d      	mov	r5, r7
    7c1c:	e000      	b.n	7c20 <__gethex+0xd0>
    7c1e:	4606      	mov	r6, r0
    7c20:	2401      	movs	r4, #1
    7c22:	782b      	ldrb	r3, [r5, #0]
    7c24:	2b50      	cmp	r3, #80	; 0x50
    7c26:	d001      	beq.n	7c2c <__gethex+0xdc>
    7c28:	2b70      	cmp	r3, #112	; 0x70
    7c2a:	d134      	bne.n	7c96 <__gethex+0x146>
    7c2c:	786b      	ldrb	r3, [r5, #1]
    7c2e:	2b2b      	cmp	r3, #43	; 0x2b
    7c30:	d005      	beq.n	7c3e <__gethex+0xee>
    7c32:	2b2d      	cmp	r3, #45	; 0x2d
    7c34:	d005      	beq.n	7c42 <__gethex+0xf2>
    7c36:	f105 0901 	add.w	r9, r5, #1
    7c3a:	2100      	movs	r1, #0
    7c3c:	e004      	b.n	7c48 <__gethex+0xf8>
    7c3e:	2100      	movs	r1, #0
    7c40:	e000      	b.n	7c44 <__gethex+0xf4>
    7c42:	2101      	movs	r1, #1
    7c44:	f105 0902 	add.w	r9, r5, #2
    7c48:	f899 0000 	ldrb.w	r0, [r9]
    7c4c:	9101      	str	r1, [sp, #4]
    7c4e:	f7ff ff6a 	bl	7b26 <__hexdig_fun>
    7c52:	1e43      	subs	r3, r0, #1
    7c54:	b2db      	uxtb	r3, r3
    7c56:	2b18      	cmp	r3, #24
    7c58:	9901      	ldr	r1, [sp, #4]
    7c5a:	d81c      	bhi.n	7c96 <__gethex+0x146>
    7c5c:	f1a0 0a10 	sub.w	sl, r0, #16
    7c60:	f109 0301 	add.w	r3, r9, #1
    7c64:	4699      	mov	r9, r3
    7c66:	3301      	adds	r3, #1
    7c68:	f899 0000 	ldrb.w	r0, [r9]
    7c6c:	9101      	str	r1, [sp, #4]
    7c6e:	9300      	str	r3, [sp, #0]
    7c70:	f7ff ff59 	bl	7b26 <__hexdig_fun>
    7c74:	1e42      	subs	r2, r0, #1
    7c76:	b2d2      	uxtb	r2, r2
    7c78:	2a18      	cmp	r2, #24
    7c7a:	9901      	ldr	r1, [sp, #4]
    7c7c:	9b00      	ldr	r3, [sp, #0]
    7c7e:	d805      	bhi.n	7c8c <__gethex+0x13c>
    7c80:	220a      	movs	r2, #10
    7c82:	fb02 0a0a 	mla	sl, r2, sl, r0
    7c86:	f1aa 0a10 	sub.w	sl, sl, #16
    7c8a:	e7eb      	b.n	7c64 <__gethex+0x114>
    7c8c:	b109      	cbz	r1, 7c92 <__gethex+0x142>
    7c8e:	f1ca 0a00 	rsb	sl, sl, #0
    7c92:	4456      	add	r6, sl
    7c94:	e000      	b.n	7c98 <__gethex+0x148>
    7c96:	46a9      	mov	r9, r5
    7c98:	9905      	ldr	r1, [sp, #20]
    7c9a:	f8c1 9000 	str.w	r9, [r1]
    7c9e:	b12c      	cbz	r4, 7cac <__gethex+0x15c>
    7ca0:	f1bb 0f00 	cmp.w	fp, #0
    7ca4:	bf0c      	ite	eq
    7ca6:	2006      	moveq	r0, #6
    7ca8:	2000      	movne	r0, #0
    7caa:	e17d      	b.n	7fa8 <__gethex+0x458>
    7cac:	1beb      	subs	r3, r5, r7
    7cae:	3b01      	subs	r3, #1
    7cb0:	4621      	mov	r1, r4
    7cb2:	2b07      	cmp	r3, #7
    7cb4:	dd02      	ble.n	7cbc <__gethex+0x16c>
    7cb6:	3101      	adds	r1, #1
    7cb8:	105b      	asrs	r3, r3, #1
    7cba:	e7fa      	b.n	7cb2 <__gethex+0x162>
    7cbc:	9803      	ldr	r0, [sp, #12]
    7cbe:	f000 fa1d 	bl	80fc <_Balloc>
    7cc2:	f04f 0900 	mov.w	r9, #0
    7cc6:	f100 0a14 	add.w	sl, r0, #20
    7cca:	4604      	mov	r4, r0
    7ccc:	4653      	mov	r3, sl
    7cce:	46cb      	mov	fp, r9
    7cd0:	42bd      	cmp	r5, r7
    7cd2:	d933      	bls.n	7d3c <__gethex+0x1ec>
    7cd4:	1e6a      	subs	r2, r5, #1
    7cd6:	9205      	str	r2, [sp, #20]
    7cd8:	9907      	ldr	r1, [sp, #28]
    7cda:	f815 2c01 	ldrb.w	r2, [r5, #-1]
    7cde:	428a      	cmp	r2, r1
    7ce0:	d009      	beq.n	7cf6 <__gethex+0x1a6>
    7ce2:	f1bb 0f20 	cmp.w	fp, #32
    7ce6:	d117      	bne.n	7d18 <__gethex+0x1c8>
    7ce8:	f8c3 9000 	str.w	r9, [r3]
    7cec:	f04f 0900 	mov.w	r9, #0
    7cf0:	3304      	adds	r3, #4
    7cf2:	46cb      	mov	fp, r9
    7cf4:	e010      	b.n	7d18 <__gethex+0x1c8>
    7cf6:	9a02      	ldr	r2, [sp, #8]
    7cf8:	9905      	ldr	r1, [sp, #20]
    7cfa:	f1c2 0c01 	rsb	ip, r2, #1
    7cfe:	448c      	add	ip, r1
    7d00:	45bc      	cmp	ip, r7
    7d02:	d3ee      	bcc.n	7ce2 <__gethex+0x192>
    7d04:	4660      	mov	r0, ip
    7d06:	9904      	ldr	r1, [sp, #16]
    7d08:	e88d 1008 	stmia.w	sp, {r3, ip}
    7d0c:	f7fe fdfd 	bl	690a <strncmp>
    7d10:	e89d 1008 	ldmia.w	sp, {r3, ip}
    7d14:	b180      	cbz	r0, 7d38 <__gethex+0x1e8>
    7d16:	e7e4      	b.n	7ce2 <__gethex+0x192>
    7d18:	f815 0c01 	ldrb.w	r0, [r5, #-1]
    7d1c:	9300      	str	r3, [sp, #0]
    7d1e:	f7ff ff02 	bl	7b26 <__hexdig_fun>
    7d22:	f000 000f 	and.w	r0, r0, #15
    7d26:	fa00 f00b 	lsl.w	r0, r0, fp
    7d2a:	f8dd c014 	ldr.w	ip, [sp, #20]
    7d2e:	9b00      	ldr	r3, [sp, #0]
    7d30:	ea49 0900 	orr.w	r9, r9, r0
    7d34:	f10b 0b04 	add.w	fp, fp, #4
    7d38:	4665      	mov	r5, ip
    7d3a:	e7c9      	b.n	7cd0 <__gethex+0x180>
    7d3c:	f843 9b04 	str.w	r9, [r3], #4
    7d40:	ebca 0303 	rsb	r3, sl, r3
    7d44:	109b      	asrs	r3, r3, #2
    7d46:	6123      	str	r3, [r4, #16]
    7d48:	4648      	mov	r0, r9
    7d4a:	015f      	lsls	r7, r3, #5
    7d4c:	f000 fa9e 	bl	828c <__hi0bits>
    7d50:	f8d8 5000 	ldr.w	r5, [r8]
    7d54:	1a38      	subs	r0, r7, r0
    7d56:	42a8      	cmp	r0, r5
    7d58:	dd26      	ble.n	7da8 <__gethex+0x258>
    7d5a:	1b47      	subs	r7, r0, r5
    7d5c:	4639      	mov	r1, r7
    7d5e:	4620      	mov	r0, r4
    7d60:	f000 fda3 	bl	88aa <__any_on>
    7d64:	b1c8      	cbz	r0, 7d9a <__gethex+0x24a>
    7d66:	1e7b      	subs	r3, r7, #1
    7d68:	115a      	asrs	r2, r3, #5
    7d6a:	f003 011f 	and.w	r1, r3, #31
    7d6e:	f04f 0901 	mov.w	r9, #1
    7d72:	f85a 2022 	ldr.w	r2, [sl, r2, lsl #2]
    7d76:	fa09 f101 	lsl.w	r1, r9, r1
    7d7a:	4211      	tst	r1, r2
    7d7c:	d00e      	beq.n	7d9c <__gethex+0x24c>
    7d7e:	454b      	cmp	r3, r9
    7d80:	dc02      	bgt.n	7d88 <__gethex+0x238>
    7d82:	f04f 0902 	mov.w	r9, #2
    7d86:	e009      	b.n	7d9c <__gethex+0x24c>
    7d88:	4620      	mov	r0, r4
    7d8a:	1eb9      	subs	r1, r7, #2
    7d8c:	f000 fd8d 	bl	88aa <__any_on>
    7d90:	2800      	cmp	r0, #0
    7d92:	d0f6      	beq.n	7d82 <__gethex+0x232>
    7d94:	f04f 0903 	mov.w	r9, #3
    7d98:	e000      	b.n	7d9c <__gethex+0x24c>
    7d9a:	4681      	mov	r9, r0
    7d9c:	4620      	mov	r0, r4
    7d9e:	4639      	mov	r1, r7
    7da0:	f7ff fe8c 	bl	7abc <rshift>
    7da4:	443e      	add	r6, r7
    7da6:	e00c      	b.n	7dc2 <__gethex+0x272>
    7da8:	da09      	bge.n	7dbe <__gethex+0x26e>
    7daa:	1a2f      	subs	r7, r5, r0
    7dac:	4621      	mov	r1, r4
    7dae:	9803      	ldr	r0, [sp, #12]
    7db0:	463a      	mov	r2, r7
    7db2:	f000 fba7 	bl	8504 <__lshift>
    7db6:	1bf6      	subs	r6, r6, r7
    7db8:	4604      	mov	r4, r0
    7dba:	f100 0a14 	add.w	sl, r0, #20
    7dbe:	f04f 0900 	mov.w	r9, #0
    7dc2:	f8d8 3008 	ldr.w	r3, [r8, #8]
    7dc6:	429e      	cmp	r6, r3
    7dc8:	dd08      	ble.n	7ddc <__gethex+0x28c>
    7dca:	9803      	ldr	r0, [sp, #12]
    7dcc:	4621      	mov	r1, r4
    7dce:	f000 f9ca 	bl	8166 <_Bfree>
    7dd2:	9a12      	ldr	r2, [sp, #72]	; 0x48
    7dd4:	2300      	movs	r3, #0
    7dd6:	6013      	str	r3, [r2, #0]
    7dd8:	20a3      	movs	r0, #163	; 0xa3
    7dda:	e0e5      	b.n	7fa8 <__gethex+0x458>
    7ddc:	f8d8 3004 	ldr.w	r3, [r8, #4]
    7de0:	429e      	cmp	r6, r3
    7de2:	da54      	bge.n	7e8e <__gethex+0x33e>
    7de4:	1b9e      	subs	r6, r3, r6
    7de6:	42ae      	cmp	r6, r5
    7de8:	db2e      	blt.n	7e48 <__gethex+0x2f8>
    7dea:	f8d8 300c 	ldr.w	r3, [r8, #12]
    7dee:	2b02      	cmp	r3, #2
    7df0:	d01a      	beq.n	7e28 <__gethex+0x2d8>
    7df2:	2b03      	cmp	r3, #3
    7df4:	d01c      	beq.n	7e30 <__gethex+0x2e0>
    7df6:	2b01      	cmp	r3, #1
    7df8:	d11d      	bne.n	7e36 <__gethex+0x2e6>
    7dfa:	42ae      	cmp	r6, r5
    7dfc:	d11b      	bne.n	7e36 <__gethex+0x2e6>
    7dfe:	2d01      	cmp	r5, #1
    7e00:	dc0b      	bgt.n	7e1a <__gethex+0x2ca>
    7e02:	9906      	ldr	r1, [sp, #24]
    7e04:	f8d8 3004 	ldr.w	r3, [r8, #4]
    7e08:	600b      	str	r3, [r1, #0]
    7e0a:	2301      	movs	r3, #1
    7e0c:	6123      	str	r3, [r4, #16]
    7e0e:	f8ca 3000 	str.w	r3, [sl]
    7e12:	9b12      	ldr	r3, [sp, #72]	; 0x48
    7e14:	2062      	movs	r0, #98	; 0x62
    7e16:	601c      	str	r4, [r3, #0]
    7e18:	e0c6      	b.n	7fa8 <__gethex+0x458>
    7e1a:	4620      	mov	r0, r4
    7e1c:	1e69      	subs	r1, r5, #1
    7e1e:	f000 fd44 	bl	88aa <__any_on>
    7e22:	2800      	cmp	r0, #0
    7e24:	d1ed      	bne.n	7e02 <__gethex+0x2b2>
    7e26:	e006      	b.n	7e36 <__gethex+0x2e6>
    7e28:	9b13      	ldr	r3, [sp, #76]	; 0x4c
    7e2a:	2b00      	cmp	r3, #0
    7e2c:	d0e9      	beq.n	7e02 <__gethex+0x2b2>
    7e2e:	e002      	b.n	7e36 <__gethex+0x2e6>
    7e30:	9b13      	ldr	r3, [sp, #76]	; 0x4c
    7e32:	2b00      	cmp	r3, #0
    7e34:	d1e5      	bne.n	7e02 <__gethex+0x2b2>
    7e36:	9803      	ldr	r0, [sp, #12]
    7e38:	4621      	mov	r1, r4
    7e3a:	f000 f994 	bl	8166 <_Bfree>
    7e3e:	9912      	ldr	r1, [sp, #72]	; 0x48
    7e40:	2300      	movs	r3, #0
    7e42:	600b      	str	r3, [r1, #0]
    7e44:	2050      	movs	r0, #80	; 0x50
    7e46:	e0af      	b.n	7fa8 <__gethex+0x458>
    7e48:	1e77      	subs	r7, r6, #1
    7e4a:	f1b9 0f00 	cmp.w	r9, #0
    7e4e:	d107      	bne.n	7e60 <__gethex+0x310>
    7e50:	2f00      	cmp	r7, #0
    7e52:	dd07      	ble.n	7e64 <__gethex+0x314>
    7e54:	4620      	mov	r0, r4
    7e56:	4639      	mov	r1, r7
    7e58:	f000 fd27 	bl	88aa <__any_on>
    7e5c:	4681      	mov	r9, r0
    7e5e:	e001      	b.n	7e64 <__gethex+0x314>
    7e60:	f04f 0901 	mov.w	r9, #1
    7e64:	117b      	asrs	r3, r7, #5
    7e66:	2201      	movs	r2, #1
    7e68:	f85a 3023 	ldr.w	r3, [sl, r3, lsl #2]
    7e6c:	f007 071f 	and.w	r7, r7, #31
    7e70:	fa02 f707 	lsl.w	r7, r2, r7
    7e74:	421f      	tst	r7, r3
    7e76:	4631      	mov	r1, r6
    7e78:	4620      	mov	r0, r4
    7e7a:	bf18      	it	ne
    7e7c:	f049 0902 	orrne.w	r9, r9, #2
    7e80:	1bad      	subs	r5, r5, r6
    7e82:	f7ff fe1b 	bl	7abc <rshift>
    7e86:	2702      	movs	r7, #2
    7e88:	f8d8 6004 	ldr.w	r6, [r8, #4]
    7e8c:	e000      	b.n	7e90 <__gethex+0x340>
    7e8e:	2701      	movs	r7, #1
    7e90:	f1b9 0f00 	cmp.w	r9, #0
    7e94:	f000 8083 	beq.w	7f9e <__gethex+0x44e>
    7e98:	f8d8 300c 	ldr.w	r3, [r8, #12]
    7e9c:	2b02      	cmp	r3, #2
    7e9e:	d00e      	beq.n	7ebe <__gethex+0x36e>
    7ea0:	2b03      	cmp	r3, #3
    7ea2:	d010      	beq.n	7ec6 <__gethex+0x376>
    7ea4:	2b01      	cmp	r3, #1
    7ea6:	d178      	bne.n	7f9a <__gethex+0x44a>
    7ea8:	f019 0f02 	tst.w	r9, #2
    7eac:	d075      	beq.n	7f9a <__gethex+0x44a>
    7eae:	f8da 3000 	ldr.w	r3, [sl]
    7eb2:	ea49 0903 	orr.w	r9, r9, r3
    7eb6:	f019 0f01 	tst.w	r9, #1
    7eba:	d107      	bne.n	7ecc <__gethex+0x37c>
    7ebc:	e06d      	b.n	7f9a <__gethex+0x44a>
    7ebe:	9b13      	ldr	r3, [sp, #76]	; 0x4c
    7ec0:	f1c3 0301 	rsb	r3, r3, #1
    7ec4:	9313      	str	r3, [sp, #76]	; 0x4c
    7ec6:	9b13      	ldr	r3, [sp, #76]	; 0x4c
    7ec8:	2b00      	cmp	r3, #0
    7eca:	d066      	beq.n	7f9a <__gethex+0x44a>
    7ecc:	f8d4 9010 	ldr.w	r9, [r4, #16]
    7ed0:	f104 0314 	add.w	r3, r4, #20
    7ed4:	ea4f 0a89 	mov.w	sl, r9, lsl #2
    7ed8:	eb03 010a 	add.w	r1, r3, sl
    7edc:	4618      	mov	r0, r3
    7ede:	f853 2b04 	ldr.w	r2, [r3], #4
    7ee2:	f1b2 3fff 	cmp.w	r2, #4294967295
    7ee6:	d002      	beq.n	7eee <__gethex+0x39e>
    7ee8:	3201      	adds	r2, #1
    7eea:	6002      	str	r2, [r0, #0]
    7eec:	e021      	b.n	7f32 <__gethex+0x3e2>
    7eee:	2200      	movs	r2, #0
    7ef0:	428b      	cmp	r3, r1
    7ef2:	f843 2c04 	str.w	r2, [r3, #-4]
    7ef6:	d3f1      	bcc.n	7edc <__gethex+0x38c>
    7ef8:	68a3      	ldr	r3, [r4, #8]
    7efa:	4599      	cmp	r9, r3
    7efc:	db12      	blt.n	7f24 <__gethex+0x3d4>
    7efe:	6861      	ldr	r1, [r4, #4]
    7f00:	9803      	ldr	r0, [sp, #12]
    7f02:	3101      	adds	r1, #1
    7f04:	f000 f8fa 	bl	80fc <_Balloc>
    7f08:	6922      	ldr	r2, [r4, #16]
    7f0a:	3202      	adds	r2, #2
    7f0c:	f104 010c 	add.w	r1, r4, #12
    7f10:	4683      	mov	fp, r0
    7f12:	0092      	lsls	r2, r2, #2
    7f14:	300c      	adds	r0, #12
    7f16:	f7fe fbf3 	bl	6700 <memcpy>
    7f1a:	4621      	mov	r1, r4
    7f1c:	9803      	ldr	r0, [sp, #12]
    7f1e:	f000 f922 	bl	8166 <_Bfree>
    7f22:	465c      	mov	r4, fp
    7f24:	6923      	ldr	r3, [r4, #16]
    7f26:	1c5a      	adds	r2, r3, #1
    7f28:	eb04 0383 	add.w	r3, r4, r3, lsl #2
    7f2c:	6122      	str	r2, [r4, #16]
    7f2e:	2201      	movs	r2, #1
    7f30:	615a      	str	r2, [r3, #20]
    7f32:	2f02      	cmp	r7, #2
    7f34:	f104 0314 	add.w	r3, r4, #20
    7f38:	d111      	bne.n	7f5e <__gethex+0x40e>
    7f3a:	f8d8 2000 	ldr.w	r2, [r8]
    7f3e:	3a01      	subs	r2, #1
    7f40:	4295      	cmp	r5, r2
    7f42:	d127      	bne.n	7f94 <__gethex+0x444>
    7f44:	116a      	asrs	r2, r5, #5
    7f46:	2101      	movs	r1, #1
    7f48:	f005 051f 	and.w	r5, r5, #31
    7f4c:	f853 3022 	ldr.w	r3, [r3, r2, lsl #2]
    7f50:	fa01 f505 	lsl.w	r5, r1, r5
    7f54:	421d      	tst	r5, r3
    7f56:	bf0c      	ite	eq
    7f58:	2702      	moveq	r7, #2
    7f5a:	460f      	movne	r7, r1
    7f5c:	e01a      	b.n	7f94 <__gethex+0x444>
    7f5e:	6922      	ldr	r2, [r4, #16]
    7f60:	454a      	cmp	r2, r9
    7f62:	dd0a      	ble.n	7f7a <__gethex+0x42a>
    7f64:	4620      	mov	r0, r4
    7f66:	2101      	movs	r1, #1
    7f68:	f7ff fda8 	bl	7abc <rshift>
    7f6c:	f8d8 3008 	ldr.w	r3, [r8, #8]
    7f70:	3601      	adds	r6, #1
    7f72:	429e      	cmp	r6, r3
    7f74:	f73f af29 	bgt.w	7dca <__gethex+0x27a>
    7f78:	e00b      	b.n	7f92 <__gethex+0x442>
    7f7a:	f015 051f 	ands.w	r5, r5, #31
    7f7e:	d008      	beq.n	7f92 <__gethex+0x442>
    7f80:	4453      	add	r3, sl
    7f82:	f1c5 0520 	rsb	r5, r5, #32
    7f86:	f853 0c04 	ldr.w	r0, [r3, #-4]
    7f8a:	f000 f97f 	bl	828c <__hi0bits>
    7f8e:	42a8      	cmp	r0, r5
    7f90:	dbe8      	blt.n	7f64 <__gethex+0x414>
    7f92:	2701      	movs	r7, #1
    7f94:	f047 0720 	orr.w	r7, r7, #32
    7f98:	e001      	b.n	7f9e <__gethex+0x44e>
    7f9a:	f047 0710 	orr.w	r7, r7, #16
    7f9e:	9b12      	ldr	r3, [sp, #72]	; 0x48
    7fa0:	601c      	str	r4, [r3, #0]
    7fa2:	9b06      	ldr	r3, [sp, #24]
    7fa4:	4638      	mov	r0, r7
    7fa6:	601e      	str	r6, [r3, #0]
    7fa8:	b009      	add	sp, #36	; 0x24
    7faa:	e8bd 8ff0 	ldmia.w	sp!, {r4, r5, r6, r7, r8, r9, sl, fp, pc}

00007fae <L_shift>:
L_shift():
    7fae:	f1c2 0208 	rsb	r2, r2, #8
    7fb2:	0092      	lsls	r2, r2, #2
    7fb4:	b570      	push	{r4, r5, r6, lr}
    7fb6:	f1c2 0420 	rsb	r4, r2, #32
    7fba:	6805      	ldr	r5, [r0, #0]
    7fbc:	f850 3f04 	ldr.w	r3, [r0, #4]!
    7fc0:	fa03 f604 	lsl.w	r6, r3, r4
    7fc4:	4335      	orrs	r5, r6
    7fc6:	40d3      	lsrs	r3, r2
    7fc8:	4288      	cmp	r0, r1
    7fca:	f840 5c04 	str.w	r5, [r0, #-4]
    7fce:	6003      	str	r3, [r0, #0]
    7fd0:	d3f3      	bcc.n	7fba <L_shift+0xc>
    7fd2:	bd70      	pop	{r4, r5, r6, pc}

00007fd4 <__hexnan>:
__hexnan():
    7fd4:	e92d 4ff0 	stmdb	sp!, {r4, r5, r6, r7, r8, r9, sl, fp, lr}
    7fd8:	680b      	ldr	r3, [r1, #0]
    7fda:	b085      	sub	sp, #20
    7fdc:	115e      	asrs	r6, r3, #5
    7fde:	9003      	str	r0, [sp, #12]
    7fe0:	f013 031f 	ands.w	r3, r3, #31
    7fe4:	eb02 0686 	add.w	r6, r2, r6, lsl #2
    7fe8:	9302      	str	r3, [sp, #8]
    7fea:	9b03      	ldr	r3, [sp, #12]
    7fec:	bf18      	it	ne
    7fee:	3604      	addne	r6, #4
    7ff0:	f1a6 0804 	sub.w	r8, r6, #4
    7ff4:	4615      	mov	r5, r2
    7ff6:	f8d3 9000 	ldr.w	r9, [r3]
    7ffa:	2200      	movs	r2, #0
    7ffc:	f846 2c04 	str.w	r2, [r6, #-4]
    8000:	4647      	mov	r7, r8
    8002:	4644      	mov	r4, r8
    8004:	4692      	mov	sl, r2
    8006:	4693      	mov	fp, r2
    8008:	f899 1001 	ldrb.w	r1, [r9, #1]
    800c:	2900      	cmp	r1, #0
    800e:	d03a      	beq.n	8086 <__hexnan+0xb2>
    8010:	4608      	mov	r0, r1
    8012:	e88d 0006 	stmia.w	sp, {r1, r2}
    8016:	f7ff fd86 	bl	7b26 <__hexdig_fun>
    801a:	e89d 0006 	ldmia.w	sp, {r1, r2}
    801e:	b9d8      	cbnz	r0, 8058 <__hexnan+0x84>
    8020:	2920      	cmp	r1, #32
    8022:	d812      	bhi.n	804a <__hexnan+0x76>
    8024:	45da      	cmp	sl, fp
    8026:	da2b      	bge.n	8080 <__hexnan+0xac>
    8028:	42bc      	cmp	r4, r7
    802a:	d205      	bcs.n	8038 <__hexnan+0x64>
    802c:	2a07      	cmp	r2, #7
    802e:	dc03      	bgt.n	8038 <__hexnan+0x64>
    8030:	4620      	mov	r0, r4
    8032:	4639      	mov	r1, r7
    8034:	f7ff ffbb 	bl	7fae <L_shift>
    8038:	42ac      	cmp	r4, r5
    803a:	d920      	bls.n	807e <__hexnan+0xaa>
    803c:	1f27      	subs	r7, r4, #4
    803e:	2200      	movs	r2, #0
    8040:	f844 2c04 	str.w	r2, [r4, #-4]
    8044:	46da      	mov	sl, fp
    8046:	463c      	mov	r4, r7
    8048:	e01a      	b.n	8080 <__hexnan+0xac>
    804a:	2929      	cmp	r1, #41	; 0x29
    804c:	d14c      	bne.n	80e8 <__hexnan+0x114>
    804e:	9b03      	ldr	r3, [sp, #12]
    8050:	f109 0102 	add.w	r1, r9, #2
    8054:	6019      	str	r1, [r3, #0]
    8056:	e016      	b.n	8086 <__hexnan+0xb2>
    8058:	3201      	adds	r2, #1
    805a:	2a08      	cmp	r2, #8
    805c:	f10b 0b01 	add.w	fp, fp, #1
    8060:	dd06      	ble.n	8070 <__hexnan+0x9c>
    8062:	42ac      	cmp	r4, r5
    8064:	d90c      	bls.n	8080 <__hexnan+0xac>
    8066:	2200      	movs	r2, #0
    8068:	f844 2c04 	str.w	r2, [r4, #-4]
    806c:	3c04      	subs	r4, #4
    806e:	2201      	movs	r2, #1
    8070:	6821      	ldr	r1, [r4, #0]
    8072:	f000 000f 	and.w	r0, r0, #15
    8076:	ea40 1101 	orr.w	r1, r0, r1, lsl #4
    807a:	6021      	str	r1, [r4, #0]
    807c:	e000      	b.n	8080 <__hexnan+0xac>
    807e:	2208      	movs	r2, #8
    8080:	f109 0901 	add.w	r9, r9, #1
    8084:	e7c0      	b.n	8008 <__hexnan+0x34>
    8086:	f1bb 0f00 	cmp.w	fp, #0
    808a:	d02d      	beq.n	80e8 <__hexnan+0x114>
    808c:	42bc      	cmp	r4, r7
    808e:	d205      	bcs.n	809c <__hexnan+0xc8>
    8090:	2a07      	cmp	r2, #7
    8092:	dc03      	bgt.n	809c <__hexnan+0xc8>
    8094:	4620      	mov	r0, r4
    8096:	4639      	mov	r1, r7
    8098:	f7ff ff89 	bl	7fae <L_shift>
    809c:	42ac      	cmp	r4, r5
    809e:	d90c      	bls.n	80ba <__hexnan+0xe6>
    80a0:	462b      	mov	r3, r5
    80a2:	f854 2b04 	ldr.w	r2, [r4], #4
    80a6:	f843 2b04 	str.w	r2, [r3], #4
    80aa:	4544      	cmp	r4, r8
    80ac:	d9f9      	bls.n	80a2 <__hexnan+0xce>
    80ae:	2200      	movs	r2, #0
    80b0:	f843 2b04 	str.w	r2, [r3], #4
    80b4:	4543      	cmp	r3, r8
    80b6:	d9fa      	bls.n	80ae <__hexnan+0xda>
    80b8:	e00d      	b.n	80d6 <__hexnan+0x102>
    80ba:	9b02      	ldr	r3, [sp, #8]
    80bc:	b15b      	cbz	r3, 80d6 <__hexnan+0x102>
    80be:	f1c3 0920 	rsb	r9, r3, #32
    80c2:	f04f 33ff 	mov.w	r3, #4294967295
    80c6:	fa23 f909 	lsr.w	r9, r3, r9
    80ca:	f856 3c04 	ldr.w	r3, [r6, #-4]
    80ce:	ea03 0309 	and.w	r3, r3, r9
    80d2:	f846 3c04 	str.w	r3, [r6, #-4]
    80d6:	f856 3c04 	ldr.w	r3, [r6, #-4]
    80da:	3e04      	subs	r6, #4
    80dc:	b933      	cbnz	r3, 80ec <__hexnan+0x118>
    80de:	42b5      	cmp	r5, r6
    80e0:	d1f9      	bne.n	80d6 <__hexnan+0x102>
    80e2:	2301      	movs	r3, #1
    80e4:	602b      	str	r3, [r5, #0]
    80e6:	e001      	b.n	80ec <__hexnan+0x118>
    80e8:	2004      	movs	r0, #4
    80ea:	e000      	b.n	80ee <__hexnan+0x11a>
    80ec:	2005      	movs	r0, #5
    80ee:	b005      	add	sp, #20
    80f0:	e8bd 8ff0 	ldmia.w	sp!, {r4, r5, r6, r7, r8, r9, sl, fp, pc}

000080f4 <_localeconv_r>:
_localeconv_r():
    80f4:	4800      	ldr	r0, [pc, #0]	; (80f8 <_localeconv_r+0x4>)
    80f6:	4770      	bx	lr
    80f8:	1fff0b1c 	.word	0x1fff0b1c

000080fc <_Balloc>:
_Balloc():
    80fc:	b570      	push	{r4, r5, r6, lr}
    80fe:	6a45      	ldr	r5, [r0, #36]	; 0x24
    8100:	4604      	mov	r4, r0
    8102:	460e      	mov	r6, r1
    8104:	b93d      	cbnz	r5, 8116 <_Balloc+0x1a>
    8106:	2010      	movs	r0, #16
    8108:	f7fe faea 	bl	66e0 <malloc>
    810c:	6260      	str	r0, [r4, #36]	; 0x24
    810e:	6045      	str	r5, [r0, #4]
    8110:	6085      	str	r5, [r0, #8]
    8112:	6005      	str	r5, [r0, #0]
    8114:	60c5      	str	r5, [r0, #12]
    8116:	6a65      	ldr	r5, [r4, #36]	; 0x24
    8118:	68eb      	ldr	r3, [r5, #12]
    811a:	b143      	cbz	r3, 812e <_Balloc+0x32>
    811c:	6a63      	ldr	r3, [r4, #36]	; 0x24
    811e:	68da      	ldr	r2, [r3, #12]
    8120:	f852 0026 	ldr.w	r0, [r2, r6, lsl #2]
    8124:	b178      	cbz	r0, 8146 <_Balloc+0x4a>
    8126:	6801      	ldr	r1, [r0, #0]
    8128:	f842 1026 	str.w	r1, [r2, r6, lsl #2]
    812c:	e017      	b.n	815e <_Balloc+0x62>
    812e:	4620      	mov	r0, r4
    8130:	2104      	movs	r1, #4
    8132:	2221      	movs	r2, #33	; 0x21
    8134:	f000 fbdd 	bl	88f2 <_calloc_r>
    8138:	6a63      	ldr	r3, [r4, #36]	; 0x24
    813a:	60e8      	str	r0, [r5, #12]
    813c:	68db      	ldr	r3, [r3, #12]
    813e:	2b00      	cmp	r3, #0
    8140:	d1ec      	bne.n	811c <_Balloc+0x20>
    8142:	2000      	movs	r0, #0
    8144:	bd70      	pop	{r4, r5, r6, pc}
    8146:	2101      	movs	r1, #1
    8148:	fa01 f506 	lsl.w	r5, r1, r6
    814c:	1d6a      	adds	r2, r5, #5
    814e:	4620      	mov	r0, r4
    8150:	0092      	lsls	r2, r2, #2
    8152:	f000 fbce 	bl	88f2 <_calloc_r>
    8156:	2800      	cmp	r0, #0
    8158:	d0f3      	beq.n	8142 <_Balloc+0x46>
    815a:	6046      	str	r6, [r0, #4]
    815c:	6085      	str	r5, [r0, #8]
    815e:	2200      	movs	r2, #0
    8160:	6102      	str	r2, [r0, #16]
    8162:	60c2      	str	r2, [r0, #12]
    8164:	bd70      	pop	{r4, r5, r6, pc}

00008166 <_Bfree>:
_Bfree():
    8166:	b570      	push	{r4, r5, r6, lr}
    8168:	6a44      	ldr	r4, [r0, #36]	; 0x24
    816a:	4606      	mov	r6, r0
    816c:	460d      	mov	r5, r1
    816e:	b93c      	cbnz	r4, 8180 <_Bfree+0x1a>
    8170:	2010      	movs	r0, #16
    8172:	f7fe fab5 	bl	66e0 <malloc>
    8176:	6270      	str	r0, [r6, #36]	; 0x24
    8178:	6044      	str	r4, [r0, #4]
    817a:	6084      	str	r4, [r0, #8]
    817c:	6004      	str	r4, [r0, #0]
    817e:	60c4      	str	r4, [r0, #12]
    8180:	b13d      	cbz	r5, 8192 <_Bfree+0x2c>
    8182:	6a73      	ldr	r3, [r6, #36]	; 0x24
    8184:	686a      	ldr	r2, [r5, #4]
    8186:	68db      	ldr	r3, [r3, #12]
    8188:	f853 1022 	ldr.w	r1, [r3, r2, lsl #2]
    818c:	6029      	str	r1, [r5, #0]
    818e:	f843 5022 	str.w	r5, [r3, r2, lsl #2]
    8192:	bd70      	pop	{r4, r5, r6, pc}

00008194 <__multadd>:
__multadd():
    8194:	e92d 41f0 	stmdb	sp!, {r4, r5, r6, r7, r8, lr}
    8198:	460c      	mov	r4, r1
    819a:	461e      	mov	r6, r3
    819c:	690d      	ldr	r5, [r1, #16]
    819e:	4607      	mov	r7, r0
    81a0:	3114      	adds	r1, #20
    81a2:	2300      	movs	r3, #0
    81a4:	6808      	ldr	r0, [r1, #0]
    81a6:	fa1f fc80 	uxth.w	ip, r0
    81aa:	0c00      	lsrs	r0, r0, #16
    81ac:	fb02 6c0c 	mla	ip, r2, ip, r6
    81b0:	4350      	muls	r0, r2
    81b2:	eb00 401c 	add.w	r0, r0, ip, lsr #16
    81b6:	3301      	adds	r3, #1
    81b8:	fa1f fc8c 	uxth.w	ip, ip
    81bc:	0c06      	lsrs	r6, r0, #16
    81be:	42ab      	cmp	r3, r5
    81c0:	eb0c 4000 	add.w	r0, ip, r0, lsl #16
    81c4:	f841 0b04 	str.w	r0, [r1], #4
    81c8:	dbec      	blt.n	81a4 <__multadd+0x10>
    81ca:	b1d6      	cbz	r6, 8202 <__multadd+0x6e>
    81cc:	68a3      	ldr	r3, [r4, #8]
    81ce:	429d      	cmp	r5, r3
    81d0:	db12      	blt.n	81f8 <__multadd+0x64>
    81d2:	6861      	ldr	r1, [r4, #4]
    81d4:	4638      	mov	r0, r7
    81d6:	3101      	adds	r1, #1
    81d8:	f7ff ff90 	bl	80fc <_Balloc>
    81dc:	6922      	ldr	r2, [r4, #16]
    81de:	3202      	adds	r2, #2
    81e0:	f104 010c 	add.w	r1, r4, #12
    81e4:	4680      	mov	r8, r0
    81e6:	0092      	lsls	r2, r2, #2
    81e8:	300c      	adds	r0, #12
    81ea:	f7fe fa89 	bl	6700 <memcpy>
    81ee:	4621      	mov	r1, r4
    81f0:	4638      	mov	r0, r7
    81f2:	f7ff ffb8 	bl	8166 <_Bfree>
    81f6:	4644      	mov	r4, r8
    81f8:	eb04 0385 	add.w	r3, r4, r5, lsl #2
    81fc:	3501      	adds	r5, #1
    81fe:	615e      	str	r6, [r3, #20]
    8200:	6125      	str	r5, [r4, #16]
    8202:	4620      	mov	r0, r4
    8204:	e8bd 81f0 	ldmia.w	sp!, {r4, r5, r6, r7, r8, pc}

00008208 <__s2b>:
__s2b():
    8208:	e92d 43f8 	stmdb	sp!, {r3, r4, r5, r6, r7, r8, r9, lr}
    820c:	4614      	mov	r4, r2
    820e:	4698      	mov	r8, r3
    8210:	f103 0208 	add.w	r2, r3, #8
    8214:	2309      	movs	r3, #9
    8216:	460d      	mov	r5, r1
    8218:	fb92 f2f3 	sdiv	r2, r2, r3
    821c:	4606      	mov	r6, r0
    821e:	2301      	movs	r3, #1
    8220:	2100      	movs	r1, #0
    8222:	429a      	cmp	r2, r3
    8224:	dd02      	ble.n	822c <__s2b+0x24>
    8226:	005b      	lsls	r3, r3, #1
    8228:	3101      	adds	r1, #1
    822a:	e7fa      	b.n	8222 <__s2b+0x1a>
    822c:	4630      	mov	r0, r6
    822e:	f7ff ff65 	bl	80fc <_Balloc>
    8232:	9b08      	ldr	r3, [sp, #32]
    8234:	6143      	str	r3, [r0, #20]
    8236:	2c09      	cmp	r4, #9
    8238:	f04f 0301 	mov.w	r3, #1
    823c:	4601      	mov	r1, r0
    823e:	6103      	str	r3, [r0, #16]
    8240:	dd11      	ble.n	8266 <__s2b+0x5e>
    8242:	f105 0909 	add.w	r9, r5, #9
    8246:	464f      	mov	r7, r9
    8248:	4425      	add	r5, r4
    824a:	f817 3b01 	ldrb.w	r3, [r7], #1
    824e:	4630      	mov	r0, r6
    8250:	220a      	movs	r2, #10
    8252:	3b30      	subs	r3, #48	; 0x30
    8254:	f7ff ff9e 	bl	8194 <__multadd>
    8258:	42af      	cmp	r7, r5
    825a:	4601      	mov	r1, r0
    825c:	d1f5      	bne.n	824a <__s2b+0x42>
    825e:	eb09 0704 	add.w	r7, r9, r4
    8262:	3f08      	subs	r7, #8
    8264:	e002      	b.n	826c <__s2b+0x64>
    8266:	f105 070a 	add.w	r7, r5, #10
    826a:	2409      	movs	r4, #9
    826c:	4625      	mov	r5, r4
    826e:	4545      	cmp	r5, r8
    8270:	da09      	bge.n	8286 <__s2b+0x7e>
    8272:	1b3b      	subs	r3, r7, r4
    8274:	4630      	mov	r0, r6
    8276:	5d5b      	ldrb	r3, [r3, r5]
    8278:	220a      	movs	r2, #10
    827a:	3b30      	subs	r3, #48	; 0x30
    827c:	f7ff ff8a 	bl	8194 <__multadd>
    8280:	3501      	adds	r5, #1
    8282:	4601      	mov	r1, r0
    8284:	e7f3      	b.n	826e <__s2b+0x66>
    8286:	4608      	mov	r0, r1
    8288:	e8bd 83f8 	ldmia.w	sp!, {r3, r4, r5, r6, r7, r8, r9, pc}

0000828c <__hi0bits>:
__hi0bits():
    828c:	0c03      	lsrs	r3, r0, #16
    828e:	041b      	lsls	r3, r3, #16
    8290:	b913      	cbnz	r3, 8298 <__hi0bits+0xc>
    8292:	0400      	lsls	r0, r0, #16
    8294:	2310      	movs	r3, #16
    8296:	e000      	b.n	829a <__hi0bits+0xe>
    8298:	2300      	movs	r3, #0
    829a:	f010 4f7f 	tst.w	r0, #4278190080	; 0xff000000
    829e:	bf04      	itt	eq
    82a0:	0200      	lsleq	r0, r0, #8
    82a2:	3308      	addeq	r3, #8
    82a4:	f010 4f70 	tst.w	r0, #4026531840	; 0xf0000000
    82a8:	bf04      	itt	eq
    82aa:	0100      	lsleq	r0, r0, #4
    82ac:	3304      	addeq	r3, #4
    82ae:	f010 4f40 	tst.w	r0, #3221225472	; 0xc0000000
    82b2:	bf04      	itt	eq
    82b4:	0080      	lsleq	r0, r0, #2
    82b6:	3302      	addeq	r3, #2
    82b8:	2800      	cmp	r0, #0
    82ba:	db03      	blt.n	82c4 <__hi0bits+0x38>
    82bc:	0042      	lsls	r2, r0, #1
    82be:	d503      	bpl.n	82c8 <__hi0bits+0x3c>
    82c0:	1c58      	adds	r0, r3, #1
    82c2:	4770      	bx	lr
    82c4:	4618      	mov	r0, r3
    82c6:	4770      	bx	lr
    82c8:	2020      	movs	r0, #32
    82ca:	4770      	bx	lr

000082cc <__lo0bits>:
__lo0bits():
    82cc:	6803      	ldr	r3, [r0, #0]
    82ce:	f013 0207 	ands.w	r2, r3, #7
    82d2:	d00b      	beq.n	82ec <__lo0bits+0x20>
    82d4:	07d9      	lsls	r1, r3, #31
    82d6:	d422      	bmi.n	831e <__lo0bits+0x52>
    82d8:	079a      	lsls	r2, r3, #30
    82da:	d503      	bpl.n	82e4 <__lo0bits+0x18>
    82dc:	085b      	lsrs	r3, r3, #1
    82de:	6003      	str	r3, [r0, #0]
    82e0:	2001      	movs	r0, #1
    82e2:	4770      	bx	lr
    82e4:	089b      	lsrs	r3, r3, #2
    82e6:	6003      	str	r3, [r0, #0]
    82e8:	2002      	movs	r0, #2
    82ea:	4770      	bx	lr
    82ec:	b299      	uxth	r1, r3
    82ee:	b909      	cbnz	r1, 82f4 <__lo0bits+0x28>
    82f0:	0c1b      	lsrs	r3, r3, #16
    82f2:	2210      	movs	r2, #16
    82f4:	f013 0fff 	tst.w	r3, #255	; 0xff
    82f8:	bf04      	itt	eq
    82fa:	0a1b      	lsreq	r3, r3, #8
    82fc:	3208      	addeq	r2, #8
    82fe:	0719      	lsls	r1, r3, #28
    8300:	bf04      	itt	eq
    8302:	091b      	lsreq	r3, r3, #4
    8304:	3204      	addeq	r2, #4
    8306:	0799      	lsls	r1, r3, #30
    8308:	bf04      	itt	eq
    830a:	089b      	lsreq	r3, r3, #2
    830c:	3202      	addeq	r2, #2
    830e:	07d9      	lsls	r1, r3, #31
    8310:	d402      	bmi.n	8318 <__lo0bits+0x4c>
    8312:	085b      	lsrs	r3, r3, #1
    8314:	d005      	beq.n	8322 <__lo0bits+0x56>
    8316:	3201      	adds	r2, #1
    8318:	6003      	str	r3, [r0, #0]
    831a:	4610      	mov	r0, r2
    831c:	4770      	bx	lr
    831e:	2000      	movs	r0, #0
    8320:	4770      	bx	lr
    8322:	2020      	movs	r0, #32
    8324:	4770      	bx	lr

00008326 <__i2b>:
__i2b():
    8326:	b510      	push	{r4, lr}
    8328:	460c      	mov	r4, r1
    832a:	2101      	movs	r1, #1
    832c:	f7ff fee6 	bl	80fc <_Balloc>
    8330:	2201      	movs	r2, #1
    8332:	6144      	str	r4, [r0, #20]
    8334:	6102      	str	r2, [r0, #16]
    8336:	bd10      	pop	{r4, pc}

00008338 <__multiply>:
__multiply():
    8338:	e92d 4ff0 	stmdb	sp!, {r4, r5, r6, r7, r8, r9, sl, fp, lr}
    833c:	4616      	mov	r6, r2
    833e:	690a      	ldr	r2, [r1, #16]
    8340:	6933      	ldr	r3, [r6, #16]
    8342:	429a      	cmp	r2, r3
    8344:	b085      	sub	sp, #20
    8346:	460d      	mov	r5, r1
    8348:	da01      	bge.n	834e <__multiply+0x16>
    834a:	4635      	mov	r5, r6
    834c:	460e      	mov	r6, r1
    834e:	f8d5 8010 	ldr.w	r8, [r5, #16]
    8352:	6937      	ldr	r7, [r6, #16]
    8354:	68ab      	ldr	r3, [r5, #8]
    8356:	6869      	ldr	r1, [r5, #4]
    8358:	eb08 0407 	add.w	r4, r8, r7
    835c:	429c      	cmp	r4, r3
    835e:	bfc8      	it	gt
    8360:	3101      	addgt	r1, #1
    8362:	f7ff fecb 	bl	80fc <_Balloc>
    8366:	f100 0314 	add.w	r3, r0, #20
    836a:	eb03 0184 	add.w	r1, r3, r4, lsl #2
    836e:	9101      	str	r1, [sp, #4]
    8370:	461a      	mov	r2, r3
    8372:	f8dd a004 	ldr.w	sl, [sp, #4]
    8376:	4552      	cmp	r2, sl
    8378:	d203      	bcs.n	8382 <__multiply+0x4a>
    837a:	2100      	movs	r1, #0
    837c:	f842 1b04 	str.w	r1, [r2], #4
    8380:	e7f7      	b.n	8372 <__multiply+0x3a>
    8382:	f105 0114 	add.w	r1, r5, #20
    8386:	f106 0214 	add.w	r2, r6, #20
    838a:	eb01 0888 	add.w	r8, r1, r8, lsl #2
    838e:	eb02 0787 	add.w	r7, r2, r7, lsl #2
    8392:	f8cd 8008 	str.w	r8, [sp, #8]
    8396:	9703      	str	r7, [sp, #12]
    8398:	9e03      	ldr	r6, [sp, #12]
    839a:	42b2      	cmp	r2, r6
    839c:	4615      	mov	r5, r2
    839e:	d256      	bcs.n	844e <__multiply+0x116>
    83a0:	f8b5 c000 	ldrh.w	ip, [r5]
    83a4:	3204      	adds	r2, #4
    83a6:	f1bc 0f00 	cmp.w	ip, #0
    83aa:	d025      	beq.n	83f8 <__multiply+0xc0>
    83ac:	460f      	mov	r7, r1
    83ae:	461d      	mov	r5, r3
    83b0:	2600      	movs	r6, #0
    83b2:	f857 9b04 	ldr.w	r9, [r7], #4
    83b6:	f8d5 8000 	ldr.w	r8, [r5]
    83ba:	fa1f fb89 	uxth.w	fp, r9
    83be:	fa1f fa88 	uxth.w	sl, r8
    83c2:	fb0c aa0b 	mla	sl, ip, fp, sl
    83c6:	ea4f 4919 	mov.w	r9, r9, lsr #16
    83ca:	ea4f 4818 	mov.w	r8, r8, lsr #16
    83ce:	44b2      	add	sl, r6
    83d0:	fb0c 8809 	mla	r8, ip, r9, r8
    83d4:	eb08 481a 	add.w	r8, r8, sl, lsr #16
    83d8:	fa1f fa8a 	uxth.w	sl, sl
    83dc:	ea4a 4a08 	orr.w	sl, sl, r8, lsl #16
    83e0:	ea4f 4618 	mov.w	r6, r8, lsr #16
    83e4:	f8dd 8008 	ldr.w	r8, [sp, #8]
    83e8:	46ab      	mov	fp, r5
    83ea:	45b8      	cmp	r8, r7
    83ec:	f84b ab04 	str.w	sl, [fp], #4
    83f0:	d901      	bls.n	83f6 <__multiply+0xbe>
    83f2:	465d      	mov	r5, fp
    83f4:	e7dd      	b.n	83b2 <__multiply+0x7a>
    83f6:	606e      	str	r6, [r5, #4]
    83f8:	f832 8c02 	ldrh.w	r8, [r2, #-2]
    83fc:	f1b8 0f00 	cmp.w	r8, #0
    8400:	d023      	beq.n	844a <__multiply+0x112>
    8402:	681e      	ldr	r6, [r3, #0]
    8404:	460f      	mov	r7, r1
    8406:	461d      	mov	r5, r3
    8408:	f04f 0900 	mov.w	r9, #0
    840c:	f8b7 a000 	ldrh.w	sl, [r7]
    8410:	f8b5 c002 	ldrh.w	ip, [r5, #2]
    8414:	fb08 cc0a 	mla	ip, r8, sl, ip
    8418:	44e1      	add	r9, ip
    841a:	b2b6      	uxth	r6, r6
    841c:	46ac      	mov	ip, r5
    841e:	ea46 4609 	orr.w	r6, r6, r9, lsl #16
    8422:	f84c 6b04 	str.w	r6, [ip], #4
    8426:	f857 6b04 	ldr.w	r6, [r7], #4
    842a:	f8b5 a004 	ldrh.w	sl, [r5, #4]
    842e:	0c36      	lsrs	r6, r6, #16
    8430:	fb08 a606 	mla	r6, r8, r6, sl
    8434:	f8dd a008 	ldr.w	sl, [sp, #8]
    8438:	eb06 4619 	add.w	r6, r6, r9, lsr #16
    843c:	4557      	cmp	r7, sl
    843e:	ea4f 4916 	mov.w	r9, r6, lsr #16
    8442:	d201      	bcs.n	8448 <__multiply+0x110>
    8444:	4665      	mov	r5, ip
    8446:	e7e1      	b.n	840c <__multiply+0xd4>
    8448:	606e      	str	r6, [r5, #4]
    844a:	3304      	adds	r3, #4
    844c:	e7a4      	b.n	8398 <__multiply+0x60>
    844e:	9b01      	ldr	r3, [sp, #4]
    8450:	2c00      	cmp	r4, #0
    8452:	dc03      	bgt.n	845c <__multiply+0x124>
    8454:	6104      	str	r4, [r0, #16]
    8456:	b005      	add	sp, #20
    8458:	e8bd 8ff0 	ldmia.w	sp!, {r4, r5, r6, r7, r8, r9, sl, fp, pc}
    845c:	f853 2d04 	ldr.w	r2, [r3, #-4]!
    8460:	2a00      	cmp	r2, #0
    8462:	d1f7      	bne.n	8454 <__multiply+0x11c>
    8464:	3c01      	subs	r4, #1
    8466:	e7f3      	b.n	8450 <__multiply+0x118>

00008468 <__pow5mult>:
__pow5mult():
    8468:	f012 0303 	ands.w	r3, r2, #3
    846c:	e92d 41f0 	stmdb	sp!, {r4, r5, r6, r7, r8, lr}
    8470:	4605      	mov	r5, r0
    8472:	460e      	mov	r6, r1
    8474:	4617      	mov	r7, r2
    8476:	d007      	beq.n	8488 <__pow5mult+0x20>
    8478:	3b01      	subs	r3, #1
    847a:	4a21      	ldr	r2, [pc, #132]	; (8500 <__pow5mult+0x98>)
    847c:	f852 2023 	ldr.w	r2, [r2, r3, lsl #2]
    8480:	2300      	movs	r3, #0
    8482:	f7ff fe87 	bl	8194 <__multadd>
    8486:	4606      	mov	r6, r0
    8488:	10bf      	asrs	r7, r7, #2
    848a:	d035      	beq.n	84f8 <__pow5mult+0x90>
    848c:	6a6c      	ldr	r4, [r5, #36]	; 0x24
    848e:	b93c      	cbnz	r4, 84a0 <__pow5mult+0x38>
    8490:	2010      	movs	r0, #16
    8492:	f7fe f925 	bl	66e0 <malloc>
    8496:	6268      	str	r0, [r5, #36]	; 0x24
    8498:	6044      	str	r4, [r0, #4]
    849a:	6084      	str	r4, [r0, #8]
    849c:	6004      	str	r4, [r0, #0]
    849e:	60c4      	str	r4, [r0, #12]
    84a0:	f8d5 8024 	ldr.w	r8, [r5, #36]	; 0x24
    84a4:	f8d8 4008 	ldr.w	r4, [r8, #8]
    84a8:	b97c      	cbnz	r4, 84ca <__pow5mult+0x62>
    84aa:	4628      	mov	r0, r5
    84ac:	f240 2171 	movw	r1, #625	; 0x271
    84b0:	f7ff ff39 	bl	8326 <__i2b>
    84b4:	2300      	movs	r3, #0
    84b6:	f8c8 0008 	str.w	r0, [r8, #8]
    84ba:	4604      	mov	r4, r0
    84bc:	6003      	str	r3, [r0, #0]
    84be:	e004      	b.n	84ca <__pow5mult+0x62>
    84c0:	107f      	asrs	r7, r7, #1
    84c2:	d019      	beq.n	84f8 <__pow5mult+0x90>
    84c4:	6820      	ldr	r0, [r4, #0]
    84c6:	b170      	cbz	r0, 84e6 <__pow5mult+0x7e>
    84c8:	4604      	mov	r4, r0
    84ca:	07fb      	lsls	r3, r7, #31
    84cc:	d5f8      	bpl.n	84c0 <__pow5mult+0x58>
    84ce:	4631      	mov	r1, r6
    84d0:	4622      	mov	r2, r4
    84d2:	4628      	mov	r0, r5
    84d4:	f7ff ff30 	bl	8338 <__multiply>
    84d8:	4631      	mov	r1, r6
    84da:	4680      	mov	r8, r0
    84dc:	4628      	mov	r0, r5
    84de:	f7ff fe42 	bl	8166 <_Bfree>
    84e2:	4646      	mov	r6, r8
    84e4:	e7ec      	b.n	84c0 <__pow5mult+0x58>
    84e6:	4628      	mov	r0, r5
    84e8:	4621      	mov	r1, r4
    84ea:	4622      	mov	r2, r4
    84ec:	f7ff ff24 	bl	8338 <__multiply>
    84f0:	2300      	movs	r3, #0
    84f2:	6020      	str	r0, [r4, #0]
    84f4:	6003      	str	r3, [r0, #0]
    84f6:	e7e7      	b.n	84c8 <__pow5mult+0x60>
    84f8:	4630      	mov	r0, r6
    84fa:	e8bd 81f0 	ldmia.w	sp!, {r4, r5, r6, r7, r8, pc}
    84fe:	bf00      	nop
    8500:	0000a688 	.word	0x0000a688

00008504 <__lshift>:
__lshift():
    8504:	e92d 47f0 	stmdb	sp!, {r4, r5, r6, r7, r8, r9, sl, lr}
    8508:	460c      	mov	r4, r1
    850a:	ea4f 1a62 	mov.w	sl, r2, asr #5
    850e:	6923      	ldr	r3, [r4, #16]
    8510:	6849      	ldr	r1, [r1, #4]
    8512:	eb0a 0903 	add.w	r9, sl, r3
    8516:	68a3      	ldr	r3, [r4, #8]
    8518:	4680      	mov	r8, r0
    851a:	4615      	mov	r5, r2
    851c:	f109 0701 	add.w	r7, r9, #1
    8520:	429f      	cmp	r7, r3
    8522:	dd02      	ble.n	852a <__lshift+0x26>
    8524:	3101      	adds	r1, #1
    8526:	005b      	lsls	r3, r3, #1
    8528:	e7fa      	b.n	8520 <__lshift+0x1c>
    852a:	4640      	mov	r0, r8
    852c:	f7ff fde6 	bl	80fc <_Balloc>
    8530:	2300      	movs	r3, #0
    8532:	4606      	mov	r6, r0
    8534:	f100 0214 	add.w	r2, r0, #20
    8538:	4553      	cmp	r3, sl
    853a:	da04      	bge.n	8546 <__lshift+0x42>
    853c:	2100      	movs	r1, #0
    853e:	f842 1023 	str.w	r1, [r2, r3, lsl #2]
    8542:	3301      	adds	r3, #1
    8544:	e7f8      	b.n	8538 <__lshift+0x34>
    8546:	6920      	ldr	r0, [r4, #16]
    8548:	ea2a 71ea 	bic.w	r1, sl, sl, asr #31
    854c:	f104 0314 	add.w	r3, r4, #20
    8550:	f015 0c1f 	ands.w	ip, r5, #31
    8554:	eb02 0181 	add.w	r1, r2, r1, lsl #2
    8558:	eb03 0e80 	add.w	lr, r3, r0, lsl #2
    855c:	d016      	beq.n	858c <__lshift+0x88>
    855e:	f1cc 0a20 	rsb	sl, ip, #32
    8562:	2500      	movs	r5, #0
    8564:	6818      	ldr	r0, [r3, #0]
    8566:	460a      	mov	r2, r1
    8568:	fa00 f00c 	lsl.w	r0, r0, ip
    856c:	4305      	orrs	r5, r0
    856e:	f842 5b04 	str.w	r5, [r2], #4
    8572:	f853 5b04 	ldr.w	r5, [r3], #4
    8576:	4573      	cmp	r3, lr
    8578:	fa25 f50a 	lsr.w	r5, r5, sl
    857c:	d201      	bcs.n	8582 <__lshift+0x7e>
    857e:	4611      	mov	r1, r2
    8580:	e7f0      	b.n	8564 <__lshift+0x60>
    8582:	604d      	str	r5, [r1, #4]
    8584:	b145      	cbz	r5, 8598 <__lshift+0x94>
    8586:	f109 0702 	add.w	r7, r9, #2
    858a:	e005      	b.n	8598 <__lshift+0x94>
    858c:	f853 2b04 	ldr.w	r2, [r3], #4
    8590:	f841 2b04 	str.w	r2, [r1], #4
    8594:	4573      	cmp	r3, lr
    8596:	d3f9      	bcc.n	858c <__lshift+0x88>
    8598:	3f01      	subs	r7, #1
    859a:	4640      	mov	r0, r8
    859c:	6137      	str	r7, [r6, #16]
    859e:	4621      	mov	r1, r4
    85a0:	f7ff fde1 	bl	8166 <_Bfree>
    85a4:	4630      	mov	r0, r6
    85a6:	e8bd 87f0 	ldmia.w	sp!, {r4, r5, r6, r7, r8, r9, sl, pc}

000085aa <__mcmp>:
__mcmp():
    85aa:	6902      	ldr	r2, [r0, #16]
    85ac:	690b      	ldr	r3, [r1, #16]
    85ae:	1ad2      	subs	r2, r2, r3
    85b0:	b510      	push	{r4, lr}
    85b2:	d113      	bne.n	85dc <__mcmp+0x32>
    85b4:	009c      	lsls	r4, r3, #2
    85b6:	3014      	adds	r0, #20
    85b8:	f101 0214 	add.w	r2, r1, #20
    85bc:	1903      	adds	r3, r0, r4
    85be:	4422      	add	r2, r4
    85c0:	f853 4d04 	ldr.w	r4, [r3, #-4]!
    85c4:	f852 1d04 	ldr.w	r1, [r2, #-4]!
    85c8:	428c      	cmp	r4, r1
    85ca:	d003      	beq.n	85d4 <__mcmp+0x2a>
    85cc:	d208      	bcs.n	85e0 <__mcmp+0x36>
    85ce:	f04f 30ff 	mov.w	r0, #4294967295
    85d2:	bd10      	pop	{r4, pc}
    85d4:	4298      	cmp	r0, r3
    85d6:	d3f3      	bcc.n	85c0 <__mcmp+0x16>
    85d8:	2000      	movs	r0, #0
    85da:	bd10      	pop	{r4, pc}
    85dc:	4610      	mov	r0, r2
    85de:	bd10      	pop	{r4, pc}
    85e0:	2001      	movs	r0, #1
    85e2:	bd10      	pop	{r4, pc}

000085e4 <__mdiff>:
__mdiff():
    85e4:	e92d 47f0 	stmdb	sp!, {r4, r5, r6, r7, r8, r9, sl, lr}
    85e8:	4606      	mov	r6, r0
    85ea:	460c      	mov	r4, r1
    85ec:	4608      	mov	r0, r1
    85ee:	4611      	mov	r1, r2
    85f0:	4615      	mov	r5, r2
    85f2:	f7ff ffda 	bl	85aa <__mcmp>
    85f6:	1e07      	subs	r7, r0, #0
    85f8:	d108      	bne.n	860c <__mdiff+0x28>
    85fa:	4630      	mov	r0, r6
    85fc:	4639      	mov	r1, r7
    85fe:	f7ff fd7d 	bl	80fc <_Balloc>
    8602:	2301      	movs	r3, #1
    8604:	6103      	str	r3, [r0, #16]
    8606:	6147      	str	r7, [r0, #20]
    8608:	e8bd 87f0 	ldmia.w	sp!, {r4, r5, r6, r7, r8, r9, sl, pc}
    860c:	db01      	blt.n	8612 <__mdiff+0x2e>
    860e:	2700      	movs	r7, #0
    8610:	e003      	b.n	861a <__mdiff+0x36>
    8612:	4623      	mov	r3, r4
    8614:	2701      	movs	r7, #1
    8616:	462c      	mov	r4, r5
    8618:	461d      	mov	r5, r3
    861a:	6861      	ldr	r1, [r4, #4]
    861c:	4630      	mov	r0, r6
    861e:	f7ff fd6d 	bl	80fc <_Balloc>
    8622:	6922      	ldr	r2, [r4, #16]
    8624:	692b      	ldr	r3, [r5, #16]
    8626:	60c7      	str	r7, [r0, #12]
    8628:	3414      	adds	r4, #20
    862a:	f105 0614 	add.w	r6, r5, #20
    862e:	eb06 0a83 	add.w	sl, r6, r3, lsl #2
    8632:	eb04 0c82 	add.w	ip, r4, r2, lsl #2
    8636:	f100 0314 	add.w	r3, r0, #20
    863a:	2100      	movs	r1, #0
    863c:	f854 7b04 	ldr.w	r7, [r4], #4
    8640:	f856 9b04 	ldr.w	r9, [r6], #4
    8644:	fa11 f187 	uxtah	r1, r1, r7
    8648:	fa1f f589 	uxth.w	r5, r9
    864c:	ea4f 4919 	mov.w	r9, r9, lsr #16
    8650:	ebc5 0801 	rsb	r8, r5, r1
    8654:	ebc9 4717 	rsb	r7, r9, r7, lsr #16
    8658:	eb07 4728 	add.w	r7, r7, r8, asr #16
    865c:	fa1f f888 	uxth.w	r8, r8
    8660:	1439      	asrs	r1, r7, #16
    8662:	45b2      	cmp	sl, r6
    8664:	ea48 4707 	orr.w	r7, r8, r7, lsl #16
    8668:	4625      	mov	r5, r4
    866a:	f843 7b04 	str.w	r7, [r3], #4
    866e:	d8e5      	bhi.n	863c <__mdiff+0x58>
    8670:	4565      	cmp	r5, ip
    8672:	d20d      	bcs.n	8690 <__mdiff+0xac>
    8674:	f855 4b04 	ldr.w	r4, [r5], #4
    8678:	fa11 f684 	uxtah	r6, r1, r4
    867c:	0c24      	lsrs	r4, r4, #16
    867e:	eb04 4426 	add.w	r4, r4, r6, asr #16
    8682:	b2b6      	uxth	r6, r6
    8684:	1421      	asrs	r1, r4, #16
    8686:	ea46 4404 	orr.w	r4, r6, r4, lsl #16
    868a:	f843 4b04 	str.w	r4, [r3], #4
    868e:	e7ef      	b.n	8670 <__mdiff+0x8c>
    8690:	f853 1d04 	ldr.w	r1, [r3, #-4]!
    8694:	b909      	cbnz	r1, 869a <__mdiff+0xb6>
    8696:	3a01      	subs	r2, #1
    8698:	e7fa      	b.n	8690 <__mdiff+0xac>
    869a:	6102      	str	r2, [r0, #16]
    869c:	e8bd 87f0 	ldmia.w	sp!, {r4, r5, r6, r7, r8, r9, sl, pc}

000086a0 <__ulp>:
__ulp():
    86a0:	4b0f      	ldr	r3, [pc, #60]	; (86e0 <__ulp+0x40>)
    86a2:	400b      	ands	r3, r1
    86a4:	f1a3 7350 	sub.w	r3, r3, #54525952	; 0x3400000
    86a8:	2b00      	cmp	r3, #0
    86aa:	dd01      	ble.n	86b0 <__ulp+0x10>
    86ac:	4619      	mov	r1, r3
    86ae:	e009      	b.n	86c4 <__ulp+0x24>
    86b0:	425b      	negs	r3, r3
    86b2:	151b      	asrs	r3, r3, #20
    86b4:	2b13      	cmp	r3, #19
    86b6:	f04f 0100 	mov.w	r1, #0
    86ba:	dc05      	bgt.n	86c8 <__ulp+0x28>
    86bc:	f44f 2200 	mov.w	r2, #524288	; 0x80000
    86c0:	fa42 f103 	asr.w	r1, r2, r3
    86c4:	2000      	movs	r0, #0
    86c6:	4770      	bx	lr
    86c8:	2b32      	cmp	r3, #50	; 0x32
    86ca:	f04f 0201 	mov.w	r2, #1
    86ce:	bfda      	itte	le
    86d0:	f1c3 0333 	rsble	r3, r3, #51	; 0x33
    86d4:	fa02 f303 	lslle.w	r3, r2, r3
    86d8:	4613      	movgt	r3, r2
    86da:	4618      	mov	r0, r3
    86dc:	4770      	bx	lr
    86de:	bf00      	nop
    86e0:	7ff00000 	.word	0x7ff00000

000086e4 <__b2d>:
__b2d():
    86e4:	e92d 41f0 	stmdb	sp!, {r4, r5, r6, r7, r8, lr}
    86e8:	6906      	ldr	r6, [r0, #16]
    86ea:	f100 0714 	add.w	r7, r0, #20
    86ee:	eb07 0686 	add.w	r6, r7, r6, lsl #2
    86f2:	4688      	mov	r8, r1
    86f4:	f856 4c04 	ldr.w	r4, [r6, #-4]
    86f8:	4620      	mov	r0, r4
    86fa:	f7ff fdc7 	bl	828c <__hi0bits>
    86fe:	f1c0 0320 	rsb	r3, r0, #32
    8702:	280a      	cmp	r0, #10
    8704:	f1a6 0504 	sub.w	r5, r6, #4
    8708:	f8c8 3000 	str.w	r3, [r8]
    870c:	dc14      	bgt.n	8738 <__b2d+0x54>
    870e:	42bd      	cmp	r5, r7
    8710:	f1c0 010b 	rsb	r1, r0, #11
    8714:	bf88      	it	hi
    8716:	f856 5c08 	ldrhi.w	r5, [r6, #-8]
    871a:	fa24 fc01 	lsr.w	ip, r4, r1
    871e:	bf98      	it	ls
    8720:	2500      	movls	r5, #0
    8722:	3015      	adds	r0, #21
    8724:	f04c 537f 	orr.w	r3, ip, #1069547520	; 0x3fc00000
    8728:	fa25 f101 	lsr.w	r1, r5, r1
    872c:	4084      	lsls	r4, r0
    872e:	f443 1340 	orr.w	r3, r3, #3145728	; 0x300000
    8732:	ea41 0204 	orr.w	r2, r1, r4
    8736:	e024      	b.n	8782 <__b2d+0x9e>
    8738:	42bd      	cmp	r5, r7
    873a:	bf86      	itte	hi
    873c:	f1a6 0508 	subhi.w	r5, r6, #8
    8740:	f856 1c08 	ldrhi.w	r1, [r6, #-8]
    8744:	2100      	movls	r1, #0
    8746:	f1b0 060b 	subs.w	r6, r0, #11
    874a:	d015      	beq.n	8778 <__b2d+0x94>
    874c:	40b4      	lsls	r4, r6
    874e:	f1c0 002b 	rsb	r0, r0, #43	; 0x2b
    8752:	f044 547f 	orr.w	r4, r4, #1069547520	; 0x3fc00000
    8756:	f444 1440 	orr.w	r4, r4, #3145728	; 0x300000
    875a:	fa21 fc00 	lsr.w	ip, r1, r0
    875e:	42bd      	cmp	r5, r7
    8760:	ea44 030c 	orr.w	r3, r4, ip
    8764:	bf8c      	ite	hi
    8766:	f855 4c04 	ldrhi.w	r4, [r5, #-4]
    876a:	2400      	movls	r4, #0
    876c:	fa24 f000 	lsr.w	r0, r4, r0
    8770:	40b1      	lsls	r1, r6
    8772:	ea40 0201 	orr.w	r2, r0, r1
    8776:	e004      	b.n	8782 <__b2d+0x9e>
    8778:	f044 537f 	orr.w	r3, r4, #1069547520	; 0x3fc00000
    877c:	f443 1340 	orr.w	r3, r3, #3145728	; 0x300000
    8780:	460a      	mov	r2, r1
    8782:	4610      	mov	r0, r2
    8784:	4619      	mov	r1, r3
    8786:	e8bd 81f0 	ldmia.w	sp!, {r4, r5, r6, r7, r8, pc}

0000878a <__d2b>:
__d2b():
    878a:	e92d 43f7 	stmdb	sp!, {r0, r1, r2, r4, r5, r6, r7, r8, r9, lr}
    878e:	2101      	movs	r1, #1
    8790:	461d      	mov	r5, r3
    8792:	f8dd 9028 	ldr.w	r9, [sp, #40]	; 0x28
    8796:	f8dd 802c 	ldr.w	r8, [sp, #44]	; 0x2c
    879a:	4614      	mov	r4, r2
    879c:	f7ff fcae 	bl	80fc <_Balloc>
    87a0:	f3c5 570a 	ubfx	r7, r5, #20, #11
    87a4:	4606      	mov	r6, r0
    87a6:	f3c5 0313 	ubfx	r3, r5, #0, #20
    87aa:	b10f      	cbz	r7, 87b0 <__d2b+0x26>
    87ac:	f443 1380 	orr.w	r3, r3, #1048576	; 0x100000
    87b0:	9301      	str	r3, [sp, #4]
    87b2:	b1d4      	cbz	r4, 87ea <__d2b+0x60>
    87b4:	a802      	add	r0, sp, #8
    87b6:	f840 4d08 	str.w	r4, [r0, #-8]!
    87ba:	4668      	mov	r0, sp
    87bc:	f7ff fd86 	bl	82cc <__lo0bits>
    87c0:	9b00      	ldr	r3, [sp, #0]
    87c2:	b148      	cbz	r0, 87d8 <__d2b+0x4e>
    87c4:	9a01      	ldr	r2, [sp, #4]
    87c6:	f1c0 0120 	rsb	r1, r0, #32
    87ca:	fa02 f101 	lsl.w	r1, r2, r1
    87ce:	430b      	orrs	r3, r1
    87d0:	40c2      	lsrs	r2, r0
    87d2:	6173      	str	r3, [r6, #20]
    87d4:	9201      	str	r2, [sp, #4]
    87d6:	e000      	b.n	87da <__d2b+0x50>
    87d8:	6173      	str	r3, [r6, #20]
    87da:	9b01      	ldr	r3, [sp, #4]
    87dc:	61b3      	str	r3, [r6, #24]
    87de:	2b00      	cmp	r3, #0
    87e0:	bf0c      	ite	eq
    87e2:	2401      	moveq	r4, #1
    87e4:	2402      	movne	r4, #2
    87e6:	6134      	str	r4, [r6, #16]
    87e8:	e007      	b.n	87fa <__d2b+0x70>
    87ea:	a801      	add	r0, sp, #4
    87ec:	f7ff fd6e 	bl	82cc <__lo0bits>
    87f0:	2401      	movs	r4, #1
    87f2:	9b01      	ldr	r3, [sp, #4]
    87f4:	6173      	str	r3, [r6, #20]
    87f6:	6134      	str	r4, [r6, #16]
    87f8:	3020      	adds	r0, #32
    87fa:	b13f      	cbz	r7, 880c <__d2b+0x82>
    87fc:	f2a7 4733 	subw	r7, r7, #1075	; 0x433
    8800:	4407      	add	r7, r0
    8802:	f8c9 7000 	str.w	r7, [r9]
    8806:	f1c0 0035 	rsb	r0, r0, #53	; 0x35
    880a:	e00a      	b.n	8822 <__d2b+0x98>
    880c:	eb06 0384 	add.w	r3, r6, r4, lsl #2
    8810:	f2a0 4032 	subw	r0, r0, #1074	; 0x432
    8814:	f8c9 0000 	str.w	r0, [r9]
    8818:	6918      	ldr	r0, [r3, #16]
    881a:	f7ff fd37 	bl	828c <__hi0bits>
    881e:	ebc0 1044 	rsb	r0, r0, r4, lsl #5
    8822:	f8c8 0000 	str.w	r0, [r8]
    8826:	4630      	mov	r0, r6
    8828:	b003      	add	sp, #12
    882a:	e8bd 83f0 	ldmia.w	sp!, {r4, r5, r6, r7, r8, r9, pc}

0000882e <__ratio>:
__ratio():
    882e:	e92d 41f3 	stmdb	sp!, {r0, r1, r4, r5, r6, r7, r8, lr}
    8832:	460e      	mov	r6, r1
    8834:	4669      	mov	r1, sp
    8836:	4680      	mov	r8, r0
    8838:	f7ff ff54 	bl	86e4 <__b2d>
    883c:	460d      	mov	r5, r1
    883e:	4604      	mov	r4, r0
    8840:	a901      	add	r1, sp, #4
    8842:	4630      	mov	r0, r6
    8844:	f7ff ff4e 	bl	86e4 <__b2d>
    8848:	9f00      	ldr	r7, [sp, #0]
    884a:	460b      	mov	r3, r1
    884c:	9901      	ldr	r1, [sp, #4]
    884e:	4602      	mov	r2, r0
    8850:	1a7f      	subs	r7, r7, r1
    8852:	f8d8 0010 	ldr.w	r0, [r8, #16]
    8856:	6931      	ldr	r1, [r6, #16]
    8858:	1a41      	subs	r1, r0, r1
    885a:	eb07 1141 	add.w	r1, r7, r1, lsl #5
    885e:	2900      	cmp	r1, #0
    8860:	bfcc      	ite	gt
    8862:	eb05 5501 	addgt.w	r5, r5, r1, lsl #20
    8866:	eba3 5301 	suble.w	r3, r3, r1, lsl #20
    886a:	4620      	mov	r0, r4
    886c:	4629      	mov	r1, r5
    886e:	f7fd f9db 	bl	5c28 <__aeabi_ddiv>
    8872:	b002      	add	sp, #8
    8874:	e8bd 81f0 	ldmia.w	sp!, {r4, r5, r6, r7, r8, pc}

00008878 <__copybits>:
__copybits():
    8878:	b510      	push	{r4, lr}
    887a:	3901      	subs	r1, #1
    887c:	f102 0314 	add.w	r3, r2, #20
    8880:	1149      	asrs	r1, r1, #5
    8882:	6912      	ldr	r2, [r2, #16]
    8884:	3101      	adds	r1, #1
    8886:	eb00 0181 	add.w	r1, r0, r1, lsl #2
    888a:	eb03 0282 	add.w	r2, r3, r2, lsl #2
    888e:	4293      	cmp	r3, r2
    8890:	d204      	bcs.n	889c <__copybits+0x24>
    8892:	f853 4b04 	ldr.w	r4, [r3], #4
    8896:	f840 4b04 	str.w	r4, [r0], #4
    889a:	e7f8      	b.n	888e <__copybits+0x16>
    889c:	4288      	cmp	r0, r1
    889e:	d203      	bcs.n	88a8 <__copybits+0x30>
    88a0:	2300      	movs	r3, #0
    88a2:	f840 3b04 	str.w	r3, [r0], #4
    88a6:	e7f9      	b.n	889c <__copybits+0x24>
    88a8:	bd10      	pop	{r4, pc}

000088aa <__any_on>:
__any_on():
    88aa:	f100 0214 	add.w	r2, r0, #20
    88ae:	6900      	ldr	r0, [r0, #16]
    88b0:	114b      	asrs	r3, r1, #5
    88b2:	4283      	cmp	r3, r0
    88b4:	b510      	push	{r4, lr}
    88b6:	dc0c      	bgt.n	88d2 <__any_on+0x28>
    88b8:	da0c      	bge.n	88d4 <__any_on+0x2a>
    88ba:	f011 011f 	ands.w	r1, r1, #31
    88be:	d009      	beq.n	88d4 <__any_on+0x2a>
    88c0:	f852 0023 	ldr.w	r0, [r2, r3, lsl #2]
    88c4:	fa20 f401 	lsr.w	r4, r0, r1
    88c8:	fa04 f101 	lsl.w	r1, r4, r1
    88cc:	4281      	cmp	r1, r0
    88ce:	d10e      	bne.n	88ee <__any_on+0x44>
    88d0:	e000      	b.n	88d4 <__any_on+0x2a>
    88d2:	4603      	mov	r3, r0
    88d4:	eb02 0383 	add.w	r3, r2, r3, lsl #2
    88d8:	4293      	cmp	r3, r2
    88da:	4619      	mov	r1, r3
    88dc:	d905      	bls.n	88ea <__any_on+0x40>
    88de:	f851 1c04 	ldr.w	r1, [r1, #-4]
    88e2:	3b04      	subs	r3, #4
    88e4:	2900      	cmp	r1, #0
    88e6:	d0f7      	beq.n	88d8 <__any_on+0x2e>
    88e8:	e001      	b.n	88ee <__any_on+0x44>
    88ea:	2000      	movs	r0, #0
    88ec:	bd10      	pop	{r4, pc}
    88ee:	2001      	movs	r0, #1
    88f0:	bd10      	pop	{r4, pc}

000088f2 <_calloc_r>:
_calloc_r():
    88f2:	b538      	push	{r3, r4, r5, lr}
    88f4:	fb02 f401 	mul.w	r4, r2, r1
    88f8:	4621      	mov	r1, r4
    88fa:	f7fd ff71 	bl	67e0 <_malloc_r>
    88fe:	4605      	mov	r5, r0
    8900:	b118      	cbz	r0, 890a <_calloc_r+0x18>
    8902:	2100      	movs	r1, #0
    8904:	4622      	mov	r2, r4
    8906:	f7fd ff1f 	bl	6748 <memset>
    890a:	4628      	mov	r0, r5
    890c:	bd38      	pop	{r3, r4, r5, pc}

0000890e <_realloc_r>:
_realloc_r():
    890e:	b5f8      	push	{r3, r4, r5, r6, r7, lr}
    8910:	4606      	mov	r6, r0
    8912:	4614      	mov	r4, r2
    8914:	460d      	mov	r5, r1
    8916:	b921      	cbnz	r1, 8922 <_realloc_r+0x14>
    8918:	4611      	mov	r1, r2
    891a:	e8bd 40f8 	ldmia.w	sp!, {r3, r4, r5, r6, r7, lr}
    891e:	f7fd bf5f 	b.w	67e0 <_malloc_r>
    8922:	b91a      	cbnz	r2, 892c <_realloc_r+0x1e>
    8924:	f7fd ff18 	bl	6758 <_free_r>
    8928:	4620      	mov	r0, r4
    892a:	bdf8      	pop	{r3, r4, r5, r6, r7, pc}
    892c:	f000 ffac 	bl	9888 <_malloc_usable_size_r>
    8930:	42a0      	cmp	r0, r4
    8932:	d20e      	bcs.n	8952 <_realloc_r+0x44>
    8934:	4630      	mov	r0, r6
    8936:	4621      	mov	r1, r4
    8938:	f7fd ff52 	bl	67e0 <_malloc_r>
    893c:	4607      	mov	r7, r0
    893e:	b150      	cbz	r0, 8956 <_realloc_r+0x48>
    8940:	4629      	mov	r1, r5
    8942:	4622      	mov	r2, r4
    8944:	f7fd fedc 	bl	6700 <memcpy>
    8948:	4630      	mov	r0, r6
    894a:	4629      	mov	r1, r5
    894c:	f7fd ff04 	bl	6758 <_free_r>
    8950:	e001      	b.n	8956 <_realloc_r+0x48>
    8952:	4628      	mov	r0, r5
    8954:	bdf8      	pop	{r3, r4, r5, r6, r7, pc}
    8956:	4638      	mov	r0, r7
    8958:	bdf8      	pop	{r3, r4, r5, r6, r7, pc}
    895a:	ffff 4800 	vtbl.8	d20, {d15}, d0

0000895c <nanf>:
nanf():
    895c:	4800      	ldr	r0, [pc, #0]	; (8960 <nanf+0x4>)
    895e:	4770      	bx	lr
    8960:	7fc00000 	.word	0x7fc00000

00008964 <__sread>:
__sread():
    8964:	b510      	push	{r4, lr}
    8966:	460c      	mov	r4, r1
    8968:	f9b1 100e 	ldrsh.w	r1, [r1, #14]
    896c:	f000 ff96 	bl	989c <_read_r>
    8970:	2800      	cmp	r0, #0
    8972:	db03      	blt.n	897c <__sread+0x18>
    8974:	6d63      	ldr	r3, [r4, #84]	; 0x54
    8976:	4403      	add	r3, r0
    8978:	6563      	str	r3, [r4, #84]	; 0x54
    897a:	bd10      	pop	{r4, pc}
    897c:	89a3      	ldrh	r3, [r4, #12]
    897e:	f423 5380 	bic.w	r3, r3, #4096	; 0x1000
    8982:	81a3      	strh	r3, [r4, #12]
    8984:	bd10      	pop	{r4, pc}

00008986 <__swrite>:
__swrite():
    8986:	e92d 41f0 	stmdb	sp!, {r4, r5, r6, r7, r8, lr}
    898a:	461d      	mov	r5, r3
    898c:	898b      	ldrh	r3, [r1, #12]
    898e:	05db      	lsls	r3, r3, #23
    8990:	4607      	mov	r7, r0
    8992:	460c      	mov	r4, r1
    8994:	4616      	mov	r6, r2
    8996:	d505      	bpl.n	89a4 <__swrite+0x1e>
    8998:	f9b1 100e 	ldrsh.w	r1, [r1, #14]
    899c:	2200      	movs	r2, #0
    899e:	2302      	movs	r3, #2
    89a0:	f000 ff60 	bl	9864 <_lseek_r>
    89a4:	89a3      	ldrh	r3, [r4, #12]
    89a6:	f9b4 100e 	ldrsh.w	r1, [r4, #14]
    89aa:	f423 5380 	bic.w	r3, r3, #4096	; 0x1000
    89ae:	81a3      	strh	r3, [r4, #12]
    89b0:	4638      	mov	r0, r7
    89b2:	4632      	mov	r2, r6
    89b4:	462b      	mov	r3, r5
    89b6:	e8bd 41f0 	ldmia.w	sp!, {r4, r5, r6, r7, r8, lr}
    89ba:	f7fe bf4b 	b.w	7854 <_write_r>

000089be <__sseek>:
__sseek():
    89be:	b510      	push	{r4, lr}
    89c0:	460c      	mov	r4, r1
    89c2:	f9b1 100e 	ldrsh.w	r1, [r1, #14]
    89c6:	f000 ff4d 	bl	9864 <_lseek_r>
    89ca:	1c43      	adds	r3, r0, #1
    89cc:	89a3      	ldrh	r3, [r4, #12]
    89ce:	d103      	bne.n	89d8 <__sseek+0x1a>
    89d0:	f423 5380 	bic.w	r3, r3, #4096	; 0x1000
    89d4:	81a3      	strh	r3, [r4, #12]
    89d6:	bd10      	pop	{r4, pc}
    89d8:	f443 5380 	orr.w	r3, r3, #4096	; 0x1000
    89dc:	81a3      	strh	r3, [r4, #12]
    89de:	6560      	str	r0, [r4, #84]	; 0x54
    89e0:	bd10      	pop	{r4, pc}

000089e2 <__sclose>:
__sclose():
    89e2:	f9b1 100e 	ldrsh.w	r1, [r1, #14]
    89e6:	f000 b82f 	b.w	8a48 <_close_r>

000089ea <_vasniprintf_r>:
_vasniprintf_r():
    89ea:	b530      	push	{r4, r5, lr}
    89ec:	4615      	mov	r5, r2
    89ee:	b09b      	sub	sp, #108	; 0x6c
    89f0:	6814      	ldr	r4, [r2, #0]
    89f2:	b129      	cbz	r1, 8a00 <_vasniprintf_r+0x16>
    89f4:	b124      	cbz	r4, 8a00 <_vasniprintf_r+0x16>
    89f6:	f44f 62c1 	mov.w	r2, #1544	; 0x608
    89fa:	f8ad 200c 	strh.w	r2, [sp, #12]
    89fe:	e005      	b.n	8a0c <_vasniprintf_r+0x22>
    8a00:	f44f 7222 	mov.w	r2, #648	; 0x288
    8a04:	2400      	movs	r4, #0
    8a06:	f8ad 200c 	strh.w	r2, [sp, #12]
    8a0a:	4621      	mov	r1, r4
    8a0c:	2c00      	cmp	r4, #0
    8a0e:	9100      	str	r1, [sp, #0]
    8a10:	9104      	str	r1, [sp, #16]
    8a12:	da03      	bge.n	8a1c <_vasniprintf_r+0x32>
    8a14:	238b      	movs	r3, #139	; 0x8b
    8a16:	6003      	str	r3, [r0, #0]
    8a18:	2000      	movs	r0, #0
    8a1a:	e012      	b.n	8a42 <_vasniprintf_r+0x58>
    8a1c:	f64f 72ff 	movw	r2, #65535	; 0xffff
    8a20:	f8ad 200e 	strh.w	r2, [sp, #14]
    8a24:	4669      	mov	r1, sp
    8a26:	461a      	mov	r2, r3
    8a28:	9b1e      	ldr	r3, [sp, #120]	; 0x78
    8a2a:	9402      	str	r4, [sp, #8]
    8a2c:	9405      	str	r4, [sp, #20]
    8a2e:	f000 ffa3 	bl	9978 <_svfiprintf_r>
    8a32:	1e03      	subs	r3, r0, #0
    8a34:	f04f 0000 	mov.w	r0, #0
    8a38:	db03      	blt.n	8a42 <_vasniprintf_r+0x58>
    8a3a:	602b      	str	r3, [r5, #0]
    8a3c:	9b00      	ldr	r3, [sp, #0]
    8a3e:	7018      	strb	r0, [r3, #0]
    8a40:	9804      	ldr	r0, [sp, #16]
    8a42:	b01b      	add	sp, #108	; 0x6c
    8a44:	bd30      	pop	{r4, r5, pc}
    8a46:	ffff b538 	vsli.32	d27, d24, #31

00008a48 <_close_r>:
_close_r():
    8a48:	b538      	push	{r3, r4, r5, lr}
    8a4a:	4c06      	ldr	r4, [pc, #24]	; (8a64 <_close_r+0x1c>)
    8a4c:	2300      	movs	r3, #0
    8a4e:	4605      	mov	r5, r0
    8a50:	4608      	mov	r0, r1
    8a52:	6023      	str	r3, [r4, #0]
    8a54:	f7f7 ffa2 	bl	99c <_close>
    8a58:	1c43      	adds	r3, r0, #1
    8a5a:	d102      	bne.n	8a62 <_close_r+0x1a>
    8a5c:	6823      	ldr	r3, [r4, #0]
    8a5e:	b103      	cbz	r3, 8a62 <_close_r+0x1a>
    8a60:	602b      	str	r3, [r5, #0]
    8a62:	bd38      	pop	{r3, r4, r5, pc}
    8a64:	1fff10f0 	.word	0x1fff10f0

00008a68 <quorem>:
quorem():
    8a68:	e92d 4ff7 	stmdb	sp!, {r0, r1, r2, r4, r5, r6, r7, r8, r9, sl, fp, lr}
    8a6c:	6903      	ldr	r3, [r0, #16]
    8a6e:	690c      	ldr	r4, [r1, #16]
    8a70:	42a3      	cmp	r3, r4
    8a72:	4680      	mov	r8, r0
    8a74:	f2c0 8081 	blt.w	8b7a <quorem+0x112>
    8a78:	3c01      	subs	r4, #1
    8a7a:	f101 0714 	add.w	r7, r1, #20
    8a7e:	00a2      	lsls	r2, r4, #2
    8a80:	f100 0514 	add.w	r5, r0, #20
    8a84:	4691      	mov	r9, r2
    8a86:	9200      	str	r2, [sp, #0]
    8a88:	f857 6024 	ldr.w	r6, [r7, r4, lsl #2]
    8a8c:	442a      	add	r2, r5
    8a8e:	9201      	str	r2, [sp, #4]
    8a90:	f855 2024 	ldr.w	r2, [r5, r4, lsl #2]
    8a94:	3601      	adds	r6, #1
    8a96:	fbb2 f6f6 	udiv	r6, r2, r6
    8a9a:	44b9      	add	r9, r7
    8a9c:	2e00      	cmp	r6, #0
    8a9e:	d03a      	beq.n	8b16 <quorem+0xae>
    8aa0:	f04f 0e00 	mov.w	lr, #0
    8aa4:	463a      	mov	r2, r7
    8aa6:	4628      	mov	r0, r5
    8aa8:	46f3      	mov	fp, lr
    8aaa:	f852 cb04 	ldr.w	ip, [r2], #4
    8aae:	6803      	ldr	r3, [r0, #0]
    8ab0:	fa1f fa8c 	uxth.w	sl, ip
    8ab4:	ea4f 4c1c 	mov.w	ip, ip, lsr #16
    8ab8:	fb0a ea06 	mla	sl, sl, r6, lr
    8abc:	fb0c fc06 	mul.w	ip, ip, r6
    8ac0:	eb0c 4c1a 	add.w	ip, ip, sl, lsr #16
    8ac4:	fa1f fa8a 	uxth.w	sl, sl
    8ac8:	ebca 0a0b 	rsb	sl, sl, fp
    8acc:	ea4f 4e1c 	mov.w	lr, ip, lsr #16
    8ad0:	fa1f fc8c 	uxth.w	ip, ip
    8ad4:	fa1a fa83 	uxtah	sl, sl, r3
    8ad8:	ebcc 4c13 	rsb	ip, ip, r3, lsr #16
    8adc:	eb0c 4c2a 	add.w	ip, ip, sl, asr #16
    8ae0:	fa1f fa8a 	uxth.w	sl, sl
    8ae4:	ea4a 4a0c 	orr.w	sl, sl, ip, lsl #16
    8ae8:	454a      	cmp	r2, r9
    8aea:	ea4f 4b2c 	mov.w	fp, ip, asr #16
    8aee:	f840 ab04 	str.w	sl, [r0], #4
    8af2:	d9da      	bls.n	8aaa <quorem+0x42>
    8af4:	9a00      	ldr	r2, [sp, #0]
    8af6:	58ab      	ldr	r3, [r5, r2]
    8af8:	b96b      	cbnz	r3, 8b16 <quorem+0xae>
    8afa:	9a01      	ldr	r2, [sp, #4]
    8afc:	1f13      	subs	r3, r2, #4
    8afe:	42ab      	cmp	r3, r5
    8b00:	461a      	mov	r2, r3
    8b02:	d802      	bhi.n	8b0a <quorem+0xa2>
    8b04:	f8c8 4010 	str.w	r4, [r8, #16]
    8b08:	e005      	b.n	8b16 <quorem+0xae>
    8b0a:	6812      	ldr	r2, [r2, #0]
    8b0c:	3b04      	subs	r3, #4
    8b0e:	2a00      	cmp	r2, #0
    8b10:	d1f8      	bne.n	8b04 <quorem+0x9c>
    8b12:	3c01      	subs	r4, #1
    8b14:	e7f3      	b.n	8afe <quorem+0x96>
    8b16:	4640      	mov	r0, r8
    8b18:	f7ff fd47 	bl	85aa <__mcmp>
    8b1c:	2800      	cmp	r0, #0
    8b1e:	db2a      	blt.n	8b76 <quorem+0x10e>
    8b20:	3601      	adds	r6, #1
    8b22:	462b      	mov	r3, r5
    8b24:	2000      	movs	r0, #0
    8b26:	f857 cb04 	ldr.w	ip, [r7], #4
    8b2a:	681a      	ldr	r2, [r3, #0]
    8b2c:	fa1f f18c 	uxth.w	r1, ip
    8b30:	1a41      	subs	r1, r0, r1
    8b32:	ea4f 4c1c 	mov.w	ip, ip, lsr #16
    8b36:	fa11 f182 	uxtah	r1, r1, r2
    8b3a:	ebcc 4212 	rsb	r2, ip, r2, lsr #16
    8b3e:	eb02 4221 	add.w	r2, r2, r1, asr #16
    8b42:	b289      	uxth	r1, r1
    8b44:	1410      	asrs	r0, r2, #16
    8b46:	454f      	cmp	r7, r9
    8b48:	ea41 4202 	orr.w	r2, r1, r2, lsl #16
    8b4c:	f843 2b04 	str.w	r2, [r3], #4
    8b50:	d9e9      	bls.n	8b26 <quorem+0xbe>
    8b52:	f855 2024 	ldr.w	r2, [r5, r4, lsl #2]
    8b56:	eb05 0384 	add.w	r3, r5, r4, lsl #2
    8b5a:	b962      	cbnz	r2, 8b76 <quorem+0x10e>
    8b5c:	3b04      	subs	r3, #4
    8b5e:	42ab      	cmp	r3, r5
    8b60:	461a      	mov	r2, r3
    8b62:	d802      	bhi.n	8b6a <quorem+0x102>
    8b64:	f8c8 4010 	str.w	r4, [r8, #16]
    8b68:	e005      	b.n	8b76 <quorem+0x10e>
    8b6a:	6812      	ldr	r2, [r2, #0]
    8b6c:	3b04      	subs	r3, #4
    8b6e:	2a00      	cmp	r2, #0
    8b70:	d1f8      	bne.n	8b64 <quorem+0xfc>
    8b72:	3c01      	subs	r4, #1
    8b74:	e7f3      	b.n	8b5e <quorem+0xf6>
    8b76:	4630      	mov	r0, r6
    8b78:	e000      	b.n	8b7c <quorem+0x114>
    8b7a:	2000      	movs	r0, #0
    8b7c:	b003      	add	sp, #12
    8b7e:	e8bd 8ff0 	ldmia.w	sp!, {r4, r5, r6, r7, r8, r9, sl, fp, pc}
    8b82:	ffff ffff 			; <UNDEFINED> instruction: 0xffffffff
    8b86:	ffff e92d 	vtbl.8	d30, {d15-d16}, d29

00008b88 <_dtoa_r>:
_dtoa_r():
    8b88:	e92d 4ff0 	stmdb	sp!, {r4, r5, r6, r7, r8, r9, sl, fp, lr}
    8b8c:	6a45      	ldr	r5, [r0, #36]	; 0x24
    8b8e:	b09b      	sub	sp, #108	; 0x6c
    8b90:	4682      	mov	sl, r0
    8b92:	9c27      	ldr	r4, [sp, #156]	; 0x9c
    8b94:	e9cd 2304 	strd	r2, r3, [sp, #16]
    8b98:	b945      	cbnz	r5, 8bac <_dtoa_r+0x24>
    8b9a:	2010      	movs	r0, #16
    8b9c:	f7fd fda0 	bl	66e0 <malloc>
    8ba0:	f8ca 0024 	str.w	r0, [sl, #36]	; 0x24
    8ba4:	6045      	str	r5, [r0, #4]
    8ba6:	6085      	str	r5, [r0, #8]
    8ba8:	6005      	str	r5, [r0, #0]
    8baa:	60c5      	str	r5, [r0, #12]
    8bac:	f8da 3024 	ldr.w	r3, [sl, #36]	; 0x24
    8bb0:	6819      	ldr	r1, [r3, #0]
    8bb2:	b161      	cbz	r1, 8bce <_dtoa_r+0x46>
    8bb4:	685b      	ldr	r3, [r3, #4]
    8bb6:	604b      	str	r3, [r1, #4]
    8bb8:	2201      	movs	r2, #1
    8bba:	fa02 f303 	lsl.w	r3, r2, r3
    8bbe:	608b      	str	r3, [r1, #8]
    8bc0:	4650      	mov	r0, sl
    8bc2:	f7ff fad0 	bl	8166 <_Bfree>
    8bc6:	f8da 3024 	ldr.w	r3, [sl, #36]	; 0x24
    8bca:	2200      	movs	r2, #0
    8bcc:	601a      	str	r2, [r3, #0]
    8bce:	9805      	ldr	r0, [sp, #20]
    8bd0:	2800      	cmp	r0, #0
    8bd2:	da05      	bge.n	8be0 <_dtoa_r+0x58>
    8bd4:	2301      	movs	r3, #1
    8bd6:	f020 4100 	bic.w	r1, r0, #2147483648	; 0x80000000
    8bda:	6023      	str	r3, [r4, #0]
    8bdc:	9105      	str	r1, [sp, #20]
    8bde:	e001      	b.n	8be4 <_dtoa_r+0x5c>
    8be0:	2300      	movs	r3, #0
    8be2:	6023      	str	r3, [r4, #0]
    8be4:	9f05      	ldr	r7, [sp, #20]
    8be6:	4a9c      	ldr	r2, [pc, #624]	; (8e58 <_dtoa_r+0x2d0>)
    8be8:	f027 4300 	bic.w	r3, r7, #2147483648	; 0x80000000
    8bec:	0d1b      	lsrs	r3, r3, #20
    8bee:	051b      	lsls	r3, r3, #20
    8bf0:	4293      	cmp	r3, r2
    8bf2:	d11d      	bne.n	8c30 <_dtoa_r+0xa8>
    8bf4:	9a26      	ldr	r2, [sp, #152]	; 0x98
    8bf6:	f242 730f 	movw	r3, #9999	; 0x270f
    8bfa:	6013      	str	r3, [r2, #0]
    8bfc:	9b04      	ldr	r3, [sp, #16]
    8bfe:	b943      	cbnz	r3, 8c12 <_dtoa_r+0x8a>
    8c00:	4b96      	ldr	r3, [pc, #600]	; (8e5c <_dtoa_r+0x2d4>)
    8c02:	4a97      	ldr	r2, [pc, #604]	; (8e60 <_dtoa_r+0x2d8>)
    8c04:	f3c7 0013 	ubfx	r0, r7, #0, #20
    8c08:	2800      	cmp	r0, #0
    8c0a:	bf0c      	ite	eq
    8c0c:	4610      	moveq	r0, r2
    8c0e:	4618      	movne	r0, r3
    8c10:	e000      	b.n	8c14 <_dtoa_r+0x8c>
    8c12:	4892      	ldr	r0, [pc, #584]	; (8e5c <_dtoa_r+0x2d4>)
    8c14:	9f28      	ldr	r7, [sp, #160]	; 0xa0
    8c16:	2f00      	cmp	r7, #0
    8c18:	f000 8571 	beq.w	96fe <_dtoa_r+0xb76>
    8c1c:	78c3      	ldrb	r3, [r0, #3]
    8c1e:	b113      	cbz	r3, 8c26 <_dtoa_r+0x9e>
    8c20:	f100 0308 	add.w	r3, r0, #8
    8c24:	e000      	b.n	8c28 <_dtoa_r+0xa0>
    8c26:	1cc3      	adds	r3, r0, #3
    8c28:	9f28      	ldr	r7, [sp, #160]	; 0xa0
    8c2a:	603b      	str	r3, [r7, #0]
    8c2c:	f000 bd67 	b.w	96fe <_dtoa_r+0xb76>
    8c30:	e9dd 4504 	ldrd	r4, r5, [sp, #16]
    8c34:	2200      	movs	r2, #0
    8c36:	4620      	mov	r0, r4
    8c38:	4629      	mov	r1, r5
    8c3a:	2300      	movs	r3, #0
    8c3c:	f7fd f932 	bl	5ea4 <__aeabi_dcmpeq>
    8c40:	4680      	mov	r8, r0
    8c42:	b158      	cbz	r0, 8c5c <_dtoa_r+0xd4>
    8c44:	9f26      	ldr	r7, [sp, #152]	; 0x98
    8c46:	2301      	movs	r3, #1
    8c48:	603b      	str	r3, [r7, #0]
    8c4a:	9f28      	ldr	r7, [sp, #160]	; 0xa0
    8c4c:	2f00      	cmp	r7, #0
    8c4e:	f000 8553 	beq.w	96f8 <_dtoa_r+0xb70>
    8c52:	4884      	ldr	r0, [pc, #528]	; (8e64 <_dtoa_r+0x2dc>)
    8c54:	6038      	str	r0, [r7, #0]
    8c56:	3801      	subs	r0, #1
    8c58:	f000 bd51 	b.w	96fe <_dtoa_r+0xb76>
    8c5c:	ab19      	add	r3, sp, #100	; 0x64
    8c5e:	9300      	str	r3, [sp, #0]
    8c60:	ab18      	add	r3, sp, #96	; 0x60
    8c62:	9301      	str	r3, [sp, #4]
    8c64:	4650      	mov	r0, sl
    8c66:	4622      	mov	r2, r4
    8c68:	462b      	mov	r3, r5
    8c6a:	f7ff fd8e 	bl	878a <__d2b>
    8c6e:	f3c7 560a 	ubfx	r6, r7, #20, #11
    8c72:	4683      	mov	fp, r0
    8c74:	b15e      	cbz	r6, 8c8e <_dtoa_r+0x106>
    8c76:	f3c5 0313 	ubfx	r3, r5, #0, #20
    8c7a:	f043 517f 	orr.w	r1, r3, #1069547520	; 0x3fc00000
    8c7e:	4620      	mov	r0, r4
    8c80:	f441 1140 	orr.w	r1, r1, #3145728	; 0x300000
    8c84:	f2a6 36ff 	subw	r6, r6, #1023	; 0x3ff
    8c88:	f8cd 8054 	str.w	r8, [sp, #84]	; 0x54
    8c8c:	e01c      	b.n	8cc8 <_dtoa_r+0x140>
    8c8e:	9b19      	ldr	r3, [sp, #100]	; 0x64
    8c90:	9e18      	ldr	r6, [sp, #96]	; 0x60
    8c92:	441e      	add	r6, r3
    8c94:	f46f 6382 	mvn.w	r3, #1040	; 0x410
    8c98:	429e      	cmp	r6, r3
    8c9a:	db09      	blt.n	8cb0 <_dtoa_r+0x128>
    8c9c:	9904      	ldr	r1, [sp, #16]
    8c9e:	331f      	adds	r3, #31
    8ca0:	f206 4012 	addw	r0, r6, #1042	; 0x412
    8ca4:	1b9b      	subs	r3, r3, r6
    8ca6:	fa21 f000 	lsr.w	r0, r1, r0
    8caa:	409f      	lsls	r7, r3
    8cac:	4338      	orrs	r0, r7
    8cae:	e004      	b.n	8cba <_dtoa_r+0x132>
    8cb0:	486d      	ldr	r0, [pc, #436]	; (8e68 <_dtoa_r+0x2e0>)
    8cb2:	9a04      	ldr	r2, [sp, #16]
    8cb4:	1b80      	subs	r0, r0, r6
    8cb6:	fa02 f000 	lsl.w	r0, r2, r0
    8cba:	f7fc fe15 	bl	58e8 <__aeabi_ui2d>
    8cbe:	2701      	movs	r7, #1
    8cc0:	f1a1 71f8 	sub.w	r1, r1, #32505856	; 0x1f00000
    8cc4:	3e01      	subs	r6, #1
    8cc6:	9715      	str	r7, [sp, #84]	; 0x54
    8cc8:	2200      	movs	r2, #0
    8cca:	4b68      	ldr	r3, [pc, #416]	; (8e6c <_dtoa_r+0x2e4>)
    8ccc:	f7fc fcce 	bl	566c <__aeabi_dsub>
    8cd0:	a35b      	add	r3, pc, #364	; (adr r3, 8e40 <_dtoa_r+0x2b8>)
    8cd2:	e9d3 2300 	ldrd	r2, r3, [r3]
    8cd6:	f7fc fe7d 	bl	59d4 <__aeabi_dmul>
    8cda:	a35b      	add	r3, pc, #364	; (adr r3, 8e48 <_dtoa_r+0x2c0>)
    8cdc:	e9d3 2300 	ldrd	r2, r3, [r3]
    8ce0:	f7fc fcc6 	bl	5670 <__adddf3>
    8ce4:	4604      	mov	r4, r0
    8ce6:	4630      	mov	r0, r6
    8ce8:	460d      	mov	r5, r1
    8cea:	f7fc fe0d 	bl	5908 <__aeabi_i2d>
    8cee:	a358      	add	r3, pc, #352	; (adr r3, 8e50 <_dtoa_r+0x2c8>)
    8cf0:	e9d3 2300 	ldrd	r2, r3, [r3]
    8cf4:	f7fc fe6e 	bl	59d4 <__aeabi_dmul>
    8cf8:	4602      	mov	r2, r0
    8cfa:	460b      	mov	r3, r1
    8cfc:	4620      	mov	r0, r4
    8cfe:	4629      	mov	r1, r5
    8d00:	f7fc fcb6 	bl	5670 <__adddf3>
    8d04:	4604      	mov	r4, r0
    8d06:	460d      	mov	r5, r1
    8d08:	f7fd f8fe 	bl	5f08 <__aeabi_d2iz>
    8d0c:	4629      	mov	r1, r5
    8d0e:	4681      	mov	r9, r0
    8d10:	2200      	movs	r2, #0
    8d12:	4620      	mov	r0, r4
    8d14:	2300      	movs	r3, #0
    8d16:	f7fd f8cf 	bl	5eb8 <__aeabi_dcmplt>
    8d1a:	b158      	cbz	r0, 8d34 <_dtoa_r+0x1ac>
    8d1c:	4648      	mov	r0, r9
    8d1e:	f7fc fdf3 	bl	5908 <__aeabi_i2d>
    8d22:	4602      	mov	r2, r0
    8d24:	460b      	mov	r3, r1
    8d26:	4620      	mov	r0, r4
    8d28:	4629      	mov	r1, r5
    8d2a:	f7fd f8bb 	bl	5ea4 <__aeabi_dcmpeq>
    8d2e:	b908      	cbnz	r0, 8d34 <_dtoa_r+0x1ac>
    8d30:	f109 39ff 	add.w	r9, r9, #4294967295
    8d34:	f1b9 0f16 	cmp.w	r9, #22
    8d38:	d80d      	bhi.n	8d56 <_dtoa_r+0x1ce>
    8d3a:	4b4d      	ldr	r3, [pc, #308]	; (8e70 <_dtoa_r+0x2e8>)
    8d3c:	eb03 03c9 	add.w	r3, r3, r9, lsl #3
    8d40:	e9d3 0100 	ldrd	r0, r1, [r3]
    8d44:	e9dd 2304 	ldrd	r2, r3, [sp, #16]
    8d48:	f7fd f8d4 	bl	5ef4 <__aeabi_dcmpgt>
    8d4c:	b130      	cbz	r0, 8d5c <_dtoa_r+0x1d4>
    8d4e:	f109 39ff 	add.w	r9, r9, #4294967295
    8d52:	2700      	movs	r7, #0
    8d54:	e000      	b.n	8d58 <_dtoa_r+0x1d0>
    8d56:	2701      	movs	r7, #1
    8d58:	9714      	str	r7, [sp, #80]	; 0x50
    8d5a:	e000      	b.n	8d5e <_dtoa_r+0x1d6>
    8d5c:	9014      	str	r0, [sp, #80]	; 0x50
    8d5e:	9b18      	ldr	r3, [sp, #96]	; 0x60
    8d60:	1b9e      	subs	r6, r3, r6
    8d62:	3e01      	subs	r6, #1
    8d64:	9609      	str	r6, [sp, #36]	; 0x24
    8d66:	d504      	bpl.n	8d72 <_dtoa_r+0x1ea>
    8d68:	4277      	negs	r7, r6
    8d6a:	9708      	str	r7, [sp, #32]
    8d6c:	2700      	movs	r7, #0
    8d6e:	9709      	str	r7, [sp, #36]	; 0x24
    8d70:	e001      	b.n	8d76 <_dtoa_r+0x1ee>
    8d72:	2700      	movs	r7, #0
    8d74:	9708      	str	r7, [sp, #32]
    8d76:	f1b9 0f00 	cmp.w	r9, #0
    8d7a:	db07      	blt.n	8d8c <_dtoa_r+0x204>
    8d7c:	9f09      	ldr	r7, [sp, #36]	; 0x24
    8d7e:	f8cd 9044 	str.w	r9, [sp, #68]	; 0x44
    8d82:	444f      	add	r7, r9
    8d84:	9709      	str	r7, [sp, #36]	; 0x24
    8d86:	2700      	movs	r7, #0
    8d88:	970e      	str	r7, [sp, #56]	; 0x38
    8d8a:	e008      	b.n	8d9e <_dtoa_r+0x216>
    8d8c:	9f08      	ldr	r7, [sp, #32]
    8d8e:	ebc9 0707 	rsb	r7, r9, r7
    8d92:	9708      	str	r7, [sp, #32]
    8d94:	f1c9 0700 	rsb	r7, r9, #0
    8d98:	970e      	str	r7, [sp, #56]	; 0x38
    8d9a:	2700      	movs	r7, #0
    8d9c:	9711      	str	r7, [sp, #68]	; 0x44
    8d9e:	9f24      	ldr	r7, [sp, #144]	; 0x90
    8da0:	2f09      	cmp	r7, #9
    8da2:	d828      	bhi.n	8df6 <_dtoa_r+0x26e>
    8da4:	2f05      	cmp	r7, #5
    8da6:	bfc4      	itt	gt
    8da8:	3f04      	subgt	r7, #4
    8daa:	9724      	strgt	r7, [sp, #144]	; 0x90
    8dac:	9f24      	ldr	r7, [sp, #144]	; 0x90
    8dae:	f1a7 0302 	sub.w	r3, r7, #2
    8db2:	bfcc      	ite	gt
    8db4:	2500      	movgt	r5, #0
    8db6:	2501      	movle	r5, #1
    8db8:	2b03      	cmp	r3, #3
    8dba:	d821      	bhi.n	8e00 <_dtoa_r+0x278>
    8dbc:	e8df f003 	tbb	[pc, r3]
    8dc0:	04020f06 	.word	0x04020f06
    8dc4:	2701      	movs	r7, #1
    8dc6:	e002      	b.n	8dce <_dtoa_r+0x246>
    8dc8:	2701      	movs	r7, #1
    8dca:	e009      	b.n	8de0 <_dtoa_r+0x258>
    8dcc:	2700      	movs	r7, #0
    8dce:	970f      	str	r7, [sp, #60]	; 0x3c
    8dd0:	9f25      	ldr	r7, [sp, #148]	; 0x94
    8dd2:	2f00      	cmp	r7, #0
    8dd4:	dd1e      	ble.n	8e14 <_dtoa_r+0x28c>
    8dd6:	970b      	str	r7, [sp, #44]	; 0x2c
    8dd8:	9707      	str	r7, [sp, #28]
    8dda:	463b      	mov	r3, r7
    8ddc:	e01f      	b.n	8e1e <_dtoa_r+0x296>
    8dde:	2700      	movs	r7, #0
    8de0:	970f      	str	r7, [sp, #60]	; 0x3c
    8de2:	9f25      	ldr	r7, [sp, #148]	; 0x94
    8de4:	444f      	add	r7, r9
    8de6:	970b      	str	r7, [sp, #44]	; 0x2c
    8de8:	3701      	adds	r7, #1
    8dea:	463b      	mov	r3, r7
    8dec:	9707      	str	r7, [sp, #28]
    8dee:	2b01      	cmp	r3, #1
    8df0:	bfb8      	it	lt
    8df2:	2301      	movlt	r3, #1
    8df4:	e013      	b.n	8e1e <_dtoa_r+0x296>
    8df6:	2501      	movs	r5, #1
    8df8:	2700      	movs	r7, #0
    8dfa:	9724      	str	r7, [sp, #144]	; 0x90
    8dfc:	950f      	str	r5, [sp, #60]	; 0x3c
    8dfe:	e001      	b.n	8e04 <_dtoa_r+0x27c>
    8e00:	2701      	movs	r7, #1
    8e02:	970f      	str	r7, [sp, #60]	; 0x3c
    8e04:	f04f 37ff 	mov.w	r7, #4294967295
    8e08:	970b      	str	r7, [sp, #44]	; 0x2c
    8e0a:	9707      	str	r7, [sp, #28]
    8e0c:	2700      	movs	r7, #0
    8e0e:	2312      	movs	r3, #18
    8e10:	9725      	str	r7, [sp, #148]	; 0x94
    8e12:	e004      	b.n	8e1e <_dtoa_r+0x296>
    8e14:	2701      	movs	r7, #1
    8e16:	970b      	str	r7, [sp, #44]	; 0x2c
    8e18:	9707      	str	r7, [sp, #28]
    8e1a:	463b      	mov	r3, r7
    8e1c:	9725      	str	r7, [sp, #148]	; 0x94
    8e1e:	f8da 4024 	ldr.w	r4, [sl, #36]	; 0x24
    8e22:	2200      	movs	r2, #0
    8e24:	6062      	str	r2, [r4, #4]
    8e26:	2104      	movs	r1, #4
    8e28:	f101 0214 	add.w	r2, r1, #20
    8e2c:	429a      	cmp	r2, r3
    8e2e:	d821      	bhi.n	8e74 <_dtoa_r+0x2ec>
    8e30:	6862      	ldr	r2, [r4, #4]
    8e32:	3201      	adds	r2, #1
    8e34:	6062      	str	r2, [r4, #4]
    8e36:	0049      	lsls	r1, r1, #1
    8e38:	e7f6      	b.n	8e28 <_dtoa_r+0x2a0>
    8e3a:	bf00      	nop
    8e3c:	f3af 8000 	nop.w
    8e40:	636f4361 	.word	0x636f4361
    8e44:	3fd287a7 	.word	0x3fd287a7
    8e48:	8b60c8b3 	.word	0x8b60c8b3
    8e4c:	3fc68a28 	.word	0x3fc68a28
    8e50:	509f79fb 	.word	0x509f79fb
    8e54:	3fd34413 	.word	0x3fd34413
    8e58:	7ff00000 	.word	0x7ff00000
    8e5c:	0000a69d 	.word	0x0000a69d
    8e60:	0000a694 	.word	0x0000a694
    8e64:	00009ec9 	.word	0x00009ec9
    8e68:	fffffbee 	.word	0xfffffbee
    8e6c:	3ff80000 	.word	0x3ff80000
    8e70:	0000a598 	.word	0x0000a598
    8e74:	4650      	mov	r0, sl
    8e76:	6861      	ldr	r1, [r4, #4]
    8e78:	f7ff f940 	bl	80fc <_Balloc>
    8e7c:	f8da 3024 	ldr.w	r3, [sl, #36]	; 0x24
    8e80:	9f07      	ldr	r7, [sp, #28]
    8e82:	6020      	str	r0, [r4, #0]
    8e84:	681b      	ldr	r3, [r3, #0]
    8e86:	930a      	str	r3, [sp, #40]	; 0x28
    8e88:	2f0e      	cmp	r7, #14
    8e8a:	f200 816b 	bhi.w	9164 <_dtoa_r+0x5dc>
    8e8e:	2d00      	cmp	r5, #0
    8e90:	f000 8168 	beq.w	9164 <_dtoa_r+0x5dc>
    8e94:	e9dd 0104 	ldrd	r0, r1, [sp, #16]
    8e98:	f1b9 0f00 	cmp.w	r9, #0
    8e9c:	e9cd 0112 	strd	r0, r1, [sp, #72]	; 0x48
    8ea0:	dd31      	ble.n	8f06 <_dtoa_r+0x37e>
    8ea2:	4a81      	ldr	r2, [pc, #516]	; (90a8 <_dtoa_r+0x520>)
    8ea4:	f009 030f 	and.w	r3, r9, #15
    8ea8:	eb02 03c3 	add.w	r3, r2, r3, lsl #3
    8eac:	e9d3 0100 	ldrd	r0, r1, [r3]
    8eb0:	ea4f 1429 	mov.w	r4, r9, asr #4
    8eb4:	e9cd 010c 	strd	r0, r1, [sp, #48]	; 0x30
    8eb8:	06e0      	lsls	r0, r4, #27
    8eba:	d50c      	bpl.n	8ed6 <_dtoa_r+0x34e>
    8ebc:	4b7b      	ldr	r3, [pc, #492]	; (90ac <_dtoa_r+0x524>)
    8ebe:	e9dd 0112 	ldrd	r0, r1, [sp, #72]	; 0x48
    8ec2:	e9d3 2308 	ldrd	r2, r3, [r3, #32]
    8ec6:	f7fc feaf 	bl	5c28 <__aeabi_ddiv>
    8eca:	f004 040f 	and.w	r4, r4, #15
    8ece:	e9cd 0104 	strd	r0, r1, [sp, #16]
    8ed2:	2703      	movs	r7, #3
    8ed4:	e000      	b.n	8ed8 <_dtoa_r+0x350>
    8ed6:	2702      	movs	r7, #2
    8ed8:	4d74      	ldr	r5, [pc, #464]	; (90ac <_dtoa_r+0x524>)
    8eda:	b16c      	cbz	r4, 8ef8 <_dtoa_r+0x370>
    8edc:	07e1      	lsls	r1, r4, #31
    8ede:	d508      	bpl.n	8ef2 <_dtoa_r+0x36a>
    8ee0:	e9dd 010c 	ldrd	r0, r1, [sp, #48]	; 0x30
    8ee4:	e9d5 2300 	ldrd	r2, r3, [r5]
    8ee8:	f7fc fd74 	bl	59d4 <__aeabi_dmul>
    8eec:	e9cd 010c 	strd	r0, r1, [sp, #48]	; 0x30
    8ef0:	3701      	adds	r7, #1
    8ef2:	1064      	asrs	r4, r4, #1
    8ef4:	3508      	adds	r5, #8
    8ef6:	e7f0      	b.n	8eda <_dtoa_r+0x352>
    8ef8:	e9dd 0104 	ldrd	r0, r1, [sp, #16]
    8efc:	e9dd 230c 	ldrd	r2, r3, [sp, #48]	; 0x30
    8f00:	f7fc fe92 	bl	5c28 <__aeabi_ddiv>
    8f04:	e01b      	b.n	8f3e <_dtoa_r+0x3b6>
    8f06:	f1c9 0400 	rsb	r4, r9, #0
    8f0a:	b1dc      	cbz	r4, 8f44 <_dtoa_r+0x3bc>
    8f0c:	4b66      	ldr	r3, [pc, #408]	; (90a8 <_dtoa_r+0x520>)
    8f0e:	4d67      	ldr	r5, [pc, #412]	; (90ac <_dtoa_r+0x524>)
    8f10:	f004 020f 	and.w	r2, r4, #15
    8f14:	eb03 03c2 	add.w	r3, r3, r2, lsl #3
    8f18:	e9dd 0112 	ldrd	r0, r1, [sp, #72]	; 0x48
    8f1c:	e9d3 2300 	ldrd	r2, r3, [r3]
    8f20:	f7fc fd58 	bl	59d4 <__aeabi_dmul>
    8f24:	1124      	asrs	r4, r4, #4
    8f26:	2702      	movs	r7, #2
    8f28:	b14c      	cbz	r4, 8f3e <_dtoa_r+0x3b6>
    8f2a:	07e2      	lsls	r2, r4, #31
    8f2c:	d504      	bpl.n	8f38 <_dtoa_r+0x3b0>
    8f2e:	e9d5 2300 	ldrd	r2, r3, [r5]
    8f32:	3701      	adds	r7, #1
    8f34:	f7fc fd4e 	bl	59d4 <__aeabi_dmul>
    8f38:	1064      	asrs	r4, r4, #1
    8f3a:	3508      	adds	r5, #8
    8f3c:	e7f4      	b.n	8f28 <_dtoa_r+0x3a0>
    8f3e:	e9cd 0104 	strd	r0, r1, [sp, #16]
    8f42:	e000      	b.n	8f46 <_dtoa_r+0x3be>
    8f44:	2702      	movs	r7, #2
    8f46:	9914      	ldr	r1, [sp, #80]	; 0x50
    8f48:	b1e9      	cbz	r1, 8f86 <_dtoa_r+0x3fe>
    8f4a:	e9dd 4504 	ldrd	r4, r5, [sp, #16]
    8f4e:	2200      	movs	r2, #0
    8f50:	4620      	mov	r0, r4
    8f52:	4629      	mov	r1, r5
    8f54:	4b56      	ldr	r3, [pc, #344]	; (90b0 <_dtoa_r+0x528>)
    8f56:	f7fc ffaf 	bl	5eb8 <__aeabi_dcmplt>
    8f5a:	b1c8      	cbz	r0, 8f90 <_dtoa_r+0x408>
    8f5c:	9a07      	ldr	r2, [sp, #28]
    8f5e:	b1e2      	cbz	r2, 8f9a <_dtoa_r+0x412>
    8f60:	9b0b      	ldr	r3, [sp, #44]	; 0x2c
    8f62:	2b00      	cmp	r3, #0
    8f64:	f340 80fa 	ble.w	915c <_dtoa_r+0x5d4>
    8f68:	f109 30ff 	add.w	r0, r9, #4294967295
    8f6c:	9010      	str	r0, [sp, #64]	; 0x40
    8f6e:	4629      	mov	r1, r5
    8f70:	4620      	mov	r0, r4
    8f72:	2200      	movs	r2, #0
    8f74:	4b4f      	ldr	r3, [pc, #316]	; (90b4 <_dtoa_r+0x52c>)
    8f76:	f7fc fd2d 	bl	59d4 <__aeabi_dmul>
    8f7a:	e9cd 0104 	strd	r0, r1, [sp, #16]
    8f7e:	990b      	ldr	r1, [sp, #44]	; 0x2c
    8f80:	910c      	str	r1, [sp, #48]	; 0x30
    8f82:	3701      	adds	r7, #1
    8f84:	e00d      	b.n	8fa2 <_dtoa_r+0x41a>
    8f86:	9a07      	ldr	r2, [sp, #28]
    8f88:	f8cd 9040 	str.w	r9, [sp, #64]	; 0x40
    8f8c:	920c      	str	r2, [sp, #48]	; 0x30
    8f8e:	e008      	b.n	8fa2 <_dtoa_r+0x41a>
    8f90:	9b07      	ldr	r3, [sp, #28]
    8f92:	f8cd 9040 	str.w	r9, [sp, #64]	; 0x40
    8f96:	930c      	str	r3, [sp, #48]	; 0x30
    8f98:	e003      	b.n	8fa2 <_dtoa_r+0x41a>
    8f9a:	9807      	ldr	r0, [sp, #28]
    8f9c:	f8cd 9040 	str.w	r9, [sp, #64]	; 0x40
    8fa0:	900c      	str	r0, [sp, #48]	; 0x30
    8fa2:	4638      	mov	r0, r7
    8fa4:	f7fc fcb0 	bl	5908 <__aeabi_i2d>
    8fa8:	e9dd 2304 	ldrd	r2, r3, [sp, #16]
    8fac:	f7fc fd12 	bl	59d4 <__aeabi_dmul>
    8fb0:	2200      	movs	r2, #0
    8fb2:	4b41      	ldr	r3, [pc, #260]	; (90b8 <_dtoa_r+0x530>)
    8fb4:	f7fc fb5c 	bl	5670 <__adddf3>
    8fb8:	9f0c      	ldr	r7, [sp, #48]	; 0x30
    8fba:	4604      	mov	r4, r0
    8fbc:	f1a1 7550 	sub.w	r5, r1, #54525952	; 0x3400000
    8fc0:	b9cf      	cbnz	r7, 8ff6 <_dtoa_r+0x46e>
    8fc2:	2200      	movs	r2, #0
    8fc4:	4b3d      	ldr	r3, [pc, #244]	; (90bc <_dtoa_r+0x534>)
    8fc6:	e9dd 0104 	ldrd	r0, r1, [sp, #16]
    8fca:	f7fc fb4f 	bl	566c <__aeabi_dsub>
    8fce:	4622      	mov	r2, r4
    8fd0:	462b      	mov	r3, r5
    8fd2:	4606      	mov	r6, r0
    8fd4:	460f      	mov	r7, r1
    8fd6:	f7fc ff8d 	bl	5ef4 <__aeabi_dcmpgt>
    8fda:	2800      	cmp	r0, #0
    8fdc:	f040 8253 	bne.w	9486 <_dtoa_r+0x8fe>
    8fe0:	4622      	mov	r2, r4
    8fe2:	f105 4300 	add.w	r3, r5, #2147483648	; 0x80000000
    8fe6:	4630      	mov	r0, r6
    8fe8:	4639      	mov	r1, r7
    8fea:	f7fc ff65 	bl	5eb8 <__aeabi_dcmplt>
    8fee:	2800      	cmp	r0, #0
    8ff0:	f040 823f 	bne.w	9472 <_dtoa_r+0x8ea>
    8ff4:	e0b2      	b.n	915c <_dtoa_r+0x5d4>
    8ff6:	9f0c      	ldr	r7, [sp, #48]	; 0x30
    8ff8:	4b2b      	ldr	r3, [pc, #172]	; (90a8 <_dtoa_r+0x520>)
    8ffa:	1e7a      	subs	r2, r7, #1
    8ffc:	9f0f      	ldr	r7, [sp, #60]	; 0x3c
    8ffe:	eb03 03c2 	add.w	r3, r3, r2, lsl #3
    9002:	2f00      	cmp	r7, #0
    9004:	d05e      	beq.n	90c4 <_dtoa_r+0x53c>
    9006:	e9d3 2300 	ldrd	r2, r3, [r3]
    900a:	2000      	movs	r0, #0
    900c:	492c      	ldr	r1, [pc, #176]	; (90c0 <_dtoa_r+0x538>)
    900e:	f7fc fe0b 	bl	5c28 <__aeabi_ddiv>
    9012:	4622      	mov	r2, r4
    9014:	462b      	mov	r3, r5
    9016:	f7fc fb29 	bl	566c <__aeabi_dsub>
    901a:	e9dd 6704 	ldrd	r6, r7, [sp, #16]
    901e:	f8dd 8028 	ldr.w	r8, [sp, #40]	; 0x28
    9022:	4604      	mov	r4, r0
    9024:	460d      	mov	r5, r1
    9026:	4639      	mov	r1, r7
    9028:	4630      	mov	r0, r6
    902a:	f7fc ff6d 	bl	5f08 <__aeabi_d2iz>
    902e:	9002      	str	r0, [sp, #8]
    9030:	f7fc fc6a 	bl	5908 <__aeabi_i2d>
    9034:	4602      	mov	r2, r0
    9036:	460b      	mov	r3, r1
    9038:	4630      	mov	r0, r6
    903a:	4639      	mov	r1, r7
    903c:	f7fc fb16 	bl	566c <__aeabi_dsub>
    9040:	f8dd c008 	ldr.w	ip, [sp, #8]
    9044:	f10c 0330 	add.w	r3, ip, #48	; 0x30
    9048:	f808 3b01 	strb.w	r3, [r8], #1
    904c:	4622      	mov	r2, r4
    904e:	462b      	mov	r3, r5
    9050:	4606      	mov	r6, r0
    9052:	460f      	mov	r7, r1
    9054:	f7fc ff30 	bl	5eb8 <__aeabi_dcmplt>
    9058:	2800      	cmp	r0, #0
    905a:	f040 833b 	bne.w	96d4 <_dtoa_r+0xb4c>
    905e:	4632      	mov	r2, r6
    9060:	463b      	mov	r3, r7
    9062:	2000      	movs	r0, #0
    9064:	4912      	ldr	r1, [pc, #72]	; (90b0 <_dtoa_r+0x528>)
    9066:	f7fc fb01 	bl	566c <__aeabi_dsub>
    906a:	4622      	mov	r2, r4
    906c:	462b      	mov	r3, r5
    906e:	f7fc ff23 	bl	5eb8 <__aeabi_dcmplt>
    9072:	2800      	cmp	r0, #0
    9074:	f040 80d5 	bne.w	9222 <_dtoa_r+0x69a>
    9078:	980a      	ldr	r0, [sp, #40]	; 0x28
    907a:	990c      	ldr	r1, [sp, #48]	; 0x30
    907c:	ebc0 0308 	rsb	r3, r0, r8
    9080:	428b      	cmp	r3, r1
    9082:	da6b      	bge.n	915c <_dtoa_r+0x5d4>
    9084:	4620      	mov	r0, r4
    9086:	4629      	mov	r1, r5
    9088:	2200      	movs	r2, #0
    908a:	4b0a      	ldr	r3, [pc, #40]	; (90b4 <_dtoa_r+0x52c>)
    908c:	f7fc fca2 	bl	59d4 <__aeabi_dmul>
    9090:	2200      	movs	r2, #0
    9092:	4604      	mov	r4, r0
    9094:	460d      	mov	r5, r1
    9096:	4630      	mov	r0, r6
    9098:	4639      	mov	r1, r7
    909a:	4b06      	ldr	r3, [pc, #24]	; (90b4 <_dtoa_r+0x52c>)
    909c:	f7fc fc9a 	bl	59d4 <__aeabi_dmul>
    90a0:	4606      	mov	r6, r0
    90a2:	460f      	mov	r7, r1
    90a4:	e7bf      	b.n	9026 <_dtoa_r+0x49e>
    90a6:	bf00      	nop
    90a8:	0000a598 	.word	0x0000a598
    90ac:	0000a660 	.word	0x0000a660
    90b0:	3ff00000 	.word	0x3ff00000
    90b4:	40240000 	.word	0x40240000
    90b8:	401c0000 	.word	0x401c0000
    90bc:	40140000 	.word	0x40140000
    90c0:	3fe00000 	.word	0x3fe00000
    90c4:	4622      	mov	r2, r4
    90c6:	e9d3 0100 	ldrd	r0, r1, [r3]
    90ca:	462b      	mov	r3, r5
    90cc:	f7fc fc82 	bl	59d4 <__aeabi_dmul>
    90d0:	f8dd 8028 	ldr.w	r8, [sp, #40]	; 0x28
    90d4:	9a0c      	ldr	r2, [sp, #48]	; 0x30
    90d6:	9c0a      	ldr	r4, [sp, #40]	; 0x28
    90d8:	e9cd 0116 	strd	r0, r1, [sp, #88]	; 0x58
    90dc:	e9dd 6704 	ldrd	r6, r7, [sp, #16]
    90e0:	4490      	add	r8, r2
    90e2:	4639      	mov	r1, r7
    90e4:	4630      	mov	r0, r6
    90e6:	f7fc ff0f 	bl	5f08 <__aeabi_d2iz>
    90ea:	4605      	mov	r5, r0
    90ec:	f7fc fc0c 	bl	5908 <__aeabi_i2d>
    90f0:	3530      	adds	r5, #48	; 0x30
    90f2:	4602      	mov	r2, r0
    90f4:	460b      	mov	r3, r1
    90f6:	4630      	mov	r0, r6
    90f8:	4639      	mov	r1, r7
    90fa:	f7fc fab7 	bl	566c <__aeabi_dsub>
    90fe:	f804 5b01 	strb.w	r5, [r4], #1
    9102:	4544      	cmp	r4, r8
    9104:	4606      	mov	r6, r0
    9106:	460f      	mov	r7, r1
    9108:	d121      	bne.n	914e <_dtoa_r+0x5c6>
    910a:	2200      	movs	r2, #0
    910c:	4b87      	ldr	r3, [pc, #540]	; (932c <_dtoa_r+0x7a4>)
    910e:	e9dd 0116 	ldrd	r0, r1, [sp, #88]	; 0x58
    9112:	f7fc faad 	bl	5670 <__adddf3>
    9116:	4602      	mov	r2, r0
    9118:	460b      	mov	r3, r1
    911a:	4630      	mov	r0, r6
    911c:	4639      	mov	r1, r7
    911e:	f7fc fee9 	bl	5ef4 <__aeabi_dcmpgt>
    9122:	2800      	cmp	r0, #0
    9124:	d17d      	bne.n	9222 <_dtoa_r+0x69a>
    9126:	e9dd 2316 	ldrd	r2, r3, [sp, #88]	; 0x58
    912a:	2000      	movs	r0, #0
    912c:	497f      	ldr	r1, [pc, #508]	; (932c <_dtoa_r+0x7a4>)
    912e:	f7fc fa9d 	bl	566c <__aeabi_dsub>
    9132:	4602      	mov	r2, r0
    9134:	460b      	mov	r3, r1
    9136:	4630      	mov	r0, r6
    9138:	4639      	mov	r1, r7
    913a:	f7fc febd 	bl	5eb8 <__aeabi_dcmplt>
    913e:	b168      	cbz	r0, 915c <_dtoa_r+0x5d4>
    9140:	46a0      	mov	r8, r4
    9142:	3c01      	subs	r4, #1
    9144:	f818 3c01 	ldrb.w	r3, [r8, #-1]
    9148:	2b30      	cmp	r3, #48	; 0x30
    914a:	d0f9      	beq.n	9140 <_dtoa_r+0x5b8>
    914c:	e2c2      	b.n	96d4 <_dtoa_r+0xb4c>
    914e:	2200      	movs	r2, #0
    9150:	4b77      	ldr	r3, [pc, #476]	; (9330 <_dtoa_r+0x7a8>)
    9152:	f7fc fc3f 	bl	59d4 <__aeabi_dmul>
    9156:	4606      	mov	r6, r0
    9158:	460f      	mov	r7, r1
    915a:	e7c2      	b.n	90e2 <_dtoa_r+0x55a>
    915c:	e9dd 0112 	ldrd	r0, r1, [sp, #72]	; 0x48
    9160:	e9cd 0104 	strd	r0, r1, [sp, #16]
    9164:	9b19      	ldr	r3, [sp, #100]	; 0x64
    9166:	2b00      	cmp	r3, #0
    9168:	db7c      	blt.n	9264 <_dtoa_r+0x6dc>
    916a:	f1b9 0f0e 	cmp.w	r9, #14
    916e:	dc79      	bgt.n	9264 <_dtoa_r+0x6dc>
    9170:	4b70      	ldr	r3, [pc, #448]	; (9334 <_dtoa_r+0x7ac>)
    9172:	9f25      	ldr	r7, [sp, #148]	; 0x94
    9174:	eb03 03c9 	add.w	r3, r3, r9, lsl #3
    9178:	2f00      	cmp	r7, #0
    917a:	e9d3 4500 	ldrd	r4, r5, [r3]
    917e:	da14      	bge.n	91aa <_dtoa_r+0x622>
    9180:	9f07      	ldr	r7, [sp, #28]
    9182:	2f00      	cmp	r7, #0
    9184:	dc11      	bgt.n	91aa <_dtoa_r+0x622>
    9186:	f040 8176 	bne.w	9476 <_dtoa_r+0x8ee>
    918a:	4620      	mov	r0, r4
    918c:	4629      	mov	r1, r5
    918e:	2200      	movs	r2, #0
    9190:	4b69      	ldr	r3, [pc, #420]	; (9338 <_dtoa_r+0x7b0>)
    9192:	f7fc fc1f 	bl	59d4 <__aeabi_dmul>
    9196:	e9dd 2304 	ldrd	r2, r3, [sp, #16]
    919a:	f7fc fea1 	bl	5ee0 <__aeabi_dcmpge>
    919e:	9d07      	ldr	r5, [sp, #28]
    91a0:	462c      	mov	r4, r5
    91a2:	2800      	cmp	r0, #0
    91a4:	f040 8169 	bne.w	947a <_dtoa_r+0x8f2>
    91a8:	e171      	b.n	948e <_dtoa_r+0x906>
    91aa:	e9dd 6704 	ldrd	r6, r7, [sp, #16]
    91ae:	f8dd 8028 	ldr.w	r8, [sp, #40]	; 0x28
    91b2:	4622      	mov	r2, r4
    91b4:	462b      	mov	r3, r5
    91b6:	4630      	mov	r0, r6
    91b8:	4639      	mov	r1, r7
    91ba:	f7fc fd35 	bl	5c28 <__aeabi_ddiv>
    91be:	f7fc fea3 	bl	5f08 <__aeabi_d2iz>
    91c2:	9004      	str	r0, [sp, #16]
    91c4:	f7fc fba0 	bl	5908 <__aeabi_i2d>
    91c8:	4622      	mov	r2, r4
    91ca:	462b      	mov	r3, r5
    91cc:	f7fc fc02 	bl	59d4 <__aeabi_dmul>
    91d0:	4602      	mov	r2, r0
    91d2:	460b      	mov	r3, r1
    91d4:	4630      	mov	r0, r6
    91d6:	4639      	mov	r1, r7
    91d8:	f7fc fa48 	bl	566c <__aeabi_dsub>
    91dc:	9f04      	ldr	r7, [sp, #16]
    91de:	f107 0630 	add.w	r6, r7, #48	; 0x30
    91e2:	f808 6b01 	strb.w	r6, [r8], #1
    91e6:	9f0a      	ldr	r7, [sp, #40]	; 0x28
    91e8:	ebc7 0608 	rsb	r6, r7, r8
    91ec:	9f07      	ldr	r7, [sp, #28]
    91ee:	42be      	cmp	r6, r7
    91f0:	4602      	mov	r2, r0
    91f2:	460b      	mov	r3, r1
    91f4:	d129      	bne.n	924a <_dtoa_r+0x6c2>
    91f6:	f7fc fa3b 	bl	5670 <__adddf3>
    91fa:	4622      	mov	r2, r4
    91fc:	462b      	mov	r3, r5
    91fe:	4606      	mov	r6, r0
    9200:	460f      	mov	r7, r1
    9202:	f7fc fe77 	bl	5ef4 <__aeabi_dcmpgt>
    9206:	b970      	cbnz	r0, 9226 <_dtoa_r+0x69e>
    9208:	4630      	mov	r0, r6
    920a:	4639      	mov	r1, r7
    920c:	4622      	mov	r2, r4
    920e:	462b      	mov	r3, r5
    9210:	f7fc fe48 	bl	5ea4 <__aeabi_dcmpeq>
    9214:	2800      	cmp	r0, #0
    9216:	f000 825f 	beq.w	96d8 <_dtoa_r+0xb50>
    921a:	9f04      	ldr	r7, [sp, #16]
    921c:	07fb      	lsls	r3, r7, #31
    921e:	d402      	bmi.n	9226 <_dtoa_r+0x69e>
    9220:	e25a      	b.n	96d8 <_dtoa_r+0xb50>
    9222:	f8dd 9040 	ldr.w	r9, [sp, #64]	; 0x40
    9226:	4643      	mov	r3, r8
    9228:	4698      	mov	r8, r3
    922a:	3b01      	subs	r3, #1
    922c:	f818 2c01 	ldrb.w	r2, [r8, #-1]
    9230:	2a39      	cmp	r2, #57	; 0x39
    9232:	d106      	bne.n	9242 <_dtoa_r+0x6ba>
    9234:	9f0a      	ldr	r7, [sp, #40]	; 0x28
    9236:	429f      	cmp	r7, r3
    9238:	d1f6      	bne.n	9228 <_dtoa_r+0x6a0>
    923a:	2230      	movs	r2, #48	; 0x30
    923c:	f109 0901 	add.w	r9, r9, #1
    9240:	703a      	strb	r2, [r7, #0]
    9242:	781a      	ldrb	r2, [r3, #0]
    9244:	3201      	adds	r2, #1
    9246:	701a      	strb	r2, [r3, #0]
    9248:	e246      	b.n	96d8 <_dtoa_r+0xb50>
    924a:	2200      	movs	r2, #0
    924c:	4b38      	ldr	r3, [pc, #224]	; (9330 <_dtoa_r+0x7a8>)
    924e:	f7fc fbc1 	bl	59d4 <__aeabi_dmul>
    9252:	2200      	movs	r2, #0
    9254:	2300      	movs	r3, #0
    9256:	4606      	mov	r6, r0
    9258:	460f      	mov	r7, r1
    925a:	f7fc fe23 	bl	5ea4 <__aeabi_dcmpeq>
    925e:	2800      	cmp	r0, #0
    9260:	d0a7      	beq.n	91b2 <_dtoa_r+0x62a>
    9262:	e239      	b.n	96d8 <_dtoa_r+0xb50>
    9264:	9f0f      	ldr	r7, [sp, #60]	; 0x3c
    9266:	2f00      	cmp	r7, #0
    9268:	d030      	beq.n	92cc <_dtoa_r+0x744>
    926a:	9f24      	ldr	r7, [sp, #144]	; 0x90
    926c:	2f01      	cmp	r7, #1
    926e:	dc0a      	bgt.n	9286 <_dtoa_r+0x6fe>
    9270:	9f15      	ldr	r7, [sp, #84]	; 0x54
    9272:	b117      	cbz	r7, 927a <_dtoa_r+0x6f2>
    9274:	f203 4333 	addw	r3, r3, #1075	; 0x433
    9278:	e002      	b.n	9280 <_dtoa_r+0x6f8>
    927a:	9b18      	ldr	r3, [sp, #96]	; 0x60
    927c:	f1c3 0336 	rsb	r3, r3, #54	; 0x36
    9280:	9d0e      	ldr	r5, [sp, #56]	; 0x38
    9282:	9e08      	ldr	r6, [sp, #32]
    9284:	e016      	b.n	92b4 <_dtoa_r+0x72c>
    9286:	9f07      	ldr	r7, [sp, #28]
    9288:	1e7d      	subs	r5, r7, #1
    928a:	9f0e      	ldr	r7, [sp, #56]	; 0x38
    928c:	42af      	cmp	r7, r5
    928e:	db01      	blt.n	9294 <_dtoa_r+0x70c>
    9290:	1b7d      	subs	r5, r7, r5
    9292:	e006      	b.n	92a2 <_dtoa_r+0x71a>
    9294:	9f0e      	ldr	r7, [sp, #56]	; 0x38
    9296:	950e      	str	r5, [sp, #56]	; 0x38
    9298:	1beb      	subs	r3, r5, r7
    929a:	9f11      	ldr	r7, [sp, #68]	; 0x44
    929c:	441f      	add	r7, r3
    929e:	9711      	str	r7, [sp, #68]	; 0x44
    92a0:	2500      	movs	r5, #0
    92a2:	9f07      	ldr	r7, [sp, #28]
    92a4:	2f00      	cmp	r7, #0
    92a6:	da03      	bge.n	92b0 <_dtoa_r+0x728>
    92a8:	9808      	ldr	r0, [sp, #32]
    92aa:	2300      	movs	r3, #0
    92ac:	1bc6      	subs	r6, r0, r7
    92ae:	e001      	b.n	92b4 <_dtoa_r+0x72c>
    92b0:	9e08      	ldr	r6, [sp, #32]
    92b2:	9b07      	ldr	r3, [sp, #28]
    92b4:	9f08      	ldr	r7, [sp, #32]
    92b6:	441f      	add	r7, r3
    92b8:	9708      	str	r7, [sp, #32]
    92ba:	9f09      	ldr	r7, [sp, #36]	; 0x24
    92bc:	4650      	mov	r0, sl
    92be:	441f      	add	r7, r3
    92c0:	2101      	movs	r1, #1
    92c2:	9709      	str	r7, [sp, #36]	; 0x24
    92c4:	f7ff f82f 	bl	8326 <__i2b>
    92c8:	4604      	mov	r4, r0
    92ca:	e002      	b.n	92d2 <_dtoa_r+0x74a>
    92cc:	9d0e      	ldr	r5, [sp, #56]	; 0x38
    92ce:	9e08      	ldr	r6, [sp, #32]
    92d0:	9c0f      	ldr	r4, [sp, #60]	; 0x3c
    92d2:	b16e      	cbz	r6, 92f0 <_dtoa_r+0x768>
    92d4:	9f09      	ldr	r7, [sp, #36]	; 0x24
    92d6:	2f00      	cmp	r7, #0
    92d8:	dd0a      	ble.n	92f0 <_dtoa_r+0x768>
    92da:	463b      	mov	r3, r7
    92dc:	9f08      	ldr	r7, [sp, #32]
    92de:	42b3      	cmp	r3, r6
    92e0:	bfa8      	it	ge
    92e2:	4633      	movge	r3, r6
    92e4:	1aff      	subs	r7, r7, r3
    92e6:	9708      	str	r7, [sp, #32]
    92e8:	9f09      	ldr	r7, [sp, #36]	; 0x24
    92ea:	1aff      	subs	r7, r7, r3
    92ec:	1af6      	subs	r6, r6, r3
    92ee:	9709      	str	r7, [sp, #36]	; 0x24
    92f0:	9f0e      	ldr	r7, [sp, #56]	; 0x38
    92f2:	2f00      	cmp	r7, #0
    92f4:	dd28      	ble.n	9348 <_dtoa_r+0x7c0>
    92f6:	9f0f      	ldr	r7, [sp, #60]	; 0x3c
    92f8:	b307      	cbz	r7, 933c <_dtoa_r+0x7b4>
    92fa:	2d00      	cmp	r5, #0
    92fc:	dd10      	ble.n	9320 <_dtoa_r+0x798>
    92fe:	4621      	mov	r1, r4
    9300:	462a      	mov	r2, r5
    9302:	4650      	mov	r0, sl
    9304:	f7ff f8b0 	bl	8468 <__pow5mult>
    9308:	4604      	mov	r4, r0
    930a:	465a      	mov	r2, fp
    930c:	4621      	mov	r1, r4
    930e:	4650      	mov	r0, sl
    9310:	f7ff f812 	bl	8338 <__multiply>
    9314:	4659      	mov	r1, fp
    9316:	4607      	mov	r7, r0
    9318:	4650      	mov	r0, sl
    931a:	f7fe ff24 	bl	8166 <_Bfree>
    931e:	46bb      	mov	fp, r7
    9320:	9f0e      	ldr	r7, [sp, #56]	; 0x38
    9322:	1b7a      	subs	r2, r7, r5
    9324:	d010      	beq.n	9348 <_dtoa_r+0x7c0>
    9326:	4650      	mov	r0, sl
    9328:	4659      	mov	r1, fp
    932a:	e00a      	b.n	9342 <_dtoa_r+0x7ba>
    932c:	3fe00000 	.word	0x3fe00000
    9330:	40240000 	.word	0x40240000
    9334:	0000a598 	.word	0x0000a598
    9338:	40140000 	.word	0x40140000
    933c:	9a0e      	ldr	r2, [sp, #56]	; 0x38
    933e:	4650      	mov	r0, sl
    9340:	4659      	mov	r1, fp
    9342:	f7ff f891 	bl	8468 <__pow5mult>
    9346:	4683      	mov	fp, r0
    9348:	4650      	mov	r0, sl
    934a:	2101      	movs	r1, #1
    934c:	f7fe ffeb 	bl	8326 <__i2b>
    9350:	9f11      	ldr	r7, [sp, #68]	; 0x44
    9352:	2f00      	cmp	r7, #0
    9354:	4605      	mov	r5, r0
    9356:	dd05      	ble.n	9364 <_dtoa_r+0x7dc>
    9358:	4629      	mov	r1, r5
    935a:	4650      	mov	r0, sl
    935c:	463a      	mov	r2, r7
    935e:	f7ff f883 	bl	8468 <__pow5mult>
    9362:	4605      	mov	r5, r0
    9364:	9f24      	ldr	r7, [sp, #144]	; 0x90
    9366:	2f01      	cmp	r7, #1
    9368:	dc12      	bgt.n	9390 <_dtoa_r+0x808>
    936a:	9804      	ldr	r0, [sp, #16]
    936c:	b980      	cbnz	r0, 9390 <_dtoa_r+0x808>
    936e:	9905      	ldr	r1, [sp, #20]
    9370:	f3c1 0313 	ubfx	r3, r1, #0, #20
    9374:	b973      	cbnz	r3, 9394 <_dtoa_r+0x80c>
    9376:	f021 4700 	bic.w	r7, r1, #2147483648	; 0x80000000
    937a:	0d3f      	lsrs	r7, r7, #20
    937c:	053f      	lsls	r7, r7, #20
    937e:	b157      	cbz	r7, 9396 <_dtoa_r+0x80e>
    9380:	9f08      	ldr	r7, [sp, #32]
    9382:	3701      	adds	r7, #1
    9384:	9708      	str	r7, [sp, #32]
    9386:	9f09      	ldr	r7, [sp, #36]	; 0x24
    9388:	3701      	adds	r7, #1
    938a:	9709      	str	r7, [sp, #36]	; 0x24
    938c:	2701      	movs	r7, #1
    938e:	e002      	b.n	9396 <_dtoa_r+0x80e>
    9390:	2700      	movs	r7, #0
    9392:	e000      	b.n	9396 <_dtoa_r+0x80e>
    9394:	9f04      	ldr	r7, [sp, #16]
    9396:	9811      	ldr	r0, [sp, #68]	; 0x44
    9398:	b140      	cbz	r0, 93ac <_dtoa_r+0x824>
    939a:	692b      	ldr	r3, [r5, #16]
    939c:	eb05 0383 	add.w	r3, r5, r3, lsl #2
    93a0:	6918      	ldr	r0, [r3, #16]
    93a2:	f7fe ff73 	bl	828c <__hi0bits>
    93a6:	f1c0 0020 	rsb	r0, r0, #32
    93aa:	e000      	b.n	93ae <_dtoa_r+0x826>
    93ac:	2001      	movs	r0, #1
    93ae:	9b09      	ldr	r3, [sp, #36]	; 0x24
    93b0:	4403      	add	r3, r0
    93b2:	f013 031f 	ands.w	r3, r3, #31
    93b6:	d00f      	beq.n	93d8 <_dtoa_r+0x850>
    93b8:	f1c3 0220 	rsb	r2, r3, #32
    93bc:	2a04      	cmp	r2, #4
    93be:	dd09      	ble.n	93d4 <_dtoa_r+0x84c>
    93c0:	9908      	ldr	r1, [sp, #32]
    93c2:	9a09      	ldr	r2, [sp, #36]	; 0x24
    93c4:	f1c3 031c 	rsb	r3, r3, #28
    93c8:	4419      	add	r1, r3
    93ca:	441a      	add	r2, r3
    93cc:	9108      	str	r1, [sp, #32]
    93ce:	441e      	add	r6, r3
    93d0:	9209      	str	r2, [sp, #36]	; 0x24
    93d2:	e009      	b.n	93e8 <_dtoa_r+0x860>
    93d4:	d008      	beq.n	93e8 <_dtoa_r+0x860>
    93d6:	4613      	mov	r3, r2
    93d8:	9808      	ldr	r0, [sp, #32]
    93da:	9909      	ldr	r1, [sp, #36]	; 0x24
    93dc:	331c      	adds	r3, #28
    93de:	4418      	add	r0, r3
    93e0:	4419      	add	r1, r3
    93e2:	9008      	str	r0, [sp, #32]
    93e4:	441e      	add	r6, r3
    93e6:	9109      	str	r1, [sp, #36]	; 0x24
    93e8:	9a08      	ldr	r2, [sp, #32]
    93ea:	2a00      	cmp	r2, #0
    93ec:	dd04      	ble.n	93f8 <_dtoa_r+0x870>
    93ee:	4659      	mov	r1, fp
    93f0:	4650      	mov	r0, sl
    93f2:	f7ff f887 	bl	8504 <__lshift>
    93f6:	4683      	mov	fp, r0
    93f8:	9b09      	ldr	r3, [sp, #36]	; 0x24
    93fa:	2b00      	cmp	r3, #0
    93fc:	dd05      	ble.n	940a <_dtoa_r+0x882>
    93fe:	4629      	mov	r1, r5
    9400:	4650      	mov	r0, sl
    9402:	461a      	mov	r2, r3
    9404:	f7ff f87e 	bl	8504 <__lshift>
    9408:	4605      	mov	r5, r0
    940a:	9814      	ldr	r0, [sp, #80]	; 0x50
    940c:	b1e0      	cbz	r0, 9448 <_dtoa_r+0x8c0>
    940e:	4658      	mov	r0, fp
    9410:	4629      	mov	r1, r5
    9412:	f7ff f8ca 	bl	85aa <__mcmp>
    9416:	2800      	cmp	r0, #0
    9418:	da16      	bge.n	9448 <_dtoa_r+0x8c0>
    941a:	4659      	mov	r1, fp
    941c:	4650      	mov	r0, sl
    941e:	220a      	movs	r2, #10
    9420:	2300      	movs	r3, #0
    9422:	f7fe feb7 	bl	8194 <__multadd>
    9426:	990f      	ldr	r1, [sp, #60]	; 0x3c
    9428:	f109 39ff 	add.w	r9, r9, #4294967295
    942c:	4683      	mov	fp, r0
    942e:	b149      	cbz	r1, 9444 <_dtoa_r+0x8bc>
    9430:	4621      	mov	r1, r4
    9432:	220a      	movs	r2, #10
    9434:	4650      	mov	r0, sl
    9436:	2300      	movs	r3, #0
    9438:	f7fe feac 	bl	8194 <__multadd>
    943c:	9a0b      	ldr	r2, [sp, #44]	; 0x2c
    943e:	9207      	str	r2, [sp, #28]
    9440:	4604      	mov	r4, r0
    9442:	e001      	b.n	9448 <_dtoa_r+0x8c0>
    9444:	9b0b      	ldr	r3, [sp, #44]	; 0x2c
    9446:	9307      	str	r3, [sp, #28]
    9448:	9807      	ldr	r0, [sp, #28]
    944a:	2800      	cmp	r0, #0
    944c:	dc29      	bgt.n	94a2 <_dtoa_r+0x91a>
    944e:	9924      	ldr	r1, [sp, #144]	; 0x90
    9450:	2902      	cmp	r1, #2
    9452:	dd26      	ble.n	94a2 <_dtoa_r+0x91a>
    9454:	b988      	cbnz	r0, 947a <_dtoa_r+0x8f2>
    9456:	4629      	mov	r1, r5
    9458:	2205      	movs	r2, #5
    945a:	9b07      	ldr	r3, [sp, #28]
    945c:	4650      	mov	r0, sl
    945e:	f7fe fe99 	bl	8194 <__multadd>
    9462:	4605      	mov	r5, r0
    9464:	4629      	mov	r1, r5
    9466:	4658      	mov	r0, fp
    9468:	f7ff f89f 	bl	85aa <__mcmp>
    946c:	2800      	cmp	r0, #0
    946e:	dc0e      	bgt.n	948e <_dtoa_r+0x906>
    9470:	e003      	b.n	947a <_dtoa_r+0x8f2>
    9472:	9d0c      	ldr	r5, [sp, #48]	; 0x30
    9474:	e000      	b.n	9478 <_dtoa_r+0x8f0>
    9476:	2500      	movs	r5, #0
    9478:	462c      	mov	r4, r5
    947a:	9f25      	ldr	r7, [sp, #148]	; 0x94
    947c:	f8dd 8028 	ldr.w	r8, [sp, #40]	; 0x28
    9480:	ea6f 0907 	mvn.w	r9, r7
    9484:	e00a      	b.n	949c <_dtoa_r+0x914>
    9486:	9d0c      	ldr	r5, [sp, #48]	; 0x30
    9488:	f8dd 9040 	ldr.w	r9, [sp, #64]	; 0x40
    948c:	462c      	mov	r4, r5
    948e:	9f0a      	ldr	r7, [sp, #40]	; 0x28
    9490:	2331      	movs	r3, #49	; 0x31
    9492:	f107 0801 	add.w	r8, r7, #1
    9496:	703b      	strb	r3, [r7, #0]
    9498:	f109 0901 	add.w	r9, r9, #1
    949c:	4627      	mov	r7, r4
    949e:	2400      	movs	r4, #0
    94a0:	e107      	b.n	96b2 <_dtoa_r+0xb2a>
    94a2:	980f      	ldr	r0, [sp, #60]	; 0x3c
    94a4:	2800      	cmp	r0, #0
    94a6:	f000 80bb 	beq.w	9620 <_dtoa_r+0xa98>
    94aa:	2e00      	cmp	r6, #0
    94ac:	dd05      	ble.n	94ba <_dtoa_r+0x932>
    94ae:	4621      	mov	r1, r4
    94b0:	4650      	mov	r0, sl
    94b2:	4632      	mov	r2, r6
    94b4:	f7ff f826 	bl	8504 <__lshift>
    94b8:	4604      	mov	r4, r0
    94ba:	b19f      	cbz	r7, 94e4 <_dtoa_r+0x95c>
    94bc:	6861      	ldr	r1, [r4, #4]
    94be:	4650      	mov	r0, sl
    94c0:	f7fe fe1c 	bl	80fc <_Balloc>
    94c4:	6922      	ldr	r2, [r4, #16]
    94c6:	3202      	adds	r2, #2
    94c8:	4606      	mov	r6, r0
    94ca:	f104 010c 	add.w	r1, r4, #12
    94ce:	0092      	lsls	r2, r2, #2
    94d0:	300c      	adds	r0, #12
    94d2:	f7fd f915 	bl	6700 <memcpy>
    94d6:	4650      	mov	r0, sl
    94d8:	4631      	mov	r1, r6
    94da:	2201      	movs	r2, #1
    94dc:	f7ff f812 	bl	8504 <__lshift>
    94e0:	4607      	mov	r7, r0
    94e2:	e000      	b.n	94e6 <_dtoa_r+0x95e>
    94e4:	4627      	mov	r7, r4
    94e6:	9e0a      	ldr	r6, [sp, #40]	; 0x28
    94e8:	4629      	mov	r1, r5
    94ea:	4658      	mov	r0, fp
    94ec:	f7ff fabc 	bl	8a68 <quorem>
    94f0:	4621      	mov	r1, r4
    94f2:	f100 0c30 	add.w	ip, r0, #48	; 0x30
    94f6:	4680      	mov	r8, r0
    94f8:	4658      	mov	r0, fp
    94fa:	f8cd c008 	str.w	ip, [sp, #8]
    94fe:	f7ff f854 	bl	85aa <__mcmp>
    9502:	463a      	mov	r2, r7
    9504:	9008      	str	r0, [sp, #32]
    9506:	4629      	mov	r1, r5
    9508:	4650      	mov	r0, sl
    950a:	f7ff f86b 	bl	85e4 <__mdiff>
    950e:	68c3      	ldr	r3, [r0, #12]
    9510:	f8dd c008 	ldr.w	ip, [sp, #8]
    9514:	4602      	mov	r2, r0
    9516:	b94b      	cbnz	r3, 952c <_dtoa_r+0x9a4>
    9518:	4611      	mov	r1, r2
    951a:	4658      	mov	r0, fp
    951c:	9203      	str	r2, [sp, #12]
    951e:	f7ff f844 	bl	85aa <__mcmp>
    9522:	9a03      	ldr	r2, [sp, #12]
    9524:	f8dd c008 	ldr.w	ip, [sp, #8]
    9528:	4603      	mov	r3, r0
    952a:	e000      	b.n	952e <_dtoa_r+0x9a6>
    952c:	2301      	movs	r3, #1
    952e:	4650      	mov	r0, sl
    9530:	4611      	mov	r1, r2
    9532:	9303      	str	r3, [sp, #12]
    9534:	f8cd c008 	str.w	ip, [sp, #8]
    9538:	f7fe fe15 	bl	8166 <_Bfree>
    953c:	9b03      	ldr	r3, [sp, #12]
    953e:	f8dd c008 	ldr.w	ip, [sp, #8]
    9542:	b963      	cbnz	r3, 955e <_dtoa_r+0x9d6>
    9544:	9924      	ldr	r1, [sp, #144]	; 0x90
    9546:	b951      	cbnz	r1, 955e <_dtoa_r+0x9d6>
    9548:	9804      	ldr	r0, [sp, #16]
    954a:	f000 0201 	and.w	r2, r0, #1
    954e:	b932      	cbnz	r2, 955e <_dtoa_r+0x9d6>
    9550:	f1bc 0f39 	cmp.w	ip, #57	; 0x39
    9554:	d035      	beq.n	95c2 <_dtoa_r+0xa3a>
    9556:	9b08      	ldr	r3, [sp, #32]
    9558:	2b00      	cmp	r3, #0
    955a:	dc24      	bgt.n	95a6 <_dtoa_r+0xa1e>
    955c:	e025      	b.n	95aa <_dtoa_r+0xa22>
    955e:	9808      	ldr	r0, [sp, #32]
    9560:	2800      	cmp	r0, #0
    9562:	da02      	bge.n	956a <_dtoa_r+0x9e2>
    9564:	2b00      	cmp	r3, #0
    9566:	dc08      	bgt.n	957a <_dtoa_r+0x9f2>
    9568:	e01f      	b.n	95aa <_dtoa_r+0xa22>
    956a:	d123      	bne.n	95b4 <_dtoa_r+0xa2c>
    956c:	9924      	ldr	r1, [sp, #144]	; 0x90
    956e:	bb09      	cbnz	r1, 95b4 <_dtoa_r+0xa2c>
    9570:	9804      	ldr	r0, [sp, #16]
    9572:	f000 0201 	and.w	r2, r0, #1
    9576:	b9ea      	cbnz	r2, 95b4 <_dtoa_r+0xa2c>
    9578:	e7f4      	b.n	9564 <_dtoa_r+0x9dc>
    957a:	4659      	mov	r1, fp
    957c:	2201      	movs	r2, #1
    957e:	4650      	mov	r0, sl
    9580:	f8cd c008 	str.w	ip, [sp, #8]
    9584:	f7fe ffbe 	bl	8504 <__lshift>
    9588:	4629      	mov	r1, r5
    958a:	4683      	mov	fp, r0
    958c:	f7ff f80d 	bl	85aa <__mcmp>
    9590:	2800      	cmp	r0, #0
    9592:	f8dd c008 	ldr.w	ip, [sp, #8]
    9596:	dc03      	bgt.n	95a0 <_dtoa_r+0xa18>
    9598:	d107      	bne.n	95aa <_dtoa_r+0xa22>
    959a:	f01c 0f01 	tst.w	ip, #1
    959e:	d004      	beq.n	95aa <_dtoa_r+0xa22>
    95a0:	f1bc 0f39 	cmp.w	ip, #57	; 0x39
    95a4:	d00d      	beq.n	95c2 <_dtoa_r+0xa3a>
    95a6:	f108 0c31 	add.w	ip, r8, #49	; 0x31
    95aa:	f106 0801 	add.w	r8, r6, #1
    95ae:	f886 c000 	strb.w	ip, [r6]
    95b2:	e07e      	b.n	96b2 <_dtoa_r+0xb2a>
    95b4:	2b00      	cmp	r3, #0
    95b6:	f106 0801 	add.w	r8, r6, #1
    95ba:	dd09      	ble.n	95d0 <_dtoa_r+0xa48>
    95bc:	f1bc 0f39 	cmp.w	ip, #57	; 0x39
    95c0:	d103      	bne.n	95ca <_dtoa_r+0xa42>
    95c2:	2339      	movs	r3, #57	; 0x39
    95c4:	7033      	strb	r3, [r6, #0]
    95c6:	3601      	adds	r6, #1
    95c8:	e05b      	b.n	9682 <_dtoa_r+0xafa>
    95ca:	f10c 0301 	add.w	r3, ip, #1
    95ce:	e068      	b.n	96a2 <_dtoa_r+0xb1a>
    95d0:	990a      	ldr	r1, [sp, #40]	; 0x28
    95d2:	9a07      	ldr	r2, [sp, #28]
    95d4:	4646      	mov	r6, r8
    95d6:	ebc1 0308 	rsb	r3, r1, r8
    95da:	4293      	cmp	r3, r2
    95dc:	f806 cc01 	strb.w	ip, [r6, #-1]
    95e0:	d03c      	beq.n	965c <_dtoa_r+0xad4>
    95e2:	4659      	mov	r1, fp
    95e4:	220a      	movs	r2, #10
    95e6:	2300      	movs	r3, #0
    95e8:	4650      	mov	r0, sl
    95ea:	f7fe fdd3 	bl	8194 <__multadd>
    95ee:	42bc      	cmp	r4, r7
    95f0:	4683      	mov	fp, r0
    95f2:	4621      	mov	r1, r4
    95f4:	4650      	mov	r0, sl
    95f6:	f04f 020a 	mov.w	r2, #10
    95fa:	f04f 0300 	mov.w	r3, #0
    95fe:	d104      	bne.n	960a <_dtoa_r+0xa82>
    9600:	f7fe fdc8 	bl	8194 <__multadd>
    9604:	4604      	mov	r4, r0
    9606:	4607      	mov	r7, r0
    9608:	e76e      	b.n	94e8 <_dtoa_r+0x960>
    960a:	f7fe fdc3 	bl	8194 <__multadd>
    960e:	4639      	mov	r1, r7
    9610:	4604      	mov	r4, r0
    9612:	220a      	movs	r2, #10
    9614:	4650      	mov	r0, sl
    9616:	2300      	movs	r3, #0
    9618:	f7fe fdbc 	bl	8194 <__multadd>
    961c:	4607      	mov	r7, r0
    961e:	e763      	b.n	94e8 <_dtoa_r+0x960>
    9620:	9e0f      	ldr	r6, [sp, #60]	; 0x3c
    9622:	4658      	mov	r0, fp
    9624:	4629      	mov	r1, r5
    9626:	f7ff fa1f 	bl	8a68 <quorem>
    962a:	9f0a      	ldr	r7, [sp, #40]	; 0x28
    962c:	f100 0c30 	add.w	ip, r0, #48	; 0x30
    9630:	f807 c006 	strb.w	ip, [r7, r6]
    9634:	9f07      	ldr	r7, [sp, #28]
    9636:	3601      	adds	r6, #1
    9638:	42be      	cmp	r6, r7
    963a:	db07      	blt.n	964c <_dtoa_r+0xac4>
    963c:	9e0a      	ldr	r6, [sp, #40]	; 0x28
    963e:	2f01      	cmp	r7, #1
    9640:	bfac      	ite	ge
    9642:	19f6      	addge	r6, r6, r7
    9644:	3601      	addlt	r6, #1
    9646:	4627      	mov	r7, r4
    9648:	2400      	movs	r4, #0
    964a:	e007      	b.n	965c <_dtoa_r+0xad4>
    964c:	4659      	mov	r1, fp
    964e:	4650      	mov	r0, sl
    9650:	220a      	movs	r2, #10
    9652:	2300      	movs	r3, #0
    9654:	f7fe fd9e 	bl	8194 <__multadd>
    9658:	4683      	mov	fp, r0
    965a:	e7e2      	b.n	9622 <_dtoa_r+0xa9a>
    965c:	4659      	mov	r1, fp
    965e:	2201      	movs	r2, #1
    9660:	4650      	mov	r0, sl
    9662:	f8cd c008 	str.w	ip, [sp, #8]
    9666:	f7fe ff4d 	bl	8504 <__lshift>
    966a:	4629      	mov	r1, r5
    966c:	4683      	mov	fp, r0
    966e:	f7fe ff9c 	bl	85aa <__mcmp>
    9672:	2800      	cmp	r0, #0
    9674:	f8dd c008 	ldr.w	ip, [sp, #8]
    9678:	dc03      	bgt.n	9682 <_dtoa_r+0xafa>
    967a:	d114      	bne.n	96a6 <_dtoa_r+0xb1e>
    967c:	f01c 0f01 	tst.w	ip, #1
    9680:	d011      	beq.n	96a6 <_dtoa_r+0xb1e>
    9682:	f816 3c01 	ldrb.w	r3, [r6, #-1]
    9686:	2b39      	cmp	r3, #57	; 0x39
    9688:	46b0      	mov	r8, r6
    968a:	f106 36ff 	add.w	r6, r6, #4294967295
    968e:	d107      	bne.n	96a0 <_dtoa_r+0xb18>
    9690:	980a      	ldr	r0, [sp, #40]	; 0x28
    9692:	42b0      	cmp	r0, r6
    9694:	d1f5      	bne.n	9682 <_dtoa_r+0xafa>
    9696:	2331      	movs	r3, #49	; 0x31
    9698:	f109 0901 	add.w	r9, r9, #1
    969c:	7003      	strb	r3, [r0, #0]
    969e:	e008      	b.n	96b2 <_dtoa_r+0xb2a>
    96a0:	3301      	adds	r3, #1
    96a2:	7033      	strb	r3, [r6, #0]
    96a4:	e005      	b.n	96b2 <_dtoa_r+0xb2a>
    96a6:	46b0      	mov	r8, r6
    96a8:	3e01      	subs	r6, #1
    96aa:	f818 3c01 	ldrb.w	r3, [r8, #-1]
    96ae:	2b30      	cmp	r3, #48	; 0x30
    96b0:	d0f9      	beq.n	96a6 <_dtoa_r+0xb1e>
    96b2:	4650      	mov	r0, sl
    96b4:	4629      	mov	r1, r5
    96b6:	f7fe fd56 	bl	8166 <_Bfree>
    96ba:	b16f      	cbz	r7, 96d8 <_dtoa_r+0xb50>
    96bc:	b12c      	cbz	r4, 96ca <_dtoa_r+0xb42>
    96be:	42bc      	cmp	r4, r7
    96c0:	d003      	beq.n	96ca <_dtoa_r+0xb42>
    96c2:	4650      	mov	r0, sl
    96c4:	4621      	mov	r1, r4
    96c6:	f7fe fd4e 	bl	8166 <_Bfree>
    96ca:	4650      	mov	r0, sl
    96cc:	4639      	mov	r1, r7
    96ce:	f7fe fd4a 	bl	8166 <_Bfree>
    96d2:	e001      	b.n	96d8 <_dtoa_r+0xb50>
    96d4:	f8dd 9040 	ldr.w	r9, [sp, #64]	; 0x40
    96d8:	4650      	mov	r0, sl
    96da:	4659      	mov	r1, fp
    96dc:	f7fe fd43 	bl	8166 <_Bfree>
    96e0:	2300      	movs	r3, #0
    96e2:	9f26      	ldr	r7, [sp, #152]	; 0x98
    96e4:	f888 3000 	strb.w	r3, [r8]
    96e8:	f109 0301 	add.w	r3, r9, #1
    96ec:	603b      	str	r3, [r7, #0]
    96ee:	9f28      	ldr	r7, [sp, #160]	; 0xa0
    96f0:	b127      	cbz	r7, 96fc <_dtoa_r+0xb74>
    96f2:	f8c7 8000 	str.w	r8, [r7]
    96f6:	e001      	b.n	96fc <_dtoa_r+0xb74>
    96f8:	4802      	ldr	r0, [pc, #8]	; (9704 <_dtoa_r+0xb7c>)
    96fa:	e000      	b.n	96fe <_dtoa_r+0xb76>
    96fc:	980a      	ldr	r0, [sp, #40]	; 0x28
    96fe:	b01b      	add	sp, #108	; 0x6c
    9700:	e8bd 8ff0 	ldmia.w	sp!, {r4, r5, r6, r7, r8, r9, sl, fp, pc}
    9704:	00009ec8 	.word	0x00009ec8

00009708 <__sflush_r>:
__sflush_r():
    9708:	898a      	ldrh	r2, [r1, #12]
    970a:	e92d 41f0 	stmdb	sp!, {r4, r5, r6, r7, r8, lr}
    970e:	4605      	mov	r5, r0
    9710:	0710      	lsls	r0, r2, #28
    9712:	460c      	mov	r4, r1
    9714:	d457      	bmi.n	97c6 <__sflush_r+0xbe>
    9716:	684b      	ldr	r3, [r1, #4]
    9718:	2b00      	cmp	r3, #0
    971a:	dc02      	bgt.n	9722 <__sflush_r+0x1a>
    971c:	6c0b      	ldr	r3, [r1, #64]	; 0x40
    971e:	2b00      	cmp	r3, #0
    9720:	dd18      	ble.n	9754 <__sflush_r+0x4c>
    9722:	6ae6      	ldr	r6, [r4, #44]	; 0x2c
    9724:	b1b6      	cbz	r6, 9754 <__sflush_r+0x4c>
    9726:	f402 5280 	and.w	r2, r2, #4096	; 0x1000
    972a:	2300      	movs	r3, #0
    972c:	b292      	uxth	r2, r2
    972e:	682f      	ldr	r7, [r5, #0]
    9730:	602b      	str	r3, [r5, #0]
    9732:	b10a      	cbz	r2, 9738 <__sflush_r+0x30>
    9734:	6d62      	ldr	r2, [r4, #84]	; 0x54
    9736:	e010      	b.n	975a <__sflush_r+0x52>
    9738:	6a21      	ldr	r1, [r4, #32]
    973a:	4628      	mov	r0, r5
    973c:	2301      	movs	r3, #1
    973e:	47b0      	blx	r6
    9740:	1c41      	adds	r1, r0, #1
    9742:	4602      	mov	r2, r0
    9744:	d109      	bne.n	975a <__sflush_r+0x52>
    9746:	682b      	ldr	r3, [r5, #0]
    9748:	b13b      	cbz	r3, 975a <__sflush_r+0x52>
    974a:	2b1d      	cmp	r3, #29
    974c:	d001      	beq.n	9752 <__sflush_r+0x4a>
    974e:	2b16      	cmp	r3, #22
    9750:	d146      	bne.n	97e0 <__sflush_r+0xd8>
    9752:	602f      	str	r7, [r5, #0]
    9754:	2000      	movs	r0, #0
    9756:	e8bd 81f0 	ldmia.w	sp!, {r4, r5, r6, r7, r8, pc}
    975a:	89a3      	ldrh	r3, [r4, #12]
    975c:	075b      	lsls	r3, r3, #29
    975e:	d505      	bpl.n	976c <__sflush_r+0x64>
    9760:	6863      	ldr	r3, [r4, #4]
    9762:	1ad2      	subs	r2, r2, r3
    9764:	6b63      	ldr	r3, [r4, #52]	; 0x34
    9766:	b10b      	cbz	r3, 976c <__sflush_r+0x64>
    9768:	6c23      	ldr	r3, [r4, #64]	; 0x40
    976a:	1ad2      	subs	r2, r2, r3
    976c:	6ae6      	ldr	r6, [r4, #44]	; 0x2c
    976e:	6a21      	ldr	r1, [r4, #32]
    9770:	4628      	mov	r0, r5
    9772:	2300      	movs	r3, #0
    9774:	47b0      	blx	r6
    9776:	1c46      	adds	r6, r0, #1
    9778:	89a2      	ldrh	r2, [r4, #12]
    977a:	d105      	bne.n	9788 <__sflush_r+0x80>
    977c:	682b      	ldr	r3, [r5, #0]
    977e:	b11b      	cbz	r3, 9788 <__sflush_r+0x80>
    9780:	2b1d      	cmp	r3, #29
    9782:	d001      	beq.n	9788 <__sflush_r+0x80>
    9784:	2b16      	cmp	r3, #22
    9786:	d119      	bne.n	97bc <__sflush_r+0xb4>
    9788:	2300      	movs	r3, #0
    978a:	6063      	str	r3, [r4, #4]
    978c:	04d1      	lsls	r1, r2, #19
    978e:	6923      	ldr	r3, [r4, #16]
    9790:	6023      	str	r3, [r4, #0]
    9792:	d504      	bpl.n	979e <__sflush_r+0x96>
    9794:	1c42      	adds	r2, r0, #1
    9796:	d101      	bne.n	979c <__sflush_r+0x94>
    9798:	682b      	ldr	r3, [r5, #0]
    979a:	b903      	cbnz	r3, 979e <__sflush_r+0x96>
    979c:	6560      	str	r0, [r4, #84]	; 0x54
    979e:	6b61      	ldr	r1, [r4, #52]	; 0x34
    97a0:	602f      	str	r7, [r5, #0]
    97a2:	2900      	cmp	r1, #0
    97a4:	d0d6      	beq.n	9754 <__sflush_r+0x4c>
    97a6:	f104 0344 	add.w	r3, r4, #68	; 0x44
    97aa:	4299      	cmp	r1, r3
    97ac:	d002      	beq.n	97b4 <__sflush_r+0xac>
    97ae:	4628      	mov	r0, r5
    97b0:	f7fc ffd2 	bl	6758 <_free_r>
    97b4:	2000      	movs	r0, #0
    97b6:	6360      	str	r0, [r4, #52]	; 0x34
    97b8:	e8bd 81f0 	ldmia.w	sp!, {r4, r5, r6, r7, r8, pc}
    97bc:	f042 0240 	orr.w	r2, r2, #64	; 0x40
    97c0:	81a2      	strh	r2, [r4, #12]
    97c2:	e8bd 81f0 	ldmia.w	sp!, {r4, r5, r6, r7, r8, pc}
    97c6:	690e      	ldr	r6, [r1, #16]
    97c8:	2e00      	cmp	r6, #0
    97ca:	d0c3      	beq.n	9754 <__sflush_r+0x4c>
    97cc:	680b      	ldr	r3, [r1, #0]
    97ce:	600e      	str	r6, [r1, #0]
    97d0:	ebc6 0803 	rsb	r8, r6, r3
    97d4:	0793      	lsls	r3, r2, #30
    97d6:	bf0c      	ite	eq
    97d8:	694b      	ldreq	r3, [r1, #20]
    97da:	2300      	movne	r3, #0
    97dc:	608b      	str	r3, [r1, #8]
    97de:	e012      	b.n	9806 <__sflush_r+0xfe>
    97e0:	89a3      	ldrh	r3, [r4, #12]
    97e2:	f043 0340 	orr.w	r3, r3, #64	; 0x40
    97e6:	81a3      	strh	r3, [r4, #12]
    97e8:	f04f 30ff 	mov.w	r0, #4294967295
    97ec:	e8bd 81f0 	ldmia.w	sp!, {r4, r5, r6, r7, r8, pc}
    97f0:	6aa7      	ldr	r7, [r4, #40]	; 0x28
    97f2:	6a21      	ldr	r1, [r4, #32]
    97f4:	4628      	mov	r0, r5
    97f6:	4632      	mov	r2, r6
    97f8:	4643      	mov	r3, r8
    97fa:	47b8      	blx	r7
    97fc:	2800      	cmp	r0, #0
    97fe:	ddef      	ble.n	97e0 <__sflush_r+0xd8>
    9800:	4406      	add	r6, r0
    9802:	ebc0 0808 	rsb	r8, r0, r8
    9806:	f1b8 0f00 	cmp.w	r8, #0
    980a:	dcf1      	bgt.n	97f0 <__sflush_r+0xe8>
    980c:	e7a2      	b.n	9754 <__sflush_r+0x4c>
    980e:	ffff b538 	vsli.32	d27, d24, #31

00009810 <_fflush_r>:
_fflush_r():
    9810:	b538      	push	{r3, r4, r5, lr}
    9812:	690b      	ldr	r3, [r1, #16]
    9814:	4605      	mov	r5, r0
    9816:	460c      	mov	r4, r1
    9818:	b1db      	cbz	r3, 9852 <_fflush_r+0x42>
    981a:	b118      	cbz	r0, 9824 <_fflush_r+0x14>
    981c:	6983      	ldr	r3, [r0, #24]
    981e:	b90b      	cbnz	r3, 9824 <_fflush_r+0x14>
    9820:	f7fe f8e2 	bl	79e8 <__sinit>
    9824:	4b0c      	ldr	r3, [pc, #48]	; (9858 <_fflush_r+0x48>)
    9826:	429c      	cmp	r4, r3
    9828:	d101      	bne.n	982e <_fflush_r+0x1e>
    982a:	686c      	ldr	r4, [r5, #4]
    982c:	e008      	b.n	9840 <_fflush_r+0x30>
    982e:	4b0b      	ldr	r3, [pc, #44]	; (985c <_fflush_r+0x4c>)
    9830:	429c      	cmp	r4, r3
    9832:	d101      	bne.n	9838 <_fflush_r+0x28>
    9834:	68ac      	ldr	r4, [r5, #8]
    9836:	e003      	b.n	9840 <_fflush_r+0x30>
    9838:	4b09      	ldr	r3, [pc, #36]	; (9860 <_fflush_r+0x50>)
    983a:	429c      	cmp	r4, r3
    983c:	bf08      	it	eq
    983e:	68ec      	ldreq	r4, [r5, #12]
    9840:	f9b4 300c 	ldrsh.w	r3, [r4, #12]
    9844:	b12b      	cbz	r3, 9852 <_fflush_r+0x42>
    9846:	4628      	mov	r0, r5
    9848:	4621      	mov	r1, r4
    984a:	e8bd 4038 	ldmia.w	sp!, {r3, r4, r5, lr}
    984e:	f7ff bf5b 	b.w	9708 <__sflush_r>
    9852:	2000      	movs	r0, #0
    9854:	bd38      	pop	{r3, r4, r5, pc}
    9856:	bf00      	nop
    9858:	0000a52c 	.word	0x0000a52c
    985c:	0000a54c 	.word	0x0000a54c
    9860:	0000a56c 	.word	0x0000a56c

00009864 <_lseek_r>:
_lseek_r():
    9864:	b538      	push	{r3, r4, r5, lr}
    9866:	4c07      	ldr	r4, [pc, #28]	; (9884 <_lseek_r+0x20>)
    9868:	4605      	mov	r5, r0
    986a:	2000      	movs	r0, #0
    986c:	6020      	str	r0, [r4, #0]
    986e:	4608      	mov	r0, r1
    9870:	4611      	mov	r1, r2
    9872:	461a      	mov	r2, r3
    9874:	f7f7 f89c 	bl	9b0 <_lseek>
    9878:	1c43      	adds	r3, r0, #1
    987a:	d102      	bne.n	9882 <_lseek_r+0x1e>
    987c:	6823      	ldr	r3, [r4, #0]
    987e:	b103      	cbz	r3, 9882 <_lseek_r+0x1e>
    9880:	602b      	str	r3, [r5, #0]
    9882:	bd38      	pop	{r3, r4, r5, pc}
    9884:	1fff10f0 	.word	0x1fff10f0

00009888 <_malloc_usable_size_r>:
_malloc_usable_size_r():
    9888:	f851 0c04 	ldr.w	r0, [r1, #-4]
    988c:	2800      	cmp	r0, #0
    988e:	da02      	bge.n	9896 <_malloc_usable_size_r+0xe>
    9890:	3904      	subs	r1, #4
    9892:	580b      	ldr	r3, [r1, r0]
    9894:	4418      	add	r0, r3
    9896:	3804      	subs	r0, #4
    9898:	4770      	bx	lr
    989a:	ffff b538 	vsli.32	d27, d24, #31

0000989c <_read_r>:
_read_r():
    989c:	b538      	push	{r3, r4, r5, lr}
    989e:	4c07      	ldr	r4, [pc, #28]	; (98bc <_read_r+0x20>)
    98a0:	4605      	mov	r5, r0
    98a2:	2000      	movs	r0, #0
    98a4:	6020      	str	r0, [r4, #0]
    98a6:	4608      	mov	r0, r1
    98a8:	4611      	mov	r1, r2
    98aa:	461a      	mov	r2, r3
    98ac:	f7f7 f874 	bl	998 <_read>
    98b0:	1c43      	adds	r3, r0, #1
    98b2:	d102      	bne.n	98ba <_read_r+0x1e>
    98b4:	6823      	ldr	r3, [r4, #0]
    98b6:	b103      	cbz	r3, 98ba <_read_r+0x1e>
    98b8:	602b      	str	r3, [r5, #0]
    98ba:	bd38      	pop	{r3, r4, r5, pc}
    98bc:	1fff10f0 	.word	0x1fff10f0

000098c0 <__ssputs_r>:
__ssputs_r():
    98c0:	e92d 47f0 	stmdb	sp!, {r4, r5, r6, r7, r8, r9, sl, lr}
    98c4:	688d      	ldr	r5, [r1, #8]
    98c6:	42ab      	cmp	r3, r5
    98c8:	4681      	mov	r9, r0
    98ca:	460c      	mov	r4, r1
    98cc:	4692      	mov	sl, r2
    98ce:	461f      	mov	r7, r3
    98d0:	d343      	bcc.n	995a <__ssputs_r+0x9a>
    98d2:	898b      	ldrh	r3, [r1, #12]
    98d4:	f413 6f90 	tst.w	r3, #1152	; 0x480
    98d8:	d03d      	beq.n	9956 <__ssputs_r+0x96>
    98da:	6826      	ldr	r6, [r4, #0]
    98dc:	6909      	ldr	r1, [r1, #16]
    98de:	ebc1 0806 	rsb	r8, r1, r6
    98e2:	6966      	ldr	r6, [r4, #20]
    98e4:	2202      	movs	r2, #2
    98e6:	eb06 0646 	add.w	r6, r6, r6, lsl #1
    98ea:	fb96 f6f2 	sdiv	r6, r6, r2
    98ee:	f108 0201 	add.w	r2, r8, #1
    98f2:	443a      	add	r2, r7
    98f4:	4296      	cmp	r6, r2
    98f6:	bf38      	it	cc
    98f8:	4616      	movcc	r6, r2
    98fa:	055b      	lsls	r3, r3, #21
    98fc:	d50f      	bpl.n	991e <__ssputs_r+0x5e>
    98fe:	4631      	mov	r1, r6
    9900:	f7fc ff6e 	bl	67e0 <_malloc_r>
    9904:	4605      	mov	r5, r0
    9906:	b198      	cbz	r0, 9930 <__ssputs_r+0x70>
    9908:	6921      	ldr	r1, [r4, #16]
    990a:	4642      	mov	r2, r8
    990c:	f7fc fef8 	bl	6700 <memcpy>
    9910:	89a3      	ldrh	r3, [r4, #12]
    9912:	f423 6390 	bic.w	r3, r3, #1152	; 0x480
    9916:	f043 0380 	orr.w	r3, r3, #128	; 0x80
    991a:	81a3      	strh	r3, [r4, #12]
    991c:	e013      	b.n	9946 <__ssputs_r+0x86>
    991e:	4632      	mov	r2, r6
    9920:	f7fe fff5 	bl	890e <_realloc_r>
    9924:	4605      	mov	r5, r0
    9926:	b970      	cbnz	r0, 9946 <__ssputs_r+0x86>
    9928:	4648      	mov	r0, r9
    992a:	6921      	ldr	r1, [r4, #16]
    992c:	f7fc ff14 	bl	6758 <_free_r>
    9930:	230c      	movs	r3, #12
    9932:	f8c9 3000 	str.w	r3, [r9]
    9936:	89a3      	ldrh	r3, [r4, #12]
    9938:	f043 0340 	orr.w	r3, r3, #64	; 0x40
    993c:	81a3      	strh	r3, [r4, #12]
    993e:	f04f 30ff 	mov.w	r0, #4294967295
    9942:	e8bd 87f0 	ldmia.w	sp!, {r4, r5, r6, r7, r8, r9, sl, pc}
    9946:	6125      	str	r5, [r4, #16]
    9948:	6166      	str	r6, [r4, #20]
    994a:	4445      	add	r5, r8
    994c:	ebc8 0606 	rsb	r6, r8, r6
    9950:	6025      	str	r5, [r4, #0]
    9952:	60a6      	str	r6, [r4, #8]
    9954:	463d      	mov	r5, r7
    9956:	42af      	cmp	r7, r5
    9958:	d200      	bcs.n	995c <__ssputs_r+0x9c>
    995a:	463d      	mov	r5, r7
    995c:	462a      	mov	r2, r5
    995e:	6820      	ldr	r0, [r4, #0]
    9960:	4651      	mov	r1, sl
    9962:	f7fc fed6 	bl	6712 <memmove>
    9966:	68a3      	ldr	r3, [r4, #8]
    9968:	1b5b      	subs	r3, r3, r5
    996a:	60a3      	str	r3, [r4, #8]
    996c:	6823      	ldr	r3, [r4, #0]
    996e:	441d      	add	r5, r3
    9970:	6025      	str	r5, [r4, #0]
    9972:	2000      	movs	r0, #0
    9974:	e8bd 87f0 	ldmia.w	sp!, {r4, r5, r6, r7, r8, r9, sl, pc}

00009978 <_svfiprintf_r>:
_svfprintf_r():
    9978:	e92d 43f0 	stmdb	sp!, {r4, r5, r6, r7, r8, r9, lr}
    997c:	b09d      	sub	sp, #116	; 0x74
    997e:	4607      	mov	r7, r0
    9980:	9303      	str	r3, [sp, #12]
    9982:	898b      	ldrh	r3, [r1, #12]
    9984:	061c      	lsls	r4, r3, #24
    9986:	460d      	mov	r5, r1
    9988:	4616      	mov	r6, r2
    998a:	d50c      	bpl.n	99a6 <_svfiprintf_r+0x2e>
    998c:	690b      	ldr	r3, [r1, #16]
    998e:	b953      	cbnz	r3, 99a6 <_svfiprintf_r+0x2e>
    9990:	2140      	movs	r1, #64	; 0x40
    9992:	f7fc ff25 	bl	67e0 <_malloc_r>
    9996:	6028      	str	r0, [r5, #0]
    9998:	6128      	str	r0, [r5, #16]
    999a:	b910      	cbnz	r0, 99a2 <_svfiprintf_r+0x2a>
    999c:	230c      	movs	r3, #12
    999e:	603b      	str	r3, [r7, #0]
    99a0:	e0c8      	b.n	9b34 <_svfiprintf_r+0x1bc>
    99a2:	2340      	movs	r3, #64	; 0x40
    99a4:	616b      	str	r3, [r5, #20]
    99a6:	2300      	movs	r3, #0
    99a8:	9309      	str	r3, [sp, #36]	; 0x24
    99aa:	2320      	movs	r3, #32
    99ac:	f88d 3029 	strb.w	r3, [sp, #41]	; 0x29
    99b0:	2330      	movs	r3, #48	; 0x30
    99b2:	f88d 302a 	strb.w	r3, [sp, #42]	; 0x2a
    99b6:	4633      	mov	r3, r6
    99b8:	461c      	mov	r4, r3
    99ba:	f813 2b01 	ldrb.w	r2, [r3], #1
    99be:	b91a      	cbnz	r2, 99c8 <_svfiprintf_r+0x50>
    99c0:	ebb4 0906 	subs.w	r9, r4, r6
    99c4:	d00f      	beq.n	99e6 <_svfiprintf_r+0x6e>
    99c6:	e002      	b.n	99ce <_svfiprintf_r+0x56>
    99c8:	2a25      	cmp	r2, #37	; 0x25
    99ca:	d1f5      	bne.n	99b8 <_svfiprintf_r+0x40>
    99cc:	e7f8      	b.n	99c0 <_svfiprintf_r+0x48>
    99ce:	4638      	mov	r0, r7
    99d0:	4629      	mov	r1, r5
    99d2:	4632      	mov	r2, r6
    99d4:	464b      	mov	r3, r9
    99d6:	f7ff ff73 	bl	98c0 <__ssputs_r>
    99da:	3001      	adds	r0, #1
    99dc:	f000 80a5 	beq.w	9b2a <_svfiprintf_r+0x1b2>
    99e0:	9b09      	ldr	r3, [sp, #36]	; 0x24
    99e2:	444b      	add	r3, r9
    99e4:	9309      	str	r3, [sp, #36]	; 0x24
    99e6:	7823      	ldrb	r3, [r4, #0]
    99e8:	2b00      	cmp	r3, #0
    99ea:	f000 809e 	beq.w	9b2a <_svfiprintf_r+0x1b2>
    99ee:	2300      	movs	r3, #0
    99f0:	f04f 32ff 	mov.w	r2, #4294967295
    99f4:	9304      	str	r3, [sp, #16]
    99f6:	9307      	str	r3, [sp, #28]
    99f8:	9205      	str	r2, [sp, #20]
    99fa:	9306      	str	r3, [sp, #24]
    99fc:	f88d 3053 	strb.w	r3, [sp, #83]	; 0x53
    9a00:	931a      	str	r3, [sp, #104]	; 0x68
    9a02:	f104 0901 	add.w	r9, r4, #1
    9a06:	464c      	mov	r4, r9
    9a08:	4e4d      	ldr	r6, [pc, #308]	; (9b40 <_svfiprintf_r+0x1c8>)
    9a0a:	7821      	ldrb	r1, [r4, #0]
    9a0c:	4630      	mov	r0, r6
    9a0e:	2205      	movs	r2, #5
    9a10:	f000 fa26 	bl	9e60 <memchr>
    9a14:	f109 0901 	add.w	r9, r9, #1
    9a18:	9b04      	ldr	r3, [sp, #16]
    9a1a:	b128      	cbz	r0, 9a28 <_svfiprintf_r+0xb0>
    9a1c:	1b86      	subs	r6, r0, r6
    9a1e:	2001      	movs	r0, #1
    9a20:	40b0      	lsls	r0, r6
    9a22:	4303      	orrs	r3, r0
    9a24:	9304      	str	r3, [sp, #16]
    9a26:	e7ee      	b.n	9a06 <_svfiprintf_r+0x8e>
    9a28:	06d9      	lsls	r1, r3, #27
    9a2a:	bf44      	itt	mi
    9a2c:	2220      	movmi	r2, #32
    9a2e:	f88d 2053 	strbmi.w	r2, [sp, #83]	; 0x53
    9a32:	071a      	lsls	r2, r3, #28
    9a34:	bf44      	itt	mi
    9a36:	222b      	movmi	r2, #43	; 0x2b
    9a38:	f88d 2053 	strbmi.w	r2, [sp, #83]	; 0x53
    9a3c:	7822      	ldrb	r2, [r4, #0]
    9a3e:	2a2a      	cmp	r2, #42	; 0x2a
    9a40:	d002      	beq.n	9a48 <_svfiprintf_r+0xd0>
    9a42:	9b07      	ldr	r3, [sp, #28]
    9a44:	4621      	mov	r1, r4
    9a46:	e00e      	b.n	9a66 <_svfiprintf_r+0xee>
    9a48:	9a03      	ldr	r2, [sp, #12]
    9a4a:	1d11      	adds	r1, r2, #4
    9a4c:	6812      	ldr	r2, [r2, #0]
    9a4e:	9103      	str	r1, [sp, #12]
    9a50:	2a00      	cmp	r2, #0
    9a52:	db01      	blt.n	9a58 <_svfiprintf_r+0xe0>
    9a54:	9207      	str	r2, [sp, #28]
    9a56:	e004      	b.n	9a62 <_svfiprintf_r+0xea>
    9a58:	4252      	negs	r2, r2
    9a5a:	f043 0302 	orr.w	r3, r3, #2
    9a5e:	9207      	str	r2, [sp, #28]
    9a60:	9304      	str	r3, [sp, #16]
    9a62:	3401      	adds	r4, #1
    9a64:	e00a      	b.n	9a7c <_svfiprintf_r+0x104>
    9a66:	460c      	mov	r4, r1
    9a68:	3101      	adds	r1, #1
    9a6a:	7822      	ldrb	r2, [r4, #0]
    9a6c:	3a30      	subs	r2, #48	; 0x30
    9a6e:	2a09      	cmp	r2, #9
    9a70:	d803      	bhi.n	9a7a <_svfiprintf_r+0x102>
    9a72:	200a      	movs	r0, #10
    9a74:	fb00 2303 	mla	r3, r0, r3, r2
    9a78:	e7f5      	b.n	9a66 <_svfiprintf_r+0xee>
    9a7a:	9307      	str	r3, [sp, #28]
    9a7c:	7823      	ldrb	r3, [r4, #0]
    9a7e:	2b2e      	cmp	r3, #46	; 0x2e
    9a80:	d11a      	bne.n	9ab8 <_svfiprintf_r+0x140>
    9a82:	7863      	ldrb	r3, [r4, #1]
    9a84:	2b2a      	cmp	r3, #42	; 0x2a
    9a86:	d10a      	bne.n	9a9e <_svfiprintf_r+0x126>
    9a88:	9b03      	ldr	r3, [sp, #12]
    9a8a:	1d1a      	adds	r2, r3, #4
    9a8c:	681b      	ldr	r3, [r3, #0]
    9a8e:	9203      	str	r2, [sp, #12]
    9a90:	2b00      	cmp	r3, #0
    9a92:	f104 0402 	add.w	r4, r4, #2
    9a96:	bfb8      	it	lt
    9a98:	f04f 33ff 	movlt.w	r3, #4294967295
    9a9c:	e00b      	b.n	9ab6 <_svfiprintf_r+0x13e>
    9a9e:	1c61      	adds	r1, r4, #1
    9aa0:	2300      	movs	r3, #0
    9aa2:	460c      	mov	r4, r1
    9aa4:	3101      	adds	r1, #1
    9aa6:	7822      	ldrb	r2, [r4, #0]
    9aa8:	3a30      	subs	r2, #48	; 0x30
    9aaa:	2a09      	cmp	r2, #9
    9aac:	d803      	bhi.n	9ab6 <_svfiprintf_r+0x13e>
    9aae:	200a      	movs	r0, #10
    9ab0:	fb00 2303 	mla	r3, r0, r3, r2
    9ab4:	e7f5      	b.n	9aa2 <_svfiprintf_r+0x12a>
    9ab6:	9305      	str	r3, [sp, #20]
    9ab8:	4e22      	ldr	r6, [pc, #136]	; (9b44 <_svfiprintf_r+0x1cc>)
    9aba:	7821      	ldrb	r1, [r4, #0]
    9abc:	4630      	mov	r0, r6
    9abe:	2203      	movs	r2, #3
    9ac0:	f000 f9ce 	bl	9e60 <memchr>
    9ac4:	b130      	cbz	r0, 9ad4 <_svfiprintf_r+0x15c>
    9ac6:	1b86      	subs	r6, r0, r6
    9ac8:	9b04      	ldr	r3, [sp, #16]
    9aca:	2040      	movs	r0, #64	; 0x40
    9acc:	40b0      	lsls	r0, r6
    9ace:	4303      	orrs	r3, r0
    9ad0:	9304      	str	r3, [sp, #16]
    9ad2:	3401      	adds	r4, #1
    9ad4:	7821      	ldrb	r1, [r4, #0]
    9ad6:	481c      	ldr	r0, [pc, #112]	; (9b48 <_svfiprintf_r+0x1d0>)
    9ad8:	f88d 1028 	strb.w	r1, [sp, #40]	; 0x28
    9adc:	2206      	movs	r2, #6
    9ade:	1c66      	adds	r6, r4, #1
    9ae0:	f000 f9be 	bl	9e60 <memchr>
    9ae4:	b188      	cbz	r0, 9b0a <_svfiprintf_r+0x192>
    9ae6:	4b19      	ldr	r3, [pc, #100]	; (9b4c <_svfiprintf_r+0x1d4>)
    9ae8:	b933      	cbnz	r3, 9af8 <_svfiprintf_r+0x180>
    9aea:	9b03      	ldr	r3, [sp, #12]
    9aec:	3307      	adds	r3, #7
    9aee:	f023 0307 	bic.w	r3, r3, #7
    9af2:	3308      	adds	r3, #8
    9af4:	9303      	str	r3, [sp, #12]
    9af6:	e014      	b.n	9b22 <_svfiprintf_r+0x1aa>
    9af8:	ab03      	add	r3, sp, #12
    9afa:	9300      	str	r3, [sp, #0]
    9afc:	4638      	mov	r0, r7
    9afe:	a904      	add	r1, sp, #16
    9b00:	462a      	mov	r2, r5
    9b02:	4b13      	ldr	r3, [pc, #76]	; (9b50 <_svfiprintf_r+0x1d8>)
    9b04:	f3af 8000 	nop.w
    9b08:	e007      	b.n	9b1a <_svfiprintf_r+0x1a2>
    9b0a:	ab03      	add	r3, sp, #12
    9b0c:	9300      	str	r3, [sp, #0]
    9b0e:	4638      	mov	r0, r7
    9b10:	a904      	add	r1, sp, #16
    9b12:	462a      	mov	r2, r5
    9b14:	4b0e      	ldr	r3, [pc, #56]	; (9b50 <_svfiprintf_r+0x1d8>)
    9b16:	f000 f88f 	bl	9c38 <_printf_i>
    9b1a:	f1b0 3fff 	cmp.w	r0, #4294967295
    9b1e:	4680      	mov	r8, r0
    9b20:	d003      	beq.n	9b2a <_svfiprintf_r+0x1b2>
    9b22:	9b09      	ldr	r3, [sp, #36]	; 0x24
    9b24:	4443      	add	r3, r8
    9b26:	9309      	str	r3, [sp, #36]	; 0x24
    9b28:	e745      	b.n	99b6 <_svfiprintf_r+0x3e>
    9b2a:	89ab      	ldrh	r3, [r5, #12]
    9b2c:	065b      	lsls	r3, r3, #25
    9b2e:	d401      	bmi.n	9b34 <_svfiprintf_r+0x1bc>
    9b30:	9809      	ldr	r0, [sp, #36]	; 0x24
    9b32:	e001      	b.n	9b38 <_svfiprintf_r+0x1c0>
    9b34:	f04f 30ff 	mov.w	r0, #4294967295
    9b38:	b01d      	add	sp, #116	; 0x74
    9b3a:	e8bd 83f0 	ldmia.w	sp!, {r4, r5, r6, r7, r8, r9, pc}
    9b3e:	bf00      	nop
    9b40:	0000a6a1 	.word	0x0000a6a1
    9b44:	0000a6a7 	.word	0x0000a6a7
    9b48:	0000a6ab 	.word	0x0000a6ab
    9b4c:	00000000 	.word	0x00000000
    9b50:	000098c1 	.word	0x000098c1

00009b54 <_printf_common>:
_printf_common():
    9b54:	e92d 43f8 	stmdb	sp!, {r3, r4, r5, r6, r7, r8, r9, lr}
    9b58:	4615      	mov	r5, r2
    9b5a:	461f      	mov	r7, r3
    9b5c:	688a      	ldr	r2, [r1, #8]
    9b5e:	690b      	ldr	r3, [r1, #16]
    9b60:	f8dd 8020 	ldr.w	r8, [sp, #32]
    9b64:	429a      	cmp	r2, r3
    9b66:	bfa8      	it	ge
    9b68:	4613      	movge	r3, r2
    9b6a:	602b      	str	r3, [r5, #0]
    9b6c:	f891 2043 	ldrb.w	r2, [r1, #67]	; 0x43
    9b70:	4606      	mov	r6, r0
    9b72:	460c      	mov	r4, r1
    9b74:	b10a      	cbz	r2, 9b7a <_printf_common+0x26>
    9b76:	3301      	adds	r3, #1
    9b78:	602b      	str	r3, [r5, #0]
    9b7a:	6823      	ldr	r3, [r4, #0]
    9b7c:	0699      	lsls	r1, r3, #26
    9b7e:	d502      	bpl.n	9b86 <_printf_common+0x32>
    9b80:	682b      	ldr	r3, [r5, #0]
    9b82:	3302      	adds	r3, #2
    9b84:	602b      	str	r3, [r5, #0]
    9b86:	6823      	ldr	r3, [r4, #0]
    9b88:	f013 0906 	ands.w	r9, r3, #6
    9b8c:	d01d      	beq.n	9bca <_printf_common+0x76>
    9b8e:	f894 3043 	ldrb.w	r3, [r4, #67]	; 0x43
    9b92:	6822      	ldr	r2, [r4, #0]
    9b94:	3300      	adds	r3, #0
    9b96:	bf18      	it	ne
    9b98:	2301      	movne	r3, #1
    9b9a:	0692      	lsls	r2, r2, #26
    9b9c:	d51f      	bpl.n	9bde <_printf_common+0x8a>
    9b9e:	18e1      	adds	r1, r4, r3
    9ba0:	1c5a      	adds	r2, r3, #1
    9ba2:	2030      	movs	r0, #48	; 0x30
    9ba4:	f881 0043 	strb.w	r0, [r1, #67]	; 0x43
    9ba8:	4422      	add	r2, r4
    9baa:	f894 1045 	ldrb.w	r1, [r4, #69]	; 0x45
    9bae:	f882 1043 	strb.w	r1, [r2, #67]	; 0x43
    9bb2:	3302      	adds	r3, #2
    9bb4:	e013      	b.n	9bde <_printf_common+0x8a>
    9bb6:	4630      	mov	r0, r6
    9bb8:	4639      	mov	r1, r7
    9bba:	f104 0219 	add.w	r2, r4, #25
    9bbe:	2301      	movs	r3, #1
    9bc0:	47c0      	blx	r8
    9bc2:	3001      	adds	r0, #1
    9bc4:	d007      	beq.n	9bd6 <_printf_common+0x82>
    9bc6:	f109 0901 	add.w	r9, r9, #1
    9bca:	68e2      	ldr	r2, [r4, #12]
    9bcc:	682b      	ldr	r3, [r5, #0]
    9bce:	1ad3      	subs	r3, r2, r3
    9bd0:	4599      	cmp	r9, r3
    9bd2:	dbf0      	blt.n	9bb6 <_printf_common+0x62>
    9bd4:	e7db      	b.n	9b8e <_printf_common+0x3a>
    9bd6:	f04f 30ff 	mov.w	r0, #4294967295
    9bda:	e8bd 83f8 	ldmia.w	sp!, {r3, r4, r5, r6, r7, r8, r9, pc}
    9bde:	4630      	mov	r0, r6
    9be0:	4639      	mov	r1, r7
    9be2:	f104 0243 	add.w	r2, r4, #67	; 0x43
    9be6:	47c0      	blx	r8
    9be8:	3001      	adds	r0, #1
    9bea:	d0f4      	beq.n	9bd6 <_printf_common+0x82>
    9bec:	6823      	ldr	r3, [r4, #0]
    9bee:	682a      	ldr	r2, [r5, #0]
    9bf0:	68e1      	ldr	r1, [r4, #12]
    9bf2:	f003 0306 	and.w	r3, r3, #6
    9bf6:	2b04      	cmp	r3, #4
    9bf8:	bf08      	it	eq
    9bfa:	ebc2 0501 	rsbeq	r5, r2, r1
    9bfe:	6923      	ldr	r3, [r4, #16]
    9c00:	68a2      	ldr	r2, [r4, #8]
    9c02:	bf0c      	ite	eq
    9c04:	ea25 75e5 	biceq.w	r5, r5, r5, asr #31
    9c08:	2500      	movne	r5, #0
    9c0a:	429a      	cmp	r2, r3
    9c0c:	bfc4      	itt	gt
    9c0e:	ebc3 0302 	rsbgt	r3, r3, r2
    9c12:	18ed      	addgt	r5, r5, r3
    9c14:	f04f 0900 	mov.w	r9, #0
    9c18:	45a9      	cmp	r9, r5
    9c1a:	da0a      	bge.n	9c32 <_printf_common+0xde>
    9c1c:	4630      	mov	r0, r6
    9c1e:	4639      	mov	r1, r7
    9c20:	f104 021a 	add.w	r2, r4, #26
    9c24:	2301      	movs	r3, #1
    9c26:	47c0      	blx	r8
    9c28:	3001      	adds	r0, #1
    9c2a:	d0d4      	beq.n	9bd6 <_printf_common+0x82>
    9c2c:	f109 0901 	add.w	r9, r9, #1
    9c30:	e7f2      	b.n	9c18 <_printf_common+0xc4>
    9c32:	2000      	movs	r0, #0
    9c34:	e8bd 83f8 	ldmia.w	sp!, {r3, r4, r5, r6, r7, r8, r9, pc}

00009c38 <_printf_i>:
_printf_i():
    9c38:	e92d 47ff 	stmdb	sp!, {r0, r1, r2, r3, r4, r5, r6, r7, r8, r9, sl, lr}
    9c3c:	7e0e      	ldrb	r6, [r1, #24]
    9c3e:	9d0c      	ldr	r5, [sp, #48]	; 0x30
    9c40:	2e6e      	cmp	r6, #110	; 0x6e
    9c42:	4680      	mov	r8, r0
    9c44:	460c      	mov	r4, r1
    9c46:	4691      	mov	r9, r2
    9c48:	469a      	mov	sl, r3
    9c4a:	f101 0043 	add.w	r0, r1, #67	; 0x43
    9c4e:	f000 80a5 	beq.w	9d9c <_printf_i+0x164>
    9c52:	d811      	bhi.n	9c78 <_printf_i+0x40>
    9c54:	2e63      	cmp	r6, #99	; 0x63
    9c56:	d022      	beq.n	9c9e <_printf_i+0x66>
    9c58:	d809      	bhi.n	9c6e <_printf_i+0x36>
    9c5a:	2e00      	cmp	r6, #0
    9c5c:	f000 80af 	beq.w	9dbe <_printf_i+0x186>
    9c60:	2e58      	cmp	r6, #88	; 0x58
    9c62:	f040 80bf 	bne.w	9de4 <_printf_i+0x1ac>
    9c66:	f881 6045 	strb.w	r6, [r1, #69]	; 0x45
    9c6a:	4a7b      	ldr	r2, [pc, #492]	; (9e58 <_printf_i+0x220>)
    9c6c:	e04f      	b.n	9d0e <_printf_i+0xd6>
    9c6e:	2e64      	cmp	r6, #100	; 0x64
    9c70:	d01e      	beq.n	9cb0 <_printf_i+0x78>
    9c72:	2e69      	cmp	r6, #105	; 0x69
    9c74:	d01c      	beq.n	9cb0 <_printf_i+0x78>
    9c76:	e0b5      	b.n	9de4 <_printf_i+0x1ac>
    9c78:	2e73      	cmp	r6, #115	; 0x73
    9c7a:	f000 80a4 	beq.w	9dc6 <_printf_i+0x18e>
    9c7e:	d809      	bhi.n	9c94 <_printf_i+0x5c>
    9c80:	2e6f      	cmp	r6, #111	; 0x6f
    9c82:	d02b      	beq.n	9cdc <_printf_i+0xa4>
    9c84:	2e70      	cmp	r6, #112	; 0x70
    9c86:	f040 80ad 	bne.w	9de4 <_printf_i+0x1ac>
    9c8a:	680b      	ldr	r3, [r1, #0]
    9c8c:	f043 0320 	orr.w	r3, r3, #32
    9c90:	600b      	str	r3, [r1, #0]
    9c92:	e038      	b.n	9d06 <_printf_i+0xce>
    9c94:	2e75      	cmp	r6, #117	; 0x75
    9c96:	d021      	beq.n	9cdc <_printf_i+0xa4>
    9c98:	2e78      	cmp	r6, #120	; 0x78
    9c9a:	d034      	beq.n	9d06 <_printf_i+0xce>
    9c9c:	e0a2      	b.n	9de4 <_printf_i+0x1ac>
    9c9e:	682b      	ldr	r3, [r5, #0]
    9ca0:	1d1a      	adds	r2, r3, #4
    9ca2:	681b      	ldr	r3, [r3, #0]
    9ca4:	602a      	str	r2, [r5, #0]
    9ca6:	f101 0742 	add.w	r7, r1, #66	; 0x42
    9caa:	f881 3042 	strb.w	r3, [r1, #66]	; 0x42
    9cae:	e09d      	b.n	9dec <_printf_i+0x1b4>
    9cb0:	6822      	ldr	r2, [r4, #0]
    9cb2:	682b      	ldr	r3, [r5, #0]
    9cb4:	f012 0f80 	tst.w	r2, #128	; 0x80
    9cb8:	d003      	beq.n	9cc2 <_printf_i+0x8a>
    9cba:	1d1a      	adds	r2, r3, #4
    9cbc:	602a      	str	r2, [r5, #0]
    9cbe:	681d      	ldr	r5, [r3, #0]
    9cc0:	e005      	b.n	9cce <_printf_i+0x96>
    9cc2:	0651      	lsls	r1, r2, #25
    9cc4:	d5f9      	bpl.n	9cba <_printf_i+0x82>
    9cc6:	1d1a      	adds	r2, r3, #4
    9cc8:	602a      	str	r2, [r5, #0]
    9cca:	f9b3 5000 	ldrsh.w	r5, [r3]
    9cce:	2d00      	cmp	r5, #0
    9cd0:	da39      	bge.n	9d46 <_printf_i+0x10e>
    9cd2:	232d      	movs	r3, #45	; 0x2d
    9cd4:	426d      	negs	r5, r5
    9cd6:	f884 3043 	strb.w	r3, [r4, #67]	; 0x43
    9cda:	e034      	b.n	9d46 <_printf_i+0x10e>
    9cdc:	6822      	ldr	r2, [r4, #0]
    9cde:	682b      	ldr	r3, [r5, #0]
    9ce0:	f012 0f80 	tst.w	r2, #128	; 0x80
    9ce4:	d003      	beq.n	9cee <_printf_i+0xb6>
    9ce6:	1d1a      	adds	r2, r3, #4
    9ce8:	602a      	str	r2, [r5, #0]
    9cea:	681d      	ldr	r5, [r3, #0]
    9cec:	e004      	b.n	9cf8 <_printf_i+0xc0>
    9cee:	0652      	lsls	r2, r2, #25
    9cf0:	d5f9      	bpl.n	9ce6 <_printf_i+0xae>
    9cf2:	1d1a      	adds	r2, r3, #4
    9cf4:	602a      	str	r2, [r5, #0]
    9cf6:	881d      	ldrh	r5, [r3, #0]
    9cf8:	7e23      	ldrb	r3, [r4, #24]
    9cfa:	4a57      	ldr	r2, [pc, #348]	; (9e58 <_printf_i+0x220>)
    9cfc:	2b6f      	cmp	r3, #111	; 0x6f
    9cfe:	bf14      	ite	ne
    9d00:	230a      	movne	r3, #10
    9d02:	2308      	moveq	r3, #8
    9d04:	e01b      	b.n	9d3e <_printf_i+0x106>
    9d06:	2378      	movs	r3, #120	; 0x78
    9d08:	4a54      	ldr	r2, [pc, #336]	; (9e5c <_printf_i+0x224>)
    9d0a:	f884 3045 	strb.w	r3, [r4, #69]	; 0x45
    9d0e:	6823      	ldr	r3, [r4, #0]
    9d10:	6829      	ldr	r1, [r5, #0]
    9d12:	f013 0f80 	tst.w	r3, #128	; 0x80
    9d16:	f101 0604 	add.w	r6, r1, #4
    9d1a:	602e      	str	r6, [r5, #0]
    9d1c:	d001      	beq.n	9d22 <_printf_i+0xea>
    9d1e:	680d      	ldr	r5, [r1, #0]
    9d20:	e002      	b.n	9d28 <_printf_i+0xf0>
    9d22:	065f      	lsls	r7, r3, #25
    9d24:	d5fb      	bpl.n	9d1e <_printf_i+0xe6>
    9d26:	880d      	ldrh	r5, [r1, #0]
    9d28:	07de      	lsls	r6, r3, #31
    9d2a:	bf44      	itt	mi
    9d2c:	f043 0320 	orrmi.w	r3, r3, #32
    9d30:	6023      	strmi	r3, [r4, #0]
    9d32:	b91d      	cbnz	r5, 9d3c <_printf_i+0x104>
    9d34:	6823      	ldr	r3, [r4, #0]
    9d36:	f023 0320 	bic.w	r3, r3, #32
    9d3a:	6023      	str	r3, [r4, #0]
    9d3c:	2310      	movs	r3, #16
    9d3e:	2100      	movs	r1, #0
    9d40:	f884 1043 	strb.w	r1, [r4, #67]	; 0x43
    9d44:	e001      	b.n	9d4a <_printf_i+0x112>
    9d46:	4a44      	ldr	r2, [pc, #272]	; (9e58 <_printf_i+0x220>)
    9d48:	230a      	movs	r3, #10
    9d4a:	6866      	ldr	r6, [r4, #4]
    9d4c:	60a6      	str	r6, [r4, #8]
    9d4e:	2e00      	cmp	r6, #0
    9d50:	db03      	blt.n	9d5a <_printf_i+0x122>
    9d52:	6821      	ldr	r1, [r4, #0]
    9d54:	f021 0104 	bic.w	r1, r1, #4
    9d58:	6021      	str	r1, [r4, #0]
    9d5a:	b905      	cbnz	r5, 9d5e <_printf_i+0x126>
    9d5c:	b16e      	cbz	r6, 9d7a <_printf_i+0x142>
    9d5e:	f104 0142 	add.w	r1, r4, #66	; 0x42
    9d62:	fbb5 f6f3 	udiv	r6, r5, r3
    9d66:	fb03 5516 	mls	r5, r3, r6, r5
    9d6a:	460f      	mov	r7, r1
    9d6c:	5d55      	ldrb	r5, [r2, r5]
    9d6e:	f801 5901 	strb.w	r5, [r1], #-1
    9d72:	4635      	mov	r5, r6
    9d74:	2e00      	cmp	r6, #0
    9d76:	d1f4      	bne.n	9d62 <_printf_i+0x12a>
    9d78:	e000      	b.n	9d7c <_printf_i+0x144>
    9d7a:	4607      	mov	r7, r0
    9d7c:	2b08      	cmp	r3, #8
    9d7e:	d10a      	bne.n	9d96 <_printf_i+0x15e>
    9d80:	6823      	ldr	r3, [r4, #0]
    9d82:	07dd      	lsls	r5, r3, #31
    9d84:	d507      	bpl.n	9d96 <_printf_i+0x15e>
    9d86:	6862      	ldr	r2, [r4, #4]
    9d88:	6923      	ldr	r3, [r4, #16]
    9d8a:	429a      	cmp	r2, r3
    9d8c:	dc03      	bgt.n	9d96 <_printf_i+0x15e>
    9d8e:	2330      	movs	r3, #48	; 0x30
    9d90:	f807 3c01 	strb.w	r3, [r7, #-1]
    9d94:	3f01      	subs	r7, #1
    9d96:	1bc0      	subs	r0, r0, r7
    9d98:	6120      	str	r0, [r4, #16]
    9d9a:	e02c      	b.n	9df6 <_printf_i+0x1be>
    9d9c:	6809      	ldr	r1, [r1, #0]
    9d9e:	682b      	ldr	r3, [r5, #0]
    9da0:	6962      	ldr	r2, [r4, #20]
    9da2:	f011 0f80 	tst.w	r1, #128	; 0x80
    9da6:	d004      	beq.n	9db2 <_printf_i+0x17a>
    9da8:	1d19      	adds	r1, r3, #4
    9daa:	6029      	str	r1, [r5, #0]
    9dac:	681b      	ldr	r3, [r3, #0]
    9dae:	601a      	str	r2, [r3, #0]
    9db0:	e005      	b.n	9dbe <_printf_i+0x186>
    9db2:	0649      	lsls	r1, r1, #25
    9db4:	d5f8      	bpl.n	9da8 <_printf_i+0x170>
    9db6:	1d19      	adds	r1, r3, #4
    9db8:	6029      	str	r1, [r5, #0]
    9dba:	681b      	ldr	r3, [r3, #0]
    9dbc:	801a      	strh	r2, [r3, #0]
    9dbe:	2300      	movs	r3, #0
    9dc0:	6123      	str	r3, [r4, #16]
    9dc2:	4607      	mov	r7, r0
    9dc4:	e017      	b.n	9df6 <_printf_i+0x1be>
    9dc6:	682b      	ldr	r3, [r5, #0]
    9dc8:	1d1a      	adds	r2, r3, #4
    9dca:	602a      	str	r2, [r5, #0]
    9dcc:	681f      	ldr	r7, [r3, #0]
    9dce:	4638      	mov	r0, r7
    9dd0:	f7fc fd93 	bl	68fa <strlen>
    9dd4:	6863      	ldr	r3, [r4, #4]
    9dd6:	6120      	str	r0, [r4, #16]
    9dd8:	4298      	cmp	r0, r3
    9dda:	bf88      	it	hi
    9ddc:	6123      	strhi	r3, [r4, #16]
    9dde:	6923      	ldr	r3, [r4, #16]
    9de0:	6063      	str	r3, [r4, #4]
    9de2:	e005      	b.n	9df0 <_printf_i+0x1b8>
    9de4:	f104 0742 	add.w	r7, r4, #66	; 0x42
    9de8:	f884 6042 	strb.w	r6, [r4, #66]	; 0x42
    9dec:	2301      	movs	r3, #1
    9dee:	6123      	str	r3, [r4, #16]
    9df0:	2300      	movs	r3, #0
    9df2:	f884 3043 	strb.w	r3, [r4, #67]	; 0x43
    9df6:	f8cd a000 	str.w	sl, [sp]
    9dfa:	4640      	mov	r0, r8
    9dfc:	4621      	mov	r1, r4
    9dfe:	aa03      	add	r2, sp, #12
    9e00:	464b      	mov	r3, r9
    9e02:	f7ff fea7 	bl	9b54 <_printf_common>
    9e06:	3001      	adds	r0, #1
    9e08:	d102      	bne.n	9e10 <_printf_i+0x1d8>
    9e0a:	f04f 30ff 	mov.w	r0, #4294967295
    9e0e:	e01f      	b.n	9e50 <_printf_i+0x218>
    9e10:	4640      	mov	r0, r8
    9e12:	4649      	mov	r1, r9
    9e14:	463a      	mov	r2, r7
    9e16:	6923      	ldr	r3, [r4, #16]
    9e18:	47d0      	blx	sl
    9e1a:	3001      	adds	r0, #1
    9e1c:	d0f5      	beq.n	9e0a <_printf_i+0x1d2>
    9e1e:	6823      	ldr	r3, [r4, #0]
    9e20:	079b      	lsls	r3, r3, #30
    9e22:	d405      	bmi.n	9e30 <_printf_i+0x1f8>
    9e24:	68e0      	ldr	r0, [r4, #12]
    9e26:	9b03      	ldr	r3, [sp, #12]
    9e28:	4298      	cmp	r0, r3
    9e2a:	bfb8      	it	lt
    9e2c:	4618      	movlt	r0, r3
    9e2e:	e00f      	b.n	9e50 <_printf_i+0x218>
    9e30:	2500      	movs	r5, #0
    9e32:	68e2      	ldr	r2, [r4, #12]
    9e34:	9b03      	ldr	r3, [sp, #12]
    9e36:	1ad3      	subs	r3, r2, r3
    9e38:	429d      	cmp	r5, r3
    9e3a:	daf3      	bge.n	9e24 <_printf_i+0x1ec>
    9e3c:	4640      	mov	r0, r8
    9e3e:	4649      	mov	r1, r9
    9e40:	f104 0219 	add.w	r2, r4, #25
    9e44:	2301      	movs	r3, #1
    9e46:	47d0      	blx	sl
    9e48:	3001      	adds	r0, #1
    9e4a:	d0de      	beq.n	9e0a <_printf_i+0x1d2>
    9e4c:	3501      	adds	r5, #1
    9e4e:	e7f0      	b.n	9e32 <_printf_i+0x1fa>
    9e50:	b004      	add	sp, #16
    9e52:	e8bd 87f0 	ldmia.w	sp!, {r4, r5, r6, r7, r8, r9, sl, pc}
    9e56:	bf00      	nop
    9e58:	0000a6b2 	.word	0x0000a6b2
    9e5c:	0000a6c3 	.word	0x0000a6c3

00009e60 <memchr>:
memchr():
    9e60:	b510      	push	{r4, lr}
    9e62:	b2c9      	uxtb	r1, r1
    9e64:	4402      	add	r2, r0
    9e66:	4290      	cmp	r0, r2
    9e68:	4603      	mov	r3, r0
    9e6a:	d006      	beq.n	9e7a <memchr+0x1a>
    9e6c:	781c      	ldrb	r4, [r3, #0]
    9e6e:	428c      	cmp	r4, r1
    9e70:	f100 0001 	add.w	r0, r0, #1
    9e74:	d1f7      	bne.n	9e66 <memchr+0x6>
    9e76:	4618      	mov	r0, r3
    9e78:	bd10      	pop	{r4, pc}
    9e7a:	2000      	movs	r0, #0
    9e7c:	bd10      	pop	{r4, pc}

00009e7e <pin2sc1a>:
$d():
    9e7e:	0e05 0908 0c0d 0706 040f 9303 8f8e 0e05     ................
    9e8e:	0908 0c0d 0706 040f ffff ffff ffff 8eff     ................
    9e9e:	118f 8412 8685 9187 ffff ffff ffff ffff     ................
    9eae:	8aff ff8b ffff ffff ffff ffff ffff ffff     ................
    9ebe:	9303 9717 8101 921a 0031 0030 ffff          ........1.0...

00009ecc <digital_pin_to_info_PGM>:
    9ecc:	0840 43fe a040 4004 0844 43fe a044 4004     @..C@..@D..CD..@
    9edc:	1800 43fe c000 4004 0030 43fe 9030 4004     ...C...@0..C0..@
    9eec:	0034 43fe 9034 4004 181c 43fe c01c 4004     4..C4..@...C...@
    9efc:	1810 43fe c010 4004 1808 43fe c008 4004     ...C...@...C...@
    9f0c:	180c 43fe c00c 4004 100c 43fe b00c 4004     ...C...@...C...@
    9f1c:	1010 43fe b010 4004 1018 43fe b018 4004     ...C...@...C...@
    9f2c:	101c 43fe b01c 4004 1014 43fe b014 4004     ...C...@...C...@
    9f3c:	1804 43fe c004 4004 1000 43fe b000 4004     ...C...@...C...@
    9f4c:	0800 43fe a000 4004 0804 43fe a004 4004     ...C...@...C...@
    9f5c:	080c 43fe a00c 4004 0808 43fe a008 4004     ...C...@...C...@
    9f6c:	1814 43fe c014 4004 1818 43fe c018 4004     ...C...@...C...@
    9f7c:	1004 43fe b004 4004 1008 43fe b008 4004     ...C...@...C...@
    9f8c:	2068 43fe d068 4004 0014 43fe 9014 4004     h .Ch..@...C...@
    9f9c:	0038 43fe 9038 4004 003c 43fe 903c 4004     8..C8..@<..C<..@
    9fac:	0040 43fe 9040 4004 0848 43fe a048 4004     @..C@..@H..CH..@
    9fbc:	084c 43fe a04c 4004 0828 43fe a028 4004     L..CL..@(..C(..@
    9fcc:	082c 43fe a02c 4004 2060 43fe d060 4004     ,..C,..@` .C`..@
    9fdc:	2064 43fe d064 4004 1020 43fe b020 4004     d .Cd..@ ..C ..@
    9fec:	1024 43fe b024 4004 1028 43fe b028 4004     $..C$..@(..C(..@
    9ffc:	102c 43fe b02c 4004 0044 43fe 9044 4004     ,..C,..@D..CD..@
    a00c:	0070 43fe 9070 4004 0074 43fe 9074 4004     p..Cp..@t..Ct..@
    a01c:	0068 43fe 9068 4004 0850 43fe a050 4004     h..Ch..@P..CP..@
    a02c:	0858 43fe a058 4004 085c 43fe a05c 4004     X..CX..@\..C\..@
    a03c:	0854 43fe a054 4004 1820 43fe c020 4004     T..CT..@ ..C ..@
    a04c:	1824 43fe c024 4004 0810 43fe a010 4004     $..C$..@...C...@
    a05c:	0814 43fe a014 4004 1838 43fe c038 4004     ...C...@8..C8..@
    a06c:	1834 43fe c034 4004 1830 43fe c030 4004     4..C4..@0..C0..@
    a07c:	183c 43fe c03c 4004 182c 43fe c02c 4004     <..C<..@,..C,..@
    a08c:	2028 43fe d028 4004 202c 43fe d02c 4004     ( .C(..@, .C,..@
    a09c:	2000 43fe d000 4004 2004 43fe d004 4004     . .C...@. .C...@
    a0ac:	2008 43fe d008 4004 200c 43fe d00c 4004     . .C...@. .C...@
    a0bc:	2010 43fe d010 4004 2014 43fe d014 4004     . .C...@. .C...@

0000a0cc <usb_endpoint_config_table>:
    a0cc:	1500 1519                                   ....

0000a0d0 <usb_descriptor_list>:
    a0d0:	0100 0000 0a9b 1fff 0012 0000 0200 0000     ................
    a0e0:	0a58 1fff 0043 0000 0300 0000 0a54 1fff     X...C.......T...
    a0f0:	0000 0000 0301 0409 0a3c 1fff 0000 0000     ........<.......
    a100:	0302 0409 0a26 1fff 0000 0000 0303 0409     ....&...........
    a110:	0a10 1fff 0000 0000 0000 0000 0000 0000     ................
    a120:	0000 0000 ffff ffff                         ........

0000a128 <_ZTV14HardwareSerial>:
	...
    a130:	42bd 0000 42d5 0000 42a5 0000 42ad 0000     .B...B...B...B..
    a140:	42a9 0000 42b1 0000 4239 0000 424d 0000     .B...B..9B..MB..
    a150:	426d 0000 4271 0000 4277 0000 427d 0000     mB..qB..wB..}B..
    a160:	4285 0000 4295 0000 42b5 0000 42b9 0000     .B...B...B...B..
    a170:	4209 0000 4215 0000 4221 0000 422d 0000     .B...B..!B..-B..
    a180:	42e5 0000 42c9 0000                         .B...B..

0000a188 <_ZTV15HardwareSerial2>:
	...
    a190:	43d1 0000 43e9 0000 43b9 0000 43c1 0000     .C...C...C...C..
    a1a0:	43bd 0000 43c5 0000 434d 0000 4361 0000     .C...C..MC..aC..
    a1b0:	4381 0000 4385 0000 438b 0000 4391 0000     .C...C...C...C..
    a1c0:	4399 0000 43a9 0000 43c9 0000 43cd 0000     .C...C...C...C..
    a1d0:	431b 0000 4327 0000 4333 0000 433f 0000     .C..'C..3C..?C..
    a1e0:	43f9 0000 43dd 0000                         .C...C..

0000a1e8 <_ZTV15HardwareSerial3>:
	...
    a1f0:	44e5 0000 44fd 0000 44cd 0000 44d5 0000     .D...D...D...D..
    a200:	44d1 0000 44d9 0000 4461 0000 4475 0000     .D...D..aD..uD..
    a210:	4495 0000 4499 0000 449f 0000 44a5 0000     .D...D...D...D..
    a220:	44ad 0000 44bd 0000 44dd 0000 44e1 0000     .D...D...D...D..
    a230:	442f 0000 443b 0000 4447 0000 4453 0000     /D..;D..GD..SD..
    a240:	450d 0000 44f1 0000                         .E...D..

0000a248 <_ZTV15HardwareSerial4>:
	...
    a250:	45f9 0000 4611 0000 45e1 0000 45e9 0000     .E...F...E...E..
    a260:	45e5 0000 45ed 0000 4575 0000 4589 0000     .E...E..uE...E..
    a270:	45a9 0000 45ad 0000 45b3 0000 45b9 0000     .E...E...E...E..
    a280:	45c1 0000 45d1 0000 45f1 0000 45f5 0000     .E...E...E...E..
    a290:	4543 0000 454f 0000 455b 0000 4567 0000     CE..OE..[E..gE..
    a2a0:	4621 0000 4605 0000                         !F...F..

0000a2a8 <_ZTV15HardwareSerial5>:
	...
    a2b0:	470d 0000 4725 0000 46f5 0000 46fd 0000     .G..%G...F...F..
    a2c0:	46f9 0000 4701 0000 4689 0000 469d 0000     .F...G...F...F..
    a2d0:	46bd 0000 46c1 0000 46c7 0000 46cd 0000     .F...F...F...F..
    a2e0:	46d5 0000 46e5 0000 4705 0000 4709 0000     .F...F...G...G..
    a2f0:	4657 0000 4663 0000 466f 0000 467b 0000     WF..cF..oF..{F..
    a300:	4735 0000 4719 0000                         5G...G..

0000a308 <_ZTV15HardwareSerial6>:
	...
    a310:	4805 0000 481d 0000 47ed 0000 47f5 0000     .H...H...G...G..
    a320:	47f1 0000 47f9 0000 479b 0000 47a1 0000     .G...G...G...G..
    a330:	47b5 0000 47b9 0000 47bf 0000 47c5 0000     .G...G...G...G..
    a340:	47cd 0000 47dd 0000 47fd 0000 4801 0000     .G...G...G...H..
    a350:	476b 0000 4777 0000 4783 0000 478f 0000     kG..wG...G...G..
    a360:	482d 0000 4811 0000 7453 7261 6974 676e     -H...H..Starting
    a370:	6e20 776f 0a21 2500 0a64 ff00 ffff ffff      now!..%d.......
    a380:	0a0d 0000 0000 0000                         ........

0000a388 <_ZTV5Print>:
	...
    a390:	09b9 0000 4909 0000 616e 006e 6e69 0066     .....I..nan.inf.
    a3a0:	766f 0066 ffff ffff                         ovf.....

0000a3a8 <_ZTV16usb_serial_class>:
	...
    a3b0:	4bcf 0000 4bd5 0000 4bbb 0000 4bbf 0000     .K...K...K...K..
    a3c0:	4bc3 0000 4bc7 0000 4bcb 0000 0000 0000     .K...K...K......
    a3d0:	0043 ffff                                   C...

0000a3d4 <_global_impure_ptr>:
    a3d4:	0ab4 1fff                                   ....

0000a3d8 <tinytens>:
    a3d8:	89bc 97d8 d2b2 3c9c a733 d5a8 f623 3949     .......<3...#.I9
    a3e8:	a73d 44f4 0ffd 32a5 979d cf8c ba08 255b     =..D...2......[%
    a3f8:	6f43 64ac 0628 1168                         Co.d(.h.

0000a400 <fpi.5246>:
    a400:	0035 0000 fbce ffff 03cb 0000 0001 0000     5...............
    a410:	0000 0000                                   ....

0000a414 <fpinan.5282>:
    a414:	0034 0000 fbce ffff 03cb 0000 0001 0000     4...............
    a424:	0000 0000                                   ....

0000a428 <_ctype_>:
    a428:	2000 2020 2020 2020 2020 2828 2828 2028     .         ((((( 
    a438:	2020 2020 2020 2020 2020 2020 2020 2020                     
    a448:	8820 1010 1010 1010 1010 1010 1010 1010      ...............
    a458:	0410 0404 0404 0404 0404 1004 1010 1010     ................
    a468:	1010 4141 4141 4141 0101 0101 0101 0101     ..AAAAAA........
    a478:	0101 0101 0101 0101 0101 0101 1010 1010     ................
    a488:	1010 4242 4242 4242 0202 0202 0202 0202     ..BBBBBB........
    a498:	0202 0202 0202 0202 0202 0202 1010 1010     ................
    a4a8:	0020 0000 0000 0000 0000 0000 0000 0000      ...............
	...
    a528:	ff00 ffff                                   ....

0000a52c <__sf_fake_stdin>:
	...

0000a54c <__sf_fake_stdout>:
	...

0000a56c <__sf_fake_stderr>:
	...
    a58c:	4f50 4953 0058 002e ffff ffff               POSIX.......

0000a598 <__mprec_tens>:
    a598:	0000 0000 0000 3ff0 0000 0000 0000 4024     .......?......$@
    a5a8:	0000 0000 0000 4059 0000 0000 4000 408f     ......Y@.....@.@
    a5b8:	0000 0000 8800 40c3 0000 0000 6a00 40f8     .......@.....j.@
    a5c8:	0000 0000 8480 412e 0000 0000 12d0 4163     .......A......cA
    a5d8:	0000 0000 d784 4197 0000 0000 cd65 41cd     .......A....e..A
    a5e8:	0000 2000 a05f 4202 0000 e800 4876 4237     ... _..B....vH7B
    a5f8:	0000 a200 1a94 426d 0000 e540 309c 42a2     ......mB..@..0.B
    a608:	0000 1e90 bcc4 42d6 0000 2634 6bf5 430c     .......B..4&.k.C
    a618:	8000 37e0 c379 4341 a000 85d8 3457 4376     ...7y.AC....W4vC
    a628:	c800 674e c16d 43ab 3d00 6091 58e4 43e1     ..Ngm..C.=.`.X.C
    a638:	8c40 78b5 af1d 4415 ef50 d6e2 1ae4 444b     @..x...DP.....KD
    a648:	d592 064d f0cf 4480 4af6 c7e1 2d02 44b5     ..M....D.J...-.D
    a658:	9db4 79d9 7843 44ea                         ...yCx.D

0000a660 <__mprec_bigtens>:
    a660:	8000 37e0 c379 4341 6e17 b505 b8b5 4693     ...7y.AC.n.....F
    a670:	f9f5 e93f 4f03 4d38 1d32 f930 7748 5a82     ..?..O8M2.0.Hw.Z
    a680:	bf3c 7f73 4fdd 7515                         <.s..O.u

0000a688 <p05.5281>:
    a688:	0005 0000 0019 0000 007d 0000 6e49 6966     ........}...Infi
    a698:	696e 7974 4e00 4e61 2300 302d 202b 6800     nity.NaN.#-0+ .h
    a6a8:	4c6c 6500 6766 4645 0047 3130 3332 3534     lL.efgEFG.012345
    a6b8:	3736 3938 4241 4443 4645 3000 3231 3433     6789ABCDEF.01234
    a6c8:	3635 3837 6139 6362 6564 0066               56789abcdef.

0000a6d4 <_init>:
$t():
    a6d4:	b5f8      	push	{r3, r4, r5, r6, r7, lr}
    a6d6:	bf00      	nop
    a6d8:	bcf8      	pop	{r3, r4, r5, r6, r7}
    a6da:	bc08      	pop	{r3}
    a6dc:	469e      	mov	lr, r3
    a6de:	4770      	bx	lr

0000a6e0 <__init_array_start>:
$d():
    a6e0:	00000435 	.word	0x00000435
    a6e4:	000042fd 	.word	0x000042fd
    a6e8:	00004411 	.word	0x00004411
    a6ec:	00004525 	.word	0x00004525
    a6f0:	00004639 	.word	0x00004639
    a6f4:	0000474d 	.word	0x0000474d
    a6f8:	00004845 	.word	0x00004845
    a6fc:	00004bdd 	.word	0x00004bdd

Disassembly of section .data:

1fff0760 <port_E_isr>:
port_E_isr():
C:\Teensy\Projects\HelloWorld/pins_teensy.c:275
1fff0760:	4b08      	ldr	r3, [pc, #32]	; (1fff0784 <port_E_isr+0x24>)
1fff0762:	b510      	push	{r4, lr}
1fff0764:	681c      	ldr	r4, [r3, #0]
1fff0766:	601c      	str	r4, [r3, #0]
1fff0768:	b154      	cbz	r4, 1fff0780 <port_E_isr+0x20>
C:\Teensy\Projects\HelloWorld/pins_teensy.c:275 (discriminator 2)
1fff076a:	fa94 f2a4 	rbit	r2, r4
1fff076e:	fab2 f282 	clz	r2, r2
1fff0772:	4b05      	ldr	r3, [pc, #20]	; (1fff0788 <port_E_isr+0x28>)
1fff0774:	f853 3022 	ldr.w	r3, [r3, r2, lsl #2]
1fff0778:	4798      	blx	r3
1fff077a:	1e63      	subs	r3, r4, #1
1fff077c:	401c      	ands	r4, r3
1fff077e:	d1f4      	bne.n	1fff076a <port_E_isr+0xa>
1fff0780:	bd10      	pop	{r4, pc}
1fff0782:	bf00      	nop
1fff0784:	4004d0a0 	.word	0x4004d0a0
1fff0788:	1fff0850 	.word	0x1fff0850

1fff078c <port_D_isr>:
port_D_isr():
C:\Teensy\Projects\HelloWorld/pins_teensy.c:274
1fff078c:	4b08      	ldr	r3, [pc, #32]	; (1fff07b0 <port_D_isr+0x24>)
1fff078e:	b510      	push	{r4, lr}
1fff0790:	681c      	ldr	r4, [r3, #0]
1fff0792:	601c      	str	r4, [r3, #0]
1fff0794:	b15c      	cbz	r4, 1fff07ae <port_D_isr+0x22>
C:\Teensy\Projects\HelloWorld/pins_teensy.c:274 (discriminator 2)
1fff0796:	fa94 f3a4 	rbit	r3, r4
1fff079a:	4a06      	ldr	r2, [pc, #24]	; (1fff07b4 <port_D_isr+0x28>)
1fff079c:	fab3 f383 	clz	r3, r3
1fff07a0:	eb02 0383 	add.w	r3, r2, r3, lsl #2
1fff07a4:	6edb      	ldr	r3, [r3, #108]	; 0x6c
1fff07a6:	4798      	blx	r3
1fff07a8:	1e63      	subs	r3, r4, #1
1fff07aa:	401c      	ands	r4, r3
1fff07ac:	d1f3      	bne.n	1fff0796 <port_D_isr+0xa>
1fff07ae:	bd10      	pop	{r4, pc}
1fff07b0:	4004c0a0 	.word	0x4004c0a0
1fff07b4:	1fff0850 	.word	0x1fff0850

1fff07b8 <port_C_isr>:
port_C_isr():
C:\Teensy\Projects\HelloWorld/pins_teensy.c:273
1fff07b8:	4b09      	ldr	r3, [pc, #36]	; (1fff07e0 <port_C_isr+0x28>)
1fff07ba:	b510      	push	{r4, lr}
1fff07bc:	681c      	ldr	r4, [r3, #0]
1fff07be:	601c      	str	r4, [r3, #0]
1fff07c0:	b164      	cbz	r4, 1fff07dc <port_C_isr+0x24>
C:\Teensy\Projects\HelloWorld/pins_teensy.c:273 (discriminator 2)
1fff07c2:	fa94 f3a4 	rbit	r3, r4
1fff07c6:	4a07      	ldr	r2, [pc, #28]	; (1fff07e4 <port_C_isr+0x2c>)
1fff07c8:	fab3 f383 	clz	r3, r3
1fff07cc:	eb02 0383 	add.w	r3, r2, r3, lsl #2
1fff07d0:	f8d3 30ac 	ldr.w	r3, [r3, #172]	; 0xac
1fff07d4:	4798      	blx	r3
1fff07d6:	1e63      	subs	r3, r4, #1
1fff07d8:	401c      	ands	r4, r3
1fff07da:	d1f2      	bne.n	1fff07c2 <port_C_isr+0xa>
1fff07dc:	bd10      	pop	{r4, pc}
1fff07de:	bf00      	nop
1fff07e0:	4004b0a0 	.word	0x4004b0a0
1fff07e4:	1fff0850 	.word	0x1fff0850

1fff07e8 <port_B_isr>:
port_B_isr():
C:\Teensy\Projects\HelloWorld/pins_teensy.c:272
1fff07e8:	4b09      	ldr	r3, [pc, #36]	; (1fff0810 <port_B_isr+0x28>)
1fff07ea:	b510      	push	{r4, lr}
1fff07ec:	681c      	ldr	r4, [r3, #0]
1fff07ee:	601c      	str	r4, [r3, #0]
1fff07f0:	b164      	cbz	r4, 1fff080c <port_B_isr+0x24>
C:\Teensy\Projects\HelloWorld/pins_teensy.c:272 (discriminator 2)
1fff07f2:	fa94 f3a4 	rbit	r3, r4
1fff07f6:	4a07      	ldr	r2, [pc, #28]	; (1fff0814 <port_B_isr+0x2c>)
1fff07f8:	fab3 f383 	clz	r3, r3
1fff07fc:	eb02 0383 	add.w	r3, r2, r3, lsl #2
1fff0800:	f8d3 30dc 	ldr.w	r3, [r3, #220]	; 0xdc
1fff0804:	4798      	blx	r3
1fff0806:	1e63      	subs	r3, r4, #1
1fff0808:	401c      	ands	r4, r3
1fff080a:	d1f2      	bne.n	1fff07f2 <port_B_isr+0xa>
1fff080c:	bd10      	pop	{r4, pc}
1fff080e:	bf00      	nop
1fff0810:	4004a0a0 	.word	0x4004a0a0
1fff0814:	1fff0850 	.word	0x1fff0850

1fff0818 <port_A_isr>:
port_A_isr():
C:\Teensy\Projects\HelloWorld/pins_teensy.c:271
1fff0818:	4b09      	ldr	r3, [pc, #36]	; (1fff0840 <port_A_isr+0x28>)
1fff081a:	b510      	push	{r4, lr}
1fff081c:	681c      	ldr	r4, [r3, #0]
1fff081e:	601c      	str	r4, [r3, #0]
1fff0820:	b164      	cbz	r4, 1fff083c <port_A_isr+0x24>
C:\Teensy\Projects\HelloWorld/pins_teensy.c:271 (discriminator 2)
1fff0822:	fa94 f3a4 	rbit	r3, r4
1fff0826:	4a07      	ldr	r2, [pc, #28]	; (1fff0844 <port_A_isr+0x2c>)
1fff0828:	fab3 f383 	clz	r3, r3
1fff082c:	eb02 0383 	add.w	r3, r2, r3, lsl #2
1fff0830:	f8d3 313c 	ldr.w	r3, [r3, #316]	; 0x13c
1fff0834:	4798      	blx	r3
1fff0836:	1e63      	subs	r3, r4, #1
1fff0838:	401c      	ands	r4, r3
1fff083a:	d1f2      	bne.n	1fff0822 <port_A_isr+0xa>
1fff083c:	bd10      	pop	{r4, pc}
1fff083e:	bf00      	nop
1fff0840:	400490a0 	.word	0x400490a0
1fff0844:	1fff0850 	.word	0x1fff0850

1fff0848 <analog_config_bits>:
$d():
1fff0848:	0000040a                                         .

1fff0849 <analog_num_average>:
1fff0849:	f4000004                                         ...

1fff084c <__brkval>:
1fff084c:	1fff10f4                                ....

1fff0850 <isr_table_portE>:
1fff0850:	00000c79 00000c79 00000c79 00000c79     y...y...y...y...
1fff0860:	00000c79 00000c79 00000c79 00000c79     y...y...y...y...
1fff0870:	00000c79 00000c79 00000c79 00000c79     y...y...y...y...
1fff0880:	00000c79 00000c79 00000c79 00000c79     y...y...y...y...
1fff0890:	00000c79 00000c79 00000c79 00000c79     y...y...y...y...
1fff08a0:	00000c79 00000c79 00000c79 00000c79     y...y...y...y...
1fff08b0:	00000c79 00000c79 00000c79              y...y...y...

1fff08bc <isr_table_portD>:
1fff08bc:	00000c79 00000c79 00000c79 00000c79     y...y...y...y...
1fff08cc:	00000c79 00000c79 00000c79 00000c79     y...y...y...y...
1fff08dc:	00000c79 00000c79 00000c79 00000c79     y...y...y...y...
1fff08ec:	00000c79 00000c79 00000c79 00000c79     y...y...y...y...

1fff08fc <isr_table_portC>:
1fff08fc:	00000c79 00000c79 00000c79 00000c79     y...y...y...y...
1fff090c:	00000c79 00000c79 00000c79 00000c79     y...y...y...y...
1fff091c:	00000c79 00000c79 00000c79 00000c79     y...y...y...y...

1fff092c <isr_table_portB>:
1fff092c:	00000c79 00000c79 00000c79 00000c79     y...y...y...y...
1fff093c:	00000c79 00000c79 00000c79 00000c79     y...y...y...y...
1fff094c:	00000c79 00000c79 00000c79 00000c79     y...y...y...y...
1fff095c:	00000c79 00000c79 00000c79 00000c79     y...y...y...y...
1fff096c:	00000c79 00000c79 00000c79 00000c79     y...y...y...y...
1fff097c:	00000c79 00000c79 00000c79 00000c79     y...y...y...y...

1fff098c <isr_table_portA>:
1fff098c:	00000c79 00000c79 00000c79 00000c79     y...y...y...y...
1fff099c:	00000c79 00000c79 00000c79 00000c79     y...y...y...y...
1fff09ac:	00000c79 00000c79 00000c79 00000c79     y...y...y...y...
1fff09bc:	00000c79 00000c79 00000c79 00000c79     y...y...y...y...
1fff09cc:	00000c79 00000c79 00000c79 00000c79     y...y...y...y...
1fff09dc:	00000c79 00000c79 00000c79 00000c79     y...y...y...y...
1fff09ec:	00000c79 00000c79 00000c79 00000c79     y...y...y...y...
1fff09fc:	00000c79 00000c79                       y...y...

1fff0a04 <analog_write_res>:
1fff0a04:	00000008                                ....

1fff0a08 <tx_pin_num>:
1fff0a08:	080a0901                                         .

1fff0a09 <rx_pin_num>:
1fff0a09:	1f080a09                                         .

1fff0a0a <tx_pin_num>:
1fff0a0a:	201f080a                                         .

1fff0a0b <tx_pin_num>:
1fff0a0b:	21201f08                                         .

1fff0a0c <rx_pin_num>:
1fff0a0c:	3021201f                                         .

1fff0a0d <tx_pin_num>:
1fff0a0d:	0c302120                                          

1fff0a0e <tx_pin_num>:
1fff0a0e:	030c3021                                         !

1fff0a0f <tx_pin_num>:
1fff0a0f:	00030c30                                         0

1fff0a10 <usb_string_serial_number_default>:
1fff0a10:	0000030c 00000000 00000000 00000000     ................
1fff0a20:	00000000 03160000                                ......

1fff0a26 <usb_string_product_name_default>:
1fff0a26:	00550316 00420053 00530020 00720065     ..U.S.B. .S.e.r.
1fff0a36:	00610069 0318006c                                i.a.l.

1fff0a3c <usb_string_manufacturer_name_default>:
1fff0a3c:	00540318 00650065 0073006e 00640079     ..T.e.e.n.s.y.d.
1fff0a4c:	00690075 006f006e                       u.i.n.o.

1fff0a54 <string0>:
1fff0a54:	04090304                                ....

1fff0a58 <config_descriptor>:
1fff0a58:	00430209 c0000102 00040932 02020100     ..C.....2.......
1fff0a68:	24050001 05011000 01010124 06022404     ...$....$....$..
1fff0a78:	00062405 82050701 40001003 00010409     .$.........@....
1fff0a88:	00000a02 03050700 00004002 02840507     .........@......
1fff0a98:	12000040                                         @..

1fff0a9b <device_descriptor>:
1fff0a9b:	01010112 40000002 048316c0 02010200     .......@........
1fff0aab:	00000103 ffffff00                                .....

1fff0ab0 <usb_buffer_available>:
1fff0ab0:	ffffffff                                ....

1fff0ab4 <impure_data>:
1fff0ab4:	00000000 0000a52c 0000a54c 0000a56c     ....,...L...l...
	...
1fff0ad4:	0000a3d0 00000000 00000000 00000000     ................
	...

1fff0b14 <_impure_ptr>:
1fff0b14:	1fff0ab4                                ....

1fff0b18 <__ctype_ptr__>:
1fff0b18:	0000a428                                (...

1fff0b1c <lconv>:
1fff0b1c:	0000a592 0000a376 0000a376 0000a376     ....v...v...v...
1fff0b2c:	0000a376 0000a376 0000a376 0000a376     v...v...v...v...
1fff0b3c:	0000a376 0000a376 ffffffff ffffffff     v...v...........
1fff0b4c:	ffffffff 0000ffff                       ........
