
main.elf:     file format elf32-littlearm


Disassembly of section .text:

00000000 <_VectorsFlash>:
       0:	00 00 03 20 d1 01 00 00 55 09 00 00 2d 09 00 00     ... ....U...-...
      10:	2d 09 00 00 2d 09 00 00 2d 09 00 00 2d 09 00 00     -...-...-...-...
      20:	2d 09 00 00 2d 09 00 00 2d 09 00 00 55 09 00 00     -...-...-...U...
      30:	55 09 00 00 2d 09 00 00 55 09 00 00 1d 09 00 00     U...-...U.......
      40:	55 09 00 00 55 09 00 00 55 09 00 00 55 09 00 00     U...U...U...U...
      50:	55 09 00 00 55 09 00 00 55 09 00 00 55 09 00 00     U...U...U...U...
      60:	55 09 00 00 55 09 00 00 55 09 00 00 55 09 00 00     U...U...U...U...
      70:	55 09 00 00 55 09 00 00 55 09 00 00 55 09 00 00     U...U...U...U...
      80:	55 09 00 00 55 09 00 00 55 09 00 00 55 09 00 00     U...U...U...U...
      90:	55 09 00 00 55 09 00 00 55 09 00 00 55 09 00 00     U...U...U...U...
      a0:	55 09 00 00 55 09 00 00 55 09 00 00 55 09 00 00     U...U...U...U...
      b0:	55 09 00 00 55 09 00 00 55 09 00 00 55 1b 00 00     U...U...U...U...
      c0:	55 09 00 00 cd 21 00 00 55 09 00 00 39 26 00 00     U....!..U...9&..
      d0:	55 09 00 00 25 2b 00 00 55 09 00 00 55 09 00 00     U...%+..U...U...
      e0:	55 09 00 00 55 09 00 00 55 09 00 00 55 09 00 00     U...U...U...U...
      f0:	55 09 00 00 55 09 00 00 55 09 00 00 55 09 00 00     U...U...U...U...
     100:	55 09 00 00 55 09 00 00 55 09 00 00 55 09 00 00     U...U...U...U...
     110:	55 09 00 00 8d 37 00 00 55 09 00 00 55 09 00 00     U....7..U...U...
     120:	55 09 00 00 55 09 00 00 55 09 00 00 55 09 00 00     U...U...U...U...
     130:	55 09 00 00 55 09 00 00 55 09 00 00 55 09 00 00     U...U...U...U...
     140:	55 09 00 00 55 09 00 00 5d 2f 00 00 55 09 00 00     U...U...]/..U...
     150:	55 09 00 00 55 09 00 00 55 09 00 00 55 09 00 00     U...U...U...U...
     160:	55 09 00 00 55 09 00 00 55 09 00 00 55 09 00 00     U...U...U...U...
     170:	55 09 00 00 55 09 00 00 55 09 00 00 55 09 00 00     U...U...U...U...
     180:	55 09 00 00 55 09 00 00 55 09 00 00 55 09 00 00     U...U...U...U...
     190:	55 09 00 00 55 09 00 00 69 34 00 00 55 09 00 00     U...U...i4..U...
     1a0:	55 09 00 00 55 09 00 00 55 09 00 00 55 09 00 00     U...U...U...U...
     1b0:	55 09 00 00 55 09 00 00 55 09 00 00 55 09 00 00     U...U...U...U...
     1c0:	55 09 00 00 55 09 00 00 55 09 00 00 55 09 00 00     U...U...U...U...

000001d0 <ResetHandler>:
     1d0:	4b59      	ldr	r3, [pc, #356]	; (338 <ResetHandler+0x168>)
     1d2:	f24c 5220 	movw	r2, #50464	; 0xc520
     1d6:	b510      	push	{r4, lr}
     1d8:	801a      	strh	r2, [r3, #0]
     1da:	f64d 1228 	movw	r2, #55592	; 0xd928
     1de:	801a      	strh	r2, [r3, #0]
     1e0:	bf00      	nop
     1e2:	bf00      	nop
     1e4:	f000 fbb9 	bl	95a <startup_early_hook>
     1e8:	4b54      	ldr	r3, [pc, #336]	; (33c <ResetHandler+0x16c>)
     1ea:	f04f 6230 	mov.w	r2, #184549376	; 0xb000000
     1ee:	601a      	str	r2, [r3, #0]
     1f0:	4a53      	ldr	r2, [pc, #332]	; (340 <ResetHandler+0x170>)
     1f2:	609a      	str	r2, [r3, #8]
     1f4:	4a53      	ldr	r2, [pc, #332]	; (344 <ResetHandler+0x174>)
     1f6:	60da      	str	r2, [r3, #12]
     1f8:	4b53      	ldr	r3, [pc, #332]	; (348 <ResetHandler+0x178>)
     1fa:	f44f 0270 	mov.w	r2, #15728640	; 0xf00000
     1fe:	601a      	str	r2, [r3, #0]
     200:	4b52      	ldr	r3, [pc, #328]	; (34c <ResetHandler+0x17c>)
     202:	4a53      	ldr	r2, [pc, #332]	; (350 <ResetHandler+0x180>)
     204:	601a      	str	r2, [r3, #0]
     206:	4b53      	ldr	r3, [pc, #332]	; (354 <ResetHandler+0x184>)
     208:	681a      	ldr	r2, [r3, #0]
     20a:	f412 7280 	ands.w	r2, r2, #256	; 0x100
     20e:	d104      	bne.n	21a <ResetHandler+0x4a>
     210:	4951      	ldr	r1, [pc, #324]	; (358 <ResetHandler+0x188>)
     212:	600a      	str	r2, [r1, #0]
     214:	f44f 52a8 	mov.w	r2, #5376	; 0x1500
     218:	601a      	str	r2, [r3, #0]
     21a:	4b50      	ldr	r3, [pc, #320]	; (35c <ResetHandler+0x18c>)
     21c:	781a      	ldrb	r2, [r3, #0]
     21e:	0711      	lsls	r1, r2, #28
     220:	d503      	bpl.n	22a <ResetHandler+0x5a>
     222:	781a      	ldrb	r2, [r3, #0]
     224:	f042 0208 	orr.w	r2, r2, #8
     228:	701a      	strb	r2, [r3, #0]
     22a:	4b4d      	ldr	r3, [pc, #308]	; (360 <ResetHandler+0x190>)
     22c:	22aa      	movs	r2, #170	; 0xaa
     22e:	701a      	strb	r2, [r3, #0]
     230:	2300      	movs	r3, #0
     232:	4a4c      	ldr	r2, [pc, #304]	; (364 <ResetHandler+0x194>)
     234:	494c      	ldr	r1, [pc, #304]	; (368 <ResetHandler+0x198>)
     236:	1898      	adds	r0, r3, r2
     238:	4288      	cmp	r0, r1
     23a:	d204      	bcs.n	246 <ResetHandler+0x76>
     23c:	494b      	ldr	r1, [pc, #300]	; (36c <ResetHandler+0x19c>)
     23e:	5859      	ldr	r1, [r3, r1]
     240:	5099      	str	r1, [r3, r2]
     242:	3304      	adds	r3, #4
     244:	e7f5      	b.n	232 <ResetHandler+0x62>
     246:	4a4a      	ldr	r2, [pc, #296]	; (370 <ResetHandler+0x1a0>)
     248:	4b4a      	ldr	r3, [pc, #296]	; (374 <ResetHandler+0x1a4>)
     24a:	429a      	cmp	r2, r3
     24c:	f04f 0300 	mov.w	r3, #0
     250:	d202      	bcs.n	258 <ResetHandler+0x88>
     252:	f842 3b04 	str.w	r3, [r2], #4
     256:	e7f7      	b.n	248 <ResetHandler+0x78>
     258:	4947      	ldr	r1, [pc, #284]	; (378 <ResetHandler+0x1a8>)
     25a:	4a48      	ldr	r2, [pc, #288]	; (37c <ResetHandler+0x1ac>)
     25c:	5859      	ldr	r1, [r3, r1]
     25e:	5099      	str	r1, [r3, r2]
     260:	3304      	adds	r3, #4
     262:	f5b3 7fe8 	cmp.w	r3, #464	; 0x1d0
     266:	d1f7      	bne.n	258 <ResetHandler+0x88>
     268:	4b45      	ldr	r3, [pc, #276]	; (380 <ResetHandler+0x1b0>)
     26a:	2180      	movs	r1, #128	; 0x80
     26c:	f803 1b01 	strb.w	r1, [r3], #1
     270:	4944      	ldr	r1, [pc, #272]	; (384 <ResetHandler+0x1b4>)
     272:	428b      	cmp	r3, r1
     274:	d1f9      	bne.n	26a <ResetHandler+0x9a>
     276:	4b44      	ldr	r3, [pc, #272]	; (388 <ResetHandler+0x1b8>)
     278:	601a      	str	r2, [r3, #0]
     27a:	4b44      	ldr	r3, [pc, #272]	; (38c <ResetHandler+0x1bc>)
     27c:	228a      	movs	r2, #138	; 0x8a
     27e:	701a      	strb	r2, [r3, #0]
     280:	f5a3 5380 	sub.w	r3, r3, #4096	; 0x1000
     284:	2224      	movs	r2, #36	; 0x24
     286:	705a      	strb	r2, [r3, #1]
     288:	22a0      	movs	r2, #160	; 0xa0
     28a:	701a      	strb	r2, [r3, #0]
     28c:	799a      	ldrb	r2, [r3, #6]
     28e:	0792      	lsls	r2, r2, #30
     290:	d5fc      	bpl.n	28c <ResetHandler+0xbc>
     292:	799a      	ldrb	r2, [r3, #6]
     294:	06d4      	lsls	r4, r2, #27
     296:	d4fc      	bmi.n	292 <ResetHandler+0xc2>
     298:	4b3d      	ldr	r3, [pc, #244]	; (390 <ResetHandler+0x1c0>)
     29a:	799a      	ldrb	r2, [r3, #6]
     29c:	f002 020c 	and.w	r2, r2, #12
     2a0:	2a08      	cmp	r2, #8
     2a2:	d1f9      	bne.n	298 <ResetHandler+0xc8>
     2a4:	2201      	movs	r2, #1
     2a6:	711a      	strb	r2, [r3, #4]
     2a8:	224e      	movs	r2, #78	; 0x4e
     2aa:	715a      	strb	r2, [r3, #5]
     2ac:	799a      	ldrb	r2, [r3, #6]
     2ae:	0690      	lsls	r0, r2, #26
     2b0:	d5fc      	bpl.n	2ac <ResetHandler+0xdc>
     2b2:	4b37      	ldr	r3, [pc, #220]	; (390 <ResetHandler+0x1c0>)
     2b4:	799a      	ldrb	r2, [r3, #6]
     2b6:	0651      	lsls	r1, r2, #25
     2b8:	d5fb      	bpl.n	2b2 <ResetHandler+0xe2>
     2ba:	4a36      	ldr	r2, [pc, #216]	; (394 <ResetHandler+0x1c4>)
     2bc:	f04f 7182 	mov.w	r1, #17039360	; 0x1040000
     2c0:	6011      	str	r1, [r2, #0]
     2c2:	2109      	movs	r1, #9
     2c4:	6051      	str	r1, [r2, #4]
     2c6:	2220      	movs	r2, #32
     2c8:	701a      	strb	r2, [r3, #0]
     2ca:	4b31      	ldr	r3, [pc, #196]	; (390 <ResetHandler+0x1c0>)
     2cc:	799b      	ldrb	r3, [r3, #6]
     2ce:	f003 030c 	and.w	r3, r3, #12
     2d2:	2b0c      	cmp	r3, #12
     2d4:	d1f9      	bne.n	2ca <ResetHandler+0xfa>
     2d6:	4b30      	ldr	r3, [pc, #192]	; (398 <ResetHandler+0x1c8>)
     2d8:	4a30      	ldr	r2, [pc, #192]	; (39c <ResetHandler+0x1cc>)
     2da:	601a      	str	r2, [r3, #0]
     2dc:	4b30      	ldr	r3, [pc, #192]	; (3a0 <ResetHandler+0x1d0>)
     2de:	4a31      	ldr	r2, [pc, #196]	; (3a4 <ResetHandler+0x1d4>)
     2e0:	601a      	str	r2, [r3, #0]
     2e2:	2200      	movs	r2, #0
     2e4:	605a      	str	r2, [r3, #4]
     2e6:	2207      	movs	r2, #7
     2e8:	f843 2c04 	str.w	r2, [r3, #-4]
     2ec:	4a2e      	ldr	r2, [pc, #184]	; (3a8 <ResetHandler+0x1d8>)
     2ee:	f8c3 2d0c 	str.w	r2, [r3, #3340]	; 0xd0c
     2f2:	b662      	cpsie	i
     2f4:	f001 f8bb 	bl	146e <_init_Teensyduino_internal_>
     2f8:	4b17      	ldr	r3, [pc, #92]	; (358 <ResetHandler+0x188>)
     2fa:	681b      	ldr	r3, [r3, #0]
     2fc:	07da      	lsls	r2, r3, #31
     2fe:	d505      	bpl.n	30c <ResetHandler+0x13c>
     300:	482a      	ldr	r0, [pc, #168]	; (3ac <ResetHandler+0x1dc>)
     302:	f000 fd05 	bl	d10 <rtc_set>
     306:	4b2a      	ldr	r3, [pc, #168]	; (3b0 <ResetHandler+0x1e0>)
     308:	4a2a      	ldr	r2, [pc, #168]	; (3b4 <ResetHandler+0x1e4>)
     30a:	601a      	str	r2, [r3, #0]
     30c:	4b2a      	ldr	r3, [pc, #168]	; (3b8 <ResetHandler+0x1e8>)
     30e:	781b      	ldrb	r3, [r3, #0]
     310:	065b      	lsls	r3, r3, #25
     312:	d509      	bpl.n	328 <ResetHandler+0x158>
     314:	4c26      	ldr	r4, [pc, #152]	; (3b0 <ResetHandler+0x1e0>)
     316:	4a27      	ldr	r2, [pc, #156]	; (3b4 <ResetHandler+0x1e4>)
     318:	6823      	ldr	r3, [r4, #0]
     31a:	4293      	cmp	r3, r2
     31c:	d104      	bne.n	328 <ResetHandler+0x158>
     31e:	4823      	ldr	r0, [pc, #140]	; (3ac <ResetHandler+0x1dc>)
     320:	f000 fcf6 	bl	d10 <rtc_set>
     324:	2300      	movs	r3, #0
     326:	6023      	str	r3, [r4, #0]
     328:	f006 f9a6 	bl	6678 <__libc_init_array>
     32c:	f000 fb1c 	bl	968 <startup_late_hook>
     330:	f004 fa88 	bl	4844 <main>
     334:	e7fe      	b.n	334 <ResetHandler+0x164>
     336:	bf00      	nop
     338:	4005200e 	.word	0x4005200e
     33c:	40048030 	.word	0x40048030
     340:	00043f82 	.word	0x00043f82
     344:	2b000001 	.word	0x2b000001
     348:	e000ed88 	.word	0xe000ed88
     34c:	e0082000 	.word	0xe0082000
     350:	85000003 	.word	0x85000003
     354:	4003d010 	.word	0x4003d010
     358:	4003d014 	.word	0x4003d014
     35c:	4007d002 	.word	0x4007d002
     360:	4007e000 	.word	0x4007e000
     364:	1fff0760 	.word	0x1fff0760
     368:	1fff0b54 	.word	0x1fff0b54
     36c:	0000a710 	.word	0x0000a710
     370:	1fff0b54 	.word	0x1fff0b54
     374:	1fff10f4 	.word	0x1fff10f4
     378:	00000000 	.word	0x00000000
     37c:	1fff0200 	.word	0x1fff0200
     380:	e000e400 	.word	0xe000e400
     384:	e000e464 	.word	0xe000e464
     388:	e000ed08 	.word	0xe000ed08
     38c:	40065000 	.word	0x40065000
     390:	40064000 	.word	0x40064000
     394:	40048044 	.word	0x40048044
     398:	40048004 	.word	0x40048004
     39c:	000510c0 	.word	0x000510c0
     3a0:	e000e014 	.word	0xe000e014
     3a4:	0001d4bf 	.word	0x0001d4bf
     3a8:	20200000 	.word	0x20200000
     3ac:	00000000 	.word	0x00000000
     3b0:	4003e01c 	.word	0x4003e01c
     3b4:	5a94c3a5 	.word	0x5a94c3a5
     3b8:	4007f000 	.word	0x4007f000
     3bc:	ffffffff 	.word	0xffffffff
     3c0:	ffffffff 	.word	0xffffffff
     3c4:	ffffffff 	.word	0xffffffff
     3c8:	ffffffff 	.word	0xffffffff
     3cc:	ffffffff 	.word	0xffffffff
     3d0:	ffffffff 	.word	0xffffffff
     3d4:	ffffffff 	.word	0xffffffff
     3d8:	ffffffff 	.word	0xffffffff
     3dc:	ffffffff 	.word	0xffffffff
     3e0:	ffffffff 	.word	0xffffffff
     3e4:	ffffffff 	.word	0xffffffff
     3e8:	ffffffff 	.word	0xffffffff
     3ec:	ffffffff 	.word	0xffffffff
     3f0:	ffffffff 	.word	0xffffffff
     3f4:	ffffffff 	.word	0xffffffff
     3f8:	ffffffff 	.word	0xffffffff
     3fc:	ffffffff 	.word	0xffffffff

00000400 <flashconfigbytes>:
     400:	ffffffff ffffffff ffffffff fffff9de     ................

00000410 <__do_global_dtors_aux>:
     410:	b510      	push	{r4, lr}
     412:	4c05      	ldr	r4, [pc, #20]	; (428 <__do_global_dtors_aux+0x18>)
     414:	7823      	ldrb	r3, [r4, #0]
     416:	b933      	cbnz	r3, 426 <__do_global_dtors_aux+0x16>
     418:	4b04      	ldr	r3, [pc, #16]	; (42c <__do_global_dtors_aux+0x1c>)
     41a:	b113      	cbz	r3, 422 <__do_global_dtors_aux+0x12>
     41c:	4804      	ldr	r0, [pc, #16]	; (430 <__do_global_dtors_aux+0x20>)
     41e:	f3af 8000 	nop.w
     422:	2301      	movs	r3, #1
     424:	7023      	strb	r3, [r4, #0]
     426:	bd10      	pop	{r4, pc}
     428:	1fff0b54 	.word	0x1fff0b54
     42c:	00000000 	.word	0x00000000
     430:	0000a710 	.word	0x0000a710

00000434 <frame_dummy>:
     434:	b508      	push	{r3, lr}
     436:	4b06      	ldr	r3, [pc, #24]	; (450 <frame_dummy+0x1c>)
     438:	b11b      	cbz	r3, 442 <frame_dummy+0xe>
     43a:	4806      	ldr	r0, [pc, #24]	; (454 <frame_dummy+0x20>)
     43c:	4906      	ldr	r1, [pc, #24]	; (458 <frame_dummy+0x24>)
     43e:	f3af 8000 	nop.w
     442:	4806      	ldr	r0, [pc, #24]	; (45c <frame_dummy+0x28>)
     444:	6803      	ldr	r3, [r0, #0]
     446:	b113      	cbz	r3, 44e <frame_dummy+0x1a>
     448:	4b05      	ldr	r3, [pc, #20]	; (460 <frame_dummy+0x2c>)
     44a:	b103      	cbz	r3, 44e <frame_dummy+0x1a>
     44c:	4798      	blx	r3
     44e:	bd08      	pop	{r3, pc}
     450:	00000000 	.word	0x00000000
     454:	0000a710 	.word	0x0000a710
     458:	1fff0b58 	.word	0x1fff0b58
     45c:	1fff0b54 	.word	0x1fff0b54
     460:	00000000 	.word	0x00000000

00000464 <wait_for_cal>:
     464:	b5f0      	push	{r4, r5, r6, r7, lr}
     466:	4b30      	ldr	r3, [pc, #192]	; (528 <wait_for_cal+0xc4>)
     468:	681b      	ldr	r3, [r3, #0]
     46a:	061b      	lsls	r3, r3, #24
     46c:	d4fb      	bmi.n	466 <wait_for_cal+0x2>
     46e:	4b2f      	ldr	r3, [pc, #188]	; (52c <wait_for_cal+0xc8>)
     470:	681b      	ldr	r3, [r3, #0]
     472:	f013 0280 	ands.w	r2, r3, #128	; 0x80
     476:	d1f6      	bne.n	466 <wait_for_cal+0x2>
     478:	b672      	cpsid	i
     47a:	4b2d      	ldr	r3, [pc, #180]	; (530 <wait_for_cal+0xcc>)
     47c:	7819      	ldrb	r1, [r3, #0]
     47e:	2900      	cmp	r1, #0
     480:	d050      	beq.n	524 <wait_for_cal+0xc0>
     482:	492c      	ldr	r1, [pc, #176]	; (534 <wait_for_cal+0xd0>)
     484:	6808      	ldr	r0, [r1, #0]
     486:	684f      	ldr	r7, [r1, #4]
     488:	688e      	ldr	r6, [r1, #8]
     48a:	68cd      	ldr	r5, [r1, #12]
     48c:	690c      	ldr	r4, [r1, #16]
     48e:	4438      	add	r0, r7
     490:	3114      	adds	r1, #20
     492:	4430      	add	r0, r6
     494:	6809      	ldr	r1, [r1, #0]
     496:	4428      	add	r0, r5
     498:	4420      	add	r0, r4
     49a:	4408      	add	r0, r1
     49c:	f3c0 004e 	ubfx	r0, r0, #1, #15
     4a0:	4925      	ldr	r1, [pc, #148]	; (538 <wait_for_cal+0xd4>)
     4a2:	f440 4000 	orr.w	r0, r0, #32768	; 0x8000
     4a6:	6008      	str	r0, [r1, #0]
     4a8:	6ac8      	ldr	r0, [r1, #44]	; 0x2c
     4aa:	6b0f      	ldr	r7, [r1, #48]	; 0x30
     4ac:	6b4e      	ldr	r6, [r1, #52]	; 0x34
     4ae:	6b8d      	ldr	r5, [r1, #56]	; 0x38
     4b0:	6bcc      	ldr	r4, [r1, #60]	; 0x3c
     4b2:	4438      	add	r0, r7
     4b4:	3140      	adds	r1, #64	; 0x40
     4b6:	4430      	add	r0, r6
     4b8:	6809      	ldr	r1, [r1, #0]
     4ba:	4428      	add	r0, r5
     4bc:	4420      	add	r0, r4
     4be:	4408      	add	r0, r1
     4c0:	f3c0 004e 	ubfx	r0, r0, #1, #15
     4c4:	491d      	ldr	r1, [pc, #116]	; (53c <wait_for_cal+0xd8>)
     4c6:	f440 4000 	orr.w	r0, r0, #32768	; 0x8000
     4ca:	6008      	str	r0, [r1, #0]
     4cc:	f101 1108 	add.w	r1, r1, #524296	; 0x80008
     4d0:	3114      	adds	r1, #20
     4d2:	f851 0c14 	ldr.w	r0, [r1, #-20]
     4d6:	f851 7c10 	ldr.w	r7, [r1, #-16]
     4da:	f851 6c0c 	ldr.w	r6, [r1, #-12]
     4de:	f851 5c08 	ldr.w	r5, [r1, #-8]
     4e2:	f851 4c04 	ldr.w	r4, [r1, #-4]
     4e6:	6809      	ldr	r1, [r1, #0]
     4e8:	4438      	add	r0, r7
     4ea:	4430      	add	r0, r6
     4ec:	4428      	add	r0, r5
     4ee:	4420      	add	r0, r4
     4f0:	4408      	add	r0, r1
     4f2:	f3c0 004e 	ubfx	r0, r0, #1, #15
     4f6:	4912      	ldr	r1, [pc, #72]	; (540 <wait_for_cal+0xdc>)
     4f8:	f440 4000 	orr.w	r0, r0, #32768	; 0x8000
     4fc:	6008      	str	r0, [r1, #0]
     4fe:	6ac8      	ldr	r0, [r1, #44]	; 0x2c
     500:	6b0f      	ldr	r7, [r1, #48]	; 0x30
     502:	6b4e      	ldr	r6, [r1, #52]	; 0x34
     504:	6b8d      	ldr	r5, [r1, #56]	; 0x38
     506:	6bcc      	ldr	r4, [r1, #60]	; 0x3c
     508:	4438      	add	r0, r7
     50a:	3140      	adds	r1, #64	; 0x40
     50c:	4430      	add	r0, r6
     50e:	6809      	ldr	r1, [r1, #0]
     510:	4428      	add	r0, r5
     512:	4420      	add	r0, r4
     514:	4408      	add	r0, r1
     516:	f3c0 004e 	ubfx	r0, r0, #1, #15
     51a:	490a      	ldr	r1, [pc, #40]	; (544 <wait_for_cal+0xe0>)
     51c:	f440 4000 	orr.w	r0, r0, #32768	; 0x8000
     520:	6008      	str	r0, [r1, #0]
     522:	701a      	strb	r2, [r3, #0]
     524:	b662      	cpsie	i
     526:	bdf0      	pop	{r4, r5, r6, r7, pc}
     528:	4003b024 	.word	0x4003b024
     52c:	400bb024 	.word	0x400bb024
     530:	1fff0b70 	.word	0x1fff0b70
     534:	4003b038 	.word	0x4003b038
     538:	4003b02c 	.word	0x4003b02c
     53c:	4003b030 	.word	0x4003b030
     540:	400bb02c 	.word	0x400bb02c
     544:	400bb030 	.word	0x400bb030

00000548 <analog_init>:
     548:	b530      	push	{r4, r5, lr}
     54a:	4b21      	ldr	r3, [pc, #132]	; (5d0 <analog_init+0x88>)
     54c:	4d21      	ldr	r5, [pc, #132]	; (5d4 <analog_init+0x8c>)
     54e:	4822      	ldr	r0, [pc, #136]	; (5d8 <analog_init+0x90>)
     550:	4922      	ldr	r1, [pc, #136]	; (5dc <analog_init+0x94>)
     552:	2260      	movs	r2, #96	; 0x60
     554:	701a      	strb	r2, [r3, #0]
     556:	22e1      	movs	r2, #225	; 0xe1
     558:	705a      	strb	r2, [r3, #1]
     55a:	782c      	ldrb	r4, [r5, #0]
     55c:	4a20      	ldr	r2, [pc, #128]	; (5e0 <analog_init+0x98>)
     55e:	f503 238e 	add.w	r3, r3, #290816	; 0x47000
     562:	2c08      	cmp	r4, #8
     564:	f103 030c 	add.w	r3, r3, #12
     568:	d101      	bne.n	56e <analog_init+0x26>
     56a:	2421      	movs	r4, #33	; 0x21
     56c:	e002      	b.n	574 <analog_init+0x2c>
     56e:	2c0a      	cmp	r4, #10
     570:	d103      	bne.n	57a <analog_init+0x32>
     572:	2439      	movs	r4, #57	; 0x39
     574:	6004      	str	r4, [r0, #0]
     576:	2013      	movs	r0, #19
     578:	e005      	b.n	586 <analog_init+0x3e>
     57a:	2c0c      	cmp	r4, #12
     57c:	bf0c      	ite	eq
     57e:	2435      	moveq	r4, #53	; 0x35
     580:	245d      	movne	r4, #93	; 0x5d
     582:	6004      	str	r4, [r0, #0]
     584:	2012      	movs	r0, #18
     586:	6008      	str	r0, [r1, #0]
     588:	6014      	str	r4, [r2, #0]
     58a:	4a16      	ldr	r2, [pc, #88]	; (5e4 <analog_init+0x9c>)
     58c:	6018      	str	r0, [r3, #0]
     58e:	7853      	ldrb	r3, [r2, #1]
     590:	4915      	ldr	r1, [pc, #84]	; (5e8 <analog_init+0xa0>)
     592:	4610      	mov	r0, r2
     594:	4a15      	ldr	r2, [pc, #84]	; (5ec <analog_init+0xa4>)
     596:	b103      	cbz	r3, 59a <analog_init+0x52>
     598:	2301      	movs	r3, #1
     59a:	600b      	str	r3, [r1, #0]
     59c:	6013      	str	r3, [r2, #0]
     59e:	7869      	ldrb	r1, [r5, #1]
     5a0:	4a13      	ldr	r2, [pc, #76]	; (5f0 <analog_init+0xa8>)
     5a2:	4b14      	ldr	r3, [pc, #80]	; (5f4 <analog_init+0xac>)
     5a4:	2901      	cmp	r1, #1
     5a6:	d801      	bhi.n	5ac <analog_init+0x64>
     5a8:	2180      	movs	r1, #128	; 0x80
     5aa:	e00b      	b.n	5c4 <analog_init+0x7c>
     5ac:	2904      	cmp	r1, #4
     5ae:	d801      	bhi.n	5b4 <analog_init+0x6c>
     5b0:	2184      	movs	r1, #132	; 0x84
     5b2:	e007      	b.n	5c4 <analog_init+0x7c>
     5b4:	2908      	cmp	r1, #8
     5b6:	d801      	bhi.n	5bc <analog_init+0x74>
     5b8:	2185      	movs	r1, #133	; 0x85
     5ba:	e003      	b.n	5c4 <analog_init+0x7c>
     5bc:	2910      	cmp	r1, #16
     5be:	bf94      	ite	ls
     5c0:	2186      	movls	r1, #134	; 0x86
     5c2:	2187      	movhi	r1, #135	; 0x87
     5c4:	6011      	str	r1, [r2, #0]
     5c6:	6019      	str	r1, [r3, #0]
     5c8:	2301      	movs	r3, #1
     5ca:	7003      	strb	r3, [r0, #0]
     5cc:	bd30      	pop	{r4, r5, pc}
     5ce:	bf00      	nop
     5d0:	40074000 	.word	0x40074000
     5d4:	1fff0848 	.word	0x1fff0848
     5d8:	4003b008 	.word	0x4003b008
     5dc:	4003b00c 	.word	0x4003b00c
     5e0:	400bb008 	.word	0x400bb008
     5e4:	1fff0b70 	.word	0x1fff0b70
     5e8:	4003b020 	.word	0x4003b020
     5ec:	400bb020 	.word	0x400bb020
     5f0:	4003b024 	.word	0x4003b024
     5f4:	400bb024 	.word	0x400bb024

000005f8 <analogReference>:
     5f8:	4b0d      	ldr	r3, [pc, #52]	; (630 <analogReference+0x38>)
     5fa:	785a      	ldrb	r2, [r3, #1]
     5fc:	b158      	cbz	r0, 616 <analogReference+0x1e>
     5fe:	b9aa      	cbnz	r2, 62c <analogReference+0x34>
     600:	2101      	movs	r1, #1
     602:	7059      	strb	r1, [r3, #1]
     604:	781b      	ldrb	r3, [r3, #0]
     606:	b123      	cbz	r3, 612 <analogReference+0x1a>
     608:	4b0a      	ldr	r3, [pc, #40]	; (634 <analogReference+0x3c>)
     60a:	601a      	str	r2, [r3, #0]
     60c:	f503 2300 	add.w	r3, r3, #524288	; 0x80000
     610:	601a      	str	r2, [r3, #0]
     612:	f7ff bf99 	b.w	548 <analog_init>
     616:	b14a      	cbz	r2, 62c <analogReference+0x34>
     618:	7058      	strb	r0, [r3, #1]
     61a:	781b      	ldrb	r3, [r3, #0]
     61c:	2b00      	cmp	r3, #0
     61e:	d0f8      	beq.n	612 <analogReference+0x1a>
     620:	4b04      	ldr	r3, [pc, #16]	; (634 <analogReference+0x3c>)
     622:	6018      	str	r0, [r3, #0]
     624:	f503 2300 	add.w	r3, r3, #524288	; 0x80000
     628:	6018      	str	r0, [r3, #0]
     62a:	e7f2      	b.n	612 <analogReference+0x1a>
     62c:	4770      	bx	lr
     62e:	bf00      	nop
     630:	1fff0b70 	.word	0x1fff0b70
     634:	4003b024 	.word	0x4003b024

00000638 <analogReadRes>:
     638:	280c      	cmp	r0, #12
     63a:	b510      	push	{r4, lr}
     63c:	d904      	bls.n	648 <analogReadRes+0x10>
     63e:	2810      	cmp	r0, #16
     640:	bf28      	it	cs
     642:	2010      	movcs	r0, #16
     644:	2310      	movs	r3, #16
     646:	e007      	b.n	658 <analogReadRes+0x20>
     648:	280a      	cmp	r0, #10
     64a:	d804      	bhi.n	656 <analogReadRes+0x1e>
     64c:	2809      	cmp	r0, #9
     64e:	bf34      	ite	cc
     650:	2308      	movcc	r3, #8
     652:	230a      	movcs	r3, #10
     654:	e000      	b.n	658 <analogReadRes+0x20>
     656:	230c      	movs	r3, #12
     658:	b2dc      	uxtb	r4, r3
     65a:	4a0a      	ldr	r2, [pc, #40]	; (684 <analogReadRes+0x4c>)
     65c:	490a      	ldr	r1, [pc, #40]	; (688 <analogReadRes+0x50>)
     65e:	1a20      	subs	r0, r4, r0
     660:	7090      	strb	r0, [r2, #2]
     662:	7808      	ldrb	r0, [r1, #0]
     664:	4283      	cmp	r3, r0
     666:	d00c      	beq.n	682 <analogReadRes+0x4a>
     668:	7813      	ldrb	r3, [r2, #0]
     66a:	700c      	strb	r4, [r1, #0]
     66c:	b12b      	cbz	r3, 67a <analogReadRes+0x42>
     66e:	4a07      	ldr	r2, [pc, #28]	; (68c <analogReadRes+0x54>)
     670:	2300      	movs	r3, #0
     672:	6013      	str	r3, [r2, #0]
     674:	f502 2200 	add.w	r2, r2, #524288	; 0x80000
     678:	6013      	str	r3, [r2, #0]
     67a:	e8bd 4010 	ldmia.w	sp!, {r4, lr}
     67e:	f7ff bf63 	b.w	548 <analog_init>
     682:	bd10      	pop	{r4, pc}
     684:	1fff0b70 	.word	0x1fff0b70
     688:	1fff0848 	.word	0x1fff0848
     68c:	4003b024 	.word	0x4003b024

00000690 <analogReadAveraging>:
     690:	b510      	push	{r4, lr}
     692:	4b11      	ldr	r3, [pc, #68]	; (6d8 <analogReadAveraging+0x48>)
     694:	781b      	ldrb	r3, [r3, #0]
     696:	4604      	mov	r4, r0
     698:	b10b      	cbz	r3, 69e <analogReadAveraging+0xe>
     69a:	f7ff fee3 	bl	464 <wait_for_cal>
     69e:	2c01      	cmp	r4, #1
     6a0:	4a0e      	ldr	r2, [pc, #56]	; (6dc <analogReadAveraging+0x4c>)
     6a2:	d801      	bhi.n	6a8 <analogReadAveraging+0x18>
     6a4:	2300      	movs	r3, #0
     6a6:	e002      	b.n	6ae <analogReadAveraging+0x1e>
     6a8:	2c04      	cmp	r4, #4
     6aa:	d802      	bhi.n	6b2 <analogReadAveraging+0x22>
     6ac:	2304      	movs	r3, #4
     6ae:	6013      	str	r3, [r2, #0]
     6b0:	e00e      	b.n	6d0 <analogReadAveraging+0x40>
     6b2:	2c08      	cmp	r4, #8
     6b4:	d803      	bhi.n	6be <analogReadAveraging+0x2e>
     6b6:	2305      	movs	r3, #5
     6b8:	6013      	str	r3, [r2, #0]
     6ba:	2308      	movs	r3, #8
     6bc:	e008      	b.n	6d0 <analogReadAveraging+0x40>
     6be:	2c10      	cmp	r4, #16
     6c0:	d803      	bhi.n	6ca <analogReadAveraging+0x3a>
     6c2:	2306      	movs	r3, #6
     6c4:	6013      	str	r3, [r2, #0]
     6c6:	2310      	movs	r3, #16
     6c8:	e002      	b.n	6d0 <analogReadAveraging+0x40>
     6ca:	2307      	movs	r3, #7
     6cc:	6013      	str	r3, [r2, #0]
     6ce:	2320      	movs	r3, #32
     6d0:	4a03      	ldr	r2, [pc, #12]	; (6e0 <analogReadAveraging+0x50>)
     6d2:	7053      	strb	r3, [r2, #1]
     6d4:	bd10      	pop	{r4, pc}
     6d6:	bf00      	nop
     6d8:	1fff0b70 	.word	0x1fff0b70
     6dc:	4003b024 	.word	0x4003b024
     6e0:	1fff0848 	.word	0x1fff0848

000006e4 <analogRead>:
     6e4:	2847      	cmp	r0, #71	; 0x47
     6e6:	b538      	push	{r3, r4, r5, lr}
     6e8:	d847      	bhi.n	77a <analogRead+0x96>
     6ea:	4b25      	ldr	r3, [pc, #148]	; (780 <analogRead+0x9c>)
     6ec:	5c1d      	ldrb	r5, [r3, r0]
     6ee:	2dff      	cmp	r5, #255	; 0xff
     6f0:	d043      	beq.n	77a <analogRead+0x96>
     6f2:	4c24      	ldr	r4, [pc, #144]	; (784 <analogRead+0xa0>)
     6f4:	7823      	ldrb	r3, [r4, #0]
     6f6:	b10b      	cbz	r3, 6fc <analogRead+0x18>
     6f8:	f7ff feb4 	bl	464 <wait_for_cal>
     6fc:	0629      	lsls	r1, r5, #24
     6fe:	d416      	bmi.n	72e <analogRead+0x4a>
     700:	b672      	cpsid	i
     702:	4b21      	ldr	r3, [pc, #132]	; (788 <analogRead+0xa4>)
     704:	601d      	str	r5, [r3, #0]
     706:	2301      	movs	r3, #1
     708:	70e3      	strb	r3, [r4, #3]
     70a:	b662      	cpsie	i
     70c:	b672      	cpsid	i
     70e:	4b1e      	ldr	r3, [pc, #120]	; (788 <analogRead+0xa4>)
     710:	681b      	ldr	r3, [r3, #0]
     712:	061a      	lsls	r2, r3, #24
     714:	d504      	bpl.n	720 <analogRead+0x3c>
     716:	4b1d      	ldr	r3, [pc, #116]	; (78c <analogRead+0xa8>)
     718:	6818      	ldr	r0, [r3, #0]
     71a:	2300      	movs	r3, #0
     71c:	70e3      	strb	r3, [r4, #3]
     71e:	e021      	b.n	764 <analogRead+0x80>
     720:	78e3      	ldrb	r3, [r4, #3]
     722:	2b00      	cmp	r3, #0
     724:	d0ed      	beq.n	702 <analogRead+0x1e>
     726:	b662      	cpsie	i
     728:	f004 ff42 	bl	55b0 <yield>
     72c:	e7ee      	b.n	70c <analogRead+0x28>
     72e:	b672      	cpsid	i
     730:	4b17      	ldr	r3, [pc, #92]	; (790 <analogRead+0xac>)
     732:	681a      	ldr	r2, [r3, #0]
     734:	f015 0f40 	tst.w	r5, #64	; 0x40
     738:	bf14      	ite	ne
     73a:	f022 0210 	bicne.w	r2, r2, #16
     73e:	f042 0210 	orreq.w	r2, r2, #16
     742:	601a      	str	r2, [r3, #0]
     744:	4b13      	ldr	r3, [pc, #76]	; (794 <analogRead+0xb0>)
     746:	f005 023f 	and.w	r2, r5, #63	; 0x3f
     74a:	601a      	str	r2, [r3, #0]
     74c:	2301      	movs	r3, #1
     74e:	7123      	strb	r3, [r4, #4]
     750:	b662      	cpsie	i
     752:	b672      	cpsid	i
     754:	4b0f      	ldr	r3, [pc, #60]	; (794 <analogRead+0xb0>)
     756:	681b      	ldr	r3, [r3, #0]
     758:	061b      	lsls	r3, r3, #24
     75a:	d507      	bpl.n	76c <analogRead+0x88>
     75c:	4b0e      	ldr	r3, [pc, #56]	; (798 <analogRead+0xb4>)
     75e:	6818      	ldr	r0, [r3, #0]
     760:	2300      	movs	r3, #0
     762:	7123      	strb	r3, [r4, #4]
     764:	b662      	cpsie	i
     766:	78a3      	ldrb	r3, [r4, #2]
     768:	4118      	asrs	r0, r3
     76a:	bd38      	pop	{r3, r4, r5, pc}
     76c:	7923      	ldrb	r3, [r4, #4]
     76e:	2b00      	cmp	r3, #0
     770:	d0de      	beq.n	730 <analogRead+0x4c>
     772:	b662      	cpsie	i
     774:	f004 ff1c 	bl	55b0 <yield>
     778:	e7eb      	b.n	752 <analogRead+0x6e>
     77a:	2000      	movs	r0, #0
     77c:	bd38      	pop	{r3, r4, r5, pc}
     77e:	bf00      	nop
     780:	00009e76 	.word	0x00009e76
     784:	1fff0b70 	.word	0x1fff0b70
     788:	4003b000 	.word	0x4003b000
     78c:	4003b010 	.word	0x4003b010
     790:	400bb00c 	.word	0x400bb00c
     794:	400bb000 	.word	0x400bb000
     798:	400bb010 	.word	0x400bb010

0000079c <analogWriteDAC0>:
     79c:	4b08      	ldr	r3, [pc, #32]	; (7c0 <analogWriteDAC0+0x24>)
     79e:	681a      	ldr	r2, [r3, #0]
     7a0:	f442 5280 	orr.w	r2, r2, #4096	; 0x1000
     7a4:	601a      	str	r2, [r3, #0]
     7a6:	4b07      	ldr	r3, [pc, #28]	; (7c4 <analogWriteDAC0+0x28>)
     7a8:	785a      	ldrb	r2, [r3, #1]
     7aa:	4b07      	ldr	r3, [pc, #28]	; (7c8 <analogWriteDAC0+0x2c>)
     7ac:	b10a      	cbz	r2, 7b2 <analogWriteDAC0+0x16>
     7ae:	2280      	movs	r2, #128	; 0x80
     7b0:	e000      	b.n	7b4 <analogWriteDAC0+0x18>
     7b2:	22c0      	movs	r2, #192	; 0xc0
     7b4:	701a      	strb	r2, [r3, #0]
     7b6:	4b05      	ldr	r3, [pc, #20]	; (7cc <analogWriteDAC0+0x30>)
     7b8:	f380 000c 	usat	r0, #12, r0
     7bc:	8018      	strh	r0, [r3, #0]
     7be:	4770      	bx	lr
     7c0:	4004802c 	.word	0x4004802c
     7c4:	1fff0b70 	.word	0x1fff0b70
     7c8:	400cc021 	.word	0x400cc021
     7cc:	400cc000 	.word	0x400cc000

000007d0 <analogWriteDAC1>:
     7d0:	4b08      	ldr	r3, [pc, #32]	; (7f4 <analogWriteDAC1+0x24>)
     7d2:	681a      	ldr	r2, [r3, #0]
     7d4:	f442 5200 	orr.w	r2, r2, #8192	; 0x2000
     7d8:	601a      	str	r2, [r3, #0]
     7da:	4b07      	ldr	r3, [pc, #28]	; (7f8 <analogWriteDAC1+0x28>)
     7dc:	785a      	ldrb	r2, [r3, #1]
     7de:	4b07      	ldr	r3, [pc, #28]	; (7fc <analogWriteDAC1+0x2c>)
     7e0:	b10a      	cbz	r2, 7e6 <analogWriteDAC1+0x16>
     7e2:	2280      	movs	r2, #128	; 0x80
     7e4:	e000      	b.n	7e8 <analogWriteDAC1+0x18>
     7e6:	22c0      	movs	r2, #192	; 0xc0
     7e8:	701a      	strb	r2, [r3, #0]
     7ea:	4b05      	ldr	r3, [pc, #20]	; (800 <analogWriteDAC1+0x30>)
     7ec:	f380 000c 	usat	r0, #12, r0
     7f0:	8018      	strh	r0, [r3, #0]
     7f2:	4770      	bx	lr
     7f4:	4004802c 	.word	0x4004802c
     7f8:	1fff0b70 	.word	0x1fff0b70
     7fc:	400cd021 	.word	0x400cd021
     800:	400cd000 	.word	0x400cd000

00000804 <PrintWord>:
     804:	b507      	push	{r0, r1, r2, lr}
     806:	2307      	movs	r3, #7
     808:	009a      	lsls	r2, r3, #2
     80a:	f1c2 021c 	rsb	r2, r2, #28
     80e:	fa20 f202 	lsr.w	r2, r0, r2
     812:	f002 020f 	and.w	r2, r2, #15
     816:	2a09      	cmp	r2, #9
     818:	bf94      	ite	ls
     81a:	3230      	addls	r2, #48	; 0x30
     81c:	3257      	addhi	r2, #87	; 0x57
     81e:	f80d 2003 	strb.w	r2, [sp, r3]
     822:	f113 33ff 	adds.w	r3, r3, #4294967295
     826:	d2ef      	bcs.n	808 <PrintWord+0x4>
     828:	4668      	mov	r0, sp
     82a:	2108      	movs	r1, #8
     82c:	f003 fc06 	bl	403c <usb_serial_write>
     830:	b003      	add	sp, #12
     832:	f85d fb04 	ldr.w	pc, [sp], #4

00000836 <ConvertToHexChars>:
     836:	b530      	push	{r4, r5, lr}
     838:	0904      	lsrs	r4, r0, #4
     83a:	2c09      	cmp	r4, #9
     83c:	f000 000f 	and.w	r0, r0, #15
     840:	eb01 0502 	add.w	r5, r1, r2
     844:	bf94      	ite	ls
     846:	3430      	addls	r4, #48	; 0x30
     848:	3457      	addhi	r4, #87	; 0x57
     84a:	3201      	adds	r2, #1
     84c:	2809      	cmp	r0, #9
     84e:	bf94      	ite	ls
     850:	3030      	addls	r0, #48	; 0x30
     852:	3057      	addhi	r0, #87	; 0x57
     854:	2320      	movs	r3, #32
     856:	702c      	strb	r4, [r5, #0]
     858:	5488      	strb	r0, [r1, r2]
     85a:	70ab      	strb	r3, [r5, #2]
     85c:	bd30      	pop	{r4, r5, pc}

0000085e <ScanForFlashCode>:
     85e:	b5f0      	push	{r4, r5, r6, r7, lr}
     860:	4e12      	ldr	r6, [pc, #72]	; (8ac <ScanForFlashCode+0x4e>)
     862:	f5ad 7d41 	sub.w	sp, sp, #772	; 0x304
     866:	4637      	mov	r7, r6
     868:	2400      	movs	r4, #0
     86a:	2500      	movs	r5, #0
     86c:	4622      	mov	r2, r4
     86e:	462b      	mov	r3, r5
     870:	f817 0b01 	ldrb.w	r0, [r7], #1
     874:	4669      	mov	r1, sp
     876:	f7ff ffde 	bl	836 <ConvertToHexChars>
     87a:	3403      	adds	r4, #3
     87c:	f145 0500 	adc.w	r5, r5, #0
     880:	2d00      	cmp	r5, #0
     882:	bf08      	it	eq
     884:	f5b4 7f40 	cmpeq.w	r4, #768	; 0x300
     888:	d1f0      	bne.n	86c <ScanForFlashCode+0xe>
     88a:	200a      	movs	r0, #10
     88c:	f003 fc32 	bl	40f4 <usb_serial_putchar>
     890:	4668      	mov	r0, sp
     892:	f44f 7140 	mov.w	r1, #768	; 0x300
     896:	f003 fbd1 	bl	403c <usb_serial_write>
     89a:	4b05      	ldr	r3, [pc, #20]	; (8b0 <ScanForFlashCode+0x52>)
     89c:	f506 7680 	add.w	r6, r6, #256	; 0x100
     8a0:	429e      	cmp	r6, r3
     8a2:	d1e0      	bne.n	866 <ScanForFlashCode+0x8>
     8a4:	f50d 7d41 	add.w	sp, sp, #772	; 0x304
     8a8:	bdf0      	pop	{r4, r5, r6, r7, pc}
     8aa:	bf00      	nop
     8ac:	2002ff00 	.word	0x2002ff00
     8b0:	2003ff00 	.word	0x2003ff00

000008b4 <StackAccess>:
     8b4:	2300      	movs	r3, #0
     8b6:	4907      	ldr	r1, [pc, #28]	; (8d4 <StackAccess+0x20>)
     8b8:	6802      	ldr	r2, [r0, #0]
     8ba:	f841 2023 	str.w	r2, [r1, r3, lsl #2]
     8be:	f850 2b04 	ldr.w	r2, [r0], #4
     8c2:	3201      	adds	r2, #1
     8c4:	d002      	beq.n	8cc <StackAccess+0x18>
     8c6:	3301      	adds	r3, #1
     8c8:	2b40      	cmp	r3, #64	; 0x40
     8ca:	d1f4      	bne.n	8b6 <StackAccess+0x2>
     8cc:	4a02      	ldr	r2, [pc, #8]	; (8d8 <StackAccess+0x24>)
     8ce:	3301      	adds	r3, #1
     8d0:	6013      	str	r3, [r2, #0]
     8d2:	4770      	bx	lr
     8d4:	1fff0fdc 	.word	0x1fff0fdc
     8d8:	1fff0b78 	.word	0x1fff0b78

000008dc <SendData>:
     8dc:	b510      	push	{r4, lr}
     8de:	f003 fb07 	bl	3ef0 <usb_serial_getchar>
     8e2:	2824      	cmp	r0, #36	; 0x24
     8e4:	d115      	bne.n	912 <SendData+0x36>
     8e6:	2400      	movs	r4, #0
     8e8:	4b0a      	ldr	r3, [pc, #40]	; (914 <SendData+0x38>)
     8ea:	681b      	ldr	r3, [r3, #0]
     8ec:	429c      	cmp	r4, r3
     8ee:	d209      	bcs.n	904 <SendData+0x28>
     8f0:	4b09      	ldr	r3, [pc, #36]	; (918 <SendData+0x3c>)
     8f2:	f853 0024 	ldr.w	r0, [r3, r4, lsl #2]
     8f6:	f7ff ff85 	bl	804 <PrintWord>
     8fa:	2020      	movs	r0, #32
     8fc:	f003 fbfa 	bl	40f4 <usb_serial_putchar>
     900:	3401      	adds	r4, #1
     902:	e7f1      	b.n	8e8 <SendData+0xc>
     904:	200a      	movs	r0, #10
     906:	f003 fbf5 	bl	40f4 <usb_serial_putchar>
     90a:	e8bd 4010 	ldmia.w	sp!, {r4, lr}
     90e:	f003 bb7d 	b.w	400c <usb_serial_flush_input>
     912:	bd10      	pop	{r4, pc}
     914:	1fff0b78 	.word	0x1fff0b78
     918:	1fff0fdc 	.word	0x1fff0fdc

0000091c <systick_default_isr>:
     91c:	4b02      	ldr	r3, [pc, #8]	; (928 <systick_default_isr+0xc>)
     91e:	681a      	ldr	r2, [r3, #0]
     920:	3201      	adds	r2, #1
     922:	601a      	str	r2, [r3, #0]
     924:	4770      	bx	lr
     926:	bf00      	nop
     928:	1fff0b7c 	.word	0x1fff0b7c

0000092c <fault_isr>:
     92c:	b508      	push	{r3, lr}
     92e:	4c08      	ldr	r4, [pc, #32]	; (950 <fault_isr+0x24>)
     930:	6823      	ldr	r3, [r4, #0]
     932:	0559      	lsls	r1, r3, #21
     934:	d501      	bpl.n	93a <fault_isr+0xe>
     936:	f001 f90d 	bl	1b54 <uart0_status_isr>
     93a:	6823      	ldr	r3, [r4, #0]
     93c:	051a      	lsls	r2, r3, #20
     93e:	d501      	bpl.n	944 <fault_isr+0x18>
     940:	f001 fc44 	bl	21cc <uart1_status_isr>
     944:	6823      	ldr	r3, [r4, #0]
     946:	04db      	lsls	r3, r3, #19
     948:	d5f1      	bpl.n	92e <fault_isr+0x2>
     94a:	f001 fe75 	bl	2638 <uart2_status_isr>
     94e:	e7ee      	b.n	92e <fault_isr+0x2>
     950:	40048034 	.word	0x40048034

00000954 <unused_isr>:
     954:	b508      	push	{r3, lr}
     956:	f7ff ffe9 	bl	92c <fault_isr>

0000095a <startup_early_hook>:
     95a:	4b02      	ldr	r3, [pc, #8]	; (964 <startup_early_hook+0xa>)
     95c:	2210      	movs	r2, #16
     95e:	801a      	strh	r2, [r3, #0]
     960:	4770      	bx	lr
     962:	bf00      	nop
     964:	40052000 	.word	0x40052000

00000968 <startup_late_hook>:
     968:	4770      	bx	lr

0000096a <_sbrk>:
     96a:	4a03      	ldr	r2, [pc, #12]	; (978 <_sbrk+0xe>)
     96c:	6813      	ldr	r3, [r2, #0]
     96e:	4418      	add	r0, r3
     970:	6010      	str	r0, [r2, #0]
     972:	4618      	mov	r0, r3
     974:	4770      	bx	lr
     976:	bf00      	nop
     978:	1fff084c 	.word	0x1fff084c

0000097c <_read>:
     97c:	2000      	movs	r0, #0
     97e:	4770      	bx	lr

00000980 <_close>:
     980:	f04f 30ff 	mov.w	r0, #4294967295
     984:	4770      	bx	lr

00000986 <_fstat>:
     986:	f44f 5300 	mov.w	r3, #8192	; 0x2000
     98a:	604b      	str	r3, [r1, #4]
     98c:	2000      	movs	r0, #0
     98e:	4770      	bx	lr

00000990 <_isatty>:
     990:	2001      	movs	r0, #1
     992:	4770      	bx	lr

00000994 <_lseek>:
     994:	f04f 30ff 	mov.w	r0, #4294967295
     998:	4770      	bx	lr

0000099a <_exit>:
     99a:	e7fe      	b.n	99a <_exit>

0000099c <__cxa_pure_virtual>:
     99c:	e7fe      	b.n	99c <__cxa_pure_virtual>

0000099e <__cxa_guard_acquire>:
     99e:	7800      	ldrb	r0, [r0, #0]
     9a0:	f1d0 0001 	rsbs	r0, r0, #1
     9a4:	bf38      	it	cc
     9a6:	2000      	movcc	r0, #0
     9a8:	4770      	bx	lr

000009aa <__cxa_guard_release>:
     9aa:	2301      	movs	r3, #1
     9ac:	7003      	strb	r3, [r0, #0]
     9ae:	4770      	bx	lr

000009b0 <nvic_execution_priority>:
     9b0:	f3ef 8313 	mrs	r3, FAULTMASK
     9b4:	b99b      	cbnz	r3, 9de <nvic_execution_priority+0x2e>
     9b6:	f3ef 8010 	mrs	r0, PRIMASK
     9ba:	b998      	cbnz	r0, 9e4 <nvic_execution_priority+0x34>
     9bc:	f3ef 8305 	mrs	r3, IPSR
     9c0:	b123      	cbz	r3, 9cc <nvic_execution_priority+0x1c>
     9c2:	2b0f      	cmp	r3, #15
     9c4:	d904      	bls.n	9d0 <nvic_execution_priority+0x20>
     9c6:	4a08      	ldr	r2, [pc, #32]	; (9e8 <nvic_execution_priority+0x38>)
     9c8:	5c98      	ldrb	r0, [r3, r2]
     9ca:	e001      	b.n	9d0 <nvic_execution_priority+0x20>
     9cc:	f44f 7080 	mov.w	r0, #256	; 0x100
     9d0:	f3ef 8311 	mrs	r3, BASEPRI
     9d4:	b13b      	cbz	r3, 9e6 <nvic_execution_priority+0x36>
     9d6:	4283      	cmp	r3, r0
     9d8:	bf38      	it	cc
     9da:	4618      	movcc	r0, r3
     9dc:	4770      	bx	lr
     9de:	f04f 30ff 	mov.w	r0, #4294967295
     9e2:	4770      	bx	lr
     9e4:	4618      	mov	r0, r3
     9e6:	4770      	bx	lr
     9e8:	e000e3f0 	.word	0xe000e3f0

000009ec <ultoa>:
     9ec:	b510      	push	{r4, lr}
     9ee:	2300      	movs	r3, #0
     9f0:	fbb0 f4f2 	udiv	r4, r0, r2
     9f4:	fb02 0014 	mls	r0, r2, r4, r0
     9f8:	2809      	cmp	r0, #9
     9fa:	bf94      	ite	ls
     9fc:	3030      	addls	r0, #48	; 0x30
     9fe:	3037      	addhi	r0, #55	; 0x37
     a00:	b2c0      	uxtb	r0, r0
     a02:	54c8      	strb	r0, [r1, r3]
     a04:	4620      	mov	r0, r4
     a06:	b10c      	cbz	r4, a0c <ultoa+0x20>
     a08:	3301      	adds	r3, #1
     a0a:	e7f1      	b.n	9f0 <ultoa+0x4>
     a0c:	18ca      	adds	r2, r1, r3
     a0e:	7054      	strb	r4, [r2, #1]
     a10:	4622      	mov	r2, r4
     a12:	429a      	cmp	r2, r3
     a14:	da06      	bge.n	a24 <ultoa+0x38>
     a16:	5c88      	ldrb	r0, [r1, r2]
     a18:	5ccc      	ldrb	r4, [r1, r3]
     a1a:	548c      	strb	r4, [r1, r2]
     a1c:	54c8      	strb	r0, [r1, r3]
     a1e:	3201      	adds	r2, #1
     a20:	3b01      	subs	r3, #1
     a22:	e7f6      	b.n	a12 <ultoa+0x26>
     a24:	4608      	mov	r0, r1
     a26:	bd10      	pop	{r4, pc}

00000a28 <ltoa>:
     a28:	1e03      	subs	r3, r0, #0
     a2a:	b510      	push	{r4, lr}
     a2c:	460c      	mov	r4, r1
     a2e:	db03      	blt.n	a38 <ltoa+0x10>
     a30:	e8bd 4010 	ldmia.w	sp!, {r4, lr}
     a34:	f7ff bfda 	b.w	9ec <ultoa>
     a38:	202d      	movs	r0, #45	; 0x2d
     a3a:	f801 0b01 	strb.w	r0, [r1], #1
     a3e:	4258      	negs	r0, r3
     a40:	f7ff ffd4 	bl	9ec <ultoa>
     a44:	4620      	mov	r0, r4
     a46:	bd10      	pop	{r4, pc}

00000a48 <dtostrf>:
     a48:	e92d 47f3 	stmdb	sp!, {r0, r1, r4, r5, r6, r7, r8, r9, sl, lr}
     a4c:	4688      	mov	r8, r1
     a4e:	ea81 75e1 	eor.w	r5, r1, r1, asr #31
     a52:	eba5 75e1 	sub.w	r5, r5, r1, asr #31
     a56:	4601      	mov	r1, r0
     a58:	4606      	mov	r6, r0
     a5a:	4691      	mov	r9, r2
     a5c:	461c      	mov	r4, r3
     a5e:	f005 fdbb 	bl	65d8 <__aeabi_fcmpun>
     a62:	b388      	cbz	r0, ac8 <dtostrf+0x80>
     a64:	4630      	mov	r0, r6
     a66:	2100      	movs	r1, #0
     a68:	f005 fd8e 	bl	6588 <__aeabi_fcmplt>
     a6c:	2800      	cmp	r0, #0
     a6e:	bf14      	ite	ne
     a70:	2004      	movne	r0, #4
     a72:	2003      	moveq	r0, #3
     a74:	4285      	cmp	r5, r0
     a76:	bfcc      	ite	gt
     a78:	ebc0 0505 	rsbgt	r5, r0, r5
     a7c:	2500      	movle	r5, #0
     a7e:	f1b8 0f00 	cmp.w	r8, #0
     a82:	da07      	bge.n	a94 <dtostrf+0x4c>
     a84:	4425      	add	r5, r4
     a86:	42ac      	cmp	r4, r5
     a88:	d003      	beq.n	a92 <dtostrf+0x4a>
     a8a:	2320      	movs	r3, #32
     a8c:	f804 3b01 	strb.w	r3, [r4], #1
     a90:	e7f9      	b.n	a86 <dtostrf+0x3e>
     a92:	2500      	movs	r5, #0
     a94:	2e00      	cmp	r6, #0
     a96:	f04f 507e 	mov.w	r0, #1065353216	; 0x3f800000
     a9a:	f04f 0100 	mov.w	r1, #0
     a9e:	bfb8      	it	lt
     aa0:	486a      	ldrlt	r0, [pc, #424]	; (c4c <dtostrf+0x204>)
     aa2:	f005 fd71 	bl	6588 <__aeabi_fcmplt>
     aa6:	b110      	cbz	r0, aae <dtostrf+0x66>
     aa8:	232d      	movs	r3, #45	; 0x2d
     aaa:	7023      	strb	r3, [r4, #0]
     aac:	3401      	adds	r4, #1
     aae:	2341      	movs	r3, #65	; 0x41
     ab0:	224e      	movs	r2, #78	; 0x4e
     ab2:	7063      	strb	r3, [r4, #1]
     ab4:	1ce3      	adds	r3, r4, #3
     ab6:	7022      	strb	r2, [r4, #0]
     ab8:	70a2      	strb	r2, [r4, #2]
     aba:	1958      	adds	r0, r3, r5
     abc:	4283      	cmp	r3, r0
     abe:	d03e      	beq.n	b3e <dtostrf+0xf6>
     ac0:	2220      	movs	r2, #32
     ac2:	f803 2b01 	strb.w	r2, [r3], #1
     ac6:	e7f9      	b.n	abc <dtostrf+0x74>
     ac8:	f026 4700 	bic.w	r7, r6, #2147483648	; 0x80000000
     acc:	4638      	mov	r0, r7
     ace:	4960      	ldr	r1, [pc, #384]	; (c50 <dtostrf+0x208>)
     ad0:	f005 fd82 	bl	65d8 <__aeabi_fcmpun>
     ad4:	bbb0      	cbnz	r0, b44 <dtostrf+0xfc>
     ad6:	4638      	mov	r0, r7
     ad8:	495d      	ldr	r1, [pc, #372]	; (c50 <dtostrf+0x208>)
     ada:	f005 fd5f 	bl	659c <__aeabi_fcmple>
     ade:	4607      	mov	r7, r0
     ae0:	bb80      	cbnz	r0, b44 <dtostrf+0xfc>
     ae2:	4630      	mov	r0, r6
     ae4:	2100      	movs	r1, #0
     ae6:	f005 fd4f 	bl	6588 <__aeabi_fcmplt>
     aea:	2800      	cmp	r0, #0
     aec:	bf14      	ite	ne
     aee:	2004      	movne	r0, #4
     af0:	2003      	moveq	r0, #3
     af2:	4285      	cmp	r5, r0
     af4:	bfcc      	ite	gt
     af6:	ebc0 0505 	rsbgt	r5, r0, r5
     afa:	463d      	movle	r5, r7
     afc:	f1b8 0f00 	cmp.w	r8, #0
     b00:	da07      	bge.n	b12 <dtostrf+0xca>
     b02:	4425      	add	r5, r4
     b04:	42ac      	cmp	r4, r5
     b06:	d003      	beq.n	b10 <dtostrf+0xc8>
     b08:	2320      	movs	r3, #32
     b0a:	f804 3b01 	strb.w	r3, [r4], #1
     b0e:	e7f9      	b.n	b04 <dtostrf+0xbc>
     b10:	2500      	movs	r5, #0
     b12:	4630      	mov	r0, r6
     b14:	2100      	movs	r1, #0
     b16:	f005 fd37 	bl	6588 <__aeabi_fcmplt>
     b1a:	b110      	cbz	r0, b22 <dtostrf+0xda>
     b1c:	232d      	movs	r3, #45	; 0x2d
     b1e:	7023      	strb	r3, [r4, #0]
     b20:	3401      	adds	r4, #1
     b22:	2349      	movs	r3, #73	; 0x49
     b24:	7023      	strb	r3, [r4, #0]
     b26:	234e      	movs	r3, #78	; 0x4e
     b28:	7063      	strb	r3, [r4, #1]
     b2a:	2246      	movs	r2, #70	; 0x46
     b2c:	1ce3      	adds	r3, r4, #3
     b2e:	70a2      	strb	r2, [r4, #2]
     b30:	1958      	adds	r0, r3, r5
     b32:	4283      	cmp	r3, r0
     b34:	d003      	beq.n	b3e <dtostrf+0xf6>
     b36:	2220      	movs	r2, #32
     b38:	f803 2b01 	strb.w	r2, [r3], #1
     b3c:	e7f9      	b.n	b32 <dtostrf+0xea>
     b3e:	2300      	movs	r3, #0
     b40:	7003      	strb	r3, [r0, #0]
     b42:	e080      	b.n	c46 <dtostrf+0x1fe>
     b44:	4630      	mov	r0, r6
     b46:	4649      	mov	r1, r9
     b48:	466a      	mov	r2, sp
     b4a:	ab01      	add	r3, sp, #4
     b4c:	f005 fd87 	bl	665e <fcvtf>
     b50:	9e00      	ldr	r6, [sp, #0]
     b52:	4682      	mov	sl, r0
     b54:	f1b9 0f00 	cmp.w	r9, #0
     b58:	d10b      	bne.n	b72 <dtostrf+0x12a>
     b5a:	b956      	cbnz	r6, b72 <dtostrf+0x12a>
     b5c:	f890 a000 	ldrb.w	sl, [r0]
     b60:	4b3c      	ldr	r3, [pc, #240]	; (c54 <dtostrf+0x20c>)
     b62:	4a3d      	ldr	r2, [pc, #244]	; (c58 <dtostrf+0x210>)
     b64:	2501      	movs	r5, #1
     b66:	f1ba 0f34 	cmp.w	sl, #52	; 0x34
     b6a:	bf8c      	ite	hi
     b6c:	4692      	movhi	sl, r2
     b6e:	469a      	movls	sl, r3
     b70:	e008      	b.n	b84 <dtostrf+0x13c>
     b72:	4650      	mov	r0, sl
     b74:	f005 febd 	bl	68f2 <strlen>
     b78:	42b0      	cmp	r0, r6
     b7a:	4605      	mov	r5, r0
     b7c:	bfc8      	it	gt
     b7e:	1c45      	addgt	r5, r0, #1
     b80:	b906      	cbnz	r6, b84 <dtostrf+0x13c>
     b82:	3501      	adds	r5, #1
     b84:	9901      	ldr	r1, [sp, #4]
     b86:	b101      	cbz	r1, b8a <dtostrf+0x142>
     b88:	3501      	adds	r5, #1
     b8a:	ebc5 0308 	rsb	r3, r5, r8
     b8e:	2b00      	cmp	r3, #0
     b90:	eb04 0705 	add.w	r7, r4, r5
     b94:	dd08      	ble.n	ba8 <dtostrf+0x160>
     b96:	441f      	add	r7, r3
     b98:	4622      	mov	r2, r4
     b9a:	4423      	add	r3, r4
     b9c:	429a      	cmp	r2, r3
     b9e:	d004      	beq.n	baa <dtostrf+0x162>
     ba0:	2020      	movs	r0, #32
     ba2:	f802 0b01 	strb.w	r0, [r2], #1
     ba6:	e7f9      	b.n	b9c <dtostrf+0x154>
     ba8:	4623      	mov	r3, r4
     baa:	b111      	cbz	r1, bb2 <dtostrf+0x16a>
     bac:	222d      	movs	r2, #45	; 0x2d
     bae:	701a      	strb	r2, [r3, #0]
     bb0:	3301      	adds	r3, #1
     bb2:	2e00      	cmp	r6, #0
     bb4:	d107      	bne.n	bc6 <dtostrf+0x17e>
     bb6:	f1b9 0f00 	cmp.w	r9, #0
     bba:	d01e      	beq.n	bfa <dtostrf+0x1b2>
     bbc:	461a      	mov	r2, r3
     bbe:	2130      	movs	r1, #48	; 0x30
     bc0:	f802 1b02 	strb.w	r1, [r2], #2
     bc4:	e027      	b.n	c16 <dtostrf+0x1ce>
     bc6:	da18      	bge.n	bfa <dtostrf+0x1b2>
     bc8:	f1b9 0f00 	cmp.w	r9, #0
     bcc:	d015      	beq.n	bfa <dtostrf+0x1b2>
     bce:	4619      	mov	r1, r3
     bd0:	2230      	movs	r2, #48	; 0x30
     bd2:	f801 2b02 	strb.w	r2, [r1], #2
     bd6:	222e      	movs	r2, #46	; 0x2e
     bd8:	705a      	strb	r2, [r3, #1]
     bda:	3701      	adds	r7, #1
     bdc:	4632      	mov	r2, r6
     bde:	1b8b      	subs	r3, r1, r6
     be0:	2a00      	cmp	r2, #0
     be2:	f1c6 0000 	rsb	r0, r6, #0
     be6:	4413      	add	r3, r2
     be8:	da04      	bge.n	bf4 <dtostrf+0x1ac>
     bea:	4408      	add	r0, r1
     bec:	2330      	movs	r3, #48	; 0x30
     bee:	5483      	strb	r3, [r0, r2]
     bf0:	3201      	adds	r2, #1
     bf2:	e7f4      	b.n	bde <dtostrf+0x196>
     bf4:	9200      	str	r2, [sp, #0]
     bf6:	e000      	b.n	bfa <dtostrf+0x1b2>
     bf8:	4613      	mov	r3, r2
     bfa:	42bb      	cmp	r3, r7
     bfc:	d20f      	bcs.n	c1e <dtostrf+0x1d6>
     bfe:	1c5a      	adds	r2, r3, #1
     c00:	f81a 1b01 	ldrb.w	r1, [sl], #1
     c04:	7019      	strb	r1, [r3, #0]
     c06:	42ba      	cmp	r2, r7
     c08:	d008      	beq.n	c1c <dtostrf+0x1d4>
     c0a:	9900      	ldr	r1, [sp, #0]
     c0c:	3901      	subs	r1, #1
     c0e:	9100      	str	r1, [sp, #0]
     c10:	2900      	cmp	r1, #0
     c12:	d1f1      	bne.n	bf8 <dtostrf+0x1b0>
     c14:	1c9a      	adds	r2, r3, #2
     c16:	212e      	movs	r1, #46	; 0x2e
     c18:	7059      	strb	r1, [r3, #1]
     c1a:	e7ed      	b.n	bf8 <dtostrf+0x1b0>
     c1c:	463b      	mov	r3, r7
     c1e:	f1b8 0f00 	cmp.w	r8, #0
     c22:	da0d      	bge.n	c40 <dtostrf+0x1f8>
     c24:	4445      	add	r5, r8
     c26:	426d      	negs	r5, r5
     c28:	461a      	mov	r2, r3
     c2a:	1959      	adds	r1, r3, r5
     c2c:	1a89      	subs	r1, r1, r2
     c2e:	2900      	cmp	r1, #0
     c30:	dd03      	ble.n	c3a <dtostrf+0x1f2>
     c32:	2120      	movs	r1, #32
     c34:	f802 1b01 	strb.w	r1, [r2], #1
     c38:	e7f7      	b.n	c2a <dtostrf+0x1e2>
     c3a:	2d00      	cmp	r5, #0
     c3c:	bfa8      	it	ge
     c3e:	195b      	addge	r3, r3, r5
     c40:	2200      	movs	r2, #0
     c42:	701a      	strb	r2, [r3, #0]
     c44:	4620      	mov	r0, r4
     c46:	b002      	add	sp, #8
     c48:	e8bd 87f0 	ldmia.w	sp!, {r4, r5, r6, r7, r8, r9, sl, pc}
     c4c:	bf800000 	.word	0xbf800000
     c50:	7f7fffff 	.word	0x7f7fffff
     c54:	00009ec0 	.word	0x00009ec0
     c58:	00009ebe 	.word	0x00009ebe

00000c5c <dummy_isr>:
     c5c:	4770      	bx	lr

00000c5e <getIsrTable>:
     c5e:	f100 4040 	add.w	r0, r0, #3221225472	; 0xc0000000
     c62:	f5a0 2392 	sub.w	r3, r0, #299008	; 0x49000
     c66:	2b7c      	cmp	r3, #124	; 0x7c
     c68:	d914      	bls.n	c94 <getIsrTable+0x36>
     c6a:	f5a0 2394 	sub.w	r3, r0, #303104	; 0x4a000
     c6e:	2b7c      	cmp	r3, #124	; 0x7c
     c70:	d912      	bls.n	c98 <getIsrTable+0x3a>
     c72:	f5a0 2396 	sub.w	r3, r0, #307200	; 0x4b000
     c76:	2b7c      	cmp	r3, #124	; 0x7c
     c78:	d910      	bls.n	c9c <getIsrTable+0x3e>
     c7a:	f5a0 2398 	sub.w	r3, r0, #311296	; 0x4c000
     c7e:	2b7c      	cmp	r3, #124	; 0x7c
     c80:	d906      	bls.n	c90 <getIsrTable+0x32>
     c82:	f5a0 209a 	sub.w	r0, r0, #315392	; 0x4d000
     c86:	287d      	cmp	r0, #125	; 0x7d
     c88:	4805      	ldr	r0, [pc, #20]	; (ca0 <getIsrTable+0x42>)
     c8a:	bf28      	it	cs
     c8c:	2000      	movcs	r0, #0
     c8e:	4770      	bx	lr
     c90:	4804      	ldr	r0, [pc, #16]	; (ca4 <getIsrTable+0x46>)
     c92:	4770      	bx	lr
     c94:	4804      	ldr	r0, [pc, #16]	; (ca8 <getIsrTable+0x4a>)
     c96:	4770      	bx	lr
     c98:	4804      	ldr	r0, [pc, #16]	; (cac <getIsrTable+0x4e>)
     c9a:	4770      	bx	lr
     c9c:	4804      	ldr	r0, [pc, #16]	; (cb0 <getIsrTable+0x52>)
     c9e:	4770      	bx	lr
     ca0:	1fff0850 	.word	0x1fff0850
     ca4:	1fff08bc 	.word	0x1fff08bc
     ca8:	1fff098c 	.word	0x1fff098c
     cac:	1fff092c 	.word	0x1fff092c
     cb0:	1fff08fc 	.word	0x1fff08fc

00000cb4 <getPinIndex>:
     cb4:	f3c0 0084 	ubfx	r0, r0, #2, #5
     cb8:	4770      	bx	lr

00000cba <attachInterruptVector>:
     cba:	3010      	adds	r0, #16
     cbc:	4b01      	ldr	r3, [pc, #4]	; (cc4 <attachInterruptVector+0xa>)
     cbe:	f843 1020 	str.w	r1, [r3, r0, lsl #2]
     cc2:	4770      	bx	lr
     cc4:	1fff0200 	.word	0x1fff0200

00000cc8 <detachInterrupt>:
     cc8:	4b0c      	ldr	r3, [pc, #48]	; (cfc <detachInterrupt+0x34>)
     cca:	eb03 00c0 	add.w	r0, r3, r0, lsl #3
     cce:	b510      	push	{r4, lr}
     cd0:	6844      	ldr	r4, [r0, #4]
     cd2:	4620      	mov	r0, r4
     cd4:	f7ff ffc3 	bl	c5e <getIsrTable>
     cd8:	b170      	cbz	r0, cf8 <detachInterrupt+0x30>
     cda:	b672      	cpsid	i
     cdc:	6823      	ldr	r3, [r4, #0]
     cde:	f023 7387 	bic.w	r3, r3, #17694720	; 0x10e0000
     ce2:	f423 3380 	bic.w	r3, r3, #65536	; 0x10000
     ce6:	f043 7380 	orr.w	r3, r3, #16777216	; 0x1000000
     cea:	6023      	str	r3, [r4, #0]
     cec:	f3c4 0484 	ubfx	r4, r4, #2, #5
     cf0:	4b03      	ldr	r3, [pc, #12]	; (d00 <detachInterrupt+0x38>)
     cf2:	f840 3024 	str.w	r3, [r0, r4, lsl #2]
     cf6:	b662      	cpsie	i
     cf8:	bd10      	pop	{r4, pc}
     cfa:	bf00      	nop
     cfc:	00009ec4 	.word	0x00009ec4
     d00:	00000c5d 	.word	0x00000c5d

00000d04 <rtc_get>:
     d04:	4b01      	ldr	r3, [pc, #4]	; (d0c <rtc_get+0x8>)
     d06:	6818      	ldr	r0, [r3, #0]
     d08:	4770      	bx	lr
     d0a:	bf00      	nop
     d0c:	4003d000 	.word	0x4003d000

00000d10 <rtc_set>:
     d10:	4b04      	ldr	r3, [pc, #16]	; (d24 <rtc_set+0x14>)
     d12:	4905      	ldr	r1, [pc, #20]	; (d28 <rtc_set+0x18>)
     d14:	2200      	movs	r2, #0
     d16:	601a      	str	r2, [r3, #0]
     d18:	600a      	str	r2, [r1, #0]
     d1a:	4a04      	ldr	r2, [pc, #16]	; (d2c <rtc_set+0x1c>)
     d1c:	6010      	str	r0, [r2, #0]
     d1e:	2210      	movs	r2, #16
     d20:	601a      	str	r2, [r3, #0]
     d22:	4770      	bx	lr
     d24:	4003d014 	.word	0x4003d014
     d28:	4003d004 	.word	0x4003d004
     d2c:	4003d000 	.word	0x4003d000

00000d30 <rtc_compensate>:
     d30:	2800      	cmp	r0, #0
     d32:	db0e      	blt.n	d52 <rtc_compensate+0x22>
     d34:	0202      	lsls	r2, r0, #8
     d36:	f44f 7380 	mov.w	r3, #256	; 0x100
     d3a:	f5b2 4f00 	cmp.w	r2, #32768	; 0x8000
     d3e:	d306      	bcc.n	d4e <rtc_compensate+0x1e>
     d40:	3b01      	subs	r3, #1
     d42:	2b01      	cmp	r3, #1
     d44:	ebc0 0102 	rsb	r1, r0, r2
     d48:	d001      	beq.n	d4e <rtc_compensate+0x1e>
     d4a:	460a      	mov	r2, r1
     d4c:	e7f5      	b.n	d3a <rtc_compensate+0xa>
     d4e:	0a12      	lsrs	r2, r2, #8
     d50:	e010      	b.n	d74 <rtc_compensate+0x44>
     d52:	4240      	negs	r0, r0
     d54:	0202      	lsls	r2, r0, #8
     d56:	f44f 7380 	mov.w	r3, #256	; 0x100
     d5a:	f5b2 4f01 	cmp.w	r2, #33024	; 0x8100
     d5e:	d306      	bcc.n	d6e <rtc_compensate+0x3e>
     d60:	3b01      	subs	r3, #1
     d62:	2b01      	cmp	r3, #1
     d64:	ebc0 0102 	rsb	r1, r0, r2
     d68:	d001      	beq.n	d6e <rtc_compensate+0x3e>
     d6a:	460a      	mov	r2, r1
     d6c:	e7f5      	b.n	d5a <rtc_compensate+0x2a>
     d6e:	0a12      	lsrs	r2, r2, #8
     d70:	f5c2 7280 	rsb	r2, r2, #256	; 0x100
     d74:	3b01      	subs	r3, #1
     d76:	4902      	ldr	r1, [pc, #8]	; (d80 <rtc_compensate+0x50>)
     d78:	ea42 2203 	orr.w	r2, r2, r3, lsl #8
     d7c:	600a      	str	r2, [r1, #0]
     d7e:	4770      	bx	lr
     d80:	4003d00c 	.word	0x4003d00c

00000d84 <analogWriteRes>:
     d84:	b118      	cbz	r0, d8e <analogWriteRes+0xa>
     d86:	2810      	cmp	r0, #16
     d88:	bf28      	it	cs
     d8a:	2010      	movcs	r0, #16
     d8c:	e000      	b.n	d90 <analogWriteRes+0xc>
     d8e:	2001      	movs	r0, #1
     d90:	4b01      	ldr	r3, [pc, #4]	; (d98 <analogWriteRes+0x14>)
     d92:	f883 01b4 	strb.w	r0, [r3, #436]	; 0x1b4
     d96:	4770      	bx	lr
     d98:	1fff0850 	.word	0x1fff0850

00000d9c <analogWriteFrequency>:
     d9c:	e92d 43f8 	stmdb	sp!, {r3, r4, r5, r6, r7, r8, r9, lr}
     da0:	f1a0 0910 	sub.w	r9, r0, #16
     da4:	fa5f f989 	uxtb.w	r9, r9
     da8:	f1b9 0f01 	cmp.w	r9, #1
     dac:	4605      	mov	r5, r0
     dae:	460f      	mov	r7, r1
     db0:	d90d      	bls.n	dce <analogWriteFrequency+0x32>
     db2:	4608      	mov	r0, r1
     db4:	493d      	ldr	r1, [pc, #244]	; (eac <analogWriteFrequency+0x110>)
     db6:	f005 fbe7 	bl	6588 <__aeabi_fcmplt>
     dba:	4b3d      	ldr	r3, [pc, #244]	; (eb0 <analogWriteFrequency+0x114>)
     dbc:	2800      	cmp	r0, #0
     dbe:	f647 2812 	movw	r8, #31250	; 0x7a12
     dc2:	bf14      	ite	ne
     dc4:	2602      	movne	r6, #2
     dc6:	2601      	moveq	r6, #1
     dc8:	bf08      	it	eq
     dca:	4698      	moveq	r8, r3
     dcc:	e002      	b.n	dd4 <analogWriteFrequency+0x38>
     dce:	f8df 8120 	ldr.w	r8, [pc, #288]	; ef0 <analogWriteFrequency+0x154>
     dd2:	2601      	movs	r6, #1
     dd4:	2400      	movs	r4, #0
     dd6:	fa28 f004 	lsr.w	r0, r8, r4
     dda:	f005 f9df 	bl	619c <__aeabi_ui2f>
     dde:	f04f 515e 	mov.w	r1, #931135488	; 0x37800000
     de2:	f005 fa33 	bl	624c <__aeabi_fmul>
     de6:	4601      	mov	r1, r0
     de8:	4638      	mov	r0, r7
     dea:	f005 fbe1 	bl	65b0 <__aeabi_fcmpge>
     dee:	b910      	cbnz	r0, df6 <analogWriteFrequency+0x5a>
     df0:	3401      	adds	r4, #1
     df2:	2c07      	cmp	r4, #7
     df4:	d1ef      	bne.n	dd6 <analogWriteFrequency+0x3a>
     df6:	fa28 f004 	lsr.w	r0, r8, r4
     dfa:	f005 f9cf 	bl	619c <__aeabi_ui2f>
     dfe:	4639      	mov	r1, r7
     e00:	f005 fad8 	bl	63b4 <__aeabi_fdiv>
     e04:	f04f 517c 	mov.w	r1, #1056964608	; 0x3f000000
     e08:	f005 f916 	bl	6038 <__aeabi_fsub>
     e0c:	f005 fbfa 	bl	6604 <__aeabi_f2uiz>
     e10:	f64f 73ff 	movw	r3, #65535	; 0xffff
     e14:	4298      	cmp	r0, r3
     e16:	bf28      	it	cs
     e18:	4618      	movcs	r0, r3
     e1a:	1eeb      	subs	r3, r5, #3
     e1c:	2b01      	cmp	r3, #1
     e1e:	d806      	bhi.n	e2e <analogWriteFrequency+0x92>
     e20:	4b24      	ldr	r3, [pc, #144]	; (eb4 <analogWriteFrequency+0x118>)
     e22:	4925      	ldr	r1, [pc, #148]	; (eb8 <analogWriteFrequency+0x11c>)
     e24:	2200      	movs	r2, #0
     e26:	601a      	str	r2, [r3, #0]
     e28:	600a      	str	r2, [r1, #0]
     e2a:	4a24      	ldr	r2, [pc, #144]	; (ebc <analogWriteFrequency+0x120>)
     e2c:	e036      	b.n	e9c <analogWriteFrequency+0x100>
     e2e:	f1a5 0309 	sub.w	r3, r5, #9
     e32:	2b01      	cmp	r3, #1
     e34:	d906      	bls.n	e44 <analogWriteFrequency+0xa8>
     e36:	f1a5 0314 	sub.w	r3, r5, #20
     e3a:	2b03      	cmp	r3, #3
     e3c:	d902      	bls.n	e44 <analogWriteFrequency+0xa8>
     e3e:	1f6b      	subs	r3, r5, #5
     e40:	2b01      	cmp	r3, #1
     e42:	d806      	bhi.n	e52 <analogWriteFrequency+0xb6>
     e44:	4b1e      	ldr	r3, [pc, #120]	; (ec0 <analogWriteFrequency+0x124>)
     e46:	491f      	ldr	r1, [pc, #124]	; (ec4 <analogWriteFrequency+0x128>)
     e48:	2200      	movs	r2, #0
     e4a:	601a      	str	r2, [r3, #0]
     e4c:	600a      	str	r2, [r1, #0]
     e4e:	4a1e      	ldr	r2, [pc, #120]	; (ec8 <analogWriteFrequency+0x12c>)
     e50:	e024      	b.n	e9c <analogWriteFrequency+0x100>
     e52:	f1a5 031d 	sub.w	r3, r5, #29
     e56:	2b01      	cmp	r3, #1
     e58:	d806      	bhi.n	e68 <analogWriteFrequency+0xcc>
     e5a:	4b1c      	ldr	r3, [pc, #112]	; (ecc <analogWriteFrequency+0x130>)
     e5c:	491c      	ldr	r1, [pc, #112]	; (ed0 <analogWriteFrequency+0x134>)
     e5e:	2200      	movs	r2, #0
     e60:	601a      	str	r2, [r3, #0]
     e62:	600a      	str	r2, [r1, #0]
     e64:	4a1b      	ldr	r2, [pc, #108]	; (ed4 <analogWriteFrequency+0x138>)
     e66:	e019      	b.n	e9c <analogWriteFrequency+0x100>
     e68:	2d02      	cmp	r5, #2
     e6a:	d007      	beq.n	e7c <analogWriteFrequency+0xe0>
     e6c:	2d0e      	cmp	r5, #14
     e6e:	d005      	beq.n	e7c <analogWriteFrequency+0xe0>
     e70:	1feb      	subs	r3, r5, #7
     e72:	2b01      	cmp	r3, #1
     e74:	d902      	bls.n	e7c <analogWriteFrequency+0xe0>
     e76:	3d23      	subs	r5, #35	; 0x23
     e78:	2d03      	cmp	r5, #3
     e7a:	d806      	bhi.n	e8a <analogWriteFrequency+0xee>
     e7c:	4b16      	ldr	r3, [pc, #88]	; (ed8 <analogWriteFrequency+0x13c>)
     e7e:	4917      	ldr	r1, [pc, #92]	; (edc <analogWriteFrequency+0x140>)
     e80:	2200      	movs	r2, #0
     e82:	601a      	str	r2, [r3, #0]
     e84:	600a      	str	r2, [r1, #0]
     e86:	4a16      	ldr	r2, [pc, #88]	; (ee0 <analogWriteFrequency+0x144>)
     e88:	e008      	b.n	e9c <analogWriteFrequency+0x100>
     e8a:	f1b9 0f01 	cmp.w	r9, #1
     e8e:	d80b      	bhi.n	ea8 <analogWriteFrequency+0x10c>
     e90:	4b14      	ldr	r3, [pc, #80]	; (ee4 <analogWriteFrequency+0x148>)
     e92:	4915      	ldr	r1, [pc, #84]	; (ee8 <analogWriteFrequency+0x14c>)
     e94:	2200      	movs	r2, #0
     e96:	601a      	str	r2, [r3, #0]
     e98:	600a      	str	r2, [r1, #0]
     e9a:	4a14      	ldr	r2, [pc, #80]	; (eec <analogWriteFrequency+0x150>)
     e9c:	f004 0407 	and.w	r4, r4, #7
     ea0:	ea44 06c6 	orr.w	r6, r4, r6, lsl #3
     ea4:	6010      	str	r0, [r2, #0]
     ea6:	601e      	str	r6, [r3, #0]
     ea8:	e8bd 83f8 	ldmia.w	sp!, {r3, r4, r5, r6, r7, r8, r9, pc}
     eac:	40e4e1c0 	.word	0x40e4e1c0
     eb0:	03938700 	.word	0x03938700
     eb4:	40039000 	.word	0x40039000
     eb8:	40039004 	.word	0x40039004
     ebc:	40039008 	.word	0x40039008
     ec0:	40038000 	.word	0x40038000
     ec4:	40038004 	.word	0x40038004
     ec8:	40038008 	.word	0x40038008
     ecc:	400b8000 	.word	0x400b8000
     ed0:	400b8004 	.word	0x400b8004
     ed4:	400b8008 	.word	0x400b8008
     ed8:	400b9000 	.word	0x400b9000
     edc:	400b9004 	.word	0x400b9004
     ee0:	400b9008 	.word	0x400b9008
     ee4:	400c9000 	.word	0x400c9000
     ee8:	400c9004 	.word	0x400c9004
     eec:	400c9008 	.word	0x400c9008
     ef0:	00f42400 	.word	0x00f42400

00000ef4 <digitalWrite>:
     ef4:	283f      	cmp	r0, #63	; 0x3f
     ef6:	b510      	push	{r4, lr}
     ef8:	d818      	bhi.n	f2c <digitalWrite+0x38>
     efa:	4a0d      	ldr	r2, [pc, #52]	; (f30 <digitalWrite+0x3c>)
     efc:	f852 3030 	ldr.w	r3, [r2, r0, lsl #3]
     f00:	f893 4280 	ldrb.w	r4, [r3, #640]	; 0x280
     f04:	b13c      	cbz	r4, f16 <digitalWrite+0x22>
     f06:	2201      	movs	r2, #1
     f08:	b111      	cbz	r1, f10 <digitalWrite+0x1c>
     f0a:	f883 2080 	strb.w	r2, [r3, #128]	; 0x80
     f0e:	bd10      	pop	{r4, pc}
     f10:	f883 2100 	strb.w	r2, [r3, #256]	; 0x100
     f14:	bd10      	pop	{r4, pc}
     f16:	eb02 00c0 	add.w	r0, r2, r0, lsl #3
     f1a:	6843      	ldr	r3, [r0, #4]
     f1c:	681a      	ldr	r2, [r3, #0]
     f1e:	b111      	cbz	r1, f26 <digitalWrite+0x32>
     f20:	f042 0203 	orr.w	r2, r2, #3
     f24:	e001      	b.n	f2a <digitalWrite+0x36>
     f26:	f022 0202 	bic.w	r2, r2, #2
     f2a:	601a      	str	r2, [r3, #0]
     f2c:	bd10      	pop	{r4, pc}
     f2e:	bf00      	nop
     f30:	00009ec4 	.word	0x00009ec4

00000f34 <digitalRead>:
     f34:	283f      	cmp	r0, #63	; 0x3f
     f36:	d806      	bhi.n	f46 <digitalRead+0x12>
     f38:	4b04      	ldr	r3, [pc, #16]	; (f4c <digitalRead+0x18>)
     f3a:	f853 3030 	ldr.w	r3, [r3, r0, lsl #3]
     f3e:	f893 0200 	ldrb.w	r0, [r3, #512]	; 0x200
     f42:	b2c0      	uxtb	r0, r0
     f44:	4770      	bx	lr
     f46:	2000      	movs	r0, #0
     f48:	4770      	bx	lr
     f4a:	bf00      	nop
     f4c:	00009ec4 	.word	0x00009ec4

00000f50 <pinMode>:
     f50:	283f      	cmp	r0, #63	; 0x3f
     f52:	b510      	push	{r4, lr}
     f54:	d82b      	bhi.n	fae <pinMode+0x5e>
     f56:	4a16      	ldr	r2, [pc, #88]	; (fb0 <pinMode+0x60>)
     f58:	eb02 03c0 	add.w	r3, r2, r0, lsl #3
     f5c:	2901      	cmp	r1, #1
     f5e:	685b      	ldr	r3, [r3, #4]
     f60:	4614      	mov	r4, r2
     f62:	d001      	beq.n	f68 <pinMode+0x18>
     f64:	2904      	cmp	r1, #4
     f66:	d10f      	bne.n	f88 <pinMode+0x38>
     f68:	f854 2030 	ldr.w	r2, [r4, r0, lsl #3]
     f6c:	2001      	movs	r0, #1
     f6e:	f882 0280 	strb.w	r0, [r2, #640]	; 0x280
     f72:	f44f 72a2 	mov.w	r2, #324	; 0x144
     f76:	601a      	str	r2, [r3, #0]
     f78:	681a      	ldr	r2, [r3, #0]
     f7a:	2904      	cmp	r1, #4
     f7c:	bf0c      	ite	eq
     f7e:	f042 0220 	orreq.w	r2, r2, #32
     f82:	f022 0220 	bicne.w	r2, r2, #32
     f86:	e011      	b.n	fac <pinMode+0x5c>
     f88:	f852 0030 	ldr.w	r0, [r2, r0, lsl #3]
     f8c:	2200      	movs	r2, #0
     f8e:	f880 2280 	strb.w	r2, [r0, #640]	; 0x280
     f92:	b911      	cbnz	r1, f9a <pinMode+0x4a>
     f94:	f44f 7280 	mov.w	r2, #256	; 0x100
     f98:	e008      	b.n	fac <pinMode+0x5c>
     f9a:	2902      	cmp	r1, #2
     f9c:	d102      	bne.n	fa4 <pinMode+0x54>
     f9e:	f240 1203 	movw	r2, #259	; 0x103
     fa2:	e003      	b.n	fac <pinMode+0x5c>
     fa4:	2903      	cmp	r1, #3
     fa6:	bf08      	it	eq
     fa8:	f44f 7281 	moveq.w	r2, #258	; 0x102
     fac:	601a      	str	r2, [r3, #0]
     fae:	bd10      	pop	{r4, pc}
     fb0:	00009ec4 	.word	0x00009ec4

00000fb4 <attachInterrupt>:
     fb4:	283f      	cmp	r0, #63	; 0x3f
     fb6:	b570      	push	{r4, r5, r6, lr}
     fb8:	460d      	mov	r5, r1
     fba:	d83c      	bhi.n	1036 <attachInterrupt+0x82>
     fbc:	2a04      	cmp	r2, #4
     fbe:	d83a      	bhi.n	1036 <attachInterrupt+0x82>
     fc0:	e8df f002 	tbb	[pc, r2]
     fc4:	0b050907 	.word	0x0b050907
     fc8:	03          	.byte	0x03
     fc9:	00          	.byte	0x00
     fca:	230b      	movs	r3, #11
     fcc:	e006      	b.n	fdc <attachInterrupt+0x28>
     fce:	230a      	movs	r3, #10
     fd0:	e004      	b.n	fdc <attachInterrupt+0x28>
     fd2:	2308      	movs	r3, #8
     fd4:	e002      	b.n	fdc <attachInterrupt+0x28>
     fd6:	230c      	movs	r3, #12
     fd8:	e000      	b.n	fdc <attachInterrupt+0x28>
     fda:	2309      	movs	r3, #9
     fdc:	041e      	lsls	r6, r3, #16
     fde:	4b16      	ldr	r3, [pc, #88]	; (1038 <attachInterrupt+0x84>)
     fe0:	eb03 03c0 	add.w	r3, r3, r0, lsl #3
     fe4:	685c      	ldr	r4, [r3, #4]
     fe6:	6821      	ldr	r1, [r4, #0]
     fe8:	f411 61e0 	ands.w	r1, r1, #1792	; 0x700
     fec:	d101      	bne.n	ff2 <attachInterrupt+0x3e>
     fee:	f7ff ffaf 	bl	f50 <pinMode>
     ff2:	4b12      	ldr	r3, [pc, #72]	; (103c <attachInterrupt+0x88>)
     ff4:	4a12      	ldr	r2, [pc, #72]	; (1040 <attachInterrupt+0x8c>)
     ff6:	f8c3 212c 	str.w	r2, [r3, #300]	; 0x12c
     ffa:	4a12      	ldr	r2, [pc, #72]	; (1044 <attachInterrupt+0x90>)
     ffc:	f8c3 2130 	str.w	r2, [r3, #304]	; 0x130
    1000:	4a11      	ldr	r2, [pc, #68]	; (1048 <attachInterrupt+0x94>)
    1002:	f8c3 2134 	str.w	r2, [r3, #308]	; 0x134
    1006:	4a11      	ldr	r2, [pc, #68]	; (104c <attachInterrupt+0x98>)
    1008:	f8c3 2138 	str.w	r2, [r3, #312]	; 0x138
    100c:	4620      	mov	r0, r4
    100e:	4a10      	ldr	r2, [pc, #64]	; (1050 <attachInterrupt+0x9c>)
    1010:	f8c3 213c 	str.w	r2, [r3, #316]	; 0x13c
    1014:	f7ff fe23 	bl	c5e <getIsrTable>
    1018:	b168      	cbz	r0, 1036 <attachInterrupt+0x82>
    101a:	b672      	cpsid	i
    101c:	6822      	ldr	r2, [r4, #0]
    101e:	f422 2270 	bic.w	r2, r2, #983040	; 0xf0000
    1022:	6022      	str	r2, [r4, #0]
    1024:	f3c4 0384 	ubfx	r3, r4, #2, #5
    1028:	f042 7280 	orr.w	r2, r2, #16777216	; 0x1000000
    102c:	4316      	orrs	r6, r2
    102e:	f840 5023 	str.w	r5, [r0, r3, lsl #2]
    1032:	6026      	str	r6, [r4, #0]
    1034:	b662      	cpsie	i
    1036:	bd70      	pop	{r4, r5, r6, pc}
    1038:	00009ec4 	.word	0x00009ec4
    103c:	1fff0200 	.word	0x1fff0200
    1040:	1fff0819 	.word	0x1fff0819
    1044:	1fff07e9 	.word	0x1fff07e9
    1048:	1fff07b9 	.word	0x1fff07b9
    104c:	1fff078d 	.word	0x1fff078d
    1050:	1fff0761 	.word	0x1fff0761

00001054 <analogWrite>:
    1054:	f1a0 0342 	sub.w	r3, r0, #66	; 0x42
    1058:	2b01      	cmp	r3, #1
    105a:	b570      	push	{r4, r5, r6, lr}
    105c:	460a      	mov	r2, r1
    105e:	4604      	mov	r4, r0
    1060:	4b7c      	ldr	r3, [pc, #496]	; (1254 <analogWrite+0x200>)
    1062:	d818      	bhi.n	1096 <analogWrite+0x42>
    1064:	f893 31b4 	ldrb.w	r3, [r3, #436]	; 0x1b4
    1068:	2b0b      	cmp	r3, #11
    106a:	d804      	bhi.n	1076 <analogWrite+0x22>
    106c:	f1c3 030c 	rsb	r3, r3, #12
    1070:	fa01 f203 	lsl.w	r2, r1, r3
    1074:	e004      	b.n	1080 <analogWrite+0x2c>
    1076:	2b0c      	cmp	r3, #12
    1078:	bf1c      	itt	ne
    107a:	3b0c      	subne	r3, #12
    107c:	fa41 f203 	asrne.w	r2, r1, r3
    1080:	2c42      	cmp	r4, #66	; 0x42
    1082:	4610      	mov	r0, r2
    1084:	d103      	bne.n	108e <analogWrite+0x3a>
    1086:	e8bd 4070 	ldmia.w	sp!, {r4, r5, r6, lr}
    108a:	f7ff bb87 	b.w	79c <analogWriteDAC0>
    108e:	e8bd 4070 	ldmia.w	sp!, {r4, r5, r6, lr}
    1092:	f7ff bb9d 	b.w	7d0 <analogWriteDAC1>
    1096:	f893 51b4 	ldrb.w	r5, [r3, #436]	; 0x1b4
    109a:	2601      	movs	r6, #1
    109c:	2900      	cmp	r1, #0
    109e:	fa06 f305 	lsl.w	r3, r6, r5
    10a2:	bfd8      	it	le
    10a4:	2100      	movle	r1, #0
    10a6:	dd02      	ble.n	10ae <analogWrite+0x5a>
    10a8:	429a      	cmp	r2, r3
    10aa:	d305      	bcc.n	10b8 <analogWrite+0x64>
    10ac:	4631      	mov	r1, r6
    10ae:	f7ff ff21 	bl	ef4 <digitalWrite>
    10b2:	4620      	mov	r0, r4
    10b4:	4631      	mov	r1, r6
    10b6:	e0c8      	b.n	124a <analogWrite+0x1f6>
    10b8:	1ec3      	subs	r3, r0, #3
    10ba:	2b01      	cmp	r3, #1
    10bc:	d801      	bhi.n	10c2 <analogWrite+0x6e>
    10be:	4b66      	ldr	r3, [pc, #408]	; (1258 <analogWrite+0x204>)
    10c0:	e018      	b.n	10f4 <analogWrite+0xa0>
    10c2:	f1a0 031d 	sub.w	r3, r0, #29
    10c6:	2b01      	cmp	r3, #1
    10c8:	d801      	bhi.n	10ce <analogWrite+0x7a>
    10ca:	4b64      	ldr	r3, [pc, #400]	; (125c <analogWrite+0x208>)
    10cc:	e012      	b.n	10f4 <analogWrite+0xa0>
    10ce:	2802      	cmp	r0, #2
    10d0:	d008      	beq.n	10e4 <analogWrite+0x90>
    10d2:	280e      	cmp	r0, #14
    10d4:	d006      	beq.n	10e4 <analogWrite+0x90>
    10d6:	1fc3      	subs	r3, r0, #7
    10d8:	2b01      	cmp	r3, #1
    10da:	d903      	bls.n	10e4 <analogWrite+0x90>
    10dc:	f1a0 0323 	sub.w	r3, r0, #35	; 0x23
    10e0:	2b03      	cmp	r3, #3
    10e2:	d801      	bhi.n	10e8 <analogWrite+0x94>
    10e4:	4b5e      	ldr	r3, [pc, #376]	; (1260 <analogWrite+0x20c>)
    10e6:	e005      	b.n	10f4 <analogWrite+0xa0>
    10e8:	f1a0 0310 	sub.w	r3, r0, #16
    10ec:	2b01      	cmp	r3, #1
    10ee:	bf94      	ite	ls
    10f0:	4b5c      	ldrls	r3, [pc, #368]	; (1264 <analogWrite+0x210>)
    10f2:	4b5d      	ldrhi	r3, [pc, #372]	; (1268 <analogWrite+0x214>)
    10f4:	681b      	ldr	r3, [r3, #0]
    10f6:	1ea1      	subs	r1, r4, #2
    10f8:	fb03 2302 	mla	r3, r3, r2, r2
    10fc:	40eb      	lsrs	r3, r5
    10fe:	2924      	cmp	r1, #36	; 0x24
    1100:	f200 809a 	bhi.w	1238 <analogWrite+0x1e4>
    1104:	e8df f001 	tbb	[pc, r1]
    1108:	3d49435b 	.word	0x3d49435b
    110c:	1f6d672b 	.word	0x1f6d672b
    1110:	98989825 	.word	0x98989825
    1114:	918b9861 	.word	0x918b9861
    1118:	37319898 	.word	0x37319898
    111c:	98981913 	.word	0x98981913
    1120:	4f989898 	.word	0x4f989898
    1124:	98989855 	.word	0x98989855
    1128:	7f797398 	.word	0x7f797398
    112c:	85          	.byte	0x85
    112d:	00          	.byte	0x00
    112e:	4a4f      	ldr	r2, [pc, #316]	; (126c <analogWrite+0x218>)
    1130:	6013      	str	r3, [r2, #0]
    1132:	f240 4244 	movw	r2, #1092	; 0x444
    1136:	4b4e      	ldr	r3, [pc, #312]	; (1270 <analogWrite+0x21c>)
    1138:	e07c      	b.n	1234 <analogWrite+0x1e0>
    113a:	4a4e      	ldr	r2, [pc, #312]	; (1274 <analogWrite+0x220>)
    113c:	6013      	str	r3, [r2, #0]
    113e:	f240 4244 	movw	r2, #1092	; 0x444
    1142:	4b4d      	ldr	r3, [pc, #308]	; (1278 <analogWrite+0x224>)
    1144:	e076      	b.n	1234 <analogWrite+0x1e0>
    1146:	4a4d      	ldr	r2, [pc, #308]	; (127c <analogWrite+0x228>)
    1148:	6013      	str	r3, [r2, #0]
    114a:	f240 4244 	movw	r2, #1092	; 0x444
    114e:	4b4c      	ldr	r3, [pc, #304]	; (1280 <analogWrite+0x22c>)
    1150:	e070      	b.n	1234 <analogWrite+0x1e0>
    1152:	4a4c      	ldr	r2, [pc, #304]	; (1284 <analogWrite+0x230>)
    1154:	6013      	str	r3, [r2, #0]
    1156:	f240 4244 	movw	r2, #1092	; 0x444
    115a:	4b4b      	ldr	r3, [pc, #300]	; (1288 <analogWrite+0x234>)
    115c:	e06a      	b.n	1234 <analogWrite+0x1e0>
    115e:	4a4b      	ldr	r2, [pc, #300]	; (128c <analogWrite+0x238>)
    1160:	6013      	str	r3, [r2, #0]
    1162:	f240 4244 	movw	r2, #1092	; 0x444
    1166:	4b4a      	ldr	r3, [pc, #296]	; (1290 <analogWrite+0x23c>)
    1168:	e064      	b.n	1234 <analogWrite+0x1e0>
    116a:	4a4a      	ldr	r2, [pc, #296]	; (1294 <analogWrite+0x240>)
    116c:	6013      	str	r3, [r2, #0]
    116e:	f240 4244 	movw	r2, #1092	; 0x444
    1172:	4b49      	ldr	r3, [pc, #292]	; (1298 <analogWrite+0x244>)
    1174:	e05e      	b.n	1234 <analogWrite+0x1e0>
    1176:	4a49      	ldr	r2, [pc, #292]	; (129c <analogWrite+0x248>)
    1178:	6013      	str	r3, [r2, #0]
    117a:	f240 4244 	movw	r2, #1092	; 0x444
    117e:	4b48      	ldr	r3, [pc, #288]	; (12a0 <analogWrite+0x24c>)
    1180:	e058      	b.n	1234 <analogWrite+0x1e0>
    1182:	4a48      	ldr	r2, [pc, #288]	; (12a4 <analogWrite+0x250>)
    1184:	6013      	str	r3, [r2, #0]
    1186:	f240 4244 	movw	r2, #1092	; 0x444
    118a:	4b47      	ldr	r3, [pc, #284]	; (12a8 <analogWrite+0x254>)
    118c:	e052      	b.n	1234 <analogWrite+0x1e0>
    118e:	4a47      	ldr	r2, [pc, #284]	; (12ac <analogWrite+0x258>)
    1190:	6013      	str	r3, [r2, #0]
    1192:	f44f 7251 	mov.w	r2, #836	; 0x344
    1196:	4b46      	ldr	r3, [pc, #280]	; (12b0 <analogWrite+0x25c>)
    1198:	e04c      	b.n	1234 <analogWrite+0x1e0>
    119a:	4a46      	ldr	r2, [pc, #280]	; (12b4 <analogWrite+0x260>)
    119c:	6013      	str	r3, [r2, #0]
    119e:	f44f 7251 	mov.w	r2, #836	; 0x344
    11a2:	4b45      	ldr	r3, [pc, #276]	; (12b8 <analogWrite+0x264>)
    11a4:	e046      	b.n	1234 <analogWrite+0x1e0>
    11a6:	4a45      	ldr	r2, [pc, #276]	; (12bc <analogWrite+0x268>)
    11a8:	6013      	str	r3, [r2, #0]
    11aa:	f44f 7251 	mov.w	r2, #836	; 0x344
    11ae:	4b44      	ldr	r3, [pc, #272]	; (12c0 <analogWrite+0x26c>)
    11b0:	e040      	b.n	1234 <analogWrite+0x1e0>
    11b2:	4a44      	ldr	r2, [pc, #272]	; (12c4 <analogWrite+0x270>)
    11b4:	6013      	str	r3, [r2, #0]
    11b6:	f44f 7251 	mov.w	r2, #836	; 0x344
    11ba:	4b43      	ldr	r3, [pc, #268]	; (12c8 <analogWrite+0x274>)
    11bc:	e03a      	b.n	1234 <analogWrite+0x1e0>
    11be:	4a43      	ldr	r2, [pc, #268]	; (12cc <analogWrite+0x278>)
    11c0:	6013      	str	r3, [r2, #0]
    11c2:	f240 4244 	movw	r2, #1092	; 0x444
    11c6:	4b42      	ldr	r3, [pc, #264]	; (12d0 <analogWrite+0x27c>)
    11c8:	e034      	b.n	1234 <analogWrite+0x1e0>
    11ca:	4a42      	ldr	r2, [pc, #264]	; (12d4 <analogWrite+0x280>)
    11cc:	6013      	str	r3, [r2, #0]
    11ce:	f240 4244 	movw	r2, #1092	; 0x444
    11d2:	4b41      	ldr	r3, [pc, #260]	; (12d8 <analogWrite+0x284>)
    11d4:	e02e      	b.n	1234 <analogWrite+0x1e0>
    11d6:	4a41      	ldr	r2, [pc, #260]	; (12dc <analogWrite+0x288>)
    11d8:	6013      	str	r3, [r2, #0]
    11da:	f240 4244 	movw	r2, #1092	; 0x444
    11de:	4b40      	ldr	r3, [pc, #256]	; (12e0 <analogWrite+0x28c>)
    11e0:	e028      	b.n	1234 <analogWrite+0x1e0>
    11e2:	4a40      	ldr	r2, [pc, #256]	; (12e4 <analogWrite+0x290>)
    11e4:	6013      	str	r3, [r2, #0]
    11e6:	f240 4244 	movw	r2, #1092	; 0x444
    11ea:	4b3f      	ldr	r3, [pc, #252]	; (12e8 <analogWrite+0x294>)
    11ec:	e022      	b.n	1234 <analogWrite+0x1e0>
    11ee:	4a3f      	ldr	r2, [pc, #252]	; (12ec <analogWrite+0x298>)
    11f0:	6013      	str	r3, [r2, #0]
    11f2:	f44f 7251 	mov.w	r2, #836	; 0x344
    11f6:	4b3e      	ldr	r3, [pc, #248]	; (12f0 <analogWrite+0x29c>)
    11f8:	e01c      	b.n	1234 <analogWrite+0x1e0>
    11fa:	4a3e      	ldr	r2, [pc, #248]	; (12f4 <analogWrite+0x2a0>)
    11fc:	6013      	str	r3, [r2, #0]
    11fe:	f44f 7251 	mov.w	r2, #836	; 0x344
    1202:	4b3d      	ldr	r3, [pc, #244]	; (12f8 <analogWrite+0x2a4>)
    1204:	e016      	b.n	1234 <analogWrite+0x1e0>
    1206:	4a3d      	ldr	r2, [pc, #244]	; (12fc <analogWrite+0x2a8>)
    1208:	6013      	str	r3, [r2, #0]
    120a:	f44f 7251 	mov.w	r2, #836	; 0x344
    120e:	4b3c      	ldr	r3, [pc, #240]	; (1300 <analogWrite+0x2ac>)
    1210:	e010      	b.n	1234 <analogWrite+0x1e0>
    1212:	4a3c      	ldr	r2, [pc, #240]	; (1304 <analogWrite+0x2b0>)
    1214:	6013      	str	r3, [r2, #0]
    1216:	f44f 7251 	mov.w	r2, #836	; 0x344
    121a:	4b3b      	ldr	r3, [pc, #236]	; (1308 <analogWrite+0x2b4>)
    121c:	e00a      	b.n	1234 <analogWrite+0x1e0>
    121e:	4a3b      	ldr	r2, [pc, #236]	; (130c <analogWrite+0x2b8>)
    1220:	6013      	str	r3, [r2, #0]
    1222:	f240 6244 	movw	r2, #1604	; 0x644
    1226:	4b3a      	ldr	r3, [pc, #232]	; (1310 <analogWrite+0x2bc>)
    1228:	e004      	b.n	1234 <analogWrite+0x1e0>
    122a:	4a3a      	ldr	r2, [pc, #232]	; (1314 <analogWrite+0x2c0>)
    122c:	6013      	str	r3, [r2, #0]
    122e:	4b3a      	ldr	r3, [pc, #232]	; (1318 <analogWrite+0x2c4>)
    1230:	f240 6244 	movw	r2, #1604	; 0x644
    1234:	601a      	str	r2, [r3, #0]
    1236:	bd70      	pop	{r4, r5, r6, pc}
    1238:	2a7f      	cmp	r2, #127	; 0x7f
    123a:	4620      	mov	r0, r4
    123c:	bfd4      	ite	le
    123e:	2100      	movle	r1, #0
    1240:	2101      	movgt	r1, #1
    1242:	f7ff fe57 	bl	ef4 <digitalWrite>
    1246:	4620      	mov	r0, r4
    1248:	2101      	movs	r1, #1
    124a:	e8bd 4070 	ldmia.w	sp!, {r4, r5, r6, lr}
    124e:	f7ff be7f 	b.w	f50 <pinMode>
    1252:	bf00      	nop
    1254:	1fff0850 	.word	0x1fff0850
    1258:	40039008 	.word	0x40039008
    125c:	400b8008 	.word	0x400b8008
    1260:	400b9008 	.word	0x400b9008
    1264:	400c9008 	.word	0x400c9008
    1268:	40038008 	.word	0x40038008
    126c:	40038010 	.word	0x40038010
    1270:	4004b004 	.word	0x4004b004
    1274:	40038018 	.word	0x40038018
    1278:	4004b008 	.word	0x4004b008
    127c:	40038020 	.word	0x40038020
    1280:	4004b00c 	.word	0x4004b00c
    1284:	40038028 	.word	0x40038028
    1288:	4004b010 	.word	0x4004b010
    128c:	40038030 	.word	0x40038030
    1290:	4004c010 	.word	0x4004c010
    1294:	40038038 	.word	0x40038038
    1298:	4004c014 	.word	0x4004c014
    129c:	40038040 	.word	0x40038040
    12a0:	4004c018 	.word	0x4004c018
    12a4:	40038048 	.word	0x40038048
    12a8:	4004c01c 	.word	0x4004c01c
    12ac:	40039010 	.word	0x40039010
    12b0:	40049030 	.word	0x40049030
    12b4:	40039018 	.word	0x40039018
    12b8:	40049034 	.word	0x40049034
    12bc:	400b8010 	.word	0x400b8010
    12c0:	4004a048 	.word	0x4004a048
    12c4:	400b8018 	.word	0x400b8018
    12c8:	4004a04c 	.word	0x4004a04c
    12cc:	400b9010 	.word	0x400b9010
    12d0:	4004c000 	.word	0x4004c000
    12d4:	400b9018 	.word	0x400b9018
    12d8:	4004c004 	.word	0x4004c004
    12dc:	400b9020 	.word	0x400b9020
    12e0:	4004c008 	.word	0x4004c008
    12e4:	400b9028 	.word	0x400b9028
    12e8:	4004c00c 	.word	0x4004c00c
    12ec:	400b9030 	.word	0x400b9030
    12f0:	4004b020 	.word	0x4004b020
    12f4:	400b9038 	.word	0x400b9038
    12f8:	4004b024 	.word	0x4004b024
    12fc:	400b9040 	.word	0x400b9040
    1300:	4004b028 	.word	0x4004b028
    1304:	400b9048 	.word	0x400b9048
    1308:	4004b02c 	.word	0x4004b02c
    130c:	400c9010 	.word	0x400c9010
    1310:	4004a000 	.word	0x4004a000
    1314:	400c9018 	.word	0x400c9018
    1318:	4004a004 	.word	0x4004a004

0000131c <shiftOut_lsbFirst>:
    131c:	e92d 41f0 	stmdb	sp!, {r4, r5, r6, r7, r8, lr}
    1320:	4607      	mov	r7, r0
    1322:	460e      	mov	r6, r1
    1324:	4690      	mov	r8, r2
    1326:	2408      	movs	r4, #8
    1328:	2501      	movs	r5, #1
    132a:	ea05 0108 	and.w	r1, r5, r8
    132e:	4638      	mov	r0, r7
    1330:	f7ff fde0 	bl	ef4 <digitalWrite>
    1334:	4630      	mov	r0, r6
    1336:	2101      	movs	r1, #1
    1338:	f7ff fddc 	bl	ef4 <digitalWrite>
    133c:	4630      	mov	r0, r6
    133e:	2100      	movs	r1, #0
    1340:	f7ff fdd8 	bl	ef4 <digitalWrite>
    1344:	006d      	lsls	r5, r5, #1
    1346:	3c01      	subs	r4, #1
    1348:	b2ed      	uxtb	r5, r5
    134a:	d1ee      	bne.n	132a <shiftOut_lsbFirst+0xe>
    134c:	e8bd 81f0 	ldmia.w	sp!, {r4, r5, r6, r7, r8, pc}

00001350 <shiftOut_msbFirst>:
    1350:	e92d 41f0 	stmdb	sp!, {r4, r5, r6, r7, r8, lr}
    1354:	4607      	mov	r7, r0
    1356:	460e      	mov	r6, r1
    1358:	4690      	mov	r8, r2
    135a:	2408      	movs	r4, #8
    135c:	2580      	movs	r5, #128	; 0x80
    135e:	ea05 0108 	and.w	r1, r5, r8
    1362:	4638      	mov	r0, r7
    1364:	f7ff fdc6 	bl	ef4 <digitalWrite>
    1368:	4630      	mov	r0, r6
    136a:	2101      	movs	r1, #1
    136c:	f7ff fdc2 	bl	ef4 <digitalWrite>
    1370:	4630      	mov	r0, r6
    1372:	2100      	movs	r1, #0
    1374:	f7ff fdbe 	bl	ef4 <digitalWrite>
    1378:	3c01      	subs	r4, #1
    137a:	ea4f 0555 	mov.w	r5, r5, lsr #1
    137e:	d1ee      	bne.n	135e <shiftOut_msbFirst+0xe>
    1380:	e8bd 81f0 	ldmia.w	sp!, {r4, r5, r6, r7, r8, pc}

00001384 <_shiftOut>:
    1384:	b912      	cbnz	r2, 138c <_shiftOut+0x8>
    1386:	461a      	mov	r2, r3
    1388:	f7ff bfc8 	b.w	131c <shiftOut_lsbFirst>
    138c:	461a      	mov	r2, r3
    138e:	f7ff bfdf 	b.w	1350 <shiftOut_msbFirst>

00001392 <shiftIn_lsbFirst>:
    1392:	e92d 41f0 	stmdb	sp!, {r4, r5, r6, r7, r8, lr}
    1396:	4680      	mov	r8, r0
    1398:	460f      	mov	r7, r1
    139a:	2408      	movs	r4, #8
    139c:	2500      	movs	r5, #0
    139e:	2601      	movs	r6, #1
    13a0:	4638      	mov	r0, r7
    13a2:	2101      	movs	r1, #1
    13a4:	f7ff fda6 	bl	ef4 <digitalWrite>
    13a8:	4640      	mov	r0, r8
    13aa:	f7ff fdc3 	bl	f34 <digitalRead>
    13ae:	b100      	cbz	r0, 13b2 <shiftIn_lsbFirst+0x20>
    13b0:	4335      	orrs	r5, r6
    13b2:	4638      	mov	r0, r7
    13b4:	2100      	movs	r1, #0
    13b6:	f7ff fd9d 	bl	ef4 <digitalWrite>
    13ba:	0076      	lsls	r6, r6, #1
    13bc:	3c01      	subs	r4, #1
    13be:	b2f6      	uxtb	r6, r6
    13c0:	d1ee      	bne.n	13a0 <shiftIn_lsbFirst+0xe>
    13c2:	4628      	mov	r0, r5
    13c4:	e8bd 81f0 	ldmia.w	sp!, {r4, r5, r6, r7, r8, pc}

000013c8 <shiftIn_msbFirst>:
    13c8:	e92d 41f0 	stmdb	sp!, {r4, r5, r6, r7, r8, lr}
    13cc:	4680      	mov	r8, r0
    13ce:	460f      	mov	r7, r1
    13d0:	2408      	movs	r4, #8
    13d2:	2500      	movs	r5, #0
    13d4:	2680      	movs	r6, #128	; 0x80
    13d6:	4638      	mov	r0, r7
    13d8:	2101      	movs	r1, #1
    13da:	f7ff fd8b 	bl	ef4 <digitalWrite>
    13de:	4640      	mov	r0, r8
    13e0:	f7ff fda8 	bl	f34 <digitalRead>
    13e4:	b100      	cbz	r0, 13e8 <shiftIn_msbFirst+0x20>
    13e6:	4335      	orrs	r5, r6
    13e8:	4638      	mov	r0, r7
    13ea:	2100      	movs	r1, #0
    13ec:	f7ff fd82 	bl	ef4 <digitalWrite>
    13f0:	3c01      	subs	r4, #1
    13f2:	ea4f 0656 	mov.w	r6, r6, lsr #1
    13f6:	d1ee      	bne.n	13d6 <shiftIn_msbFirst+0xe>
    13f8:	4628      	mov	r0, r5
    13fa:	e8bd 81f0 	ldmia.w	sp!, {r4, r5, r6, r7, r8, pc}

000013fe <_shiftIn>:
    13fe:	b90a      	cbnz	r2, 1404 <_shiftIn+0x6>
    1400:	f7ff bfc7 	b.w	1392 <shiftIn_lsbFirst>
    1404:	f7ff bfe0 	b.w	13c8 <shiftIn_msbFirst>

00001408 <micros>:
    1408:	b672      	cpsid	i
    140a:	4b0b      	ldr	r3, [pc, #44]	; (1438 <micros+0x30>)
    140c:	490b      	ldr	r1, [pc, #44]	; (143c <micros+0x34>)
    140e:	681a      	ldr	r2, [r3, #0]
    1410:	4b0b      	ldr	r3, [pc, #44]	; (1440 <micros+0x38>)
    1412:	681b      	ldr	r3, [r3, #0]
    1414:	6809      	ldr	r1, [r1, #0]
    1416:	b662      	cpsie	i
    1418:	0149      	lsls	r1, r1, #5
    141a:	d502      	bpl.n	1422 <micros+0x1a>
    141c:	2a32      	cmp	r2, #50	; 0x32
    141e:	bf88      	it	hi
    1420:	3301      	addhi	r3, #1
    1422:	f5c2 32ea 	rsb	r2, r2, #119808	; 0x1d400
    1426:	2178      	movs	r1, #120	; 0x78
    1428:	32bf      	adds	r2, #191	; 0xbf
    142a:	fbb2 f2f1 	udiv	r2, r2, r1
    142e:	f44f 707a 	mov.w	r0, #1000	; 0x3e8
    1432:	fb00 2003 	mla	r0, r0, r3, r2
    1436:	4770      	bx	lr
    1438:	e000e018 	.word	0xe000e018
    143c:	e000ed04 	.word	0xe000ed04
    1440:	1fff0b7c 	.word	0x1fff0b7c

00001444 <delay>:
    1444:	b538      	push	{r3, r4, r5, lr}
    1446:	4604      	mov	r4, r0
    1448:	f7ff ffde 	bl	1408 <micros>
    144c:	4605      	mov	r5, r0
    144e:	b924      	cbnz	r4, 145a <delay+0x16>
    1450:	bd38      	pop	{r3, r4, r5, pc}
    1452:	3c01      	subs	r4, #1
    1454:	d00a      	beq.n	146c <delay+0x28>
    1456:	f505 757a 	add.w	r5, r5, #1000	; 0x3e8
    145a:	f7ff ffd5 	bl	1408 <micros>
    145e:	1b40      	subs	r0, r0, r5
    1460:	f5b0 7f7a 	cmp.w	r0, #1000	; 0x3e8
    1464:	d2f5      	bcs.n	1452 <delay+0xe>
    1466:	f004 f8a3 	bl	55b0 <yield>
    146a:	e7f6      	b.n	145a <delay+0x16>
    146c:	bd38      	pop	{r3, r4, r5, pc}

0000146e <_init_Teensyduino_internal_>:
    146e:	4b36      	ldr	r3, [pc, #216]	; (1548 <_init_Teensyduino_internal_+0xda>)
    1470:	4936      	ldr	r1, [pc, #216]	; (154c <_init_Teensyduino_internal_+0xde>)
    1472:	f04f 6200 	mov.w	r2, #134217728	; 0x8000000
    1476:	b570      	push	{r4, r5, r6, lr}
    1478:	601a      	str	r2, [r3, #0]
    147a:	f04f 5280 	mov.w	r2, #268435456	; 0x10000000
    147e:	601a      	str	r2, [r3, #0]
    1480:	f04f 5200 	mov.w	r2, #536870912	; 0x20000000
    1484:	601a      	str	r2, [r3, #0]
    1486:	f04f 4280 	mov.w	r2, #1073741824	; 0x40000000
    148a:	601a      	str	r2, [r3, #0]
    148c:	f04f 4200 	mov.w	r2, #2147483648	; 0x80000000
    1490:	601a      	str	r2, [r3, #0]
    1492:	4b2f      	ldr	r3, [pc, #188]	; (1550 <_init_Teensyduino_internal_+0xe2>)
    1494:	4d2f      	ldr	r5, [pc, #188]	; (1554 <_init_Teensyduino_internal_+0xe6>)
    1496:	4c30      	ldr	r4, [pc, #192]	; (1558 <_init_Teensyduino_internal_+0xea>)
    1498:	4e30      	ldr	r6, [pc, #192]	; (155c <_init_Teensyduino_internal_+0xee>)
    149a:	2200      	movs	r2, #0
    149c:	f64e 70ff 	movw	r0, #61439	; 0xefff
    14a0:	601a      	str	r2, [r3, #0]
    14a2:	6058      	str	r0, [r3, #4]
    14a4:	2328      	movs	r3, #40	; 0x28
    14a6:	600b      	str	r3, [r1, #0]
    14a8:	608b      	str	r3, [r1, #8]
    14aa:	610b      	str	r3, [r1, #16]
    14ac:	618b      	str	r3, [r1, #24]
    14ae:	620b      	str	r3, [r1, #32]
    14b0:	628b      	str	r3, [r1, #40]	; 0x28
    14b2:	630b      	str	r3, [r1, #48]	; 0x30
    14b4:	638b      	str	r3, [r1, #56]	; 0x38
    14b6:	3110      	adds	r1, #16
    14b8:	f501 2101 	add.w	r1, r1, #528384	; 0x81000
    14bc:	602b      	str	r3, [r5, #0]
    14be:	6023      	str	r3, [r4, #0]
    14c0:	600b      	str	r3, [r1, #0]
    14c2:	608b      	str	r3, [r1, #8]
    14c4:	610b      	str	r3, [r1, #16]
    14c6:	618b      	str	r3, [r1, #24]
    14c8:	620b      	str	r3, [r1, #32]
    14ca:	628b      	str	r3, [r1, #40]	; 0x28
    14cc:	2109      	movs	r1, #9
    14ce:	6031      	str	r1, [r6, #0]
    14d0:	f506 5680 	add.w	r6, r6, #4096	; 0x1000
    14d4:	3604      	adds	r6, #4
    14d6:	6032      	str	r2, [r6, #0]
    14d8:	6070      	str	r0, [r6, #4]
    14da:	60b3      	str	r3, [r6, #8]
    14dc:	6133      	str	r3, [r6, #16]
    14de:	f846 1c04 	str.w	r1, [r6, #-4]
    14e2:	f506 26fe 	add.w	r6, r6, #520192	; 0x7f000
    14e6:	6032      	str	r2, [r6, #0]
    14e8:	6070      	str	r0, [r6, #4]
    14ea:	60b3      	str	r3, [r6, #8]
    14ec:	6133      	str	r3, [r6, #16]
    14ee:	f846 1c04 	str.w	r1, [r6, #-4]
    14f2:	f506 5680 	add.w	r6, r6, #4096	; 0x1000
    14f6:	6032      	str	r2, [r6, #0]
    14f8:	6070      	str	r0, [r6, #4]
    14fa:	4819      	ldr	r0, [pc, #100]	; (1560 <_init_Teensyduino_internal_+0xf2>)
    14fc:	602b      	str	r3, [r5, #0]
    14fe:	6023      	str	r3, [r4, #0]
    1500:	6001      	str	r1, [r0, #0]
    1502:	4918      	ldr	r1, [pc, #96]	; (1564 <_init_Teensyduino_internal_+0xf6>)
    1504:	6808      	ldr	r0, [r1, #0]
    1506:	f440 7000 	orr.w	r0, r0, #512	; 0x200
    150a:	6008      	str	r0, [r1, #0]
    150c:	f851 0c28 	ldr.w	r0, [r1, #-40]
    1510:	f040 7000 	orr.w	r0, r0, #33554432	; 0x2000000
    1514:	f841 0c28 	str.w	r0, [r1, #-40]
    1518:	3928      	subs	r1, #40	; 0x28
    151a:	f501 2101 	add.w	r1, r1, #528384	; 0x81000
    151e:	600a      	str	r2, [r1, #0]
    1520:	4a11      	ldr	r2, [pc, #68]	; (1568 <_init_Teensyduino_internal_+0xfa>)
    1522:	f647 71ff 	movw	r1, #32767	; 0x7fff
    1526:	6011      	str	r1, [r2, #0]
    1528:	6053      	str	r3, [r2, #4]
    152a:	60d3      	str	r3, [r2, #12]
    152c:	4b0f      	ldr	r3, [pc, #60]	; (156c <_init_Teensyduino_internal_+0xfe>)
    152e:	2208      	movs	r2, #8
    1530:	601a      	str	r2, [r3, #0]
    1532:	f7ff f809 	bl	548 <analog_init>
    1536:	f44f 70c8 	mov.w	r0, #400	; 0x190
    153a:	f7ff ff83 	bl	1444 <delay>
    153e:	e8bd 4070 	ldmia.w	sp!, {r4, r5, r6, lr}
    1542:	f002 bc4f 	b.w	3de4 <usb_init>
    1546:	bf00      	nop
    1548:	e000e104 	.word	0xe000e104
    154c:	4003800c 	.word	0x4003800c
    1550:	40038004 	.word	0x40038004
    1554:	400b900c 	.word	0x400b900c
    1558:	400b9014 	.word	0x400b9014
    155c:	40038000 	.word	0x40038000
    1560:	400b9000 	.word	0x400b9000
    1564:	4004802c 	.word	0x4004802c
    1568:	400c9008 	.word	0x400c9008
    156c:	400c9000 	.word	0x400c9000

00001570 <pulseIn_high>:
    1570:	b570      	push	{r4, r5, r6, lr}
    1572:	2412      	movs	r4, #18
    1574:	4605      	mov	r5, r0
    1576:	434c      	muls	r4, r1
    1578:	782b      	ldrb	r3, [r5, #0]
    157a:	b12b      	cbz	r3, 1588 <pulseIn_high+0x18>
    157c:	3c01      	subs	r4, #1
    157e:	d1fb      	bne.n	1578 <pulseIn_high+0x8>
    1580:	2000      	movs	r0, #0
    1582:	bd70      	pop	{r4, r5, r6, pc}
    1584:	3c01      	subs	r4, #1
    1586:	d0fb      	beq.n	1580 <pulseIn_high+0x10>
    1588:	782b      	ldrb	r3, [r5, #0]
    158a:	2b00      	cmp	r3, #0
    158c:	d0fa      	beq.n	1584 <pulseIn_high+0x14>
    158e:	f7ff ff3b 	bl	1408 <micros>
    1592:	4606      	mov	r6, r0
    1594:	782b      	ldrb	r3, [r5, #0]
    1596:	b113      	cbz	r3, 159e <pulseIn_high+0x2e>
    1598:	3c01      	subs	r4, #1
    159a:	d1fb      	bne.n	1594 <pulseIn_high+0x24>
    159c:	e7f0      	b.n	1580 <pulseIn_high+0x10>
    159e:	f7ff ff33 	bl	1408 <micros>
    15a2:	1b80      	subs	r0, r0, r6
    15a4:	bd70      	pop	{r4, r5, r6, pc}

000015a6 <pulseIn_low>:
    15a6:	b570      	push	{r4, r5, r6, lr}
    15a8:	2412      	movs	r4, #18
    15aa:	4605      	mov	r5, r0
    15ac:	434c      	muls	r4, r1
    15ae:	782b      	ldrb	r3, [r5, #0]
    15b0:	b92b      	cbnz	r3, 15be <pulseIn_low+0x18>
    15b2:	3c01      	subs	r4, #1
    15b4:	d1fb      	bne.n	15ae <pulseIn_low+0x8>
    15b6:	2000      	movs	r0, #0
    15b8:	bd70      	pop	{r4, r5, r6, pc}
    15ba:	3c01      	subs	r4, #1
    15bc:	d0fb      	beq.n	15b6 <pulseIn_low+0x10>
    15be:	782b      	ldrb	r3, [r5, #0]
    15c0:	2b00      	cmp	r3, #0
    15c2:	d1fa      	bne.n	15ba <pulseIn_low+0x14>
    15c4:	f7ff ff20 	bl	1408 <micros>
    15c8:	4606      	mov	r6, r0
    15ca:	782b      	ldrb	r3, [r5, #0]
    15cc:	b913      	cbnz	r3, 15d4 <pulseIn_low+0x2e>
    15ce:	3c01      	subs	r4, #1
    15d0:	d1fb      	bne.n	15ca <pulseIn_low+0x24>
    15d2:	e7f0      	b.n	15b6 <pulseIn_low+0x10>
    15d4:	f7ff ff18 	bl	1408 <micros>
    15d8:	1b80      	subs	r0, r0, r6
    15da:	bd70      	pop	{r4, r5, r6, pc}

000015dc <pulseIn>:
    15dc:	283f      	cmp	r0, #63	; 0x3f
    15de:	d80b      	bhi.n	15f8 <pulseIn+0x1c>
    15e0:	4b06      	ldr	r3, [pc, #24]	; (15fc <pulseIn+0x20>)
    15e2:	f853 0030 	ldr.w	r0, [r3, r0, lsl #3]
    15e6:	f500 7000 	add.w	r0, r0, #512	; 0x200
    15ea:	b111      	cbz	r1, 15f2 <pulseIn+0x16>
    15ec:	4611      	mov	r1, r2
    15ee:	f7ff bfbf 	b.w	1570 <pulseIn_high>
    15f2:	4611      	mov	r1, r2
    15f4:	f7ff bfd7 	b.w	15a6 <pulseIn_low>
    15f8:	2000      	movs	r0, #0
    15fa:	4770      	bx	lr
    15fc:	00009ec4 	.word	0x00009ec4

00001600 <serial_begin>:
    1600:	4b26      	ldr	r3, [pc, #152]	; (169c <serial_begin+0x9c>)
    1602:	681a      	ldr	r2, [r3, #0]
    1604:	f442 6280 	orr.w	r2, r2, #1024	; 0x400
    1608:	601a      	str	r2, [r3, #0]
    160a:	4b25      	ldr	r3, [pc, #148]	; (16a0 <serial_begin+0xa0>)
    160c:	2200      	movs	r2, #0
    160e:	701a      	strb	r2, [r3, #0]
    1610:	705a      	strb	r2, [r3, #1]
    1612:	709a      	strb	r2, [r3, #2]
    1614:	70da      	strb	r2, [r3, #3]
    1616:	711a      	strb	r2, [r3, #4]
    1618:	795b      	ldrb	r3, [r3, #5]
    161a:	2b15      	cmp	r3, #21
    161c:	d006      	beq.n	162c <serial_begin+0x2c>
    161e:	2b1b      	cmp	r3, #27
    1620:	d008      	beq.n	1634 <serial_begin+0x34>
    1622:	b95b      	cbnz	r3, 163c <serial_begin+0x3c>
    1624:	f240 3213 	movw	r2, #787	; 0x313
    1628:	4b1e      	ldr	r3, [pc, #120]	; (16a4 <serial_begin+0xa4>)
    162a:	e006      	b.n	163a <serial_begin+0x3a>
    162c:	f240 3213 	movw	r2, #787	; 0x313
    1630:	4b1d      	ldr	r3, [pc, #116]	; (16a8 <serial_begin+0xa8>)
    1632:	e002      	b.n	163a <serial_begin+0x3a>
    1634:	4b1d      	ldr	r3, [pc, #116]	; (16ac <serial_begin+0xac>)
    1636:	f240 3213 	movw	r2, #787	; 0x313
    163a:	601a      	str	r2, [r3, #0]
    163c:	4b1c      	ldr	r3, [pc, #112]	; (16b0 <serial_begin+0xb0>)
    163e:	781b      	ldrb	r3, [r3, #0]
    1640:	2b05      	cmp	r3, #5
    1642:	d007      	beq.n	1654 <serial_begin+0x54>
    1644:	2b1a      	cmp	r3, #26
    1646:	d009      	beq.n	165c <serial_begin+0x5c>
    1648:	2b01      	cmp	r3, #1
    164a:	d10b      	bne.n	1664 <serial_begin+0x64>
    164c:	f44f 7251 	mov.w	r2, #836	; 0x344
    1650:	4b18      	ldr	r3, [pc, #96]	; (16b4 <serial_begin+0xb4>)
    1652:	e006      	b.n	1662 <serial_begin+0x62>
    1654:	f44f 7251 	mov.w	r2, #836	; 0x344
    1658:	4b17      	ldr	r3, [pc, #92]	; (16b8 <serial_begin+0xb8>)
    165a:	e002      	b.n	1662 <serial_begin+0x62>
    165c:	4b17      	ldr	r3, [pc, #92]	; (16bc <serial_begin+0xbc>)
    165e:	f44f 7251 	mov.w	r2, #836	; 0x344
    1662:	601a      	str	r2, [r3, #0]
    1664:	4b16      	ldr	r3, [pc, #88]	; (16c0 <serial_begin+0xc0>)
    1666:	f3c0 3244 	ubfx	r2, r0, #13, #5
    166a:	701a      	strb	r2, [r3, #0]
    166c:	f3c0 1247 	ubfx	r2, r0, #5, #8
    1670:	705a      	strb	r2, [r3, #1]
    1672:	f000 001f 	and.w	r0, r0, #31
    1676:	2204      	movs	r2, #4
    1678:	2102      	movs	r1, #2
    167a:	7298      	strb	r0, [r3, #10]
    167c:	709a      	strb	r2, [r3, #2]
    167e:	74d9      	strb	r1, [r3, #19]
    1680:	755a      	strb	r2, [r3, #21]
    1682:	2288      	movs	r2, #136	; 0x88
    1684:	741a      	strb	r2, [r3, #16]
    1686:	223c      	movs	r2, #60	; 0x3c
    1688:	70da      	strb	r2, [r3, #3]
    168a:	4b0e      	ldr	r3, [pc, #56]	; (16c4 <serial_begin+0xc4>)
    168c:	2240      	movs	r2, #64	; 0x40
    168e:	701a      	strb	r2, [r3, #0]
    1690:	f2a3 331f 	subw	r3, r3, #799	; 0x31f
    1694:	f04f 4200 	mov.w	r2, #2147483648	; 0x80000000
    1698:	601a      	str	r2, [r3, #0]
    169a:	4770      	bx	lr
    169c:	40048034 	.word	0x40048034
    16a0:	1fff0b80 	.word	0x1fff0b80
    16a4:	4004a040 	.word	0x4004a040
    16a8:	4004c018 	.word	0x4004c018
    16ac:	4004903c 	.word	0x4004903c
    16b0:	1fff0a08 	.word	0x1fff0a08
    16b4:	4004a044 	.word	0x4004a044
    16b8:	4004c01c 	.word	0x4004c01c
    16bc:	40049038 	.word	0x40049038
    16c0:	4006a000 	.word	0x4006a000
    16c4:	e000e41f 	.word	0xe000e41f

000016c8 <serial_format>:
    16c8:	4a19      	ldr	r2, [pc, #100]	; (1730 <serial_format+0x68>)
    16ca:	7893      	ldrb	r3, [r2, #2]
    16cc:	f000 0103 	and.w	r1, r0, #3
    16d0:	f003 03ec 	and.w	r3, r3, #236	; 0xec
    16d4:	430b      	orrs	r3, r1
    16d6:	0741      	lsls	r1, r0, #29
    16d8:	bf48      	it	mi
    16da:	f043 0310 	orrmi.w	r3, r3, #16
    16de:	7093      	strb	r3, [r2, #2]
    16e0:	f000 030f 	and.w	r3, r0, #15
    16e4:	2b04      	cmp	r3, #4
    16e6:	4912      	ldr	r1, [pc, #72]	; (1730 <serial_format+0x68>)
    16e8:	d103      	bne.n	16f2 <serial_format+0x2a>
    16ea:	798b      	ldrb	r3, [r1, #6]
    16ec:	f043 0340 	orr.w	r3, r3, #64	; 0x40
    16f0:	718b      	strb	r3, [r1, #6]
    16f2:	7952      	ldrb	r2, [r2, #5]
    16f4:	4b0e      	ldr	r3, [pc, #56]	; (1730 <serial_format+0x68>)
    16f6:	f002 02ef 	and.w	r2, r2, #239	; 0xef
    16fa:	06c1      	lsls	r1, r0, #27
    16fc:	bf48      	it	mi
    16fe:	f042 0210 	orrmi.w	r2, r2, #16
    1702:	715a      	strb	r2, [r3, #5]
    1704:	799a      	ldrb	r2, [r3, #6]
    1706:	f010 0f20 	tst.w	r0, #32
    170a:	f002 02ef 	and.w	r2, r2, #239	; 0xef
    170e:	4619      	mov	r1, r3
    1710:	bf18      	it	ne
    1712:	f042 0210 	orrne.w	r2, r2, #16
    1716:	718a      	strb	r2, [r1, #6]
    1718:	05c2      	lsls	r2, r0, #23
    171a:	4b05      	ldr	r3, [pc, #20]	; (1730 <serial_format+0x68>)
    171c:	d506      	bpl.n	172c <serial_format+0x64>
    171e:	785a      	ldrb	r2, [r3, #1]
    1720:	7819      	ldrb	r1, [r3, #0]
    1722:	b2d2      	uxtb	r2, r2
    1724:	f041 0120 	orr.w	r1, r1, #32
    1728:	7019      	strb	r1, [r3, #0]
    172a:	705a      	strb	r2, [r3, #1]
    172c:	4770      	bx	lr
    172e:	bf00      	nop
    1730:	4006a000 	.word	0x4006a000

00001734 <serial_end>:
    1734:	b508      	push	{r3, lr}
    1736:	4b0f      	ldr	r3, [pc, #60]	; (1774 <serial_end+0x40>)
    1738:	681b      	ldr	r3, [r3, #0]
    173a:	055b      	lsls	r3, r3, #21
    173c:	d400      	bmi.n	1740 <serial_end+0xc>
    173e:	bd08      	pop	{r3, pc}
    1740:	4b0d      	ldr	r3, [pc, #52]	; (1778 <serial_end+0x44>)
    1742:	7919      	ldrb	r1, [r3, #4]
    1744:	f001 02ff 	and.w	r2, r1, #255	; 0xff
    1748:	b111      	cbz	r1, 1750 <serial_end+0x1c>
    174a:	f003 ff31 	bl	55b0 <yield>
    174e:	e7f7      	b.n	1740 <serial_end+0xc>
    1750:	490a      	ldr	r1, [pc, #40]	; (177c <serial_end+0x48>)
    1752:	f04f 4000 	mov.w	r0, #2147483648	; 0x80000000
    1756:	6008      	str	r0, [r1, #0]
    1758:	4909      	ldr	r1, [pc, #36]	; (1780 <serial_end+0x4c>)
    175a:	480a      	ldr	r0, [pc, #40]	; (1784 <serial_end+0x50>)
    175c:	70ca      	strb	r2, [r1, #3]
    175e:	f240 1103 	movw	r1, #259	; 0x103
    1762:	6001      	str	r1, [r0, #0]
    1764:	6041      	str	r1, [r0, #4]
    1766:	701a      	strb	r2, [r3, #0]
    1768:	705a      	strb	r2, [r3, #1]
    176a:	689b      	ldr	r3, [r3, #8]
    176c:	b10b      	cbz	r3, 1772 <serial_end+0x3e>
    176e:	2201      	movs	r2, #1
    1770:	701a      	strb	r2, [r3, #0]
    1772:	bd08      	pop	{r3, pc}
    1774:	40048034 	.word	0x40048034
    1778:	1fff0b80 	.word	0x1fff0b80
    177c:	e000e180 	.word	0xe000e180
    1780:	4006a000 	.word	0x4006a000
    1784:	4004a040 	.word	0x4004a040

00001788 <serial_set_transmit_pin>:
    1788:	b570      	push	{r4, r5, r6, lr}
    178a:	4604      	mov	r4, r0
    178c:	4d09      	ldr	r5, [pc, #36]	; (17b4 <serial_set_transmit_pin+0x2c>)
    178e:	792b      	ldrb	r3, [r5, #4]
    1790:	f003 06ff 	and.w	r6, r3, #255	; 0xff
    1794:	2b00      	cmp	r3, #0
    1796:	d1f9      	bne.n	178c <serial_set_transmit_pin+0x4>
    1798:	4620      	mov	r0, r4
    179a:	2101      	movs	r1, #1
    179c:	f7ff fbd8 	bl	f50 <pinMode>
    17a0:	4620      	mov	r0, r4
    17a2:	4631      	mov	r1, r6
    17a4:	f7ff fba6 	bl	ef4 <digitalWrite>
    17a8:	4b03      	ldr	r3, [pc, #12]	; (17b8 <serial_set_transmit_pin+0x30>)
    17aa:	f853 3034 	ldr.w	r3, [r3, r4, lsl #3]
    17ae:	60eb      	str	r3, [r5, #12]
    17b0:	bd70      	pop	{r4, r5, r6, pc}
    17b2:	bf00      	nop
    17b4:	1fff0b80 	.word	0x1fff0b80
    17b8:	00009ec4 	.word	0x00009ec4

000017bc <serial_set_tx>:
    17bc:	b510      	push	{r4, lr}
    17be:	b109      	cbz	r1, 17c4 <serial_set_tx+0x8>
    17c0:	f040 0080 	orr.w	r0, r0, #128	; 0x80
    17c4:	4a19      	ldr	r2, [pc, #100]	; (182c <serial_set_tx+0x70>)
    17c6:	7813      	ldrb	r3, [r2, #0]
    17c8:	4298      	cmp	r0, r3
    17ca:	4614      	mov	r4, r2
    17cc:	d02d      	beq.n	182a <serial_set_tx+0x6e>
    17ce:	4a18      	ldr	r2, [pc, #96]	; (1830 <serial_set_tx+0x74>)
    17d0:	6812      	ldr	r2, [r2, #0]
    17d2:	0552      	lsls	r2, r2, #21
    17d4:	d528      	bpl.n	1828 <serial_set_tx+0x6c>
    17d6:	f003 037f 	and.w	r3, r3, #127	; 0x7f
    17da:	2b05      	cmp	r3, #5
    17dc:	d006      	beq.n	17ec <serial_set_tx+0x30>
    17de:	2b1a      	cmp	r3, #26
    17e0:	d007      	beq.n	17f2 <serial_set_tx+0x36>
    17e2:	2b01      	cmp	r3, #1
    17e4:	d108      	bne.n	17f8 <serial_set_tx+0x3c>
    17e6:	2200      	movs	r2, #0
    17e8:	4b12      	ldr	r3, [pc, #72]	; (1834 <serial_set_tx+0x78>)
    17ea:	e004      	b.n	17f6 <serial_set_tx+0x3a>
    17ec:	2200      	movs	r2, #0
    17ee:	4b12      	ldr	r3, [pc, #72]	; (1838 <serial_set_tx+0x7c>)
    17f0:	e001      	b.n	17f6 <serial_set_tx+0x3a>
    17f2:	4b12      	ldr	r3, [pc, #72]	; (183c <serial_set_tx+0x80>)
    17f4:	2200      	movs	r2, #0
    17f6:	601a      	str	r2, [r3, #0]
    17f8:	2900      	cmp	r1, #0
    17fa:	f000 027f 	and.w	r2, r0, #127	; 0x7f
    17fe:	bf0c      	ite	eq
    1800:	2344      	moveq	r3, #68	; 0x44
    1802:	2360      	movne	r3, #96	; 0x60
    1804:	2a05      	cmp	r2, #5
    1806:	d007      	beq.n	1818 <serial_set_tx+0x5c>
    1808:	2a1a      	cmp	r2, #26
    180a:	d009      	beq.n	1820 <serial_set_tx+0x64>
    180c:	2a01      	cmp	r2, #1
    180e:	d10b      	bne.n	1828 <serial_set_tx+0x6c>
    1810:	f443 7340 	orr.w	r3, r3, #768	; 0x300
    1814:	4a07      	ldr	r2, [pc, #28]	; (1834 <serial_set_tx+0x78>)
    1816:	e006      	b.n	1826 <serial_set_tx+0x6a>
    1818:	f443 7340 	orr.w	r3, r3, #768	; 0x300
    181c:	4a06      	ldr	r2, [pc, #24]	; (1838 <serial_set_tx+0x7c>)
    181e:	e002      	b.n	1826 <serial_set_tx+0x6a>
    1820:	4a06      	ldr	r2, [pc, #24]	; (183c <serial_set_tx+0x80>)
    1822:	f443 7340 	orr.w	r3, r3, #768	; 0x300
    1826:	6013      	str	r3, [r2, #0]
    1828:	7020      	strb	r0, [r4, #0]
    182a:	bd10      	pop	{r4, pc}
    182c:	1fff0a08 	.word	0x1fff0a08
    1830:	40048034 	.word	0x40048034
    1834:	4004a044 	.word	0x4004a044
    1838:	4004c01c 	.word	0x4004c01c
    183c:	40049038 	.word	0x40049038

00001840 <serial_set_rx>:
    1840:	4a14      	ldr	r2, [pc, #80]	; (1894 <serial_set_rx+0x54>)
    1842:	7953      	ldrb	r3, [r2, #5]
    1844:	4298      	cmp	r0, r3
    1846:	d023      	beq.n	1890 <serial_set_rx+0x50>
    1848:	4913      	ldr	r1, [pc, #76]	; (1898 <serial_set_rx+0x58>)
    184a:	6809      	ldr	r1, [r1, #0]
    184c:	0549      	lsls	r1, r1, #21
    184e:	d51e      	bpl.n	188e <serial_set_rx+0x4e>
    1850:	2b15      	cmp	r3, #21
    1852:	d005      	beq.n	1860 <serial_set_rx+0x20>
    1854:	2b1b      	cmp	r3, #27
    1856:	d006      	beq.n	1866 <serial_set_rx+0x26>
    1858:	b943      	cbnz	r3, 186c <serial_set_rx+0x2c>
    185a:	4910      	ldr	r1, [pc, #64]	; (189c <serial_set_rx+0x5c>)
    185c:	600b      	str	r3, [r1, #0]
    185e:	e005      	b.n	186c <serial_set_rx+0x2c>
    1860:	2100      	movs	r1, #0
    1862:	4b0f      	ldr	r3, [pc, #60]	; (18a0 <serial_set_rx+0x60>)
    1864:	e001      	b.n	186a <serial_set_rx+0x2a>
    1866:	4b0f      	ldr	r3, [pc, #60]	; (18a4 <serial_set_rx+0x64>)
    1868:	2100      	movs	r1, #0
    186a:	6019      	str	r1, [r3, #0]
    186c:	2815      	cmp	r0, #21
    186e:	d006      	beq.n	187e <serial_set_rx+0x3e>
    1870:	281b      	cmp	r0, #27
    1872:	d008      	beq.n	1886 <serial_set_rx+0x46>
    1874:	b958      	cbnz	r0, 188e <serial_set_rx+0x4e>
    1876:	f240 3113 	movw	r1, #787	; 0x313
    187a:	4b08      	ldr	r3, [pc, #32]	; (189c <serial_set_rx+0x5c>)
    187c:	e006      	b.n	188c <serial_set_rx+0x4c>
    187e:	f240 3113 	movw	r1, #787	; 0x313
    1882:	4b07      	ldr	r3, [pc, #28]	; (18a0 <serial_set_rx+0x60>)
    1884:	e002      	b.n	188c <serial_set_rx+0x4c>
    1886:	4b07      	ldr	r3, [pc, #28]	; (18a4 <serial_set_rx+0x64>)
    1888:	f240 3113 	movw	r1, #787	; 0x313
    188c:	6019      	str	r1, [r3, #0]
    188e:	7150      	strb	r0, [r2, #5]
    1890:	4770      	bx	lr
    1892:	bf00      	nop
    1894:	1fff0b80 	.word	0x1fff0b80
    1898:	40048034 	.word	0x40048034
    189c:	4004a040 	.word	0x4004a040
    18a0:	4004c018 	.word	0x4004c018
    18a4:	4004903c 	.word	0x4004903c

000018a8 <serial_set_rts>:
    18a8:	4a0d      	ldr	r2, [pc, #52]	; (18e0 <serial_set_rts+0x38>)
    18aa:	b538      	push	{r3, r4, r5, lr}
    18ac:	6814      	ldr	r4, [r2, #0]
    18ae:	f414 6280 	ands.w	r2, r4, #1024	; 0x400
    18b2:	f04f 0400 	mov.w	r4, #0
    18b6:	d010      	beq.n	18da <serial_set_rts+0x32>
    18b8:	283f      	cmp	r0, #63	; 0x3f
    18ba:	4d0a      	ldr	r5, [pc, #40]	; (18e4 <serial_set_rts+0x3c>)
    18bc:	d80a      	bhi.n	18d4 <serial_set_rts+0x2c>
    18be:	4a0a      	ldr	r2, [pc, #40]	; (18e8 <serial_set_rts+0x40>)
    18c0:	2101      	movs	r1, #1
    18c2:	f852 3030 	ldr.w	r3, [r2, r0, lsl #3]
    18c6:	60ab      	str	r3, [r5, #8]
    18c8:	f7ff fb42 	bl	f50 <pinMode>
    18cc:	68ab      	ldr	r3, [r5, #8]
    18ce:	701c      	strb	r4, [r3, #0]
    18d0:	2001      	movs	r0, #1
    18d2:	bd38      	pop	{r3, r4, r5, pc}
    18d4:	60ac      	str	r4, [r5, #8]
    18d6:	4620      	mov	r0, r4
    18d8:	bd38      	pop	{r3, r4, r5, pc}
    18da:	4610      	mov	r0, r2
    18dc:	bd38      	pop	{r3, r4, r5, pc}
    18de:	bf00      	nop
    18e0:	40048034 	.word	0x40048034
    18e4:	1fff0b80 	.word	0x1fff0b80
    18e8:	00009ec4 	.word	0x00009ec4

000018ec <serial_set_cts>:
    18ec:	4b0e      	ldr	r3, [pc, #56]	; (1928 <serial_set_cts+0x3c>)
    18ee:	681b      	ldr	r3, [r3, #0]
    18f0:	f413 6380 	ands.w	r3, r3, #1024	; 0x400
    18f4:	d016      	beq.n	1924 <serial_set_cts+0x38>
    18f6:	2812      	cmp	r0, #18
    18f8:	4b0c      	ldr	r3, [pc, #48]	; (192c <serial_set_cts+0x40>)
    18fa:	d103      	bne.n	1904 <serial_set_cts+0x18>
    18fc:	f240 3102 	movw	r1, #770	; 0x302
    1900:	4a0b      	ldr	r2, [pc, #44]	; (1930 <serial_set_cts+0x44>)
    1902:	e004      	b.n	190e <serial_set_cts+0x22>
    1904:	2814      	cmp	r0, #20
    1906:	d109      	bne.n	191c <serial_set_cts+0x30>
    1908:	4a0a      	ldr	r2, [pc, #40]	; (1934 <serial_set_cts+0x48>)
    190a:	f240 3102 	movw	r1, #770	; 0x302
    190e:	6011      	str	r1, [r2, #0]
    1910:	7b5a      	ldrb	r2, [r3, #13]
    1912:	f042 0201 	orr.w	r2, r2, #1
    1916:	735a      	strb	r2, [r3, #13]
    1918:	2001      	movs	r0, #1
    191a:	4770      	bx	lr
    191c:	7b5a      	ldrb	r2, [r3, #13]
    191e:	f002 02fe 	and.w	r2, r2, #254	; 0xfe
    1922:	735a      	strb	r2, [r3, #13]
    1924:	2000      	movs	r0, #0
    1926:	4770      	bx	lr
    1928:	40048034 	.word	0x40048034
    192c:	4006a000 	.word	0x4006a000
    1930:	4004a00c 	.word	0x4004a00c
    1934:	4004c014 	.word	0x4004c014

00001938 <serial_putchar>:
    1938:	b5f8      	push	{r3, r4, r5, r6, r7, lr}
    193a:	4b1b      	ldr	r3, [pc, #108]	; (19a8 <serial_putchar+0x70>)
    193c:	681b      	ldr	r3, [r3, #0]
    193e:	055a      	lsls	r2, r3, #21
    1940:	4607      	mov	r7, r0
    1942:	d530      	bpl.n	19a6 <serial_putchar+0x6e>
    1944:	4e19      	ldr	r6, [pc, #100]	; (19ac <serial_putchar+0x74>)
    1946:	68f3      	ldr	r3, [r6, #12]
    1948:	b10b      	cbz	r3, 194e <serial_putchar+0x16>
    194a:	2201      	movs	r2, #1
    194c:	701a      	strb	r2, [r3, #0]
    194e:	78b4      	ldrb	r4, [r6, #2]
    1950:	3401      	adds	r4, #1
    1952:	2c40      	cmp	r4, #64	; 0x40
    1954:	bf28      	it	cs
    1956:	2400      	movcs	r4, #0
    1958:	78f3      	ldrb	r3, [r6, #3]
    195a:	4d14      	ldr	r5, [pc, #80]	; (19ac <serial_putchar+0x74>)
    195c:	42a3      	cmp	r3, r4
    195e:	d118      	bne.n	1992 <serial_putchar+0x5a>
    1960:	f7ff f826 	bl	9b0 <nvic_execution_priority>
    1964:	2840      	cmp	r0, #64	; 0x40
    1966:	dc0f      	bgt.n	1988 <serial_putchar+0x50>
    1968:	4a11      	ldr	r2, [pc, #68]	; (19b0 <serial_putchar+0x78>)
    196a:	7913      	ldrb	r3, [r2, #4]
    196c:	061b      	lsls	r3, r3, #24
    196e:	d5f3      	bpl.n	1958 <serial_putchar+0x20>
    1970:	78eb      	ldrb	r3, [r5, #3]
    1972:	3301      	adds	r3, #1
    1974:	2b40      	cmp	r3, #64	; 0x40
    1976:	bf28      	it	cs
    1978:	2300      	movcs	r3, #0
    197a:	18f1      	adds	r1, r6, r3
    197c:	b2db      	uxtb	r3, r3
    197e:	7c09      	ldrb	r1, [r1, #16]
    1980:	b2c9      	uxtb	r1, r1
    1982:	71d1      	strb	r1, [r2, #7]
    1984:	70f3      	strb	r3, [r6, #3]
    1986:	e7e7      	b.n	1958 <serial_putchar+0x20>
    1988:	28ff      	cmp	r0, #255	; 0xff
    198a:	dde5      	ble.n	1958 <serial_putchar+0x20>
    198c:	f003 fe10 	bl	55b0 <yield>
    1990:	e7e2      	b.n	1958 <serial_putchar+0x20>
    1992:	192b      	adds	r3, r5, r4
    1994:	b2ff      	uxtb	r7, r7
    1996:	741f      	strb	r7, [r3, #16]
    1998:	2301      	movs	r3, #1
    199a:	712b      	strb	r3, [r5, #4]
    199c:	4b04      	ldr	r3, [pc, #16]	; (19b0 <serial_putchar+0x78>)
    199e:	b2e4      	uxtb	r4, r4
    19a0:	22bc      	movs	r2, #188	; 0xbc
    19a2:	70ac      	strb	r4, [r5, #2]
    19a4:	70da      	strb	r2, [r3, #3]
    19a6:	bdf8      	pop	{r3, r4, r5, r6, r7, pc}
    19a8:	40048034 	.word	0x40048034
    19ac:	1fff0b80 	.word	0x1fff0b80
    19b0:	4006a000 	.word	0x4006a000

000019b4 <serial_phex1>:
    19b4:	f000 000f 	and.w	r0, r0, #15
    19b8:	2809      	cmp	r0, #9
    19ba:	bf94      	ite	ls
    19bc:	3030      	addls	r0, #48	; 0x30
    19be:	3037      	addhi	r0, #55	; 0x37
    19c0:	f7ff bfba 	b.w	1938 <serial_putchar>

000019c4 <serial_write>:
    19c4:	e92d 43f8 	stmdb	sp!, {r3, r4, r5, r6, r7, r8, r9, lr}
    19c8:	4b23      	ldr	r3, [pc, #140]	; (1a58 <serial_write+0x94>)
    19ca:	681b      	ldr	r3, [r3, #0]
    19cc:	055a      	lsls	r2, r3, #21
    19ce:	4607      	mov	r7, r0
    19d0:	4689      	mov	r9, r1
    19d2:	d53e      	bpl.n	1a52 <serial_write+0x8e>
    19d4:	4c21      	ldr	r4, [pc, #132]	; (1a5c <serial_write+0x98>)
    19d6:	68e3      	ldr	r3, [r4, #12]
    19d8:	b10b      	cbz	r3, 19de <serial_write+0x1a>
    19da:	2201      	movs	r2, #1
    19dc:	701a      	strb	r2, [r3, #0]
    19de:	463e      	mov	r6, r7
    19e0:	eb07 0309 	add.w	r3, r7, r9
    19e4:	429e      	cmp	r6, r3
    19e6:	d231      	bcs.n	1a4c <serial_write+0x88>
    19e8:	78a5      	ldrb	r5, [r4, #2]
    19ea:	f894 8003 	ldrb.w	r8, [r4, #3]
    19ee:	3501      	adds	r5, #1
    19f0:	2d40      	cmp	r5, #64	; 0x40
    19f2:	bf28      	it	cs
    19f4:	2500      	movcs	r5, #0
    19f6:	fa5f f888 	uxtb.w	r8, r8
    19fa:	45a8      	cmp	r8, r5
    19fc:	d11d      	bne.n	1a3a <serial_write+0x76>
    19fe:	4b18      	ldr	r3, [pc, #96]	; (1a60 <serial_write+0x9c>)
    1a00:	22bc      	movs	r2, #188	; 0xbc
    1a02:	70da      	strb	r2, [r3, #3]
    1a04:	f7fe ffd4 	bl	9b0 <nvic_execution_priority>
    1a08:	2840      	cmp	r0, #64	; 0x40
    1a0a:	dc0f      	bgt.n	1a2c <serial_write+0x68>
    1a0c:	4a14      	ldr	r2, [pc, #80]	; (1a60 <serial_write+0x9c>)
    1a0e:	7913      	ldrb	r3, [r2, #4]
    1a10:	061b      	lsls	r3, r3, #24
    1a12:	d50f      	bpl.n	1a34 <serial_write+0x70>
    1a14:	78e3      	ldrb	r3, [r4, #3]
    1a16:	3301      	adds	r3, #1
    1a18:	2b40      	cmp	r3, #64	; 0x40
    1a1a:	bf28      	it	cs
    1a1c:	2300      	movcs	r3, #0
    1a1e:	18e1      	adds	r1, r4, r3
    1a20:	b2db      	uxtb	r3, r3
    1a22:	7c09      	ldrb	r1, [r1, #16]
    1a24:	b2c9      	uxtb	r1, r1
    1a26:	71d1      	strb	r1, [r2, #7]
    1a28:	70e3      	strb	r3, [r4, #3]
    1a2a:	e003      	b.n	1a34 <serial_write+0x70>
    1a2c:	28ff      	cmp	r0, #255	; 0xff
    1a2e:	dd01      	ble.n	1a34 <serial_write+0x70>
    1a30:	f003 fdbe 	bl	55b0 <yield>
    1a34:	78e3      	ldrb	r3, [r4, #3]
    1a36:	4543      	cmp	r3, r8
    1a38:	d0e4      	beq.n	1a04 <serial_write+0x40>
    1a3a:	1963      	adds	r3, r4, r5
    1a3c:	f816 2b01 	ldrb.w	r2, [r6], #1
    1a40:	741a      	strb	r2, [r3, #16]
    1a42:	b2ed      	uxtb	r5, r5
    1a44:	2301      	movs	r3, #1
    1a46:	7123      	strb	r3, [r4, #4]
    1a48:	70a5      	strb	r5, [r4, #2]
    1a4a:	e7c9      	b.n	19e0 <serial_write+0x1c>
    1a4c:	4b04      	ldr	r3, [pc, #16]	; (1a60 <serial_write+0x9c>)
    1a4e:	22bc      	movs	r2, #188	; 0xbc
    1a50:	70da      	strb	r2, [r3, #3]
    1a52:	e8bd 83f8 	ldmia.w	sp!, {r3, r4, r5, r6, r7, r8, r9, pc}
    1a56:	bf00      	nop
    1a58:	40048034 	.word	0x40048034
    1a5c:	1fff0b80 	.word	0x1fff0b80
    1a60:	4006a000 	.word	0x4006a000

00001a64 <serial_flush>:
    1a64:	b508      	push	{r3, lr}
    1a66:	4b03      	ldr	r3, [pc, #12]	; (1a74 <serial_flush+0x10>)
    1a68:	791b      	ldrb	r3, [r3, #4]
    1a6a:	b113      	cbz	r3, 1a72 <serial_flush+0xe>
    1a6c:	f003 fda0 	bl	55b0 <yield>
    1a70:	e7f9      	b.n	1a66 <serial_flush+0x2>
    1a72:	bd08      	pop	{r3, pc}
    1a74:	1fff0b80 	.word	0x1fff0b80

00001a78 <serial_write_buffer_free>:
    1a78:	4a05      	ldr	r2, [pc, #20]	; (1a90 <serial_write_buffer_free+0x18>)
    1a7a:	7893      	ldrb	r3, [r2, #2]
    1a7c:	78d0      	ldrb	r0, [r2, #3]
    1a7e:	b2db      	uxtb	r3, r3
    1a80:	b2c0      	uxtb	r0, r0
    1a82:	4283      	cmp	r3, r0
    1a84:	bf2c      	ite	cs
    1a86:	303f      	addcs	r0, #63	; 0x3f
    1a88:	f100 30ff 	addcc.w	r0, r0, #4294967295
    1a8c:	1ac0      	subs	r0, r0, r3
    1a8e:	4770      	bx	lr
    1a90:	1fff0b80 	.word	0x1fff0b80

00001a94 <serial_available>:
    1a94:	4a04      	ldr	r2, [pc, #16]	; (1aa8 <serial_available+0x14>)
    1a96:	7810      	ldrb	r0, [r2, #0]
    1a98:	7853      	ldrb	r3, [r2, #1]
    1a9a:	b2c0      	uxtb	r0, r0
    1a9c:	b2db      	uxtb	r3, r3
    1a9e:	4298      	cmp	r0, r3
    1aa0:	bf38      	it	cc
    1aa2:	3040      	addcc	r0, #64	; 0x40
    1aa4:	1ac0      	subs	r0, r0, r3
    1aa6:	4770      	bx	lr
    1aa8:	1fff0b80 	.word	0x1fff0b80

00001aac <serial_getchar>:
    1aac:	b510      	push	{r4, lr}
    1aae:	4a0f      	ldr	r2, [pc, #60]	; (1aec <serial_getchar+0x40>)
    1ab0:	7811      	ldrb	r1, [r2, #0]
    1ab2:	7853      	ldrb	r3, [r2, #1]
    1ab4:	b2c9      	uxtb	r1, r1
    1ab6:	b2db      	uxtb	r3, r3
    1ab8:	4299      	cmp	r1, r3
    1aba:	d014      	beq.n	1ae6 <serial_getchar+0x3a>
    1abc:	3301      	adds	r3, #1
    1abe:	2b40      	cmp	r3, #64	; 0x40
    1ac0:	bf28      	it	cs
    1ac2:	2300      	movcs	r3, #0
    1ac4:	18d0      	adds	r0, r2, r3
    1ac6:	b2dc      	uxtb	r4, r3
    1ac8:	f890 0050 	ldrb.w	r0, [r0, #80]	; 0x50
    1acc:	7054      	strb	r4, [r2, #1]
    1ace:	6892      	ldr	r2, [r2, #8]
    1ad0:	b2c0      	uxtb	r0, r0
    1ad2:	b152      	cbz	r2, 1aea <serial_getchar+0x3e>
    1ad4:	4299      	cmp	r1, r3
    1ad6:	bf38      	it	cc
    1ad8:	3140      	addcc	r1, #64	; 0x40
    1ada:	1acb      	subs	r3, r1, r3
    1adc:	2b1a      	cmp	r3, #26
    1ade:	dc04      	bgt.n	1aea <serial_getchar+0x3e>
    1ae0:	2300      	movs	r3, #0
    1ae2:	7013      	strb	r3, [r2, #0]
    1ae4:	bd10      	pop	{r4, pc}
    1ae6:	f04f 30ff 	mov.w	r0, #4294967295
    1aea:	bd10      	pop	{r4, pc}
    1aec:	1fff0b80 	.word	0x1fff0b80

00001af0 <serial_peek>:
    1af0:	4a08      	ldr	r2, [pc, #32]	; (1b14 <serial_peek+0x24>)
    1af2:	7811      	ldrb	r1, [r2, #0]
    1af4:	7853      	ldrb	r3, [r2, #1]
    1af6:	b2db      	uxtb	r3, r3
    1af8:	4299      	cmp	r1, r3
    1afa:	d008      	beq.n	1b0e <serial_peek+0x1e>
    1afc:	3301      	adds	r3, #1
    1afe:	2b40      	cmp	r3, #64	; 0x40
    1b00:	bf28      	it	cs
    1b02:	2300      	movcs	r3, #0
    1b04:	4413      	add	r3, r2
    1b06:	f893 0050 	ldrb.w	r0, [r3, #80]	; 0x50
    1b0a:	b2c0      	uxtb	r0, r0
    1b0c:	4770      	bx	lr
    1b0e:	f04f 30ff 	mov.w	r0, #4294967295
    1b12:	4770      	bx	lr
    1b14:	1fff0b80 	.word	0x1fff0b80

00001b18 <serial_clear>:
    1b18:	4b0b      	ldr	r3, [pc, #44]	; (1b48 <serial_clear+0x30>)
    1b1a:	681b      	ldr	r3, [r3, #0]
    1b1c:	055b      	lsls	r3, r3, #21
    1b1e:	d512      	bpl.n	1b46 <serial_clear+0x2e>
    1b20:	4b0a      	ldr	r3, [pc, #40]	; (1b4c <serial_clear+0x34>)
    1b22:	78da      	ldrb	r2, [r3, #3]
    1b24:	f002 02cb 	and.w	r2, r2, #203	; 0xcb
    1b28:	70da      	strb	r2, [r3, #3]
    1b2a:	2240      	movs	r2, #64	; 0x40
    1b2c:	745a      	strb	r2, [r3, #17]
    1b2e:	78da      	ldrb	r2, [r3, #3]
    1b30:	f042 0234 	orr.w	r2, r2, #52	; 0x34
    1b34:	70da      	strb	r2, [r3, #3]
    1b36:	4b06      	ldr	r3, [pc, #24]	; (1b50 <serial_clear+0x38>)
    1b38:	785a      	ldrb	r2, [r3, #1]
    1b3a:	b2d2      	uxtb	r2, r2
    1b3c:	701a      	strb	r2, [r3, #0]
    1b3e:	689b      	ldr	r3, [r3, #8]
    1b40:	b10b      	cbz	r3, 1b46 <serial_clear+0x2e>
    1b42:	2200      	movs	r2, #0
    1b44:	701a      	strb	r2, [r3, #0]
    1b46:	4770      	bx	lr
    1b48:	40048034 	.word	0x40048034
    1b4c:	4006a000 	.word	0x4006a000
    1b50:	1fff0b80 	.word	0x1fff0b80

00001b54 <uart0_status_isr>:
    1b54:	b530      	push	{r4, r5, lr}
    1b56:	4b35      	ldr	r3, [pc, #212]	; (1c2c <uart0_status_isr+0xd8>)
    1b58:	791a      	ldrb	r2, [r3, #4]
    1b5a:	f012 0f30 	tst.w	r2, #48	; 0x30
    1b5e:	d02f      	beq.n	1bc0 <uart0_status_isr+0x6c>
    1b60:	b672      	cpsid	i
    1b62:	7d9a      	ldrb	r2, [r3, #22]
    1b64:	f002 04ff 	and.w	r4, r2, #255	; 0xff
    1b68:	b922      	cbnz	r2, 1b74 <uart0_status_isr+0x20>
    1b6a:	79da      	ldrb	r2, [r3, #7]
    1b6c:	2240      	movs	r2, #64	; 0x40
    1b6e:	745a      	strb	r2, [r3, #17]
    1b70:	b662      	cpsie	i
    1b72:	e025      	b.n	1bc0 <uart0_status_isr+0x6c>
    1b74:	b662      	cpsie	i
    1b76:	482e      	ldr	r0, [pc, #184]	; (1c30 <uart0_status_isr+0xdc>)
    1b78:	7803      	ldrb	r3, [r0, #0]
    1b7a:	7841      	ldrb	r1, [r0, #1]
    1b7c:	b2db      	uxtb	r3, r3
    1b7e:	b2c9      	uxtb	r1, r1
    1b80:	4a2a      	ldr	r2, [pc, #168]	; (1c2c <uart0_status_isr+0xd8>)
    1b82:	79d5      	ldrb	r5, [r2, #7]
    1b84:	1c5a      	adds	r2, r3, #1
    1b86:	2a40      	cmp	r2, #64	; 0x40
    1b88:	bf28      	it	cs
    1b8a:	2200      	movcs	r2, #0
    1b8c:	428a      	cmp	r2, r1
    1b8e:	b2ed      	uxtb	r5, r5
    1b90:	d003      	beq.n	1b9a <uart0_status_isr+0x46>
    1b92:	1883      	adds	r3, r0, r2
    1b94:	f883 5050 	strb.w	r5, [r3, #80]	; 0x50
    1b98:	4613      	mov	r3, r2
    1b9a:	1e62      	subs	r2, r4, #1
    1b9c:	f012 04ff 	ands.w	r4, r2, #255	; 0xff
    1ba0:	d1ee      	bne.n	1b80 <uart0_status_isr+0x2c>
    1ba2:	b2da      	uxtb	r2, r3
    1ba4:	7002      	strb	r2, [r0, #0]
    1ba6:	6882      	ldr	r2, [r0, #8]
    1ba8:	b152      	cbz	r2, 1bc0 <uart0_status_isr+0x6c>
    1baa:	428b      	cmp	r3, r1
    1bac:	bf36      	itet	cc
    1bae:	f1c1 0140 	rsbcc	r1, r1, #64	; 0x40
    1bb2:	ebc1 0303 	rsbcs	r3, r1, r3
    1bb6:	185b      	addcc	r3, r3, r1
    1bb8:	2b27      	cmp	r3, #39	; 0x27
    1bba:	bfc4      	itt	gt
    1bbc:	2301      	movgt	r3, #1
    1bbe:	7013      	strbgt	r3, [r2, #0]
    1bc0:	4b1a      	ldr	r3, [pc, #104]	; (1c2c <uart0_status_isr+0xd8>)
    1bc2:	78d9      	ldrb	r1, [r3, #3]
    1bc4:	b2c9      	uxtb	r1, r1
    1bc6:	060c      	lsls	r4, r1, #24
    1bc8:	d51f      	bpl.n	1c0a <uart0_status_isr+0xb6>
    1bca:	791b      	ldrb	r3, [r3, #4]
    1bcc:	0618      	lsls	r0, r3, #24
    1bce:	d51c      	bpl.n	1c0a <uart0_status_isr+0xb6>
    1bd0:	4a17      	ldr	r2, [pc, #92]	; (1c30 <uart0_status_isr+0xdc>)
    1bd2:	7895      	ldrb	r5, [r2, #2]
    1bd4:	78d3      	ldrb	r3, [r2, #3]
    1bd6:	b2ed      	uxtb	r5, r5
    1bd8:	b2db      	uxtb	r3, r3
    1bda:	4610      	mov	r0, r2
    1bdc:	42ab      	cmp	r3, r5
    1bde:	d00c      	beq.n	1bfa <uart0_status_isr+0xa6>
    1be0:	3301      	adds	r3, #1
    1be2:	4a12      	ldr	r2, [pc, #72]	; (1c2c <uart0_status_isr+0xd8>)
    1be4:	2b40      	cmp	r3, #64	; 0x40
    1be6:	bf28      	it	cs
    1be8:	2300      	movcs	r3, #0
    1bea:	7914      	ldrb	r4, [r2, #4]
    1bec:	18c4      	adds	r4, r0, r3
    1bee:	7c24      	ldrb	r4, [r4, #16]
    1bf0:	b2e4      	uxtb	r4, r4
    1bf2:	71d4      	strb	r4, [r2, #7]
    1bf4:	7d12      	ldrb	r2, [r2, #20]
    1bf6:	2a07      	cmp	r2, #7
    1bf8:	d9f0      	bls.n	1bdc <uart0_status_isr+0x88>
    1bfa:	b2db      	uxtb	r3, r3
    1bfc:	70c3      	strb	r3, [r0, #3]
    1bfe:	4b0b      	ldr	r3, [pc, #44]	; (1c2c <uart0_status_isr+0xd8>)
    1c00:	791a      	ldrb	r2, [r3, #4]
    1c02:	0612      	lsls	r2, r2, #24
    1c04:	bf44      	itt	mi
    1c06:	227c      	movmi	r2, #124	; 0x7c
    1c08:	70da      	strbmi	r2, [r3, #3]
    1c0a:	064b      	lsls	r3, r1, #25
    1c0c:	d50d      	bpl.n	1c2a <uart0_status_isr+0xd6>
    1c0e:	4b07      	ldr	r3, [pc, #28]	; (1c2c <uart0_status_isr+0xd8>)
    1c10:	791a      	ldrb	r2, [r3, #4]
    1c12:	f012 0f40 	tst.w	r2, #64	; 0x40
    1c16:	4619      	mov	r1, r3
    1c18:	d007      	beq.n	1c2a <uart0_status_isr+0xd6>
    1c1a:	4b05      	ldr	r3, [pc, #20]	; (1c30 <uart0_status_isr+0xdc>)
    1c1c:	2200      	movs	r2, #0
    1c1e:	711a      	strb	r2, [r3, #4]
    1c20:	68db      	ldr	r3, [r3, #12]
    1c22:	b103      	cbz	r3, 1c26 <uart0_status_isr+0xd2>
    1c24:	701a      	strb	r2, [r3, #0]
    1c26:	233c      	movs	r3, #60	; 0x3c
    1c28:	70cb      	strb	r3, [r1, #3]
    1c2a:	bd30      	pop	{r4, r5, pc}
    1c2c:	4006a000 	.word	0x4006a000
    1c30:	1fff0b80 	.word	0x1fff0b80

00001c34 <serial_print>:
    1c34:	b538      	push	{r3, r4, r5, lr}
    1c36:	1e45      	subs	r5, r0, #1
    1c38:	f815 4f01 	ldrb.w	r4, [r5, #1]!
    1c3c:	b144      	cbz	r4, 1c50 <serial_print+0x1c>
    1c3e:	2c0a      	cmp	r4, #10
    1c40:	d102      	bne.n	1c48 <serial_print+0x14>
    1c42:	200d      	movs	r0, #13
    1c44:	f7ff fe78 	bl	1938 <serial_putchar>
    1c48:	4620      	mov	r0, r4
    1c4a:	f7ff fe75 	bl	1938 <serial_putchar>
    1c4e:	e7f3      	b.n	1c38 <serial_print+0x4>
    1c50:	bd38      	pop	{r3, r4, r5, pc}

00001c52 <serial_phex>:
    1c52:	b510      	push	{r4, lr}
    1c54:	4604      	mov	r4, r0
    1c56:	0900      	lsrs	r0, r0, #4
    1c58:	f7ff feac 	bl	19b4 <serial_phex1>
    1c5c:	4620      	mov	r0, r4
    1c5e:	e8bd 4010 	ldmia.w	sp!, {r4, lr}
    1c62:	f7ff bea7 	b.w	19b4 <serial_phex1>

00001c66 <serial_phex16>:
    1c66:	b510      	push	{r4, lr}
    1c68:	4604      	mov	r4, r0
    1c6a:	0a00      	lsrs	r0, r0, #8
    1c6c:	f7ff fff1 	bl	1c52 <serial_phex>
    1c70:	4620      	mov	r0, r4
    1c72:	e8bd 4010 	ldmia.w	sp!, {r4, lr}
    1c76:	f7ff bfec 	b.w	1c52 <serial_phex>

00001c7a <serial_phex32>:
    1c7a:	b510      	push	{r4, lr}
    1c7c:	4604      	mov	r4, r0
    1c7e:	0e00      	lsrs	r0, r0, #24
    1c80:	f7ff ffe7 	bl	1c52 <serial_phex>
    1c84:	0c20      	lsrs	r0, r4, #16
    1c86:	f7ff ffe4 	bl	1c52 <serial_phex>
    1c8a:	0a20      	lsrs	r0, r4, #8
    1c8c:	f7ff ffe1 	bl	1c52 <serial_phex>
    1c90:	4620      	mov	r0, r4
    1c92:	e8bd 4010 	ldmia.w	sp!, {r4, lr}
    1c96:	f7ff bfdc 	b.w	1c52 <serial_phex>
    1c9a:	bf00      	nop

00001c9c <serial2_begin>:
    1c9c:	4b20      	ldr	r3, [pc, #128]	; (1d20 <serial2_begin+0x84>)
    1c9e:	681a      	ldr	r2, [r3, #0]
    1ca0:	f442 6200 	orr.w	r2, r2, #2048	; 0x800
    1ca4:	601a      	str	r2, [r3, #0]
    1ca6:	4b1f      	ldr	r3, [pc, #124]	; (1d24 <serial2_begin+0x88>)
    1ca8:	2200      	movs	r2, #0
    1caa:	701a      	strb	r2, [r3, #0]
    1cac:	705a      	strb	r2, [r3, #1]
    1cae:	709a      	strb	r2, [r3, #2]
    1cb0:	70da      	strb	r2, [r3, #3]
    1cb2:	711a      	strb	r2, [r3, #4]
    1cb4:	4a1c      	ldr	r2, [pc, #112]	; (1d28 <serial2_begin+0x8c>)
    1cb6:	7813      	ldrb	r3, [r2, #0]
    1cb8:	2b09      	cmp	r3, #9
    1cba:	d005      	beq.n	1cc8 <serial2_begin+0x2c>
    1cbc:	2b3b      	cmp	r3, #59	; 0x3b
    1cbe:	d107      	bne.n	1cd0 <serial2_begin+0x34>
    1cc0:	f240 3113 	movw	r1, #787	; 0x313
    1cc4:	4b19      	ldr	r3, [pc, #100]	; (1d2c <serial2_begin+0x90>)
    1cc6:	e002      	b.n	1cce <serial2_begin+0x32>
    1cc8:	4b19      	ldr	r3, [pc, #100]	; (1d30 <serial2_begin+0x94>)
    1cca:	f240 3113 	movw	r1, #787	; 0x313
    1cce:	6019      	str	r1, [r3, #0]
    1cd0:	7853      	ldrb	r3, [r2, #1]
    1cd2:	2b0a      	cmp	r3, #10
    1cd4:	d005      	beq.n	1ce2 <serial2_begin+0x46>
    1cd6:	2b3a      	cmp	r3, #58	; 0x3a
    1cd8:	d107      	bne.n	1cea <serial2_begin+0x4e>
    1cda:	f44f 7251 	mov.w	r2, #836	; 0x344
    1cde:	4b15      	ldr	r3, [pc, #84]	; (1d34 <serial2_begin+0x98>)
    1ce0:	e002      	b.n	1ce8 <serial2_begin+0x4c>
    1ce2:	4b15      	ldr	r3, [pc, #84]	; (1d38 <serial2_begin+0x9c>)
    1ce4:	f44f 7251 	mov.w	r2, #836	; 0x344
    1ce8:	601a      	str	r2, [r3, #0]
    1cea:	4b14      	ldr	r3, [pc, #80]	; (1d3c <serial2_begin+0xa0>)
    1cec:	f3c0 3244 	ubfx	r2, r0, #13, #5
    1cf0:	701a      	strb	r2, [r3, #0]
    1cf2:	f3c0 1247 	ubfx	r2, r0, #5, #8
    1cf6:	705a      	strb	r2, [r3, #1]
    1cf8:	2104      	movs	r1, #4
    1cfa:	2202      	movs	r2, #2
    1cfc:	f000 001f 	and.w	r0, r0, #31
    1d00:	7298      	strb	r0, [r3, #10]
    1d02:	7099      	strb	r1, [r3, #2]
    1d04:	74da      	strb	r2, [r3, #19]
    1d06:	7559      	strb	r1, [r3, #21]
    1d08:	2188      	movs	r1, #136	; 0x88
    1d0a:	7419      	strb	r1, [r3, #16]
    1d0c:	213c      	movs	r1, #60	; 0x3c
    1d0e:	70d9      	strb	r1, [r3, #3]
    1d10:	4b0b      	ldr	r3, [pc, #44]	; (1d40 <serial2_begin+0xa4>)
    1d12:	2140      	movs	r1, #64	; 0x40
    1d14:	7019      	strb	r1, [r3, #0]
    1d16:	f46f 7147 	mvn.w	r1, #796	; 0x31c
    1d1a:	440b      	add	r3, r1
    1d1c:	601a      	str	r2, [r3, #0]
    1d1e:	4770      	bx	lr
    1d20:	40048034 	.word	0x40048034
    1d24:	1fff0c10 	.word	0x1fff0c10
    1d28:	1fff0a09 	.word	0x1fff0a09
    1d2c:	4004d004 	.word	0x4004d004
    1d30:	4004b00c 	.word	0x4004b00c
    1d34:	4004d000 	.word	0x4004d000
    1d38:	4004b010 	.word	0x4004b010
    1d3c:	4006b000 	.word	0x4006b000
    1d40:	e000e421 	.word	0xe000e421

00001d44 <serial2_format>:
    1d44:	4a19      	ldr	r2, [pc, #100]	; (1dac <serial2_format+0x68>)
    1d46:	7893      	ldrb	r3, [r2, #2]
    1d48:	f000 0103 	and.w	r1, r0, #3
    1d4c:	f003 03ec 	and.w	r3, r3, #236	; 0xec
    1d50:	430b      	orrs	r3, r1
    1d52:	0741      	lsls	r1, r0, #29
    1d54:	bf48      	it	mi
    1d56:	f043 0310 	orrmi.w	r3, r3, #16
    1d5a:	7093      	strb	r3, [r2, #2]
    1d5c:	f000 030f 	and.w	r3, r0, #15
    1d60:	2b04      	cmp	r3, #4
    1d62:	4912      	ldr	r1, [pc, #72]	; (1dac <serial2_format+0x68>)
    1d64:	d103      	bne.n	1d6e <serial2_format+0x2a>
    1d66:	798b      	ldrb	r3, [r1, #6]
    1d68:	f043 0340 	orr.w	r3, r3, #64	; 0x40
    1d6c:	718b      	strb	r3, [r1, #6]
    1d6e:	7952      	ldrb	r2, [r2, #5]
    1d70:	4b0e      	ldr	r3, [pc, #56]	; (1dac <serial2_format+0x68>)
    1d72:	f002 02ef 	and.w	r2, r2, #239	; 0xef
    1d76:	06c1      	lsls	r1, r0, #27
    1d78:	bf48      	it	mi
    1d7a:	f042 0210 	orrmi.w	r2, r2, #16
    1d7e:	715a      	strb	r2, [r3, #5]
    1d80:	799a      	ldrb	r2, [r3, #6]
    1d82:	f010 0f20 	tst.w	r0, #32
    1d86:	f002 02ef 	and.w	r2, r2, #239	; 0xef
    1d8a:	4619      	mov	r1, r3
    1d8c:	bf18      	it	ne
    1d8e:	f042 0210 	orrne.w	r2, r2, #16
    1d92:	718a      	strb	r2, [r1, #6]
    1d94:	05c2      	lsls	r2, r0, #23
    1d96:	4b05      	ldr	r3, [pc, #20]	; (1dac <serial2_format+0x68>)
    1d98:	d506      	bpl.n	1da8 <serial2_format+0x64>
    1d9a:	785a      	ldrb	r2, [r3, #1]
    1d9c:	7819      	ldrb	r1, [r3, #0]
    1d9e:	b2d2      	uxtb	r2, r2
    1da0:	f041 0120 	orr.w	r1, r1, #32
    1da4:	7019      	strb	r1, [r3, #0]
    1da6:	705a      	strb	r2, [r3, #1]
    1da8:	4770      	bx	lr
    1daa:	bf00      	nop
    1dac:	4006b000 	.word	0x4006b000

00001db0 <serial2_end>:
    1db0:	b508      	push	{r3, lr}
    1db2:	4b1a      	ldr	r3, [pc, #104]	; (1e1c <serial2_end+0x6c>)
    1db4:	681b      	ldr	r3, [r3, #0]
    1db6:	051b      	lsls	r3, r3, #20
    1db8:	d400      	bmi.n	1dbc <serial2_end+0xc>
    1dba:	bd08      	pop	{r3, pc}
    1dbc:	4b18      	ldr	r3, [pc, #96]	; (1e20 <serial2_end+0x70>)
    1dbe:	7919      	ldrb	r1, [r3, #4]
    1dc0:	f001 02ff 	and.w	r2, r1, #255	; 0xff
    1dc4:	b111      	cbz	r1, 1dcc <serial2_end+0x1c>
    1dc6:	f003 fbf3 	bl	55b0 <yield>
    1dca:	e7f7      	b.n	1dbc <serial2_end+0xc>
    1dcc:	4915      	ldr	r1, [pc, #84]	; (1e24 <serial2_end+0x74>)
    1dce:	2002      	movs	r0, #2
    1dd0:	6008      	str	r0, [r1, #0]
    1dd2:	4915      	ldr	r1, [pc, #84]	; (1e28 <serial2_end+0x78>)
    1dd4:	4815      	ldr	r0, [pc, #84]	; (1e2c <serial2_end+0x7c>)
    1dd6:	70ca      	strb	r2, [r1, #3]
    1dd8:	7801      	ldrb	r1, [r0, #0]
    1dda:	2909      	cmp	r1, #9
    1ddc:	d004      	beq.n	1de8 <serial2_end+0x38>
    1dde:	293b      	cmp	r1, #59	; 0x3b
    1de0:	d106      	bne.n	1df0 <serial2_end+0x40>
    1de2:	4913      	ldr	r1, [pc, #76]	; (1e30 <serial2_end+0x80>)
    1de4:	600a      	str	r2, [r1, #0]
    1de6:	e003      	b.n	1df0 <serial2_end+0x40>
    1de8:	4a12      	ldr	r2, [pc, #72]	; (1e34 <serial2_end+0x84>)
    1dea:	f240 1103 	movw	r1, #259	; 0x103
    1dee:	6011      	str	r1, [r2, #0]
    1df0:	7842      	ldrb	r2, [r0, #1]
    1df2:	f002 027f 	and.w	r2, r2, #127	; 0x7f
    1df6:	2a0a      	cmp	r2, #10
    1df8:	d004      	beq.n	1e04 <serial2_end+0x54>
    1dfa:	2a3a      	cmp	r2, #58	; 0x3a
    1dfc:	d106      	bne.n	1e0c <serial2_end+0x5c>
    1dfe:	2100      	movs	r1, #0
    1e00:	4a0d      	ldr	r2, [pc, #52]	; (1e38 <serial2_end+0x88>)
    1e02:	e002      	b.n	1e0a <serial2_end+0x5a>
    1e04:	4a0d      	ldr	r2, [pc, #52]	; (1e3c <serial2_end+0x8c>)
    1e06:	f240 1103 	movw	r1, #259	; 0x103
    1e0a:	6011      	str	r1, [r2, #0]
    1e0c:	2200      	movs	r2, #0
    1e0e:	701a      	strb	r2, [r3, #0]
    1e10:	705a      	strb	r2, [r3, #1]
    1e12:	689b      	ldr	r3, [r3, #8]
    1e14:	b10b      	cbz	r3, 1e1a <serial2_end+0x6a>
    1e16:	2201      	movs	r2, #1
    1e18:	701a      	strb	r2, [r3, #0]
    1e1a:	bd08      	pop	{r3, pc}
    1e1c:	40048034 	.word	0x40048034
    1e20:	1fff0c10 	.word	0x1fff0c10
    1e24:	e000e184 	.word	0xe000e184
    1e28:	4006b000 	.word	0x4006b000
    1e2c:	1fff0a09 	.word	0x1fff0a09
    1e30:	4004d004 	.word	0x4004d004
    1e34:	4004b00c 	.word	0x4004b00c
    1e38:	4004d000 	.word	0x4004d000
    1e3c:	4004b010 	.word	0x4004b010

00001e40 <serial2_set_transmit_pin>:
    1e40:	b570      	push	{r4, r5, r6, lr}
    1e42:	4604      	mov	r4, r0
    1e44:	4d09      	ldr	r5, [pc, #36]	; (1e6c <serial2_set_transmit_pin+0x2c>)
    1e46:	792b      	ldrb	r3, [r5, #4]
    1e48:	f003 06ff 	and.w	r6, r3, #255	; 0xff
    1e4c:	2b00      	cmp	r3, #0
    1e4e:	d1f9      	bne.n	1e44 <serial2_set_transmit_pin+0x4>
    1e50:	4620      	mov	r0, r4
    1e52:	2101      	movs	r1, #1
    1e54:	f7ff f87c 	bl	f50 <pinMode>
    1e58:	4620      	mov	r0, r4
    1e5a:	4631      	mov	r1, r6
    1e5c:	f7ff f84a 	bl	ef4 <digitalWrite>
    1e60:	4b03      	ldr	r3, [pc, #12]	; (1e70 <serial2_set_transmit_pin+0x30>)
    1e62:	f853 3034 	ldr.w	r3, [r3, r4, lsl #3]
    1e66:	60eb      	str	r3, [r5, #12]
    1e68:	bd70      	pop	{r4, r5, r6, pc}
    1e6a:	bf00      	nop
    1e6c:	1fff0c10 	.word	0x1fff0c10
    1e70:	00009ec4 	.word	0x00009ec4

00001e74 <serial2_set_tx>:
    1e74:	b510      	push	{r4, lr}
    1e76:	b109      	cbz	r1, 1e7c <serial2_set_tx+0x8>
    1e78:	f040 0080 	orr.w	r0, r0, #128	; 0x80
    1e7c:	4a14      	ldr	r2, [pc, #80]	; (1ed0 <serial2_set_tx+0x5c>)
    1e7e:	7853      	ldrb	r3, [r2, #1]
    1e80:	4298      	cmp	r0, r3
    1e82:	4614      	mov	r4, r2
    1e84:	d022      	beq.n	1ecc <serial2_set_tx+0x58>
    1e86:	4a13      	ldr	r2, [pc, #76]	; (1ed4 <serial2_set_tx+0x60>)
    1e88:	6812      	ldr	r2, [r2, #0]
    1e8a:	0512      	lsls	r2, r2, #20
    1e8c:	d51d      	bpl.n	1eca <serial2_set_tx+0x56>
    1e8e:	f003 037f 	and.w	r3, r3, #127	; 0x7f
    1e92:	2b0a      	cmp	r3, #10
    1e94:	d004      	beq.n	1ea0 <serial2_set_tx+0x2c>
    1e96:	2b3a      	cmp	r3, #58	; 0x3a
    1e98:	d105      	bne.n	1ea6 <serial2_set_tx+0x32>
    1e9a:	2200      	movs	r2, #0
    1e9c:	4b0e      	ldr	r3, [pc, #56]	; (1ed8 <serial2_set_tx+0x64>)
    1e9e:	e001      	b.n	1ea4 <serial2_set_tx+0x30>
    1ea0:	4b0e      	ldr	r3, [pc, #56]	; (1edc <serial2_set_tx+0x68>)
    1ea2:	2200      	movs	r2, #0
    1ea4:	601a      	str	r2, [r3, #0]
    1ea6:	2900      	cmp	r1, #0
    1ea8:	f000 027f 	and.w	r2, r0, #127	; 0x7f
    1eac:	bf0c      	ite	eq
    1eae:	2344      	moveq	r3, #68	; 0x44
    1eb0:	2360      	movne	r3, #96	; 0x60
    1eb2:	2a0a      	cmp	r2, #10
    1eb4:	d005      	beq.n	1ec2 <serial2_set_tx+0x4e>
    1eb6:	2a3a      	cmp	r2, #58	; 0x3a
    1eb8:	d107      	bne.n	1eca <serial2_set_tx+0x56>
    1eba:	f443 7340 	orr.w	r3, r3, #768	; 0x300
    1ebe:	4a06      	ldr	r2, [pc, #24]	; (1ed8 <serial2_set_tx+0x64>)
    1ec0:	e002      	b.n	1ec8 <serial2_set_tx+0x54>
    1ec2:	4a06      	ldr	r2, [pc, #24]	; (1edc <serial2_set_tx+0x68>)
    1ec4:	f443 7340 	orr.w	r3, r3, #768	; 0x300
    1ec8:	6013      	str	r3, [r2, #0]
    1eca:	7060      	strb	r0, [r4, #1]
    1ecc:	bd10      	pop	{r4, pc}
    1ece:	bf00      	nop
    1ed0:	1fff0a09 	.word	0x1fff0a09
    1ed4:	40048034 	.word	0x40048034
    1ed8:	4004d000 	.word	0x4004d000
    1edc:	4004b010 	.word	0x4004b010

00001ee0 <serial2_set_rx>:
    1ee0:	4a0f      	ldr	r2, [pc, #60]	; (1f20 <serial2_set_rx+0x40>)
    1ee2:	7813      	ldrb	r3, [r2, #0]
    1ee4:	4298      	cmp	r0, r3
    1ee6:	d01a      	beq.n	1f1e <serial2_set_rx+0x3e>
    1ee8:	490e      	ldr	r1, [pc, #56]	; (1f24 <serial2_set_rx+0x44>)
    1eea:	6809      	ldr	r1, [r1, #0]
    1eec:	0509      	lsls	r1, r1, #20
    1eee:	d515      	bpl.n	1f1c <serial2_set_rx+0x3c>
    1ef0:	2b09      	cmp	r3, #9
    1ef2:	d004      	beq.n	1efe <serial2_set_rx+0x1e>
    1ef4:	2b3b      	cmp	r3, #59	; 0x3b
    1ef6:	d105      	bne.n	1f04 <serial2_set_rx+0x24>
    1ef8:	2100      	movs	r1, #0
    1efa:	4b0b      	ldr	r3, [pc, #44]	; (1f28 <serial2_set_rx+0x48>)
    1efc:	e001      	b.n	1f02 <serial2_set_rx+0x22>
    1efe:	4b0b      	ldr	r3, [pc, #44]	; (1f2c <serial2_set_rx+0x4c>)
    1f00:	2100      	movs	r1, #0
    1f02:	6019      	str	r1, [r3, #0]
    1f04:	2809      	cmp	r0, #9
    1f06:	d005      	beq.n	1f14 <serial2_set_rx+0x34>
    1f08:	283b      	cmp	r0, #59	; 0x3b
    1f0a:	d107      	bne.n	1f1c <serial2_set_rx+0x3c>
    1f0c:	f240 3113 	movw	r1, #787	; 0x313
    1f10:	4b05      	ldr	r3, [pc, #20]	; (1f28 <serial2_set_rx+0x48>)
    1f12:	e002      	b.n	1f1a <serial2_set_rx+0x3a>
    1f14:	4b05      	ldr	r3, [pc, #20]	; (1f2c <serial2_set_rx+0x4c>)
    1f16:	f240 3113 	movw	r1, #787	; 0x313
    1f1a:	6019      	str	r1, [r3, #0]
    1f1c:	7010      	strb	r0, [r2, #0]
    1f1e:	4770      	bx	lr
    1f20:	1fff0a09 	.word	0x1fff0a09
    1f24:	40048034 	.word	0x40048034
    1f28:	4004d004 	.word	0x4004d004
    1f2c:	4004b00c 	.word	0x4004b00c

00001f30 <serial2_set_rts>:
    1f30:	4a0d      	ldr	r2, [pc, #52]	; (1f68 <serial2_set_rts+0x38>)
    1f32:	b538      	push	{r3, r4, r5, lr}
    1f34:	6814      	ldr	r4, [r2, #0]
    1f36:	f414 6200 	ands.w	r2, r4, #2048	; 0x800
    1f3a:	f04f 0400 	mov.w	r4, #0
    1f3e:	d010      	beq.n	1f62 <serial2_set_rts+0x32>
    1f40:	283f      	cmp	r0, #63	; 0x3f
    1f42:	4d0a      	ldr	r5, [pc, #40]	; (1f6c <serial2_set_rts+0x3c>)
    1f44:	d80a      	bhi.n	1f5c <serial2_set_rts+0x2c>
    1f46:	4a0a      	ldr	r2, [pc, #40]	; (1f70 <serial2_set_rts+0x40>)
    1f48:	2101      	movs	r1, #1
    1f4a:	f852 3030 	ldr.w	r3, [r2, r0, lsl #3]
    1f4e:	60ab      	str	r3, [r5, #8]
    1f50:	f7fe fffe 	bl	f50 <pinMode>
    1f54:	68ab      	ldr	r3, [r5, #8]
    1f56:	701c      	strb	r4, [r3, #0]
    1f58:	2001      	movs	r0, #1
    1f5a:	bd38      	pop	{r3, r4, r5, pc}
    1f5c:	60ac      	str	r4, [r5, #8]
    1f5e:	4620      	mov	r0, r4
    1f60:	bd38      	pop	{r3, r4, r5, pc}
    1f62:	4610      	mov	r0, r2
    1f64:	bd38      	pop	{r3, r4, r5, pc}
    1f66:	bf00      	nop
    1f68:	40048034 	.word	0x40048034
    1f6c:	1fff0c10 	.word	0x1fff0c10
    1f70:	00009ec4 	.word	0x00009ec4

00001f74 <serial2_set_cts>:
    1f74:	4b0e      	ldr	r3, [pc, #56]	; (1fb0 <serial2_set_cts+0x3c>)
    1f76:	681b      	ldr	r3, [r3, #0]
    1f78:	f413 6300 	ands.w	r3, r3, #2048	; 0x800
    1f7c:	d016      	beq.n	1fac <serial2_set_cts+0x38>
    1f7e:	2817      	cmp	r0, #23
    1f80:	4b0c      	ldr	r3, [pc, #48]	; (1fb4 <serial2_set_cts+0x40>)
    1f82:	d103      	bne.n	1f8c <serial2_set_cts+0x18>
    1f84:	f240 3102 	movw	r1, #770	; 0x302
    1f88:	4a0b      	ldr	r2, [pc, #44]	; (1fb8 <serial2_set_cts+0x44>)
    1f8a:	e004      	b.n	1f96 <serial2_set_cts+0x22>
    1f8c:	283c      	cmp	r0, #60	; 0x3c
    1f8e:	d109      	bne.n	1fa4 <serial2_set_cts+0x30>
    1f90:	4a0a      	ldr	r2, [pc, #40]	; (1fbc <serial2_set_cts+0x48>)
    1f92:	f240 3102 	movw	r1, #770	; 0x302
    1f96:	6011      	str	r1, [r2, #0]
    1f98:	7b5a      	ldrb	r2, [r3, #13]
    1f9a:	f042 0201 	orr.w	r2, r2, #1
    1f9e:	735a      	strb	r2, [r3, #13]
    1fa0:	2001      	movs	r0, #1
    1fa2:	4770      	bx	lr
    1fa4:	7b5a      	ldrb	r2, [r3, #13]
    1fa6:	f002 02fe 	and.w	r2, r2, #254	; 0xfe
    1faa:	735a      	strb	r2, [r3, #13]
    1fac:	2000      	movs	r0, #0
    1fae:	4770      	bx	lr
    1fb0:	40048034 	.word	0x40048034
    1fb4:	4006b000 	.word	0x4006b000
    1fb8:	4004b008 	.word	0x4004b008
    1fbc:	4004d008 	.word	0x4004d008

00001fc0 <serial2_putchar>:
    1fc0:	b5f8      	push	{r3, r4, r5, r6, r7, lr}
    1fc2:	4b1b      	ldr	r3, [pc, #108]	; (2030 <serial2_putchar+0x70>)
    1fc4:	681b      	ldr	r3, [r3, #0]
    1fc6:	051a      	lsls	r2, r3, #20
    1fc8:	4607      	mov	r7, r0
    1fca:	d530      	bpl.n	202e <serial2_putchar+0x6e>
    1fcc:	4e19      	ldr	r6, [pc, #100]	; (2034 <serial2_putchar+0x74>)
    1fce:	68f3      	ldr	r3, [r6, #12]
    1fd0:	b10b      	cbz	r3, 1fd6 <serial2_putchar+0x16>
    1fd2:	2201      	movs	r2, #1
    1fd4:	701a      	strb	r2, [r3, #0]
    1fd6:	78b4      	ldrb	r4, [r6, #2]
    1fd8:	3401      	adds	r4, #1
    1fda:	2c28      	cmp	r4, #40	; 0x28
    1fdc:	bf28      	it	cs
    1fde:	2400      	movcs	r4, #0
    1fe0:	78f3      	ldrb	r3, [r6, #3]
    1fe2:	4d14      	ldr	r5, [pc, #80]	; (2034 <serial2_putchar+0x74>)
    1fe4:	42a3      	cmp	r3, r4
    1fe6:	d118      	bne.n	201a <serial2_putchar+0x5a>
    1fe8:	f7fe fce2 	bl	9b0 <nvic_execution_priority>
    1fec:	2840      	cmp	r0, #64	; 0x40
    1fee:	dc0f      	bgt.n	2010 <serial2_putchar+0x50>
    1ff0:	4a11      	ldr	r2, [pc, #68]	; (2038 <serial2_putchar+0x78>)
    1ff2:	7913      	ldrb	r3, [r2, #4]
    1ff4:	061b      	lsls	r3, r3, #24
    1ff6:	d5f3      	bpl.n	1fe0 <serial2_putchar+0x20>
    1ff8:	78eb      	ldrb	r3, [r5, #3]
    1ffa:	3301      	adds	r3, #1
    1ffc:	2b28      	cmp	r3, #40	; 0x28
    1ffe:	bf28      	it	cs
    2000:	2300      	movcs	r3, #0
    2002:	18f1      	adds	r1, r6, r3
    2004:	b2db      	uxtb	r3, r3
    2006:	7c09      	ldrb	r1, [r1, #16]
    2008:	b2c9      	uxtb	r1, r1
    200a:	71d1      	strb	r1, [r2, #7]
    200c:	70f3      	strb	r3, [r6, #3]
    200e:	e7e7      	b.n	1fe0 <serial2_putchar+0x20>
    2010:	28ff      	cmp	r0, #255	; 0xff
    2012:	dde5      	ble.n	1fe0 <serial2_putchar+0x20>
    2014:	f003 facc 	bl	55b0 <yield>
    2018:	e7e2      	b.n	1fe0 <serial2_putchar+0x20>
    201a:	192b      	adds	r3, r5, r4
    201c:	b2ff      	uxtb	r7, r7
    201e:	741f      	strb	r7, [r3, #16]
    2020:	2301      	movs	r3, #1
    2022:	712b      	strb	r3, [r5, #4]
    2024:	4b04      	ldr	r3, [pc, #16]	; (2038 <serial2_putchar+0x78>)
    2026:	b2e4      	uxtb	r4, r4
    2028:	22bc      	movs	r2, #188	; 0xbc
    202a:	70ac      	strb	r4, [r5, #2]
    202c:	70da      	strb	r2, [r3, #3]
    202e:	bdf8      	pop	{r3, r4, r5, r6, r7, pc}
    2030:	40048034 	.word	0x40048034
    2034:	1fff0c10 	.word	0x1fff0c10
    2038:	4006b000 	.word	0x4006b000

0000203c <serial2_write>:
    203c:	e92d 43f8 	stmdb	sp!, {r3, r4, r5, r6, r7, r8, r9, lr}
    2040:	4b23      	ldr	r3, [pc, #140]	; (20d0 <serial2_write+0x94>)
    2042:	681b      	ldr	r3, [r3, #0]
    2044:	051a      	lsls	r2, r3, #20
    2046:	4607      	mov	r7, r0
    2048:	4689      	mov	r9, r1
    204a:	d53e      	bpl.n	20ca <serial2_write+0x8e>
    204c:	4c21      	ldr	r4, [pc, #132]	; (20d4 <serial2_write+0x98>)
    204e:	68e3      	ldr	r3, [r4, #12]
    2050:	b10b      	cbz	r3, 2056 <serial2_write+0x1a>
    2052:	2201      	movs	r2, #1
    2054:	701a      	strb	r2, [r3, #0]
    2056:	463e      	mov	r6, r7
    2058:	eb07 0309 	add.w	r3, r7, r9
    205c:	429e      	cmp	r6, r3
    205e:	d231      	bcs.n	20c4 <serial2_write+0x88>
    2060:	78a5      	ldrb	r5, [r4, #2]
    2062:	f894 8003 	ldrb.w	r8, [r4, #3]
    2066:	3501      	adds	r5, #1
    2068:	2d28      	cmp	r5, #40	; 0x28
    206a:	bf28      	it	cs
    206c:	2500      	movcs	r5, #0
    206e:	fa5f f888 	uxtb.w	r8, r8
    2072:	45a8      	cmp	r8, r5
    2074:	d11d      	bne.n	20b2 <serial2_write+0x76>
    2076:	4b18      	ldr	r3, [pc, #96]	; (20d8 <serial2_write+0x9c>)
    2078:	22bc      	movs	r2, #188	; 0xbc
    207a:	70da      	strb	r2, [r3, #3]
    207c:	f7fe fc98 	bl	9b0 <nvic_execution_priority>
    2080:	2840      	cmp	r0, #64	; 0x40
    2082:	dc0f      	bgt.n	20a4 <serial2_write+0x68>
    2084:	4a14      	ldr	r2, [pc, #80]	; (20d8 <serial2_write+0x9c>)
    2086:	7913      	ldrb	r3, [r2, #4]
    2088:	061b      	lsls	r3, r3, #24
    208a:	d50f      	bpl.n	20ac <serial2_write+0x70>
    208c:	78e3      	ldrb	r3, [r4, #3]
    208e:	3301      	adds	r3, #1
    2090:	2b28      	cmp	r3, #40	; 0x28
    2092:	bf28      	it	cs
    2094:	2300      	movcs	r3, #0
    2096:	18e1      	adds	r1, r4, r3
    2098:	b2db      	uxtb	r3, r3
    209a:	7c09      	ldrb	r1, [r1, #16]
    209c:	b2c9      	uxtb	r1, r1
    209e:	71d1      	strb	r1, [r2, #7]
    20a0:	70e3      	strb	r3, [r4, #3]
    20a2:	e003      	b.n	20ac <serial2_write+0x70>
    20a4:	28ff      	cmp	r0, #255	; 0xff
    20a6:	dd01      	ble.n	20ac <serial2_write+0x70>
    20a8:	f003 fa82 	bl	55b0 <yield>
    20ac:	78e3      	ldrb	r3, [r4, #3]
    20ae:	4543      	cmp	r3, r8
    20b0:	d0e4      	beq.n	207c <serial2_write+0x40>
    20b2:	1963      	adds	r3, r4, r5
    20b4:	f816 2b01 	ldrb.w	r2, [r6], #1
    20b8:	741a      	strb	r2, [r3, #16]
    20ba:	b2ed      	uxtb	r5, r5
    20bc:	2301      	movs	r3, #1
    20be:	7123      	strb	r3, [r4, #4]
    20c0:	70a5      	strb	r5, [r4, #2]
    20c2:	e7c9      	b.n	2058 <serial2_write+0x1c>
    20c4:	4b04      	ldr	r3, [pc, #16]	; (20d8 <serial2_write+0x9c>)
    20c6:	22bc      	movs	r2, #188	; 0xbc
    20c8:	70da      	strb	r2, [r3, #3]
    20ca:	e8bd 83f8 	ldmia.w	sp!, {r3, r4, r5, r6, r7, r8, r9, pc}
    20ce:	bf00      	nop
    20d0:	40048034 	.word	0x40048034
    20d4:	1fff0c10 	.word	0x1fff0c10
    20d8:	4006b000 	.word	0x4006b000

000020dc <serial2_flush>:
    20dc:	b508      	push	{r3, lr}
    20de:	4b03      	ldr	r3, [pc, #12]	; (20ec <serial2_flush+0x10>)
    20e0:	791b      	ldrb	r3, [r3, #4]
    20e2:	b113      	cbz	r3, 20ea <serial2_flush+0xe>
    20e4:	f003 fa64 	bl	55b0 <yield>
    20e8:	e7f9      	b.n	20de <serial2_flush+0x2>
    20ea:	bd08      	pop	{r3, pc}
    20ec:	1fff0c10 	.word	0x1fff0c10

000020f0 <serial2_write_buffer_free>:
    20f0:	4a05      	ldr	r2, [pc, #20]	; (2108 <serial2_write_buffer_free+0x18>)
    20f2:	7893      	ldrb	r3, [r2, #2]
    20f4:	78d0      	ldrb	r0, [r2, #3]
    20f6:	b2db      	uxtb	r3, r3
    20f8:	b2c0      	uxtb	r0, r0
    20fa:	4283      	cmp	r3, r0
    20fc:	bf2c      	ite	cs
    20fe:	3027      	addcs	r0, #39	; 0x27
    2100:	f100 30ff 	addcc.w	r0, r0, #4294967295
    2104:	1ac0      	subs	r0, r0, r3
    2106:	4770      	bx	lr
    2108:	1fff0c10 	.word	0x1fff0c10

0000210c <serial2_available>:
    210c:	4a04      	ldr	r2, [pc, #16]	; (2120 <serial2_available+0x14>)
    210e:	7810      	ldrb	r0, [r2, #0]
    2110:	7853      	ldrb	r3, [r2, #1]
    2112:	b2c0      	uxtb	r0, r0
    2114:	b2db      	uxtb	r3, r3
    2116:	4298      	cmp	r0, r3
    2118:	bf38      	it	cc
    211a:	3040      	addcc	r0, #64	; 0x40
    211c:	1ac0      	subs	r0, r0, r3
    211e:	4770      	bx	lr
    2120:	1fff0c10 	.word	0x1fff0c10

00002124 <serial2_getchar>:
    2124:	b510      	push	{r4, lr}
    2126:	4a0f      	ldr	r2, [pc, #60]	; (2164 <serial2_getchar+0x40>)
    2128:	7811      	ldrb	r1, [r2, #0]
    212a:	7853      	ldrb	r3, [r2, #1]
    212c:	b2c9      	uxtb	r1, r1
    212e:	b2db      	uxtb	r3, r3
    2130:	4299      	cmp	r1, r3
    2132:	d014      	beq.n	215e <serial2_getchar+0x3a>
    2134:	3301      	adds	r3, #1
    2136:	2b40      	cmp	r3, #64	; 0x40
    2138:	bf28      	it	cs
    213a:	2300      	movcs	r3, #0
    213c:	18d0      	adds	r0, r2, r3
    213e:	b2dc      	uxtb	r4, r3
    2140:	f890 0038 	ldrb.w	r0, [r0, #56]	; 0x38
    2144:	7054      	strb	r4, [r2, #1]
    2146:	6892      	ldr	r2, [r2, #8]
    2148:	b2c0      	uxtb	r0, r0
    214a:	b152      	cbz	r2, 2162 <serial2_getchar+0x3e>
    214c:	4299      	cmp	r1, r3
    214e:	bf38      	it	cc
    2150:	3140      	addcc	r1, #64	; 0x40
    2152:	1acb      	subs	r3, r1, r3
    2154:	2b1a      	cmp	r3, #26
    2156:	dc04      	bgt.n	2162 <serial2_getchar+0x3e>
    2158:	2300      	movs	r3, #0
    215a:	7013      	strb	r3, [r2, #0]
    215c:	bd10      	pop	{r4, pc}
    215e:	f04f 30ff 	mov.w	r0, #4294967295
    2162:	bd10      	pop	{r4, pc}
    2164:	1fff0c10 	.word	0x1fff0c10

00002168 <serial2_peek>:
    2168:	4a08      	ldr	r2, [pc, #32]	; (218c <serial2_peek+0x24>)
    216a:	7811      	ldrb	r1, [r2, #0]
    216c:	7853      	ldrb	r3, [r2, #1]
    216e:	b2db      	uxtb	r3, r3
    2170:	4299      	cmp	r1, r3
    2172:	d008      	beq.n	2186 <serial2_peek+0x1e>
    2174:	3301      	adds	r3, #1
    2176:	2b40      	cmp	r3, #64	; 0x40
    2178:	bf28      	it	cs
    217a:	2300      	movcs	r3, #0
    217c:	4413      	add	r3, r2
    217e:	f893 0038 	ldrb.w	r0, [r3, #56]	; 0x38
    2182:	b2c0      	uxtb	r0, r0
    2184:	4770      	bx	lr
    2186:	f04f 30ff 	mov.w	r0, #4294967295
    218a:	4770      	bx	lr
    218c:	1fff0c10 	.word	0x1fff0c10

00002190 <serial2_clear>:
    2190:	4b0b      	ldr	r3, [pc, #44]	; (21c0 <serial2_clear+0x30>)
    2192:	681b      	ldr	r3, [r3, #0]
    2194:	051b      	lsls	r3, r3, #20
    2196:	d512      	bpl.n	21be <serial2_clear+0x2e>
    2198:	4b0a      	ldr	r3, [pc, #40]	; (21c4 <serial2_clear+0x34>)
    219a:	78da      	ldrb	r2, [r3, #3]
    219c:	f002 02cb 	and.w	r2, r2, #203	; 0xcb
    21a0:	70da      	strb	r2, [r3, #3]
    21a2:	2240      	movs	r2, #64	; 0x40
    21a4:	745a      	strb	r2, [r3, #17]
    21a6:	78da      	ldrb	r2, [r3, #3]
    21a8:	f042 0234 	orr.w	r2, r2, #52	; 0x34
    21ac:	70da      	strb	r2, [r3, #3]
    21ae:	4b06      	ldr	r3, [pc, #24]	; (21c8 <serial2_clear+0x38>)
    21b0:	785a      	ldrb	r2, [r3, #1]
    21b2:	b2d2      	uxtb	r2, r2
    21b4:	701a      	strb	r2, [r3, #0]
    21b6:	689b      	ldr	r3, [r3, #8]
    21b8:	b10b      	cbz	r3, 21be <serial2_clear+0x2e>
    21ba:	2200      	movs	r2, #0
    21bc:	701a      	strb	r2, [r3, #0]
    21be:	4770      	bx	lr
    21c0:	40048034 	.word	0x40048034
    21c4:	4006b000 	.word	0x4006b000
    21c8:	1fff0c10 	.word	0x1fff0c10

000021cc <uart1_status_isr>:
    21cc:	b530      	push	{r4, r5, lr}
    21ce:	4b35      	ldr	r3, [pc, #212]	; (22a4 <uart1_status_isr+0xd8>)
    21d0:	791a      	ldrb	r2, [r3, #4]
    21d2:	f012 0f30 	tst.w	r2, #48	; 0x30
    21d6:	d02f      	beq.n	2238 <uart1_status_isr+0x6c>
    21d8:	b672      	cpsid	i
    21da:	7d9a      	ldrb	r2, [r3, #22]
    21dc:	f002 04ff 	and.w	r4, r2, #255	; 0xff
    21e0:	b922      	cbnz	r2, 21ec <uart1_status_isr+0x20>
    21e2:	79da      	ldrb	r2, [r3, #7]
    21e4:	2240      	movs	r2, #64	; 0x40
    21e6:	745a      	strb	r2, [r3, #17]
    21e8:	b662      	cpsie	i
    21ea:	e025      	b.n	2238 <uart1_status_isr+0x6c>
    21ec:	b662      	cpsie	i
    21ee:	482e      	ldr	r0, [pc, #184]	; (22a8 <uart1_status_isr+0xdc>)
    21f0:	7803      	ldrb	r3, [r0, #0]
    21f2:	7841      	ldrb	r1, [r0, #1]
    21f4:	b2db      	uxtb	r3, r3
    21f6:	b2c9      	uxtb	r1, r1
    21f8:	4a2a      	ldr	r2, [pc, #168]	; (22a4 <uart1_status_isr+0xd8>)
    21fa:	79d5      	ldrb	r5, [r2, #7]
    21fc:	1c5a      	adds	r2, r3, #1
    21fe:	2a40      	cmp	r2, #64	; 0x40
    2200:	bf28      	it	cs
    2202:	2200      	movcs	r2, #0
    2204:	428a      	cmp	r2, r1
    2206:	b2ed      	uxtb	r5, r5
    2208:	d003      	beq.n	2212 <uart1_status_isr+0x46>
    220a:	1883      	adds	r3, r0, r2
    220c:	f883 5038 	strb.w	r5, [r3, #56]	; 0x38
    2210:	4613      	mov	r3, r2
    2212:	1e62      	subs	r2, r4, #1
    2214:	f012 04ff 	ands.w	r4, r2, #255	; 0xff
    2218:	d1ee      	bne.n	21f8 <uart1_status_isr+0x2c>
    221a:	b2da      	uxtb	r2, r3
    221c:	7002      	strb	r2, [r0, #0]
    221e:	6882      	ldr	r2, [r0, #8]
    2220:	b152      	cbz	r2, 2238 <uart1_status_isr+0x6c>
    2222:	428b      	cmp	r3, r1
    2224:	bf36      	itet	cc
    2226:	f1c1 0140 	rsbcc	r1, r1, #64	; 0x40
    222a:	ebc1 0303 	rsbcs	r3, r1, r3
    222e:	185b      	addcc	r3, r3, r1
    2230:	2b27      	cmp	r3, #39	; 0x27
    2232:	bfc4      	itt	gt
    2234:	2301      	movgt	r3, #1
    2236:	7013      	strbgt	r3, [r2, #0]
    2238:	4b1a      	ldr	r3, [pc, #104]	; (22a4 <uart1_status_isr+0xd8>)
    223a:	78d9      	ldrb	r1, [r3, #3]
    223c:	b2c9      	uxtb	r1, r1
    223e:	060c      	lsls	r4, r1, #24
    2240:	d51f      	bpl.n	2282 <uart1_status_isr+0xb6>
    2242:	791b      	ldrb	r3, [r3, #4]
    2244:	0618      	lsls	r0, r3, #24
    2246:	d51c      	bpl.n	2282 <uart1_status_isr+0xb6>
    2248:	4a17      	ldr	r2, [pc, #92]	; (22a8 <uart1_status_isr+0xdc>)
    224a:	7895      	ldrb	r5, [r2, #2]
    224c:	78d3      	ldrb	r3, [r2, #3]
    224e:	b2ed      	uxtb	r5, r5
    2250:	b2db      	uxtb	r3, r3
    2252:	4610      	mov	r0, r2
    2254:	42ab      	cmp	r3, r5
    2256:	d00c      	beq.n	2272 <uart1_status_isr+0xa6>
    2258:	3301      	adds	r3, #1
    225a:	4a12      	ldr	r2, [pc, #72]	; (22a4 <uart1_status_isr+0xd8>)
    225c:	2b28      	cmp	r3, #40	; 0x28
    225e:	bf28      	it	cs
    2260:	2300      	movcs	r3, #0
    2262:	7914      	ldrb	r4, [r2, #4]
    2264:	18c4      	adds	r4, r0, r3
    2266:	7c24      	ldrb	r4, [r4, #16]
    2268:	b2e4      	uxtb	r4, r4
    226a:	71d4      	strb	r4, [r2, #7]
    226c:	7d12      	ldrb	r2, [r2, #20]
    226e:	2a07      	cmp	r2, #7
    2270:	d9f0      	bls.n	2254 <uart1_status_isr+0x88>
    2272:	b2db      	uxtb	r3, r3
    2274:	70c3      	strb	r3, [r0, #3]
    2276:	4b0b      	ldr	r3, [pc, #44]	; (22a4 <uart1_status_isr+0xd8>)
    2278:	791a      	ldrb	r2, [r3, #4]
    227a:	0612      	lsls	r2, r2, #24
    227c:	bf44      	itt	mi
    227e:	227c      	movmi	r2, #124	; 0x7c
    2280:	70da      	strbmi	r2, [r3, #3]
    2282:	064b      	lsls	r3, r1, #25
    2284:	d50d      	bpl.n	22a2 <uart1_status_isr+0xd6>
    2286:	4b07      	ldr	r3, [pc, #28]	; (22a4 <uart1_status_isr+0xd8>)
    2288:	791a      	ldrb	r2, [r3, #4]
    228a:	f012 0f40 	tst.w	r2, #64	; 0x40
    228e:	4619      	mov	r1, r3
    2290:	d007      	beq.n	22a2 <uart1_status_isr+0xd6>
    2292:	4b05      	ldr	r3, [pc, #20]	; (22a8 <uart1_status_isr+0xdc>)
    2294:	2200      	movs	r2, #0
    2296:	711a      	strb	r2, [r3, #4]
    2298:	68db      	ldr	r3, [r3, #12]
    229a:	b103      	cbz	r3, 229e <uart1_status_isr+0xd2>
    229c:	701a      	strb	r2, [r3, #0]
    229e:	233c      	movs	r3, #60	; 0x3c
    22a0:	70cb      	strb	r3, [r1, #3]
    22a2:	bd30      	pop	{r4, r5, pc}
    22a4:	4006b000 	.word	0x4006b000
    22a8:	1fff0c10 	.word	0x1fff0c10

000022ac <serial3_begin>:
    22ac:	4b14      	ldr	r3, [pc, #80]	; (2300 <serial3_begin+0x54>)
    22ae:	681a      	ldr	r2, [r3, #0]
    22b0:	f442 5280 	orr.w	r2, r2, #4096	; 0x1000
    22b4:	601a      	str	r2, [r3, #0]
    22b6:	4a13      	ldr	r2, [pc, #76]	; (2304 <serial3_begin+0x58>)
    22b8:	2300      	movs	r3, #0
    22ba:	7013      	strb	r3, [r2, #0]
    22bc:	7053      	strb	r3, [r2, #1]
    22be:	7093      	strb	r3, [r2, #2]
    22c0:	70d3      	strb	r3, [r2, #3]
    22c2:	7113      	strb	r3, [r2, #4]
    22c4:	4a10      	ldr	r2, [pc, #64]	; (2308 <serial3_begin+0x5c>)
    22c6:	f240 3113 	movw	r1, #787	; 0x313
    22ca:	6011      	str	r1, [r2, #0]
    22cc:	f44f 7151 	mov.w	r1, #836	; 0x344
    22d0:	6051      	str	r1, [r2, #4]
    22d2:	4a0e      	ldr	r2, [pc, #56]	; (230c <serial3_begin+0x60>)
    22d4:	f3c0 3144 	ubfx	r1, r0, #13, #5
    22d8:	7011      	strb	r1, [r2, #0]
    22da:	f3c0 1147 	ubfx	r1, r0, #5, #8
    22de:	f000 001f 	and.w	r0, r0, #31
    22e2:	7051      	strb	r1, [r2, #1]
    22e4:	7290      	strb	r0, [r2, #10]
    22e6:	7093      	strb	r3, [r2, #2]
    22e8:	7413      	strb	r3, [r2, #16]
    22ea:	232c      	movs	r3, #44	; 0x2c
    22ec:	70d3      	strb	r3, [r2, #3]
    22ee:	4b08      	ldr	r3, [pc, #32]	; (2310 <serial3_begin+0x64>)
    22f0:	2240      	movs	r2, #64	; 0x40
    22f2:	701a      	strb	r2, [r3, #0]
    22f4:	f2a3 331f 	subw	r3, r3, #799	; 0x31f
    22f8:	2208      	movs	r2, #8
    22fa:	601a      	str	r2, [r3, #0]
    22fc:	4770      	bx	lr
    22fe:	bf00      	nop
    2300:	40048034 	.word	0x40048034
    2304:	1fff0c88 	.word	0x1fff0c88
    2308:	4004c008 	.word	0x4004c008
    230c:	4006c000 	.word	0x4006c000
    2310:	e000e423 	.word	0xe000e423

00002314 <serial3_format>:
    2314:	4a19      	ldr	r2, [pc, #100]	; (237c <serial3_format+0x68>)
    2316:	7893      	ldrb	r3, [r2, #2]
    2318:	f000 0103 	and.w	r1, r0, #3
    231c:	f003 03ec 	and.w	r3, r3, #236	; 0xec
    2320:	430b      	orrs	r3, r1
    2322:	0741      	lsls	r1, r0, #29
    2324:	bf48      	it	mi
    2326:	f043 0310 	orrmi.w	r3, r3, #16
    232a:	7093      	strb	r3, [r2, #2]
    232c:	f000 030f 	and.w	r3, r0, #15
    2330:	2b04      	cmp	r3, #4
    2332:	4912      	ldr	r1, [pc, #72]	; (237c <serial3_format+0x68>)
    2334:	d103      	bne.n	233e <serial3_format+0x2a>
    2336:	798b      	ldrb	r3, [r1, #6]
    2338:	f043 0340 	orr.w	r3, r3, #64	; 0x40
    233c:	718b      	strb	r3, [r1, #6]
    233e:	7952      	ldrb	r2, [r2, #5]
    2340:	4b0e      	ldr	r3, [pc, #56]	; (237c <serial3_format+0x68>)
    2342:	f002 02ef 	and.w	r2, r2, #239	; 0xef
    2346:	06c1      	lsls	r1, r0, #27
    2348:	bf48      	it	mi
    234a:	f042 0210 	orrmi.w	r2, r2, #16
    234e:	715a      	strb	r2, [r3, #5]
    2350:	799a      	ldrb	r2, [r3, #6]
    2352:	f010 0f20 	tst.w	r0, #32
    2356:	f002 02ef 	and.w	r2, r2, #239	; 0xef
    235a:	4619      	mov	r1, r3
    235c:	bf18      	it	ne
    235e:	f042 0210 	orrne.w	r2, r2, #16
    2362:	718a      	strb	r2, [r1, #6]
    2364:	05c2      	lsls	r2, r0, #23
    2366:	4b05      	ldr	r3, [pc, #20]	; (237c <serial3_format+0x68>)
    2368:	d506      	bpl.n	2378 <serial3_format+0x64>
    236a:	785a      	ldrb	r2, [r3, #1]
    236c:	7819      	ldrb	r1, [r3, #0]
    236e:	b2d2      	uxtb	r2, r2
    2370:	f041 0120 	orr.w	r1, r1, #32
    2374:	7019      	strb	r1, [r3, #0]
    2376:	705a      	strb	r2, [r3, #1]
    2378:	4770      	bx	lr
    237a:	bf00      	nop
    237c:	4006c000 	.word	0x4006c000

00002380 <serial3_end>:
    2380:	b508      	push	{r3, lr}
    2382:	4b10      	ldr	r3, [pc, #64]	; (23c4 <serial3_end+0x44>)
    2384:	681b      	ldr	r3, [r3, #0]
    2386:	04db      	lsls	r3, r3, #19
    2388:	d400      	bmi.n	238c <serial3_end+0xc>
    238a:	bd08      	pop	{r3, pc}
    238c:	4b0e      	ldr	r3, [pc, #56]	; (23c8 <serial3_end+0x48>)
    238e:	7919      	ldrb	r1, [r3, #4]
    2390:	f001 02ff 	and.w	r2, r1, #255	; 0xff
    2394:	b111      	cbz	r1, 239c <serial3_end+0x1c>
    2396:	f003 f90b 	bl	55b0 <yield>
    239a:	e7f7      	b.n	238c <serial3_end+0xc>
    239c:	490b      	ldr	r1, [pc, #44]	; (23cc <serial3_end+0x4c>)
    239e:	2008      	movs	r0, #8
    23a0:	6008      	str	r0, [r1, #0]
    23a2:	490b      	ldr	r1, [pc, #44]	; (23d0 <serial3_end+0x50>)
    23a4:	f100 4080 	add.w	r0, r0, #1073741824	; 0x40000000
    23a8:	f500 2098 	add.w	r0, r0, #311296	; 0x4c000
    23ac:	70ca      	strb	r2, [r1, #3]
    23ae:	f240 1103 	movw	r1, #259	; 0x103
    23b2:	6001      	str	r1, [r0, #0]
    23b4:	6041      	str	r1, [r0, #4]
    23b6:	701a      	strb	r2, [r3, #0]
    23b8:	705a      	strb	r2, [r3, #1]
    23ba:	689b      	ldr	r3, [r3, #8]
    23bc:	b10b      	cbz	r3, 23c2 <serial3_end+0x42>
    23be:	2201      	movs	r2, #1
    23c0:	701a      	strb	r2, [r3, #0]
    23c2:	bd08      	pop	{r3, pc}
    23c4:	40048034 	.word	0x40048034
    23c8:	1fff0c88 	.word	0x1fff0c88
    23cc:	e000e184 	.word	0xe000e184
    23d0:	4006c000 	.word	0x4006c000

000023d4 <serial3_set_transmit_pin>:
    23d4:	b570      	push	{r4, r5, r6, lr}
    23d6:	4604      	mov	r4, r0
    23d8:	4d09      	ldr	r5, [pc, #36]	; (2400 <serial3_set_transmit_pin+0x2c>)
    23da:	792b      	ldrb	r3, [r5, #4]
    23dc:	f003 06ff 	and.w	r6, r3, #255	; 0xff
    23e0:	2b00      	cmp	r3, #0
    23e2:	d1f9      	bne.n	23d8 <serial3_set_transmit_pin+0x4>
    23e4:	4620      	mov	r0, r4
    23e6:	2101      	movs	r1, #1
    23e8:	f7fe fdb2 	bl	f50 <pinMode>
    23ec:	4620      	mov	r0, r4
    23ee:	4631      	mov	r1, r6
    23f0:	f7fe fd80 	bl	ef4 <digitalWrite>
    23f4:	4b03      	ldr	r3, [pc, #12]	; (2404 <serial3_set_transmit_pin+0x30>)
    23f6:	f853 3034 	ldr.w	r3, [r3, r4, lsl #3]
    23fa:	60eb      	str	r3, [r5, #12]
    23fc:	bd70      	pop	{r4, r5, r6, pc}
    23fe:	bf00      	nop
    2400:	1fff0c88 	.word	0x1fff0c88
    2404:	00009ec4 	.word	0x00009ec4

00002408 <serial3_set_tx>:
    2408:	b510      	push	{r4, lr}
    240a:	b109      	cbz	r1, 2410 <serial3_set_tx+0x8>
    240c:	f040 0080 	orr.w	r0, r0, #128	; 0x80
    2410:	4a0e      	ldr	r2, [pc, #56]	; (244c <serial3_set_tx+0x44>)
    2412:	7813      	ldrb	r3, [r2, #0]
    2414:	4298      	cmp	r0, r3
    2416:	d017      	beq.n	2448 <serial3_set_tx+0x40>
    2418:	4c0d      	ldr	r4, [pc, #52]	; (2450 <serial3_set_tx+0x48>)
    241a:	6824      	ldr	r4, [r4, #0]
    241c:	04e4      	lsls	r4, r4, #19
    241e:	d512      	bpl.n	2446 <serial3_set_tx+0x3e>
    2420:	f003 037f 	and.w	r3, r3, #127	; 0x7f
    2424:	2b08      	cmp	r3, #8
    2426:	d102      	bne.n	242e <serial3_set_tx+0x26>
    2428:	4b0a      	ldr	r3, [pc, #40]	; (2454 <serial3_set_tx+0x4c>)
    242a:	2400      	movs	r4, #0
    242c:	601c      	str	r4, [r3, #0]
    242e:	2900      	cmp	r1, #0
    2430:	f000 037f 	and.w	r3, r0, #127	; 0x7f
    2434:	bf0c      	ite	eq
    2436:	2144      	moveq	r1, #68	; 0x44
    2438:	2160      	movne	r1, #96	; 0x60
    243a:	2b08      	cmp	r3, #8
    243c:	d103      	bne.n	2446 <serial3_set_tx+0x3e>
    243e:	4b05      	ldr	r3, [pc, #20]	; (2454 <serial3_set_tx+0x4c>)
    2440:	f441 7140 	orr.w	r1, r1, #768	; 0x300
    2444:	6019      	str	r1, [r3, #0]
    2446:	7010      	strb	r0, [r2, #0]
    2448:	bd10      	pop	{r4, pc}
    244a:	bf00      	nop
    244c:	1fff0a0b 	.word	0x1fff0a0b
    2450:	40048034 	.word	0x40048034
    2454:	4004c00c 	.word	0x4004c00c

00002458 <serial3_set_rx>:
    2458:	4770      	bx	lr

0000245a <serial3_set_rts>:
    245a:	4a0d      	ldr	r2, [pc, #52]	; (2490 <serial3_set_rts+0x36>)
    245c:	b538      	push	{r3, r4, r5, lr}
    245e:	6814      	ldr	r4, [r2, #0]
    2460:	f414 5280 	ands.w	r2, r4, #4096	; 0x1000
    2464:	f04f 0400 	mov.w	r4, #0
    2468:	d010      	beq.n	248c <serial3_set_rts+0x32>
    246a:	283f      	cmp	r0, #63	; 0x3f
    246c:	4d09      	ldr	r5, [pc, #36]	; (2494 <serial3_set_rts+0x3a>)
    246e:	d80a      	bhi.n	2486 <serial3_set_rts+0x2c>
    2470:	4a09      	ldr	r2, [pc, #36]	; (2498 <serial3_set_rts+0x3e>)
    2472:	2101      	movs	r1, #1
    2474:	f852 3030 	ldr.w	r3, [r2, r0, lsl #3]
    2478:	60ab      	str	r3, [r5, #8]
    247a:	f7fe fd69 	bl	f50 <pinMode>
    247e:	68ab      	ldr	r3, [r5, #8]
    2480:	701c      	strb	r4, [r3, #0]
    2482:	2001      	movs	r0, #1
    2484:	bd38      	pop	{r3, r4, r5, pc}
    2486:	60ac      	str	r4, [r5, #8]
    2488:	4620      	mov	r0, r4
    248a:	bd38      	pop	{r3, r4, r5, pc}
    248c:	4610      	mov	r0, r2
    248e:	bd38      	pop	{r3, r4, r5, pc}
    2490:	40048034 	.word	0x40048034
    2494:	1fff0c88 	.word	0x1fff0c88
    2498:	00009ec4 	.word	0x00009ec4

0000249c <serial3_set_cts>:
    249c:	4b0b      	ldr	r3, [pc, #44]	; (24cc <serial3_set_cts+0x30>)
    249e:	681b      	ldr	r3, [r3, #0]
    24a0:	f413 5380 	ands.w	r3, r3, #4096	; 0x1000
    24a4:	d010      	beq.n	24c8 <serial3_set_cts+0x2c>
    24a6:	280e      	cmp	r0, #14
    24a8:	4b09      	ldr	r3, [pc, #36]	; (24d0 <serial3_set_cts+0x34>)
    24aa:	d109      	bne.n	24c0 <serial3_set_cts+0x24>
    24ac:	4a09      	ldr	r2, [pc, #36]	; (24d4 <serial3_set_cts+0x38>)
    24ae:	f240 3102 	movw	r1, #770	; 0x302
    24b2:	6011      	str	r1, [r2, #0]
    24b4:	7b5a      	ldrb	r2, [r3, #13]
    24b6:	f042 0201 	orr.w	r2, r2, #1
    24ba:	735a      	strb	r2, [r3, #13]
    24bc:	2001      	movs	r0, #1
    24be:	4770      	bx	lr
    24c0:	7b5a      	ldrb	r2, [r3, #13]
    24c2:	f002 02fe 	and.w	r2, r2, #254	; 0xfe
    24c6:	735a      	strb	r2, [r3, #13]
    24c8:	2000      	movs	r0, #0
    24ca:	4770      	bx	lr
    24cc:	40048034 	.word	0x40048034
    24d0:	4006c000 	.word	0x4006c000
    24d4:	4004c004 	.word	0x4004c004

000024d8 <serial3_putchar>:
    24d8:	b5f8      	push	{r3, r4, r5, r6, r7, lr}
    24da:	4b1b      	ldr	r3, [pc, #108]	; (2548 <serial3_putchar+0x70>)
    24dc:	681b      	ldr	r3, [r3, #0]
    24de:	04da      	lsls	r2, r3, #19
    24e0:	4607      	mov	r7, r0
    24e2:	d530      	bpl.n	2546 <serial3_putchar+0x6e>
    24e4:	4e19      	ldr	r6, [pc, #100]	; (254c <serial3_putchar+0x74>)
    24e6:	68f3      	ldr	r3, [r6, #12]
    24e8:	b10b      	cbz	r3, 24ee <serial3_putchar+0x16>
    24ea:	2201      	movs	r2, #1
    24ec:	701a      	strb	r2, [r3, #0]
    24ee:	78b4      	ldrb	r4, [r6, #2]
    24f0:	3401      	adds	r4, #1
    24f2:	2c28      	cmp	r4, #40	; 0x28
    24f4:	bf28      	it	cs
    24f6:	2400      	movcs	r4, #0
    24f8:	78f3      	ldrb	r3, [r6, #3]
    24fa:	4d14      	ldr	r5, [pc, #80]	; (254c <serial3_putchar+0x74>)
    24fc:	42a3      	cmp	r3, r4
    24fe:	d118      	bne.n	2532 <serial3_putchar+0x5a>
    2500:	f7fe fa56 	bl	9b0 <nvic_execution_priority>
    2504:	2840      	cmp	r0, #64	; 0x40
    2506:	dc0f      	bgt.n	2528 <serial3_putchar+0x50>
    2508:	4a11      	ldr	r2, [pc, #68]	; (2550 <serial3_putchar+0x78>)
    250a:	7913      	ldrb	r3, [r2, #4]
    250c:	061b      	lsls	r3, r3, #24
    250e:	d5f3      	bpl.n	24f8 <serial3_putchar+0x20>
    2510:	78eb      	ldrb	r3, [r5, #3]
    2512:	3301      	adds	r3, #1
    2514:	2b28      	cmp	r3, #40	; 0x28
    2516:	bf28      	it	cs
    2518:	2300      	movcs	r3, #0
    251a:	18f1      	adds	r1, r6, r3
    251c:	b2db      	uxtb	r3, r3
    251e:	7c09      	ldrb	r1, [r1, #16]
    2520:	b2c9      	uxtb	r1, r1
    2522:	71d1      	strb	r1, [r2, #7]
    2524:	70f3      	strb	r3, [r6, #3]
    2526:	e7e7      	b.n	24f8 <serial3_putchar+0x20>
    2528:	28ff      	cmp	r0, #255	; 0xff
    252a:	dde5      	ble.n	24f8 <serial3_putchar+0x20>
    252c:	f003 f840 	bl	55b0 <yield>
    2530:	e7e2      	b.n	24f8 <serial3_putchar+0x20>
    2532:	192b      	adds	r3, r5, r4
    2534:	b2ff      	uxtb	r7, r7
    2536:	741f      	strb	r7, [r3, #16]
    2538:	2301      	movs	r3, #1
    253a:	712b      	strb	r3, [r5, #4]
    253c:	4b04      	ldr	r3, [pc, #16]	; (2550 <serial3_putchar+0x78>)
    253e:	b2e4      	uxtb	r4, r4
    2540:	22ac      	movs	r2, #172	; 0xac
    2542:	70ac      	strb	r4, [r5, #2]
    2544:	70da      	strb	r2, [r3, #3]
    2546:	bdf8      	pop	{r3, r4, r5, r6, r7, pc}
    2548:	40048034 	.word	0x40048034
    254c:	1fff0c88 	.word	0x1fff0c88
    2550:	4006c000 	.word	0x4006c000

00002554 <serial3_write>:
    2554:	b538      	push	{r3, r4, r5, lr}
    2556:	4604      	mov	r4, r0
    2558:	1845      	adds	r5, r0, r1
    255a:	42ac      	cmp	r4, r5
    255c:	d004      	beq.n	2568 <serial3_write+0x14>
    255e:	f814 0b01 	ldrb.w	r0, [r4], #1
    2562:	f7ff ffb9 	bl	24d8 <serial3_putchar>
    2566:	e7f8      	b.n	255a <serial3_write+0x6>
    2568:	bd38      	pop	{r3, r4, r5, pc}

0000256a <serial3_flush>:
    256a:	b508      	push	{r3, lr}
    256c:	4b03      	ldr	r3, [pc, #12]	; (257c <serial3_flush+0x12>)
    256e:	791b      	ldrb	r3, [r3, #4]
    2570:	b113      	cbz	r3, 2578 <serial3_flush+0xe>
    2572:	f003 f81d 	bl	55b0 <yield>
    2576:	e7f9      	b.n	256c <serial3_flush+0x2>
    2578:	bd08      	pop	{r3, pc}
    257a:	bf00      	nop
    257c:	1fff0c88 	.word	0x1fff0c88

00002580 <serial3_write_buffer_free>:
    2580:	4a05      	ldr	r2, [pc, #20]	; (2598 <serial3_write_buffer_free+0x18>)
    2582:	7893      	ldrb	r3, [r2, #2]
    2584:	78d0      	ldrb	r0, [r2, #3]
    2586:	b2db      	uxtb	r3, r3
    2588:	b2c0      	uxtb	r0, r0
    258a:	4283      	cmp	r3, r0
    258c:	bf2c      	ite	cs
    258e:	3027      	addcs	r0, #39	; 0x27
    2590:	f100 30ff 	addcc.w	r0, r0, #4294967295
    2594:	1ac0      	subs	r0, r0, r3
    2596:	4770      	bx	lr
    2598:	1fff0c88 	.word	0x1fff0c88

0000259c <serial3_available>:
    259c:	4a04      	ldr	r2, [pc, #16]	; (25b0 <serial3_available+0x14>)
    259e:	7810      	ldrb	r0, [r2, #0]
    25a0:	7853      	ldrb	r3, [r2, #1]
    25a2:	b2c0      	uxtb	r0, r0
    25a4:	b2db      	uxtb	r3, r3
    25a6:	4298      	cmp	r0, r3
    25a8:	bf38      	it	cc
    25aa:	3040      	addcc	r0, #64	; 0x40
    25ac:	1ac0      	subs	r0, r0, r3
    25ae:	4770      	bx	lr
    25b0:	1fff0c88 	.word	0x1fff0c88

000025b4 <serial3_getchar>:
    25b4:	b510      	push	{r4, lr}
    25b6:	4a0f      	ldr	r2, [pc, #60]	; (25f4 <serial3_getchar+0x40>)
    25b8:	7811      	ldrb	r1, [r2, #0]
    25ba:	7853      	ldrb	r3, [r2, #1]
    25bc:	b2c9      	uxtb	r1, r1
    25be:	b2db      	uxtb	r3, r3
    25c0:	4299      	cmp	r1, r3
    25c2:	d014      	beq.n	25ee <serial3_getchar+0x3a>
    25c4:	3301      	adds	r3, #1
    25c6:	2b40      	cmp	r3, #64	; 0x40
    25c8:	bf28      	it	cs
    25ca:	2300      	movcs	r3, #0
    25cc:	18d0      	adds	r0, r2, r3
    25ce:	b2dc      	uxtb	r4, r3
    25d0:	f890 0038 	ldrb.w	r0, [r0, #56]	; 0x38
    25d4:	7054      	strb	r4, [r2, #1]
    25d6:	6892      	ldr	r2, [r2, #8]
    25d8:	b2c0      	uxtb	r0, r0
    25da:	b152      	cbz	r2, 25f2 <serial3_getchar+0x3e>
    25dc:	4299      	cmp	r1, r3
    25de:	bf38      	it	cc
    25e0:	3140      	addcc	r1, #64	; 0x40
    25e2:	1acb      	subs	r3, r1, r3
    25e4:	2b1a      	cmp	r3, #26
    25e6:	dc04      	bgt.n	25f2 <serial3_getchar+0x3e>
    25e8:	2300      	movs	r3, #0
    25ea:	7013      	strb	r3, [r2, #0]
    25ec:	bd10      	pop	{r4, pc}
    25ee:	f04f 30ff 	mov.w	r0, #4294967295
    25f2:	bd10      	pop	{r4, pc}
    25f4:	1fff0c88 	.word	0x1fff0c88

000025f8 <serial3_peek>:
    25f8:	4a08      	ldr	r2, [pc, #32]	; (261c <serial3_peek+0x24>)
    25fa:	7811      	ldrb	r1, [r2, #0]
    25fc:	7853      	ldrb	r3, [r2, #1]
    25fe:	b2db      	uxtb	r3, r3
    2600:	4299      	cmp	r1, r3
    2602:	d008      	beq.n	2616 <serial3_peek+0x1e>
    2604:	3301      	adds	r3, #1
    2606:	2b40      	cmp	r3, #64	; 0x40
    2608:	bf28      	it	cs
    260a:	2300      	movcs	r3, #0
    260c:	4413      	add	r3, r2
    260e:	f893 0038 	ldrb.w	r0, [r3, #56]	; 0x38
    2612:	b2c0      	uxtb	r0, r0
    2614:	4770      	bx	lr
    2616:	f04f 30ff 	mov.w	r0, #4294967295
    261a:	4770      	bx	lr
    261c:	1fff0c88 	.word	0x1fff0c88

00002620 <serial3_clear>:
    2620:	4b04      	ldr	r3, [pc, #16]	; (2634 <serial3_clear+0x14>)
    2622:	785a      	ldrb	r2, [r3, #1]
    2624:	b2d2      	uxtb	r2, r2
    2626:	701a      	strb	r2, [r3, #0]
    2628:	689b      	ldr	r3, [r3, #8]
    262a:	b10b      	cbz	r3, 2630 <serial3_clear+0x10>
    262c:	2200      	movs	r2, #0
    262e:	701a      	strb	r2, [r3, #0]
    2630:	4770      	bx	lr
    2632:	bf00      	nop
    2634:	1fff0c88 	.word	0x1fff0c88

00002638 <uart2_status_isr>:
    2638:	b510      	push	{r4, lr}
    263a:	4b28      	ldr	r3, [pc, #160]	; (26dc <uart2_status_isr+0xa4>)
    263c:	791a      	ldrb	r2, [r3, #4]
    263e:	0692      	lsls	r2, r2, #26
    2640:	d51f      	bpl.n	2682 <uart2_status_isr+0x4a>
    2642:	4a27      	ldr	r2, [pc, #156]	; (26e0 <uart2_status_isr+0xa8>)
    2644:	79d8      	ldrb	r0, [r3, #7]
    2646:	7813      	ldrb	r3, [r2, #0]
    2648:	7851      	ldrb	r1, [r2, #1]
    264a:	3301      	adds	r3, #1
    264c:	2b40      	cmp	r3, #64	; 0x40
    264e:	bf28      	it	cs
    2650:	2300      	movcs	r3, #0
    2652:	428b      	cmp	r3, r1
    2654:	b2c0      	uxtb	r0, r0
    2656:	d004      	beq.n	2662 <uart2_status_isr+0x2a>
    2658:	18d1      	adds	r1, r2, r3
    265a:	f881 0038 	strb.w	r0, [r1, #56]	; 0x38
    265e:	b2d9      	uxtb	r1, r3
    2660:	7011      	strb	r1, [r2, #0]
    2662:	6891      	ldr	r1, [r2, #8]
    2664:	b169      	cbz	r1, 2682 <uart2_status_isr+0x4a>
    2666:	4a1e      	ldr	r2, [pc, #120]	; (26e0 <uart2_status_isr+0xa8>)
    2668:	78d2      	ldrb	r2, [r2, #3]
    266a:	b2d2      	uxtb	r2, r2
    266c:	4293      	cmp	r3, r2
    266e:	bf36      	itet	cc
    2670:	f1c2 0240 	rsbcc	r2, r2, #64	; 0x40
    2674:	ebc2 0303 	rsbcs	r3, r2, r3
    2678:	189b      	addcc	r3, r3, r2
    267a:	2b27      	cmp	r3, #39	; 0x27
    267c:	bfc4      	itt	gt
    267e:	2301      	movgt	r3, #1
    2680:	700b      	strbgt	r3, [r1, #0]
    2682:	4916      	ldr	r1, [pc, #88]	; (26dc <uart2_status_isr+0xa4>)
    2684:	78c8      	ldrb	r0, [r1, #3]
    2686:	b2c0      	uxtb	r0, r0
    2688:	0604      	lsls	r4, r0, #24
    268a:	d515      	bpl.n	26b8 <uart2_status_isr+0x80>
    268c:	790b      	ldrb	r3, [r1, #4]
    268e:	061a      	lsls	r2, r3, #24
    2690:	d512      	bpl.n	26b8 <uart2_status_isr+0x80>
    2692:	4a13      	ldr	r2, [pc, #76]	; (26e0 <uart2_status_isr+0xa8>)
    2694:	7894      	ldrb	r4, [r2, #2]
    2696:	78d3      	ldrb	r3, [r2, #3]
    2698:	b2db      	uxtb	r3, r3
    269a:	429c      	cmp	r4, r3
    269c:	d102      	bne.n	26a4 <uart2_status_isr+0x6c>
    269e:	236c      	movs	r3, #108	; 0x6c
    26a0:	70cb      	strb	r3, [r1, #3]
    26a2:	e009      	b.n	26b8 <uart2_status_isr+0x80>
    26a4:	3301      	adds	r3, #1
    26a6:	2b28      	cmp	r3, #40	; 0x28
    26a8:	bf28      	it	cs
    26aa:	2300      	movcs	r3, #0
    26ac:	18d4      	adds	r4, r2, r3
    26ae:	b2db      	uxtb	r3, r3
    26b0:	7c24      	ldrb	r4, [r4, #16]
    26b2:	b2e4      	uxtb	r4, r4
    26b4:	71cc      	strb	r4, [r1, #7]
    26b6:	70d3      	strb	r3, [r2, #3]
    26b8:	0643      	lsls	r3, r0, #25
    26ba:	d50d      	bpl.n	26d8 <uart2_status_isr+0xa0>
    26bc:	4b07      	ldr	r3, [pc, #28]	; (26dc <uart2_status_isr+0xa4>)
    26be:	791a      	ldrb	r2, [r3, #4]
    26c0:	f012 0f40 	tst.w	r2, #64	; 0x40
    26c4:	4619      	mov	r1, r3
    26c6:	d007      	beq.n	26d8 <uart2_status_isr+0xa0>
    26c8:	4b05      	ldr	r3, [pc, #20]	; (26e0 <uart2_status_isr+0xa8>)
    26ca:	2200      	movs	r2, #0
    26cc:	711a      	strb	r2, [r3, #4]
    26ce:	68db      	ldr	r3, [r3, #12]
    26d0:	b103      	cbz	r3, 26d4 <uart2_status_isr+0x9c>
    26d2:	701a      	strb	r2, [r3, #0]
    26d4:	232c      	movs	r3, #44	; 0x2c
    26d6:	70cb      	strb	r3, [r1, #3]
    26d8:	bd10      	pop	{r4, pc}
    26da:	bf00      	nop
    26dc:	4006c000 	.word	0x4006c000
    26e0:	1fff0c88 	.word	0x1fff0c88

000026e4 <serial4_begin>:
    26e4:	4b1f      	ldr	r3, [pc, #124]	; (2764 <serial4_begin+0x80>)
    26e6:	681a      	ldr	r2, [r3, #0]
    26e8:	f442 5200 	orr.w	r2, r2, #8192	; 0x2000
    26ec:	601a      	str	r2, [r3, #0]
    26ee:	4b1e      	ldr	r3, [pc, #120]	; (2768 <serial4_begin+0x84>)
    26f0:	2200      	movs	r2, #0
    26f2:	701a      	strb	r2, [r3, #0]
    26f4:	705a      	strb	r2, [r3, #1]
    26f6:	709a      	strb	r2, [r3, #2]
    26f8:	70da      	strb	r2, [r3, #3]
    26fa:	711a      	strb	r2, [r3, #4]
    26fc:	4a1b      	ldr	r2, [pc, #108]	; (276c <serial4_begin+0x88>)
    26fe:	7813      	ldrb	r3, [r2, #0]
    2700:	2b1f      	cmp	r3, #31
    2702:	d005      	beq.n	2710 <serial4_begin+0x2c>
    2704:	2b3f      	cmp	r3, #63	; 0x3f
    2706:	d107      	bne.n	2718 <serial4_begin+0x34>
    2708:	f240 3113 	movw	r1, #787	; 0x313
    270c:	4b18      	ldr	r3, [pc, #96]	; (2770 <serial4_begin+0x8c>)
    270e:	e002      	b.n	2716 <serial4_begin+0x32>
    2710:	4b18      	ldr	r3, [pc, #96]	; (2774 <serial4_begin+0x90>)
    2712:	f240 3113 	movw	r1, #787	; 0x313
    2716:	6019      	str	r1, [r3, #0]
    2718:	7853      	ldrb	r3, [r2, #1]
    271a:	2b20      	cmp	r3, #32
    271c:	d005      	beq.n	272a <serial4_begin+0x46>
    271e:	2b3e      	cmp	r3, #62	; 0x3e
    2720:	d107      	bne.n	2732 <serial4_begin+0x4e>
    2722:	f44f 7251 	mov.w	r2, #836	; 0x344
    2726:	4b14      	ldr	r3, [pc, #80]	; (2778 <serial4_begin+0x94>)
    2728:	e002      	b.n	2730 <serial4_begin+0x4c>
    272a:	4b14      	ldr	r3, [pc, #80]	; (277c <serial4_begin+0x98>)
    272c:	f44f 7251 	mov.w	r2, #836	; 0x344
    2730:	601a      	str	r2, [r3, #0]
    2732:	4b13      	ldr	r3, [pc, #76]	; (2780 <serial4_begin+0x9c>)
    2734:	f3c0 3244 	ubfx	r2, r0, #13, #5
    2738:	701a      	strb	r2, [r3, #0]
    273a:	f3c0 1247 	ubfx	r2, r0, #5, #8
    273e:	705a      	strb	r2, [r3, #1]
    2740:	f000 001f 	and.w	r0, r0, #31
    2744:	2200      	movs	r2, #0
    2746:	7298      	strb	r0, [r3, #10]
    2748:	709a      	strb	r2, [r3, #2]
    274a:	741a      	strb	r2, [r3, #16]
    274c:	222c      	movs	r2, #44	; 0x2c
    274e:	70da      	strb	r2, [r3, #3]
    2750:	4b0c      	ldr	r3, [pc, #48]	; (2784 <serial4_begin+0xa0>)
    2752:	2240      	movs	r2, #64	; 0x40
    2754:	f46f 7148 	mvn.w	r1, #800	; 0x320
    2758:	701a      	strb	r2, [r3, #0]
    275a:	440b      	add	r3, r1
    275c:	2220      	movs	r2, #32
    275e:	601a      	str	r2, [r3, #0]
    2760:	4770      	bx	lr
    2762:	bf00      	nop
    2764:	40048034 	.word	0x40048034
    2768:	1fff0d00 	.word	0x1fff0d00
    276c:	1fff0a0c 	.word	0x1fff0a0c
    2770:	4004d014 	.word	0x4004d014
    2774:	4004a028 	.word	0x4004a028
    2778:	4004d010 	.word	0x4004d010
    277c:	4004a02c 	.word	0x4004a02c
    2780:	4006d000 	.word	0x4006d000
    2784:	e000e425 	.word	0xe000e425

00002788 <serial4_format>:
    2788:	4a19      	ldr	r2, [pc, #100]	; (27f0 <serial4_format+0x68>)
    278a:	7893      	ldrb	r3, [r2, #2]
    278c:	f000 0103 	and.w	r1, r0, #3
    2790:	f003 03ec 	and.w	r3, r3, #236	; 0xec
    2794:	430b      	orrs	r3, r1
    2796:	0741      	lsls	r1, r0, #29
    2798:	bf48      	it	mi
    279a:	f043 0310 	orrmi.w	r3, r3, #16
    279e:	7093      	strb	r3, [r2, #2]
    27a0:	f000 030f 	and.w	r3, r0, #15
    27a4:	2b04      	cmp	r3, #4
    27a6:	4912      	ldr	r1, [pc, #72]	; (27f0 <serial4_format+0x68>)
    27a8:	d103      	bne.n	27b2 <serial4_format+0x2a>
    27aa:	798b      	ldrb	r3, [r1, #6]
    27ac:	f043 0340 	orr.w	r3, r3, #64	; 0x40
    27b0:	718b      	strb	r3, [r1, #6]
    27b2:	7952      	ldrb	r2, [r2, #5]
    27b4:	4b0e      	ldr	r3, [pc, #56]	; (27f0 <serial4_format+0x68>)
    27b6:	f002 02ef 	and.w	r2, r2, #239	; 0xef
    27ba:	06c1      	lsls	r1, r0, #27
    27bc:	bf48      	it	mi
    27be:	f042 0210 	orrmi.w	r2, r2, #16
    27c2:	715a      	strb	r2, [r3, #5]
    27c4:	799a      	ldrb	r2, [r3, #6]
    27c6:	f010 0f20 	tst.w	r0, #32
    27ca:	f002 02ef 	and.w	r2, r2, #239	; 0xef
    27ce:	4619      	mov	r1, r3
    27d0:	bf18      	it	ne
    27d2:	f042 0210 	orrne.w	r2, r2, #16
    27d6:	718a      	strb	r2, [r1, #6]
    27d8:	05c2      	lsls	r2, r0, #23
    27da:	4b05      	ldr	r3, [pc, #20]	; (27f0 <serial4_format+0x68>)
    27dc:	d506      	bpl.n	27ec <serial4_format+0x64>
    27de:	785a      	ldrb	r2, [r3, #1]
    27e0:	7819      	ldrb	r1, [r3, #0]
    27e2:	b2d2      	uxtb	r2, r2
    27e4:	f041 0120 	orr.w	r1, r1, #32
    27e8:	7019      	strb	r1, [r3, #0]
    27ea:	705a      	strb	r2, [r3, #1]
    27ec:	4770      	bx	lr
    27ee:	bf00      	nop
    27f0:	4006d000 	.word	0x4006d000

000027f4 <serial4_end>:
    27f4:	4b1c      	ldr	r3, [pc, #112]	; (2868 <serial4_end+0x74>)
    27f6:	681b      	ldr	r3, [r3, #0]
    27f8:	049b      	lsls	r3, r3, #18
    27fa:	b570      	push	{r4, r5, r6, lr}
    27fc:	d400      	bmi.n	2800 <serial4_end+0xc>
    27fe:	bd70      	pop	{r4, r5, r6, pc}
    2800:	4b1a      	ldr	r3, [pc, #104]	; (286c <serial4_end+0x78>)
    2802:	791a      	ldrb	r2, [r3, #4]
    2804:	f002 01ff 	and.w	r1, r2, #255	; 0xff
    2808:	b112      	cbz	r2, 2810 <serial4_end+0x1c>
    280a:	f002 fed1 	bl	55b0 <yield>
    280e:	e7f7      	b.n	2800 <serial4_end+0xc>
    2810:	4a17      	ldr	r2, [pc, #92]	; (2870 <serial4_end+0x7c>)
    2812:	4e18      	ldr	r6, [pc, #96]	; (2874 <serial4_end+0x80>)
    2814:	4d18      	ldr	r5, [pc, #96]	; (2878 <serial4_end+0x84>)
    2816:	2020      	movs	r0, #32
    2818:	6010      	str	r0, [r2, #0]
    281a:	4a18      	ldr	r2, [pc, #96]	; (287c <serial4_end+0x88>)
    281c:	4818      	ldr	r0, [pc, #96]	; (2880 <serial4_end+0x8c>)
    281e:	70d1      	strb	r1, [r2, #3]
    2820:	f240 1203 	movw	r2, #259	; 0x103
    2824:	6002      	str	r2, [r0, #0]
    2826:	6032      	str	r2, [r6, #0]
    2828:	782c      	ldrb	r4, [r5, #0]
    282a:	2c1f      	cmp	r4, #31
    282c:	d004      	beq.n	2838 <serial4_end+0x44>
    282e:	2c3f      	cmp	r4, #63	; 0x3f
    2830:	d103      	bne.n	283a <serial4_end+0x46>
    2832:	4a14      	ldr	r2, [pc, #80]	; (2884 <serial4_end+0x90>)
    2834:	6011      	str	r1, [r2, #0]
    2836:	e000      	b.n	283a <serial4_end+0x46>
    2838:	6002      	str	r2, [r0, #0]
    283a:	786a      	ldrb	r2, [r5, #1]
    283c:	f002 027f 	and.w	r2, r2, #127	; 0x7f
    2840:	2a20      	cmp	r2, #32
    2842:	d005      	beq.n	2850 <serial4_end+0x5c>
    2844:	2a3e      	cmp	r2, #62	; 0x3e
    2846:	d106      	bne.n	2856 <serial4_end+0x62>
    2848:	4a0f      	ldr	r2, [pc, #60]	; (2888 <serial4_end+0x94>)
    284a:	2100      	movs	r1, #0
    284c:	6011      	str	r1, [r2, #0]
    284e:	e002      	b.n	2856 <serial4_end+0x62>
    2850:	f240 1203 	movw	r2, #259	; 0x103
    2854:	6032      	str	r2, [r6, #0]
    2856:	2200      	movs	r2, #0
    2858:	701a      	strb	r2, [r3, #0]
    285a:	705a      	strb	r2, [r3, #1]
    285c:	689b      	ldr	r3, [r3, #8]
    285e:	b10b      	cbz	r3, 2864 <serial4_end+0x70>
    2860:	2201      	movs	r2, #1
    2862:	701a      	strb	r2, [r3, #0]
    2864:	bd70      	pop	{r4, r5, r6, pc}
    2866:	bf00      	nop
    2868:	40048034 	.word	0x40048034
    286c:	1fff0d00 	.word	0x1fff0d00
    2870:	e000e184 	.word	0xe000e184
    2874:	4004a02c 	.word	0x4004a02c
    2878:	1fff0a0c 	.word	0x1fff0a0c
    287c:	4006d000 	.word	0x4006d000
    2880:	4004a028 	.word	0x4004a028
    2884:	4004d014 	.word	0x4004d014
    2888:	4004d010 	.word	0x4004d010

0000288c <serial4_set_transmit_pin>:
    288c:	b570      	push	{r4, r5, r6, lr}
    288e:	4604      	mov	r4, r0
    2890:	4d09      	ldr	r5, [pc, #36]	; (28b8 <serial4_set_transmit_pin+0x2c>)
    2892:	792b      	ldrb	r3, [r5, #4]
    2894:	f003 06ff 	and.w	r6, r3, #255	; 0xff
    2898:	2b00      	cmp	r3, #0
    289a:	d1f9      	bne.n	2890 <serial4_set_transmit_pin+0x4>
    289c:	4620      	mov	r0, r4
    289e:	2101      	movs	r1, #1
    28a0:	f7fe fb56 	bl	f50 <pinMode>
    28a4:	4620      	mov	r0, r4
    28a6:	4631      	mov	r1, r6
    28a8:	f7fe fb24 	bl	ef4 <digitalWrite>
    28ac:	4b03      	ldr	r3, [pc, #12]	; (28bc <serial4_set_transmit_pin+0x30>)
    28ae:	f853 3034 	ldr.w	r3, [r3, r4, lsl #3]
    28b2:	60eb      	str	r3, [r5, #12]
    28b4:	bd70      	pop	{r4, r5, r6, pc}
    28b6:	bf00      	nop
    28b8:	1fff0d00 	.word	0x1fff0d00
    28bc:	00009ec4 	.word	0x00009ec4

000028c0 <serial4_set_tx>:
    28c0:	b510      	push	{r4, lr}
    28c2:	b109      	cbz	r1, 28c8 <serial4_set_tx+0x8>
    28c4:	f040 0080 	orr.w	r0, r0, #128	; 0x80
    28c8:	4a14      	ldr	r2, [pc, #80]	; (291c <serial4_set_tx+0x5c>)
    28ca:	7853      	ldrb	r3, [r2, #1]
    28cc:	4298      	cmp	r0, r3
    28ce:	4614      	mov	r4, r2
    28d0:	d022      	beq.n	2918 <serial4_set_tx+0x58>
    28d2:	4a13      	ldr	r2, [pc, #76]	; (2920 <serial4_set_tx+0x60>)
    28d4:	6812      	ldr	r2, [r2, #0]
    28d6:	0492      	lsls	r2, r2, #18
    28d8:	d51d      	bpl.n	2916 <serial4_set_tx+0x56>
    28da:	f003 037f 	and.w	r3, r3, #127	; 0x7f
    28de:	2b20      	cmp	r3, #32
    28e0:	d004      	beq.n	28ec <serial4_set_tx+0x2c>
    28e2:	2b3e      	cmp	r3, #62	; 0x3e
    28e4:	d105      	bne.n	28f2 <serial4_set_tx+0x32>
    28e6:	2200      	movs	r2, #0
    28e8:	4b0e      	ldr	r3, [pc, #56]	; (2924 <serial4_set_tx+0x64>)
    28ea:	e001      	b.n	28f0 <serial4_set_tx+0x30>
    28ec:	4b0e      	ldr	r3, [pc, #56]	; (2928 <serial4_set_tx+0x68>)
    28ee:	2200      	movs	r2, #0
    28f0:	601a      	str	r2, [r3, #0]
    28f2:	2900      	cmp	r1, #0
    28f4:	f000 027f 	and.w	r2, r0, #127	; 0x7f
    28f8:	bf0c      	ite	eq
    28fa:	2344      	moveq	r3, #68	; 0x44
    28fc:	2360      	movne	r3, #96	; 0x60
    28fe:	2a20      	cmp	r2, #32
    2900:	d005      	beq.n	290e <serial4_set_tx+0x4e>
    2902:	2a3e      	cmp	r2, #62	; 0x3e
    2904:	d107      	bne.n	2916 <serial4_set_tx+0x56>
    2906:	f443 7340 	orr.w	r3, r3, #768	; 0x300
    290a:	4a06      	ldr	r2, [pc, #24]	; (2924 <serial4_set_tx+0x64>)
    290c:	e002      	b.n	2914 <serial4_set_tx+0x54>
    290e:	4a06      	ldr	r2, [pc, #24]	; (2928 <serial4_set_tx+0x68>)
    2910:	f443 7340 	orr.w	r3, r3, #768	; 0x300
    2914:	6013      	str	r3, [r2, #0]
    2916:	7060      	strb	r0, [r4, #1]
    2918:	bd10      	pop	{r4, pc}
    291a:	bf00      	nop
    291c:	1fff0a0c 	.word	0x1fff0a0c
    2920:	40048034 	.word	0x40048034
    2924:	4004d010 	.word	0x4004d010
    2928:	4004a02c 	.word	0x4004a02c

0000292c <serial4_set_rx>:
    292c:	4a0f      	ldr	r2, [pc, #60]	; (296c <serial4_set_rx+0x40>)
    292e:	7813      	ldrb	r3, [r2, #0]
    2930:	4298      	cmp	r0, r3
    2932:	d01a      	beq.n	296a <serial4_set_rx+0x3e>
    2934:	490e      	ldr	r1, [pc, #56]	; (2970 <serial4_set_rx+0x44>)
    2936:	6809      	ldr	r1, [r1, #0]
    2938:	0489      	lsls	r1, r1, #18
    293a:	d515      	bpl.n	2968 <serial4_set_rx+0x3c>
    293c:	2b1f      	cmp	r3, #31
    293e:	d004      	beq.n	294a <serial4_set_rx+0x1e>
    2940:	2b3f      	cmp	r3, #63	; 0x3f
    2942:	d105      	bne.n	2950 <serial4_set_rx+0x24>
    2944:	2100      	movs	r1, #0
    2946:	4b0b      	ldr	r3, [pc, #44]	; (2974 <serial4_set_rx+0x48>)
    2948:	e001      	b.n	294e <serial4_set_rx+0x22>
    294a:	4b0b      	ldr	r3, [pc, #44]	; (2978 <serial4_set_rx+0x4c>)
    294c:	2100      	movs	r1, #0
    294e:	6019      	str	r1, [r3, #0]
    2950:	281f      	cmp	r0, #31
    2952:	d005      	beq.n	2960 <serial4_set_rx+0x34>
    2954:	283f      	cmp	r0, #63	; 0x3f
    2956:	d107      	bne.n	2968 <serial4_set_rx+0x3c>
    2958:	f240 3113 	movw	r1, #787	; 0x313
    295c:	4b05      	ldr	r3, [pc, #20]	; (2974 <serial4_set_rx+0x48>)
    295e:	e002      	b.n	2966 <serial4_set_rx+0x3a>
    2960:	4b05      	ldr	r3, [pc, #20]	; (2978 <serial4_set_rx+0x4c>)
    2962:	f240 3113 	movw	r1, #787	; 0x313
    2966:	6019      	str	r1, [r3, #0]
    2968:	7010      	strb	r0, [r2, #0]
    296a:	4770      	bx	lr
    296c:	1fff0a0c 	.word	0x1fff0a0c
    2970:	40048034 	.word	0x40048034
    2974:	4004d014 	.word	0x4004d014
    2978:	4004a028 	.word	0x4004a028

0000297c <serial4_set_rts>:
    297c:	4a0d      	ldr	r2, [pc, #52]	; (29b4 <serial4_set_rts+0x38>)
    297e:	b538      	push	{r3, r4, r5, lr}
    2980:	6814      	ldr	r4, [r2, #0]
    2982:	f414 5200 	ands.w	r2, r4, #8192	; 0x2000
    2986:	f04f 0400 	mov.w	r4, #0
    298a:	d010      	beq.n	29ae <serial4_set_rts+0x32>
    298c:	283f      	cmp	r0, #63	; 0x3f
    298e:	4d0a      	ldr	r5, [pc, #40]	; (29b8 <serial4_set_rts+0x3c>)
    2990:	d80a      	bhi.n	29a8 <serial4_set_rts+0x2c>
    2992:	4a0a      	ldr	r2, [pc, #40]	; (29bc <serial4_set_rts+0x40>)
    2994:	2101      	movs	r1, #1
    2996:	f852 3030 	ldr.w	r3, [r2, r0, lsl #3]
    299a:	60ab      	str	r3, [r5, #8]
    299c:	f7fe fad8 	bl	f50 <pinMode>
    29a0:	68ab      	ldr	r3, [r5, #8]
    29a2:	701c      	strb	r4, [r3, #0]
    29a4:	2001      	movs	r0, #1
    29a6:	bd38      	pop	{r3, r4, r5, pc}
    29a8:	60ac      	str	r4, [r5, #8]
    29aa:	4620      	mov	r0, r4
    29ac:	bd38      	pop	{r3, r4, r5, pc}
    29ae:	4610      	mov	r0, r2
    29b0:	bd38      	pop	{r3, r4, r5, pc}
    29b2:	bf00      	nop
    29b4:	40048034 	.word	0x40048034
    29b8:	1fff0d00 	.word	0x1fff0d00
    29bc:	00009ec4 	.word	0x00009ec4

000029c0 <serial4_set_cts>:
    29c0:	2000      	movs	r0, #0
    29c2:	4770      	bx	lr

000029c4 <serial4_putchar>:
    29c4:	b5f8      	push	{r3, r4, r5, r6, r7, lr}
    29c6:	4b1b      	ldr	r3, [pc, #108]	; (2a34 <serial4_putchar+0x70>)
    29c8:	681b      	ldr	r3, [r3, #0]
    29ca:	049a      	lsls	r2, r3, #18
    29cc:	4607      	mov	r7, r0
    29ce:	d530      	bpl.n	2a32 <serial4_putchar+0x6e>
    29d0:	4e19      	ldr	r6, [pc, #100]	; (2a38 <serial4_putchar+0x74>)
    29d2:	68f3      	ldr	r3, [r6, #12]
    29d4:	b10b      	cbz	r3, 29da <serial4_putchar+0x16>
    29d6:	2201      	movs	r2, #1
    29d8:	701a      	strb	r2, [r3, #0]
    29da:	78b4      	ldrb	r4, [r6, #2]
    29dc:	3401      	adds	r4, #1
    29de:	2c28      	cmp	r4, #40	; 0x28
    29e0:	bf28      	it	cs
    29e2:	2400      	movcs	r4, #0
    29e4:	78f3      	ldrb	r3, [r6, #3]
    29e6:	4d14      	ldr	r5, [pc, #80]	; (2a38 <serial4_putchar+0x74>)
    29e8:	42a3      	cmp	r3, r4
    29ea:	d118      	bne.n	2a1e <serial4_putchar+0x5a>
    29ec:	f7fd ffe0 	bl	9b0 <nvic_execution_priority>
    29f0:	2840      	cmp	r0, #64	; 0x40
    29f2:	dc0f      	bgt.n	2a14 <serial4_putchar+0x50>
    29f4:	4a11      	ldr	r2, [pc, #68]	; (2a3c <serial4_putchar+0x78>)
    29f6:	7913      	ldrb	r3, [r2, #4]
    29f8:	061b      	lsls	r3, r3, #24
    29fa:	d5f3      	bpl.n	29e4 <serial4_putchar+0x20>
    29fc:	78eb      	ldrb	r3, [r5, #3]
    29fe:	3301      	adds	r3, #1
    2a00:	2b28      	cmp	r3, #40	; 0x28
    2a02:	bf28      	it	cs
    2a04:	2300      	movcs	r3, #0
    2a06:	18f1      	adds	r1, r6, r3
    2a08:	b2db      	uxtb	r3, r3
    2a0a:	7c09      	ldrb	r1, [r1, #16]
    2a0c:	b2c9      	uxtb	r1, r1
    2a0e:	71d1      	strb	r1, [r2, #7]
    2a10:	70f3      	strb	r3, [r6, #3]
    2a12:	e7e7      	b.n	29e4 <serial4_putchar+0x20>
    2a14:	28ff      	cmp	r0, #255	; 0xff
    2a16:	dde5      	ble.n	29e4 <serial4_putchar+0x20>
    2a18:	f002 fdca 	bl	55b0 <yield>
    2a1c:	e7e2      	b.n	29e4 <serial4_putchar+0x20>
    2a1e:	192b      	adds	r3, r5, r4
    2a20:	b2ff      	uxtb	r7, r7
    2a22:	741f      	strb	r7, [r3, #16]
    2a24:	2301      	movs	r3, #1
    2a26:	712b      	strb	r3, [r5, #4]
    2a28:	4b04      	ldr	r3, [pc, #16]	; (2a3c <serial4_putchar+0x78>)
    2a2a:	b2e4      	uxtb	r4, r4
    2a2c:	22ac      	movs	r2, #172	; 0xac
    2a2e:	70ac      	strb	r4, [r5, #2]
    2a30:	70da      	strb	r2, [r3, #3]
    2a32:	bdf8      	pop	{r3, r4, r5, r6, r7, pc}
    2a34:	40048034 	.word	0x40048034
    2a38:	1fff0d00 	.word	0x1fff0d00
    2a3c:	4006d000 	.word	0x4006d000

00002a40 <serial4_write>:
    2a40:	b538      	push	{r3, r4, r5, lr}
    2a42:	4604      	mov	r4, r0
    2a44:	1845      	adds	r5, r0, r1
    2a46:	42ac      	cmp	r4, r5
    2a48:	d004      	beq.n	2a54 <serial4_write+0x14>
    2a4a:	f814 0b01 	ldrb.w	r0, [r4], #1
    2a4e:	f7ff ffb9 	bl	29c4 <serial4_putchar>
    2a52:	e7f8      	b.n	2a46 <serial4_write+0x6>
    2a54:	bd38      	pop	{r3, r4, r5, pc}

00002a56 <serial4_flush>:
    2a56:	b508      	push	{r3, lr}
    2a58:	4b03      	ldr	r3, [pc, #12]	; (2a68 <serial4_flush+0x12>)
    2a5a:	791b      	ldrb	r3, [r3, #4]
    2a5c:	b113      	cbz	r3, 2a64 <serial4_flush+0xe>
    2a5e:	f002 fda7 	bl	55b0 <yield>
    2a62:	e7f9      	b.n	2a58 <serial4_flush+0x2>
    2a64:	bd08      	pop	{r3, pc}
    2a66:	bf00      	nop
    2a68:	1fff0d00 	.word	0x1fff0d00

00002a6c <serial4_write_buffer_free>:
    2a6c:	4a05      	ldr	r2, [pc, #20]	; (2a84 <serial4_write_buffer_free+0x18>)
    2a6e:	7893      	ldrb	r3, [r2, #2]
    2a70:	78d0      	ldrb	r0, [r2, #3]
    2a72:	b2db      	uxtb	r3, r3
    2a74:	b2c0      	uxtb	r0, r0
    2a76:	4283      	cmp	r3, r0
    2a78:	bf2c      	ite	cs
    2a7a:	3027      	addcs	r0, #39	; 0x27
    2a7c:	f100 30ff 	addcc.w	r0, r0, #4294967295
    2a80:	1ac0      	subs	r0, r0, r3
    2a82:	4770      	bx	lr
    2a84:	1fff0d00 	.word	0x1fff0d00

00002a88 <serial4_available>:
    2a88:	4a04      	ldr	r2, [pc, #16]	; (2a9c <serial4_available+0x14>)
    2a8a:	7810      	ldrb	r0, [r2, #0]
    2a8c:	7853      	ldrb	r3, [r2, #1]
    2a8e:	b2c0      	uxtb	r0, r0
    2a90:	b2db      	uxtb	r3, r3
    2a92:	4298      	cmp	r0, r3
    2a94:	bf38      	it	cc
    2a96:	3040      	addcc	r0, #64	; 0x40
    2a98:	1ac0      	subs	r0, r0, r3
    2a9a:	4770      	bx	lr
    2a9c:	1fff0d00 	.word	0x1fff0d00

00002aa0 <serial4_getchar>:
    2aa0:	b510      	push	{r4, lr}
    2aa2:	4a0f      	ldr	r2, [pc, #60]	; (2ae0 <serial4_getchar+0x40>)
    2aa4:	7811      	ldrb	r1, [r2, #0]
    2aa6:	7853      	ldrb	r3, [r2, #1]
    2aa8:	b2c9      	uxtb	r1, r1
    2aaa:	b2db      	uxtb	r3, r3
    2aac:	4299      	cmp	r1, r3
    2aae:	d014      	beq.n	2ada <serial4_getchar+0x3a>
    2ab0:	3301      	adds	r3, #1
    2ab2:	2b40      	cmp	r3, #64	; 0x40
    2ab4:	bf28      	it	cs
    2ab6:	2300      	movcs	r3, #0
    2ab8:	18d0      	adds	r0, r2, r3
    2aba:	b2dc      	uxtb	r4, r3
    2abc:	f890 0038 	ldrb.w	r0, [r0, #56]	; 0x38
    2ac0:	7054      	strb	r4, [r2, #1]
    2ac2:	6892      	ldr	r2, [r2, #8]
    2ac4:	b2c0      	uxtb	r0, r0
    2ac6:	b152      	cbz	r2, 2ade <serial4_getchar+0x3e>
    2ac8:	4299      	cmp	r1, r3
    2aca:	bf38      	it	cc
    2acc:	3140      	addcc	r1, #64	; 0x40
    2ace:	1acb      	subs	r3, r1, r3
    2ad0:	2b1a      	cmp	r3, #26
    2ad2:	dc04      	bgt.n	2ade <serial4_getchar+0x3e>
    2ad4:	2300      	movs	r3, #0
    2ad6:	7013      	strb	r3, [r2, #0]
    2ad8:	bd10      	pop	{r4, pc}
    2ada:	f04f 30ff 	mov.w	r0, #4294967295
    2ade:	bd10      	pop	{r4, pc}
    2ae0:	1fff0d00 	.word	0x1fff0d00

00002ae4 <serial4_peek>:
    2ae4:	4a08      	ldr	r2, [pc, #32]	; (2b08 <serial4_peek+0x24>)
    2ae6:	7811      	ldrb	r1, [r2, #0]
    2ae8:	7853      	ldrb	r3, [r2, #1]
    2aea:	b2db      	uxtb	r3, r3
    2aec:	4299      	cmp	r1, r3
    2aee:	d008      	beq.n	2b02 <serial4_peek+0x1e>
    2af0:	3301      	adds	r3, #1
    2af2:	2b40      	cmp	r3, #64	; 0x40
    2af4:	bf28      	it	cs
    2af6:	2300      	movcs	r3, #0
    2af8:	4413      	add	r3, r2
    2afa:	f893 0038 	ldrb.w	r0, [r3, #56]	; 0x38
    2afe:	b2c0      	uxtb	r0, r0
    2b00:	4770      	bx	lr
    2b02:	f04f 30ff 	mov.w	r0, #4294967295
    2b06:	4770      	bx	lr
    2b08:	1fff0d00 	.word	0x1fff0d00

00002b0c <serial4_clear>:
    2b0c:	4b04      	ldr	r3, [pc, #16]	; (2b20 <serial4_clear+0x14>)
    2b0e:	785a      	ldrb	r2, [r3, #1]
    2b10:	b2d2      	uxtb	r2, r2
    2b12:	701a      	strb	r2, [r3, #0]
    2b14:	689b      	ldr	r3, [r3, #8]
    2b16:	b10b      	cbz	r3, 2b1c <serial4_clear+0x10>
    2b18:	2200      	movs	r2, #0
    2b1a:	701a      	strb	r2, [r3, #0]
    2b1c:	4770      	bx	lr
    2b1e:	bf00      	nop
    2b20:	1fff0d00 	.word	0x1fff0d00

00002b24 <uart3_status_isr>:
    2b24:	b510      	push	{r4, lr}
    2b26:	4b28      	ldr	r3, [pc, #160]	; (2bc8 <uart3_status_isr+0xa4>)
    2b28:	791a      	ldrb	r2, [r3, #4]
    2b2a:	0692      	lsls	r2, r2, #26
    2b2c:	d51f      	bpl.n	2b6e <uart3_status_isr+0x4a>
    2b2e:	4a27      	ldr	r2, [pc, #156]	; (2bcc <uart3_status_isr+0xa8>)
    2b30:	79d8      	ldrb	r0, [r3, #7]
    2b32:	7813      	ldrb	r3, [r2, #0]
    2b34:	7851      	ldrb	r1, [r2, #1]
    2b36:	3301      	adds	r3, #1
    2b38:	2b40      	cmp	r3, #64	; 0x40
    2b3a:	bf28      	it	cs
    2b3c:	2300      	movcs	r3, #0
    2b3e:	428b      	cmp	r3, r1
    2b40:	b2c0      	uxtb	r0, r0
    2b42:	d004      	beq.n	2b4e <uart3_status_isr+0x2a>
    2b44:	18d1      	adds	r1, r2, r3
    2b46:	f881 0038 	strb.w	r0, [r1, #56]	; 0x38
    2b4a:	b2d9      	uxtb	r1, r3
    2b4c:	7011      	strb	r1, [r2, #0]
    2b4e:	6891      	ldr	r1, [r2, #8]
    2b50:	b169      	cbz	r1, 2b6e <uart3_status_isr+0x4a>
    2b52:	4a1e      	ldr	r2, [pc, #120]	; (2bcc <uart3_status_isr+0xa8>)
    2b54:	78d2      	ldrb	r2, [r2, #3]
    2b56:	b2d2      	uxtb	r2, r2
    2b58:	4293      	cmp	r3, r2
    2b5a:	bf36      	itet	cc
    2b5c:	f1c2 0240 	rsbcc	r2, r2, #64	; 0x40
    2b60:	ebc2 0303 	rsbcs	r3, r2, r3
    2b64:	189b      	addcc	r3, r3, r2
    2b66:	2b27      	cmp	r3, #39	; 0x27
    2b68:	bfc4      	itt	gt
    2b6a:	2301      	movgt	r3, #1
    2b6c:	700b      	strbgt	r3, [r1, #0]
    2b6e:	4916      	ldr	r1, [pc, #88]	; (2bc8 <uart3_status_isr+0xa4>)
    2b70:	78c8      	ldrb	r0, [r1, #3]
    2b72:	b2c0      	uxtb	r0, r0
    2b74:	0604      	lsls	r4, r0, #24
    2b76:	d515      	bpl.n	2ba4 <uart3_status_isr+0x80>
    2b78:	790b      	ldrb	r3, [r1, #4]
    2b7a:	061a      	lsls	r2, r3, #24
    2b7c:	d512      	bpl.n	2ba4 <uart3_status_isr+0x80>
    2b7e:	4a13      	ldr	r2, [pc, #76]	; (2bcc <uart3_status_isr+0xa8>)
    2b80:	7894      	ldrb	r4, [r2, #2]
    2b82:	78d3      	ldrb	r3, [r2, #3]
    2b84:	b2db      	uxtb	r3, r3
    2b86:	429c      	cmp	r4, r3
    2b88:	d102      	bne.n	2b90 <uart3_status_isr+0x6c>
    2b8a:	236c      	movs	r3, #108	; 0x6c
    2b8c:	70cb      	strb	r3, [r1, #3]
    2b8e:	e009      	b.n	2ba4 <uart3_status_isr+0x80>
    2b90:	3301      	adds	r3, #1
    2b92:	2b28      	cmp	r3, #40	; 0x28
    2b94:	bf28      	it	cs
    2b96:	2300      	movcs	r3, #0
    2b98:	18d4      	adds	r4, r2, r3
    2b9a:	b2db      	uxtb	r3, r3
    2b9c:	7c24      	ldrb	r4, [r4, #16]
    2b9e:	b2e4      	uxtb	r4, r4
    2ba0:	71cc      	strb	r4, [r1, #7]
    2ba2:	70d3      	strb	r3, [r2, #3]
    2ba4:	0643      	lsls	r3, r0, #25
    2ba6:	d50d      	bpl.n	2bc4 <uart3_status_isr+0xa0>
    2ba8:	4b07      	ldr	r3, [pc, #28]	; (2bc8 <uart3_status_isr+0xa4>)
    2baa:	791a      	ldrb	r2, [r3, #4]
    2bac:	f012 0f40 	tst.w	r2, #64	; 0x40
    2bb0:	4619      	mov	r1, r3
    2bb2:	d007      	beq.n	2bc4 <uart3_status_isr+0xa0>
    2bb4:	4b05      	ldr	r3, [pc, #20]	; (2bcc <uart3_status_isr+0xa8>)
    2bb6:	2200      	movs	r2, #0
    2bb8:	711a      	strb	r2, [r3, #4]
    2bba:	68db      	ldr	r3, [r3, #12]
    2bbc:	b103      	cbz	r3, 2bc0 <uart3_status_isr+0x9c>
    2bbe:	701a      	strb	r2, [r3, #0]
    2bc0:	232c      	movs	r3, #44	; 0x2c
    2bc2:	70cb      	strb	r3, [r1, #3]
    2bc4:	bd10      	pop	{r4, pc}
    2bc6:	bf00      	nop
    2bc8:	4006d000 	.word	0x4006d000
    2bcc:	1fff0d00 	.word	0x1fff0d00

00002bd0 <serial5_begin>:
    2bd0:	4b14      	ldr	r3, [pc, #80]	; (2c24 <serial5_begin+0x54>)
    2bd2:	681a      	ldr	r2, [r3, #0]
    2bd4:	f442 6280 	orr.w	r2, r2, #1024	; 0x400
    2bd8:	601a      	str	r2, [r3, #0]
    2bda:	4a13      	ldr	r2, [pc, #76]	; (2c28 <serial5_begin+0x58>)
    2bdc:	2300      	movs	r3, #0
    2bde:	7013      	strb	r3, [r2, #0]
    2be0:	7053      	strb	r3, [r2, #1]
    2be2:	7093      	strb	r3, [r2, #2]
    2be4:	70d3      	strb	r3, [r2, #3]
    2be6:	7113      	strb	r3, [r2, #4]
    2be8:	4a10      	ldr	r2, [pc, #64]	; (2c2c <serial5_begin+0x5c>)
    2bea:	f240 3113 	movw	r1, #787	; 0x313
    2bee:	6011      	str	r1, [r2, #0]
    2bf0:	f44f 7151 	mov.w	r1, #836	; 0x344
    2bf4:	f842 1c04 	str.w	r1, [r2, #-4]
    2bf8:	4a0d      	ldr	r2, [pc, #52]	; (2c30 <serial5_begin+0x60>)
    2bfa:	f3c0 3144 	ubfx	r1, r0, #13, #5
    2bfe:	7011      	strb	r1, [r2, #0]
    2c00:	f3c0 1147 	ubfx	r1, r0, #5, #8
    2c04:	f000 001f 	and.w	r0, r0, #31
    2c08:	7051      	strb	r1, [r2, #1]
    2c0a:	7290      	strb	r0, [r2, #10]
    2c0c:	7093      	strb	r3, [r2, #2]
    2c0e:	7413      	strb	r3, [r2, #16]
    2c10:	232c      	movs	r3, #44	; 0x2c
    2c12:	70d3      	strb	r3, [r2, #3]
    2c14:	4b07      	ldr	r3, [pc, #28]	; (2c34 <serial5_begin+0x64>)
    2c16:	2240      	movs	r2, #64	; 0x40
    2c18:	701a      	strb	r2, [r3, #0]
    2c1a:	f2a3 333a 	subw	r3, r3, #826	; 0x33a
    2c1e:	2204      	movs	r2, #4
    2c20:	601a      	str	r2, [r3, #0]
    2c22:	4770      	bx	lr
    2c24:	40048028 	.word	0x40048028
    2c28:	1fff0d78 	.word	0x1fff0d78
    2c2c:	4004d064 	.word	0x4004d064
    2c30:	400ea000 	.word	0x400ea000
    2c34:	e000e442 	.word	0xe000e442

00002c38 <serial5_format>:
    2c38:	4a19      	ldr	r2, [pc, #100]	; (2ca0 <serial5_format+0x68>)
    2c3a:	7893      	ldrb	r3, [r2, #2]
    2c3c:	f000 0103 	and.w	r1, r0, #3
    2c40:	f003 03ec 	and.w	r3, r3, #236	; 0xec
    2c44:	430b      	orrs	r3, r1
    2c46:	0741      	lsls	r1, r0, #29
    2c48:	bf48      	it	mi
    2c4a:	f043 0310 	orrmi.w	r3, r3, #16
    2c4e:	7093      	strb	r3, [r2, #2]
    2c50:	f000 030f 	and.w	r3, r0, #15
    2c54:	2b04      	cmp	r3, #4
    2c56:	4912      	ldr	r1, [pc, #72]	; (2ca0 <serial5_format+0x68>)
    2c58:	d103      	bne.n	2c62 <serial5_format+0x2a>
    2c5a:	798b      	ldrb	r3, [r1, #6]
    2c5c:	f043 0340 	orr.w	r3, r3, #64	; 0x40
    2c60:	718b      	strb	r3, [r1, #6]
    2c62:	7952      	ldrb	r2, [r2, #5]
    2c64:	4b0e      	ldr	r3, [pc, #56]	; (2ca0 <serial5_format+0x68>)
    2c66:	f002 02ef 	and.w	r2, r2, #239	; 0xef
    2c6a:	06c1      	lsls	r1, r0, #27
    2c6c:	bf48      	it	mi
    2c6e:	f042 0210 	orrmi.w	r2, r2, #16
    2c72:	715a      	strb	r2, [r3, #5]
    2c74:	799a      	ldrb	r2, [r3, #6]
    2c76:	f010 0f20 	tst.w	r0, #32
    2c7a:	f002 02ef 	and.w	r2, r2, #239	; 0xef
    2c7e:	4619      	mov	r1, r3
    2c80:	bf18      	it	ne
    2c82:	f042 0210 	orrne.w	r2, r2, #16
    2c86:	718a      	strb	r2, [r1, #6]
    2c88:	05c2      	lsls	r2, r0, #23
    2c8a:	4b05      	ldr	r3, [pc, #20]	; (2ca0 <serial5_format+0x68>)
    2c8c:	d506      	bpl.n	2c9c <serial5_format+0x64>
    2c8e:	785a      	ldrb	r2, [r3, #1]
    2c90:	7819      	ldrb	r1, [r3, #0]
    2c92:	b2d2      	uxtb	r2, r2
    2c94:	f041 0120 	orr.w	r1, r1, #32
    2c98:	7019      	strb	r1, [r3, #0]
    2c9a:	705a      	strb	r2, [r3, #1]
    2c9c:	4770      	bx	lr
    2c9e:	bf00      	nop
    2ca0:	400ea000 	.word	0x400ea000

00002ca4 <serial5_end>:
    2ca4:	b508      	push	{r3, lr}
    2ca6:	4b0f      	ldr	r3, [pc, #60]	; (2ce4 <serial5_end+0x40>)
    2ca8:	681b      	ldr	r3, [r3, #0]
    2caa:	055b      	lsls	r3, r3, #21
    2cac:	d400      	bmi.n	2cb0 <serial5_end+0xc>
    2cae:	bd08      	pop	{r3, pc}
    2cb0:	4b0d      	ldr	r3, [pc, #52]	; (2ce8 <serial5_end+0x44>)
    2cb2:	7919      	ldrb	r1, [r3, #4]
    2cb4:	f001 02ff 	and.w	r2, r1, #255	; 0xff
    2cb8:	b111      	cbz	r1, 2cc0 <serial5_end+0x1c>
    2cba:	f002 fc79 	bl	55b0 <yield>
    2cbe:	e7f7      	b.n	2cb0 <serial5_end+0xc>
    2cc0:	490a      	ldr	r1, [pc, #40]	; (2cec <serial5_end+0x48>)
    2cc2:	2004      	movs	r0, #4
    2cc4:	6008      	str	r0, [r1, #0]
    2cc6:	490a      	ldr	r1, [pc, #40]	; (2cf0 <serial5_end+0x4c>)
    2cc8:	480a      	ldr	r0, [pc, #40]	; (2cf4 <serial5_end+0x50>)
    2cca:	70ca      	strb	r2, [r1, #3]
    2ccc:	f240 1103 	movw	r1, #259	; 0x103
    2cd0:	6001      	str	r1, [r0, #0]
    2cd2:	f840 1c04 	str.w	r1, [r0, #-4]
    2cd6:	701a      	strb	r2, [r3, #0]
    2cd8:	705a      	strb	r2, [r3, #1]
    2cda:	689b      	ldr	r3, [r3, #8]
    2cdc:	b10b      	cbz	r3, 2ce2 <serial5_end+0x3e>
    2cde:	2201      	movs	r2, #1
    2ce0:	701a      	strb	r2, [r3, #0]
    2ce2:	bd08      	pop	{r3, pc}
    2ce4:	40048028 	.word	0x40048028
    2ce8:	1fff0d78 	.word	0x1fff0d78
    2cec:	e000e188 	.word	0xe000e188
    2cf0:	400ea000 	.word	0x400ea000
    2cf4:	4004d064 	.word	0x4004d064

00002cf8 <serial5_set_transmit_pin>:
    2cf8:	b570      	push	{r4, r5, r6, lr}
    2cfa:	4604      	mov	r4, r0
    2cfc:	4d09      	ldr	r5, [pc, #36]	; (2d24 <serial5_set_transmit_pin+0x2c>)
    2cfe:	792b      	ldrb	r3, [r5, #4]
    2d00:	f003 06ff 	and.w	r6, r3, #255	; 0xff
    2d04:	2b00      	cmp	r3, #0
    2d06:	d1f9      	bne.n	2cfc <serial5_set_transmit_pin+0x4>
    2d08:	4620      	mov	r0, r4
    2d0a:	2101      	movs	r1, #1
    2d0c:	f7fe f920 	bl	f50 <pinMode>
    2d10:	4620      	mov	r0, r4
    2d12:	4631      	mov	r1, r6
    2d14:	f7fe f8ee 	bl	ef4 <digitalWrite>
    2d18:	4b03      	ldr	r3, [pc, #12]	; (2d28 <serial5_set_transmit_pin+0x30>)
    2d1a:	f853 3034 	ldr.w	r3, [r3, r4, lsl #3]
    2d1e:	60eb      	str	r3, [r5, #12]
    2d20:	bd70      	pop	{r4, r5, r6, pc}
    2d22:	bf00      	nop
    2d24:	1fff0d78 	.word	0x1fff0d78
    2d28:	00009ec4 	.word	0x00009ec4

00002d2c <serial5_set_tx>:
    2d2c:	b510      	push	{r4, lr}
    2d2e:	b109      	cbz	r1, 2d34 <serial5_set_tx+0x8>
    2d30:	f040 0080 	orr.w	r0, r0, #128	; 0x80
    2d34:	4a0e      	ldr	r2, [pc, #56]	; (2d70 <serial5_set_tx+0x44>)
    2d36:	7813      	ldrb	r3, [r2, #0]
    2d38:	4298      	cmp	r0, r3
    2d3a:	d017      	beq.n	2d6c <serial5_set_tx+0x40>
    2d3c:	4c0d      	ldr	r4, [pc, #52]	; (2d74 <serial5_set_tx+0x48>)
    2d3e:	6824      	ldr	r4, [r4, #0]
    2d40:	0564      	lsls	r4, r4, #21
    2d42:	d512      	bpl.n	2d6a <serial5_set_tx+0x3e>
    2d44:	f003 037f 	and.w	r3, r3, #127	; 0x7f
    2d48:	2b21      	cmp	r3, #33	; 0x21
    2d4a:	d102      	bne.n	2d52 <serial5_set_tx+0x26>
    2d4c:	4b0a      	ldr	r3, [pc, #40]	; (2d78 <serial5_set_tx+0x4c>)
    2d4e:	2400      	movs	r4, #0
    2d50:	601c      	str	r4, [r3, #0]
    2d52:	2900      	cmp	r1, #0
    2d54:	f000 037f 	and.w	r3, r0, #127	; 0x7f
    2d58:	bf0c      	ite	eq
    2d5a:	2144      	moveq	r1, #68	; 0x44
    2d5c:	2160      	movne	r1, #96	; 0x60
    2d5e:	2b21      	cmp	r3, #33	; 0x21
    2d60:	d103      	bne.n	2d6a <serial5_set_tx+0x3e>
    2d62:	4b05      	ldr	r3, [pc, #20]	; (2d78 <serial5_set_tx+0x4c>)
    2d64:	f441 7140 	orr.w	r1, r1, #768	; 0x300
    2d68:	6019      	str	r1, [r3, #0]
    2d6a:	7010      	strb	r0, [r2, #0]
    2d6c:	bd10      	pop	{r4, pc}
    2d6e:	bf00      	nop
    2d70:	1fff0a0e 	.word	0x1fff0a0e
    2d74:	40048028 	.word	0x40048028
    2d78:	4004d060 	.word	0x4004d060

00002d7c <serial5_set_rx>:
    2d7c:	4770      	bx	lr

00002d7e <serial5_set_rts>:
    2d7e:	4a0d      	ldr	r2, [pc, #52]	; (2db4 <serial5_set_rts+0x36>)
    2d80:	b538      	push	{r3, r4, r5, lr}
    2d82:	6814      	ldr	r4, [r2, #0]
    2d84:	f414 6280 	ands.w	r2, r4, #1024	; 0x400
    2d88:	f04f 0400 	mov.w	r4, #0
    2d8c:	d010      	beq.n	2db0 <serial5_set_rts+0x32>
    2d8e:	283f      	cmp	r0, #63	; 0x3f
    2d90:	4d09      	ldr	r5, [pc, #36]	; (2db8 <serial5_set_rts+0x3a>)
    2d92:	d80a      	bhi.n	2daa <serial5_set_rts+0x2c>
    2d94:	4a09      	ldr	r2, [pc, #36]	; (2dbc <serial5_set_rts+0x3e>)
    2d96:	2101      	movs	r1, #1
    2d98:	f852 3030 	ldr.w	r3, [r2, r0, lsl #3]
    2d9c:	60ab      	str	r3, [r5, #8]
    2d9e:	f7fe f8d7 	bl	f50 <pinMode>
    2da2:	68ab      	ldr	r3, [r5, #8]
    2da4:	701c      	strb	r4, [r3, #0]
    2da6:	2001      	movs	r0, #1
    2da8:	bd38      	pop	{r3, r4, r5, pc}
    2daa:	60ac      	str	r4, [r5, #8]
    2dac:	4620      	mov	r0, r4
    2dae:	bd38      	pop	{r3, r4, r5, pc}
    2db0:	4610      	mov	r0, r2
    2db2:	bd38      	pop	{r3, r4, r5, pc}
    2db4:	40048028 	.word	0x40048028
    2db8:	1fff0d78 	.word	0x1fff0d78
    2dbc:	00009ec4 	.word	0x00009ec4

00002dc0 <serial5_set_cts>:
    2dc0:	4b0b      	ldr	r3, [pc, #44]	; (2df0 <serial5_set_cts+0x30>)
    2dc2:	681b      	ldr	r3, [r3, #0]
    2dc4:	f413 6380 	ands.w	r3, r3, #1024	; 0x400
    2dc8:	d010      	beq.n	2dec <serial5_set_cts+0x2c>
    2dca:	2818      	cmp	r0, #24
    2dcc:	4b09      	ldr	r3, [pc, #36]	; (2df4 <serial5_set_cts+0x34>)
    2dce:	d109      	bne.n	2de4 <serial5_set_cts+0x24>
    2dd0:	4a09      	ldr	r2, [pc, #36]	; (2df8 <serial5_set_cts+0x38>)
    2dd2:	f240 3102 	movw	r1, #770	; 0x302
    2dd6:	6011      	str	r1, [r2, #0]
    2dd8:	7b5a      	ldrb	r2, [r3, #13]
    2dda:	f042 0201 	orr.w	r2, r2, #1
    2dde:	735a      	strb	r2, [r3, #13]
    2de0:	2001      	movs	r0, #1
    2de2:	4770      	bx	lr
    2de4:	7b5a      	ldrb	r2, [r3, #13]
    2de6:	f002 02fe 	and.w	r2, r2, #254	; 0xfe
    2dea:	735a      	strb	r2, [r3, #13]
    2dec:	2000      	movs	r0, #0
    2dee:	4770      	bx	lr
    2df0:	40048028 	.word	0x40048028
    2df4:	400ea000 	.word	0x400ea000
    2df8:	4004d068 	.word	0x4004d068

00002dfc <serial5_putchar>:
    2dfc:	b5f8      	push	{r3, r4, r5, r6, r7, lr}
    2dfe:	4b1b      	ldr	r3, [pc, #108]	; (2e6c <serial5_putchar+0x70>)
    2e00:	681b      	ldr	r3, [r3, #0]
    2e02:	055a      	lsls	r2, r3, #21
    2e04:	4607      	mov	r7, r0
    2e06:	d530      	bpl.n	2e6a <serial5_putchar+0x6e>
    2e08:	4e19      	ldr	r6, [pc, #100]	; (2e70 <serial5_putchar+0x74>)
    2e0a:	68f3      	ldr	r3, [r6, #12]
    2e0c:	b10b      	cbz	r3, 2e12 <serial5_putchar+0x16>
    2e0e:	2201      	movs	r2, #1
    2e10:	701a      	strb	r2, [r3, #0]
    2e12:	78b4      	ldrb	r4, [r6, #2]
    2e14:	3401      	adds	r4, #1
    2e16:	2c28      	cmp	r4, #40	; 0x28
    2e18:	bf28      	it	cs
    2e1a:	2400      	movcs	r4, #0
    2e1c:	78f3      	ldrb	r3, [r6, #3]
    2e1e:	4d14      	ldr	r5, [pc, #80]	; (2e70 <serial5_putchar+0x74>)
    2e20:	42a3      	cmp	r3, r4
    2e22:	d118      	bne.n	2e56 <serial5_putchar+0x5a>
    2e24:	f7fd fdc4 	bl	9b0 <nvic_execution_priority>
    2e28:	2840      	cmp	r0, #64	; 0x40
    2e2a:	dc0f      	bgt.n	2e4c <serial5_putchar+0x50>
    2e2c:	4a11      	ldr	r2, [pc, #68]	; (2e74 <serial5_putchar+0x78>)
    2e2e:	7913      	ldrb	r3, [r2, #4]
    2e30:	061b      	lsls	r3, r3, #24
    2e32:	d5f3      	bpl.n	2e1c <serial5_putchar+0x20>
    2e34:	78eb      	ldrb	r3, [r5, #3]
    2e36:	3301      	adds	r3, #1
    2e38:	2b28      	cmp	r3, #40	; 0x28
    2e3a:	bf28      	it	cs
    2e3c:	2300      	movcs	r3, #0
    2e3e:	18f1      	adds	r1, r6, r3
    2e40:	b2db      	uxtb	r3, r3
    2e42:	7c09      	ldrb	r1, [r1, #16]
    2e44:	b2c9      	uxtb	r1, r1
    2e46:	71d1      	strb	r1, [r2, #7]
    2e48:	70f3      	strb	r3, [r6, #3]
    2e4a:	e7e7      	b.n	2e1c <serial5_putchar+0x20>
    2e4c:	28ff      	cmp	r0, #255	; 0xff
    2e4e:	dde5      	ble.n	2e1c <serial5_putchar+0x20>
    2e50:	f002 fbae 	bl	55b0 <yield>
    2e54:	e7e2      	b.n	2e1c <serial5_putchar+0x20>
    2e56:	192b      	adds	r3, r5, r4
    2e58:	b2ff      	uxtb	r7, r7
    2e5a:	741f      	strb	r7, [r3, #16]
    2e5c:	2301      	movs	r3, #1
    2e5e:	712b      	strb	r3, [r5, #4]
    2e60:	4b04      	ldr	r3, [pc, #16]	; (2e74 <serial5_putchar+0x78>)
    2e62:	b2e4      	uxtb	r4, r4
    2e64:	22ac      	movs	r2, #172	; 0xac
    2e66:	70ac      	strb	r4, [r5, #2]
    2e68:	70da      	strb	r2, [r3, #3]
    2e6a:	bdf8      	pop	{r3, r4, r5, r6, r7, pc}
    2e6c:	40048028 	.word	0x40048028
    2e70:	1fff0d78 	.word	0x1fff0d78
    2e74:	400ea000 	.word	0x400ea000

00002e78 <serial5_write>:
    2e78:	b538      	push	{r3, r4, r5, lr}
    2e7a:	4604      	mov	r4, r0
    2e7c:	1845      	adds	r5, r0, r1
    2e7e:	42ac      	cmp	r4, r5
    2e80:	d004      	beq.n	2e8c <serial5_write+0x14>
    2e82:	f814 0b01 	ldrb.w	r0, [r4], #1
    2e86:	f7ff ffb9 	bl	2dfc <serial5_putchar>
    2e8a:	e7f8      	b.n	2e7e <serial5_write+0x6>
    2e8c:	bd38      	pop	{r3, r4, r5, pc}

00002e8e <serial5_flush>:
    2e8e:	b508      	push	{r3, lr}
    2e90:	4b03      	ldr	r3, [pc, #12]	; (2ea0 <serial5_flush+0x12>)
    2e92:	791b      	ldrb	r3, [r3, #4]
    2e94:	b113      	cbz	r3, 2e9c <serial5_flush+0xe>
    2e96:	f002 fb8b 	bl	55b0 <yield>
    2e9a:	e7f9      	b.n	2e90 <serial5_flush+0x2>
    2e9c:	bd08      	pop	{r3, pc}
    2e9e:	bf00      	nop
    2ea0:	1fff0d78 	.word	0x1fff0d78

00002ea4 <serial5_write_buffer_free>:
    2ea4:	4a05      	ldr	r2, [pc, #20]	; (2ebc <serial5_write_buffer_free+0x18>)
    2ea6:	7893      	ldrb	r3, [r2, #2]
    2ea8:	78d0      	ldrb	r0, [r2, #3]
    2eaa:	b2db      	uxtb	r3, r3
    2eac:	b2c0      	uxtb	r0, r0
    2eae:	4283      	cmp	r3, r0
    2eb0:	bf2c      	ite	cs
    2eb2:	3027      	addcs	r0, #39	; 0x27
    2eb4:	f100 30ff 	addcc.w	r0, r0, #4294967295
    2eb8:	1ac0      	subs	r0, r0, r3
    2eba:	4770      	bx	lr
    2ebc:	1fff0d78 	.word	0x1fff0d78

00002ec0 <serial5_available>:
    2ec0:	4a04      	ldr	r2, [pc, #16]	; (2ed4 <serial5_available+0x14>)
    2ec2:	7810      	ldrb	r0, [r2, #0]
    2ec4:	7853      	ldrb	r3, [r2, #1]
    2ec6:	b2c0      	uxtb	r0, r0
    2ec8:	b2db      	uxtb	r3, r3
    2eca:	4298      	cmp	r0, r3
    2ecc:	bf38      	it	cc
    2ece:	3040      	addcc	r0, #64	; 0x40
    2ed0:	1ac0      	subs	r0, r0, r3
    2ed2:	4770      	bx	lr
    2ed4:	1fff0d78 	.word	0x1fff0d78

00002ed8 <serial5_getchar>:
    2ed8:	b510      	push	{r4, lr}
    2eda:	4a0f      	ldr	r2, [pc, #60]	; (2f18 <serial5_getchar+0x40>)
    2edc:	7811      	ldrb	r1, [r2, #0]
    2ede:	7853      	ldrb	r3, [r2, #1]
    2ee0:	b2c9      	uxtb	r1, r1
    2ee2:	b2db      	uxtb	r3, r3
    2ee4:	4299      	cmp	r1, r3
    2ee6:	d014      	beq.n	2f12 <serial5_getchar+0x3a>
    2ee8:	3301      	adds	r3, #1
    2eea:	2b40      	cmp	r3, #64	; 0x40
    2eec:	bf28      	it	cs
    2eee:	2300      	movcs	r3, #0
    2ef0:	18d0      	adds	r0, r2, r3
    2ef2:	b2dc      	uxtb	r4, r3
    2ef4:	f890 0038 	ldrb.w	r0, [r0, #56]	; 0x38
    2ef8:	7054      	strb	r4, [r2, #1]
    2efa:	6892      	ldr	r2, [r2, #8]
    2efc:	b2c0      	uxtb	r0, r0
    2efe:	b152      	cbz	r2, 2f16 <serial5_getchar+0x3e>
    2f00:	4299      	cmp	r1, r3
    2f02:	bf38      	it	cc
    2f04:	3140      	addcc	r1, #64	; 0x40
    2f06:	1acb      	subs	r3, r1, r3
    2f08:	2b1a      	cmp	r3, #26
    2f0a:	dc04      	bgt.n	2f16 <serial5_getchar+0x3e>
    2f0c:	2300      	movs	r3, #0
    2f0e:	7013      	strb	r3, [r2, #0]
    2f10:	bd10      	pop	{r4, pc}
    2f12:	f04f 30ff 	mov.w	r0, #4294967295
    2f16:	bd10      	pop	{r4, pc}
    2f18:	1fff0d78 	.word	0x1fff0d78

00002f1c <serial5_peek>:
    2f1c:	4a08      	ldr	r2, [pc, #32]	; (2f40 <serial5_peek+0x24>)
    2f1e:	7811      	ldrb	r1, [r2, #0]
    2f20:	7853      	ldrb	r3, [r2, #1]
    2f22:	b2db      	uxtb	r3, r3
    2f24:	4299      	cmp	r1, r3
    2f26:	d008      	beq.n	2f3a <serial5_peek+0x1e>
    2f28:	3301      	adds	r3, #1
    2f2a:	2b40      	cmp	r3, #64	; 0x40
    2f2c:	bf28      	it	cs
    2f2e:	2300      	movcs	r3, #0
    2f30:	4413      	add	r3, r2
    2f32:	f893 0038 	ldrb.w	r0, [r3, #56]	; 0x38
    2f36:	b2c0      	uxtb	r0, r0
    2f38:	4770      	bx	lr
    2f3a:	f04f 30ff 	mov.w	r0, #4294967295
    2f3e:	4770      	bx	lr
    2f40:	1fff0d78 	.word	0x1fff0d78

00002f44 <serial5_clear>:
    2f44:	4b04      	ldr	r3, [pc, #16]	; (2f58 <serial5_clear+0x14>)
    2f46:	785a      	ldrb	r2, [r3, #1]
    2f48:	b2d2      	uxtb	r2, r2
    2f4a:	701a      	strb	r2, [r3, #0]
    2f4c:	689b      	ldr	r3, [r3, #8]
    2f4e:	b10b      	cbz	r3, 2f54 <serial5_clear+0x10>
    2f50:	2200      	movs	r2, #0
    2f52:	701a      	strb	r2, [r3, #0]
    2f54:	4770      	bx	lr
    2f56:	bf00      	nop
    2f58:	1fff0d78 	.word	0x1fff0d78

00002f5c <uart4_status_isr>:
    2f5c:	b510      	push	{r4, lr}
    2f5e:	4b28      	ldr	r3, [pc, #160]	; (3000 <uart4_status_isr+0xa4>)
    2f60:	791a      	ldrb	r2, [r3, #4]
    2f62:	0692      	lsls	r2, r2, #26
    2f64:	d51f      	bpl.n	2fa6 <uart4_status_isr+0x4a>
    2f66:	4a27      	ldr	r2, [pc, #156]	; (3004 <uart4_status_isr+0xa8>)
    2f68:	79d8      	ldrb	r0, [r3, #7]
    2f6a:	7813      	ldrb	r3, [r2, #0]
    2f6c:	7851      	ldrb	r1, [r2, #1]
    2f6e:	3301      	adds	r3, #1
    2f70:	2b40      	cmp	r3, #64	; 0x40
    2f72:	bf28      	it	cs
    2f74:	2300      	movcs	r3, #0
    2f76:	428b      	cmp	r3, r1
    2f78:	b2c0      	uxtb	r0, r0
    2f7a:	d004      	beq.n	2f86 <uart4_status_isr+0x2a>
    2f7c:	18d1      	adds	r1, r2, r3
    2f7e:	f881 0038 	strb.w	r0, [r1, #56]	; 0x38
    2f82:	b2d9      	uxtb	r1, r3
    2f84:	7011      	strb	r1, [r2, #0]
    2f86:	6891      	ldr	r1, [r2, #8]
    2f88:	b169      	cbz	r1, 2fa6 <uart4_status_isr+0x4a>
    2f8a:	4a1e      	ldr	r2, [pc, #120]	; (3004 <uart4_status_isr+0xa8>)
    2f8c:	78d2      	ldrb	r2, [r2, #3]
    2f8e:	b2d2      	uxtb	r2, r2
    2f90:	4293      	cmp	r3, r2
    2f92:	bf36      	itet	cc
    2f94:	f1c2 0240 	rsbcc	r2, r2, #64	; 0x40
    2f98:	ebc2 0303 	rsbcs	r3, r2, r3
    2f9c:	189b      	addcc	r3, r3, r2
    2f9e:	2b27      	cmp	r3, #39	; 0x27
    2fa0:	bfc4      	itt	gt
    2fa2:	2301      	movgt	r3, #1
    2fa4:	700b      	strbgt	r3, [r1, #0]
    2fa6:	4916      	ldr	r1, [pc, #88]	; (3000 <uart4_status_isr+0xa4>)
    2fa8:	78c8      	ldrb	r0, [r1, #3]
    2faa:	b2c0      	uxtb	r0, r0
    2fac:	0604      	lsls	r4, r0, #24
    2fae:	d515      	bpl.n	2fdc <uart4_status_isr+0x80>
    2fb0:	790b      	ldrb	r3, [r1, #4]
    2fb2:	061a      	lsls	r2, r3, #24
    2fb4:	d512      	bpl.n	2fdc <uart4_status_isr+0x80>
    2fb6:	4a13      	ldr	r2, [pc, #76]	; (3004 <uart4_status_isr+0xa8>)
    2fb8:	7894      	ldrb	r4, [r2, #2]
    2fba:	78d3      	ldrb	r3, [r2, #3]
    2fbc:	b2db      	uxtb	r3, r3
    2fbe:	429c      	cmp	r4, r3
    2fc0:	d102      	bne.n	2fc8 <uart4_status_isr+0x6c>
    2fc2:	236c      	movs	r3, #108	; 0x6c
    2fc4:	70cb      	strb	r3, [r1, #3]
    2fc6:	e009      	b.n	2fdc <uart4_status_isr+0x80>
    2fc8:	3301      	adds	r3, #1
    2fca:	2b28      	cmp	r3, #40	; 0x28
    2fcc:	bf28      	it	cs
    2fce:	2300      	movcs	r3, #0
    2fd0:	18d4      	adds	r4, r2, r3
    2fd2:	b2db      	uxtb	r3, r3
    2fd4:	7c24      	ldrb	r4, [r4, #16]
    2fd6:	b2e4      	uxtb	r4, r4
    2fd8:	71cc      	strb	r4, [r1, #7]
    2fda:	70d3      	strb	r3, [r2, #3]
    2fdc:	0643      	lsls	r3, r0, #25
    2fde:	d50d      	bpl.n	2ffc <uart4_status_isr+0xa0>
    2fe0:	4b07      	ldr	r3, [pc, #28]	; (3000 <uart4_status_isr+0xa4>)
    2fe2:	791a      	ldrb	r2, [r3, #4]
    2fe4:	f012 0f40 	tst.w	r2, #64	; 0x40
    2fe8:	4619      	mov	r1, r3
    2fea:	d007      	beq.n	2ffc <uart4_status_isr+0xa0>
    2fec:	4b05      	ldr	r3, [pc, #20]	; (3004 <uart4_status_isr+0xa8>)
    2fee:	2200      	movs	r2, #0
    2ff0:	711a      	strb	r2, [r3, #4]
    2ff2:	68db      	ldr	r3, [r3, #12]
    2ff4:	b103      	cbz	r3, 2ff8 <uart4_status_isr+0x9c>
    2ff6:	701a      	strb	r2, [r3, #0]
    2ff8:	232c      	movs	r3, #44	; 0x2c
    2ffa:	70cb      	strb	r3, [r1, #3]
    2ffc:	bd10      	pop	{r4, pc}
    2ffe:	bf00      	nop
    3000:	400ea000 	.word	0x400ea000
    3004:	1fff0d78 	.word	0x1fff0d78

00003008 <serial6_begin>:
    3008:	4b42      	ldr	r3, [pc, #264]	; (3114 <serial6_begin+0x10c>)
    300a:	681a      	ldr	r2, [r3, #0]
    300c:	f042 0210 	orr.w	r2, r2, #16
    3010:	e92d 41f0 	stmdb	sp!, {r4, r5, r6, r7, r8, lr}
    3014:	601a      	str	r2, [r3, #0]
    3016:	4a40      	ldr	r2, [pc, #256]	; (3118 <serial6_begin+0x110>)
    3018:	6813      	ldr	r3, [r2, #0]
    301a:	f403 3340 	and.w	r3, r3, #196608	; 0x30000
    301e:	f5b3 3f40 	cmp.w	r3, #196608	; 0x30000
    3022:	4690      	mov	r8, r2
    3024:	d006      	beq.n	3034 <serial6_begin+0x2c>
    3026:	4a3d      	ldr	r2, [pc, #244]	; (311c <serial6_begin+0x114>)
    3028:	4e3d      	ldr	r6, [pc, #244]	; (3120 <serial6_begin+0x118>)
    302a:	f5b3 3f80 	cmp.w	r3, #65536	; 0x10000
    302e:	bf08      	it	eq
    3030:	4616      	moveq	r6, r2
    3032:	e000      	b.n	3036 <serial6_begin+0x2e>
    3034:	4e3b      	ldr	r6, [pc, #236]	; (3124 <serial6_begin+0x11c>)
    3036:	ea4f 0c80 	mov.w	ip, r0, lsl #2
    303a:	fbb6 f2fc 	udiv	r2, r6, ip
    303e:	b292      	uxth	r2, r2
    3040:	2a00      	cmp	r2, #0
    3042:	d064      	beq.n	310e <serial6_begin+0x106>
    3044:	0091      	lsls	r1, r2, #2
    3046:	fbb6 f1f1 	udiv	r1, r6, r1
    304a:	1a09      	subs	r1, r1, r0
    304c:	d008      	beq.n	3060 <serial6_begin+0x58>
    304e:	1c54      	adds	r4, r2, #1
    3050:	00a3      	lsls	r3, r4, #2
    3052:	fbb6 f3f3 	udiv	r3, r6, r3
    3056:	1ac3      	subs	r3, r0, r3
    3058:	428b      	cmp	r3, r1
    305a:	bf3c      	itt	cc
    305c:	b2a2      	uxthcc	r2, r4
    305e:	4619      	movcc	r1, r3
    3060:	4484      	add	ip, r0
    3062:	2505      	movs	r5, #5
    3064:	2704      	movs	r7, #4
    3066:	fbb6 f3fc 	udiv	r3, r6, ip
    306a:	b29b      	uxth	r3, r3
    306c:	b1f3      	cbz	r3, 30ac <serial6_begin+0xa4>
    306e:	fb03 f405 	mul.w	r4, r3, r5
    3072:	fbb6 f4f4 	udiv	r4, r6, r4
    3076:	1a24      	subs	r4, r4, r0
    3078:	428c      	cmp	r4, r1
    307a:	d803      	bhi.n	3084 <serial6_begin+0x7c>
    307c:	b174      	cbz	r4, 309c <serial6_begin+0x94>
    307e:	4621      	mov	r1, r4
    3080:	462f      	mov	r7, r5
    3082:	461a      	mov	r2, r3
    3084:	3301      	adds	r3, #1
    3086:	b29b      	uxth	r3, r3
    3088:	fb03 f405 	mul.w	r4, r3, r5
    308c:	fbb6 f4f4 	udiv	r4, r6, r4
    3090:	1b04      	subs	r4, r0, r4
    3092:	428c      	cmp	r4, r1
    3094:	d902      	bls.n	309c <serial6_begin+0x94>
    3096:	460c      	mov	r4, r1
    3098:	4613      	mov	r3, r2
    309a:	e000      	b.n	309e <serial6_begin+0x96>
    309c:	462f      	mov	r7, r5
    309e:	3501      	adds	r5, #1
    30a0:	2d21      	cmp	r5, #33	; 0x21
    30a2:	4484      	add	ip, r0
    30a4:	d003      	beq.n	30ae <serial6_begin+0xa6>
    30a6:	4621      	mov	r1, r4
    30a8:	461a      	mov	r2, r3
    30aa:	e7dc      	b.n	3066 <serial6_begin+0x5e>
    30ac:	4613      	mov	r3, r2
    30ae:	1e7a      	subs	r2, r7, #1
    30b0:	f002 021f 	and.w	r2, r2, #31
    30b4:	f3c3 030c 	ubfx	r3, r3, #0, #13
    30b8:	ea43 6302 	orr.w	r3, r3, r2, lsl #24
    30bc:	2f07      	cmp	r7, #7
    30be:	4a1a      	ldr	r2, [pc, #104]	; (3128 <serial6_begin+0x120>)
    30c0:	491a      	ldr	r1, [pc, #104]	; (312c <serial6_begin+0x124>)
    30c2:	bf98      	it	ls
    30c4:	f443 3300 	orrls.w	r3, r3, #131072	; 0x20000
    30c8:	6013      	str	r3, [r2, #0]
    30ca:	f8d8 3000 	ldr.w	r3, [r8]
    30ce:	f043 6380 	orr.w	r3, r3, #67108864	; 0x4000000
    30d2:	f8c8 3000 	str.w	r3, [r8]
    30d6:	2300      	movs	r3, #0
    30d8:	700b      	strb	r3, [r1, #0]
    30da:	704b      	strb	r3, [r1, #1]
    30dc:	708b      	strb	r3, [r1, #2]
    30de:	70cb      	strb	r3, [r1, #3]
    30e0:	710b      	strb	r3, [r1, #4]
    30e2:	4913      	ldr	r1, [pc, #76]	; (3130 <serial6_begin+0x128>)
    30e4:	f240 5013 	movw	r0, #1299	; 0x513
    30e8:	6008      	str	r0, [r1, #0]
    30ea:	f240 5044 	movw	r0, #1348	; 0x544
    30ee:	6048      	str	r0, [r1, #4]
    30f0:	6093      	str	r3, [r2, #8]
    30f2:	6113      	str	r3, [r2, #16]
    30f4:	6053      	str	r3, [r2, #4]
    30f6:	6893      	ldr	r3, [r2, #8]
    30f8:	f443 1330 	orr.w	r3, r3, #2883584	; 0x2c0000
    30fc:	6093      	str	r3, [r2, #8]
    30fe:	4b0d      	ldr	r3, [pc, #52]	; (3134 <serial6_begin+0x12c>)
    3100:	2240      	movs	r2, #64	; 0x40
    3102:	701a      	strb	r2, [r3, #0]
    3104:	f2a3 334e 	subw	r3, r3, #846	; 0x34e
    3108:	f44f 0280 	mov.w	r2, #4194304	; 0x400000
    310c:	601a      	str	r2, [r3, #0]
    310e:	e8bd 81f0 	ldmia.w	sp!, {r4, r5, r6, r7, r8, pc}
    3112:	bf00      	nop
    3114:	4004802c 	.word	0x4004802c
    3118:	40048004 	.word	0x40048004
    311c:	07270e00 	.word	0x07270e00
    3120:	01c9c380 	.word	0x01c9c380
    3124:	02dc6c00 	.word	0x02dc6c00
    3128:	400c4000 	.word	0x400c4000
    312c:	1fff0df0 	.word	0x1fff0df0
    3130:	4004c020 	.word	0x4004c020
    3134:	e000e456 	.word	0xe000e456

00003138 <serial6_format>:
    3138:	4a1b      	ldr	r2, [pc, #108]	; (31a8 <serial6_format+0x70>)
    313a:	6893      	ldr	r3, [r2, #8]
    313c:	f000 0103 	and.w	r1, r0, #3
    3140:	f023 0313 	bic.w	r3, r3, #19
    3144:	430b      	orrs	r3, r1
    3146:	f010 0f04 	tst.w	r0, #4
    314a:	4611      	mov	r1, r2
    314c:	bf18      	it	ne
    314e:	f043 0310 	orrne.w	r3, r3, #16
    3152:	608b      	str	r3, [r1, #8]
    3154:	f000 030f 	and.w	r3, r0, #15
    3158:	2b04      	cmp	r3, #4
    315a:	4a13      	ldr	r2, [pc, #76]	; (31a8 <serial6_format+0x70>)
    315c:	d103      	bne.n	3166 <serial6_format+0x2e>
    315e:	6893      	ldr	r3, [r2, #8]
    3160:	f043 4380 	orr.w	r3, r3, #1073741824	; 0x40000000
    3164:	6093      	str	r3, [r2, #8]
    3166:	f010 0f08 	tst.w	r0, #8
    316a:	4b0f      	ldr	r3, [pc, #60]	; (31a8 <serial6_format+0x70>)
    316c:	d003      	beq.n	3176 <serial6_format+0x3e>
    316e:	681a      	ldr	r2, [r3, #0]
    3170:	f042 5200 	orr.w	r2, r2, #536870912	; 0x20000000
    3174:	601a      	str	r2, [r3, #0]
    3176:	685b      	ldr	r3, [r3, #4]
    3178:	06c2      	lsls	r2, r0, #27
    317a:	f023 5380 	bic.w	r3, r3, #268435456	; 0x10000000
    317e:	4a0a      	ldr	r2, [pc, #40]	; (31a8 <serial6_format+0x70>)
    3180:	bf48      	it	mi
    3182:	f043 5380 	orrmi.w	r3, r3, #268435456	; 0x10000000
    3186:	6053      	str	r3, [r2, #4]
    3188:	6893      	ldr	r3, [r2, #8]
    318a:	0681      	lsls	r1, r0, #26
    318c:	f023 5380 	bic.w	r3, r3, #268435456	; 0x10000000
    3190:	bf48      	it	mi
    3192:	f043 5380 	orrmi.w	r3, r3, #268435456	; 0x10000000
    3196:	6093      	str	r3, [r2, #8]
    3198:	05c3      	lsls	r3, r0, #23
    319a:	4903      	ldr	r1, [pc, #12]	; (31a8 <serial6_format+0x70>)
    319c:	d503      	bpl.n	31a6 <serial6_format+0x6e>
    319e:	680b      	ldr	r3, [r1, #0]
    31a0:	f443 5300 	orr.w	r3, r3, #8192	; 0x2000
    31a4:	600b      	str	r3, [r1, #0]
    31a6:	4770      	bx	lr
    31a8:	400c4000 	.word	0x400c4000

000031ac <serial6_end>:
    31ac:	b508      	push	{r3, lr}
    31ae:	4b0f      	ldr	r3, [pc, #60]	; (31ec <serial6_end+0x40>)
    31b0:	681b      	ldr	r3, [r3, #0]
    31b2:	06db      	lsls	r3, r3, #27
    31b4:	d400      	bmi.n	31b8 <serial6_end+0xc>
    31b6:	bd08      	pop	{r3, pc}
    31b8:	4b0d      	ldr	r3, [pc, #52]	; (31f0 <serial6_end+0x44>)
    31ba:	7919      	ldrb	r1, [r3, #4]
    31bc:	f001 02ff 	and.w	r2, r1, #255	; 0xff
    31c0:	b111      	cbz	r1, 31c8 <serial6_end+0x1c>
    31c2:	f002 f9f5 	bl	55b0 <yield>
    31c6:	e7f7      	b.n	31b8 <serial6_end+0xc>
    31c8:	490a      	ldr	r1, [pc, #40]	; (31f4 <serial6_end+0x48>)
    31ca:	f44f 0080 	mov.w	r0, #4194304	; 0x400000
    31ce:	6008      	str	r0, [r1, #0]
    31d0:	4909      	ldr	r1, [pc, #36]	; (31f8 <serial6_end+0x4c>)
    31d2:	480a      	ldr	r0, [pc, #40]	; (31fc <serial6_end+0x50>)
    31d4:	608a      	str	r2, [r1, #8]
    31d6:	f240 1103 	movw	r1, #259	; 0x103
    31da:	6001      	str	r1, [r0, #0]
    31dc:	6041      	str	r1, [r0, #4]
    31de:	701a      	strb	r2, [r3, #0]
    31e0:	705a      	strb	r2, [r3, #1]
    31e2:	689b      	ldr	r3, [r3, #8]
    31e4:	b10b      	cbz	r3, 31ea <serial6_end+0x3e>
    31e6:	2201      	movs	r2, #1
    31e8:	701a      	strb	r2, [r3, #0]
    31ea:	bd08      	pop	{r3, pc}
    31ec:	4004802c 	.word	0x4004802c
    31f0:	1fff0df0 	.word	0x1fff0df0
    31f4:	e000e188 	.word	0xe000e188
    31f8:	400c4000 	.word	0x400c4000
    31fc:	4004c020 	.word	0x4004c020

00003200 <serial6_set_transmit_pin>:
    3200:	b570      	push	{r4, r5, r6, lr}
    3202:	4604      	mov	r4, r0
    3204:	4d09      	ldr	r5, [pc, #36]	; (322c <serial6_set_transmit_pin+0x2c>)
    3206:	792b      	ldrb	r3, [r5, #4]
    3208:	f003 06ff 	and.w	r6, r3, #255	; 0xff
    320c:	2b00      	cmp	r3, #0
    320e:	d1f9      	bne.n	3204 <serial6_set_transmit_pin+0x4>
    3210:	4620      	mov	r0, r4
    3212:	2101      	movs	r1, #1
    3214:	f7fd fe9c 	bl	f50 <pinMode>
    3218:	4620      	mov	r0, r4
    321a:	4631      	mov	r1, r6
    321c:	f7fd fe6a 	bl	ef4 <digitalWrite>
    3220:	4b03      	ldr	r3, [pc, #12]	; (3230 <serial6_set_transmit_pin+0x30>)
    3222:	f853 3034 	ldr.w	r3, [r3, r4, lsl #3]
    3226:	60eb      	str	r3, [r5, #12]
    3228:	bd70      	pop	{r4, r5, r6, pc}
    322a:	bf00      	nop
    322c:	1fff0df0 	.word	0x1fff0df0
    3230:	00009ec4 	.word	0x00009ec4

00003234 <serial6_set_tx>:
    3234:	b510      	push	{r4, lr}
    3236:	b109      	cbz	r1, 323c <serial6_set_tx+0x8>
    3238:	f040 0080 	orr.w	r0, r0, #128	; 0x80
    323c:	4a0e      	ldr	r2, [pc, #56]	; (3278 <serial6_set_tx+0x44>)
    323e:	7813      	ldrb	r3, [r2, #0]
    3240:	4298      	cmp	r0, r3
    3242:	d017      	beq.n	3274 <serial6_set_tx+0x40>
    3244:	4c0d      	ldr	r4, [pc, #52]	; (327c <serial6_set_tx+0x48>)
    3246:	6824      	ldr	r4, [r4, #0]
    3248:	06e4      	lsls	r4, r4, #27
    324a:	d512      	bpl.n	3272 <serial6_set_tx+0x3e>
    324c:	f003 037f 	and.w	r3, r3, #127	; 0x7f
    3250:	2b30      	cmp	r3, #48	; 0x30
    3252:	d102      	bne.n	325a <serial6_set_tx+0x26>
    3254:	4b0a      	ldr	r3, [pc, #40]	; (3280 <serial6_set_tx+0x4c>)
    3256:	2400      	movs	r4, #0
    3258:	601c      	str	r4, [r3, #0]
    325a:	2900      	cmp	r1, #0
    325c:	f000 037f 	and.w	r3, r0, #127	; 0x7f
    3260:	bf0c      	ite	eq
    3262:	2144      	moveq	r1, #68	; 0x44
    3264:	2160      	movne	r1, #96	; 0x60
    3266:	2b30      	cmp	r3, #48	; 0x30
    3268:	d103      	bne.n	3272 <serial6_set_tx+0x3e>
    326a:	4b05      	ldr	r3, [pc, #20]	; (3280 <serial6_set_tx+0x4c>)
    326c:	f441 61a0 	orr.w	r1, r1, #1280	; 0x500
    3270:	6019      	str	r1, [r3, #0]
    3272:	7010      	strb	r0, [r2, #0]
    3274:	bd10      	pop	{r4, pc}
    3276:	bf00      	nop
    3278:	1fff0a0f 	.word	0x1fff0a0f
    327c:	4004802c 	.word	0x4004802c
    3280:	4004c024 	.word	0x4004c024

00003284 <serial6_set_rx>:
    3284:	4770      	bx	lr

00003286 <serial6_set_rts>:
    3286:	4a0d      	ldr	r2, [pc, #52]	; (32bc <serial6_set_rts+0x36>)
    3288:	b538      	push	{r3, r4, r5, lr}
    328a:	6814      	ldr	r4, [r2, #0]
    328c:	f014 0210 	ands.w	r2, r4, #16
    3290:	f04f 0400 	mov.w	r4, #0
    3294:	d010      	beq.n	32b8 <serial6_set_rts+0x32>
    3296:	283f      	cmp	r0, #63	; 0x3f
    3298:	4d09      	ldr	r5, [pc, #36]	; (32c0 <serial6_set_rts+0x3a>)
    329a:	d80a      	bhi.n	32b2 <serial6_set_rts+0x2c>
    329c:	4a09      	ldr	r2, [pc, #36]	; (32c4 <serial6_set_rts+0x3e>)
    329e:	2101      	movs	r1, #1
    32a0:	f852 3030 	ldr.w	r3, [r2, r0, lsl #3]
    32a4:	60ab      	str	r3, [r5, #8]
    32a6:	f7fd fe53 	bl	f50 <pinMode>
    32aa:	68ab      	ldr	r3, [r5, #8]
    32ac:	701c      	strb	r4, [r3, #0]
    32ae:	2001      	movs	r0, #1
    32b0:	bd38      	pop	{r3, r4, r5, pc}
    32b2:	60ac      	str	r4, [r5, #8]
    32b4:	4620      	mov	r0, r4
    32b6:	bd38      	pop	{r3, r4, r5, pc}
    32b8:	4610      	mov	r0, r2
    32ba:	bd38      	pop	{r3, r4, r5, pc}
    32bc:	4004802c 	.word	0x4004802c
    32c0:	1fff0df0 	.word	0x1fff0df0
    32c4:	00009ec4 	.word	0x00009ec4

000032c8 <serial6_set_cts>:
    32c8:	4b0b      	ldr	r3, [pc, #44]	; (32f8 <serial6_set_cts+0x30>)
    32ca:	681b      	ldr	r3, [r3, #0]
    32cc:	f013 0310 	ands.w	r3, r3, #16
    32d0:	d010      	beq.n	32f4 <serial6_set_cts+0x2c>
    32d2:	2838      	cmp	r0, #56	; 0x38
    32d4:	4b09      	ldr	r3, [pc, #36]	; (32fc <serial6_set_cts+0x34>)
    32d6:	d109      	bne.n	32ec <serial6_set_cts+0x24>
    32d8:	4a09      	ldr	r2, [pc, #36]	; (3300 <serial6_set_cts+0x38>)
    32da:	f240 5102 	movw	r1, #1282	; 0x502
    32de:	6011      	str	r1, [r2, #0]
    32e0:	7b5a      	ldrb	r2, [r3, #13]
    32e2:	f042 0201 	orr.w	r2, r2, #1
    32e6:	735a      	strb	r2, [r3, #13]
    32e8:	2001      	movs	r0, #1
    32ea:	4770      	bx	lr
    32ec:	7b5a      	ldrb	r2, [r3, #13]
    32ee:	f002 02fe 	and.w	r2, r2, #254	; 0xfe
    32f2:	735a      	strb	r2, [r3, #13]
    32f4:	2000      	movs	r0, #0
    32f6:	4770      	bx	lr
    32f8:	4004802c 	.word	0x4004802c
    32fc:	400eb000 	.word	0x400eb000
    3300:	4004d028 	.word	0x4004d028

00003304 <serial6_putchar>:
    3304:	b5f8      	push	{r3, r4, r5, r6, r7, lr}
    3306:	4b1b      	ldr	r3, [pc, #108]	; (3374 <serial6_putchar+0x70>)
    3308:	681b      	ldr	r3, [r3, #0]
    330a:	06da      	lsls	r2, r3, #27
    330c:	4607      	mov	r7, r0
    330e:	d52f      	bpl.n	3370 <serial6_putchar+0x6c>
    3310:	4e19      	ldr	r6, [pc, #100]	; (3378 <serial6_putchar+0x74>)
    3312:	68f3      	ldr	r3, [r6, #12]
    3314:	b10b      	cbz	r3, 331a <serial6_putchar+0x16>
    3316:	2201      	movs	r2, #1
    3318:	701a      	strb	r2, [r3, #0]
    331a:	78b4      	ldrb	r4, [r6, #2]
    331c:	3401      	adds	r4, #1
    331e:	2c28      	cmp	r4, #40	; 0x28
    3320:	bf28      	it	cs
    3322:	2400      	movcs	r4, #0
    3324:	78f3      	ldrb	r3, [r6, #3]
    3326:	4d14      	ldr	r5, [pc, #80]	; (3378 <serial6_putchar+0x74>)
    3328:	42a3      	cmp	r3, r4
    332a:	d118      	bne.n	335e <serial6_putchar+0x5a>
    332c:	f7fd fb40 	bl	9b0 <nvic_execution_priority>
    3330:	2840      	cmp	r0, #64	; 0x40
    3332:	dc0f      	bgt.n	3354 <serial6_putchar+0x50>
    3334:	4a11      	ldr	r2, [pc, #68]	; (337c <serial6_putchar+0x78>)
    3336:	6853      	ldr	r3, [r2, #4]
    3338:	021b      	lsls	r3, r3, #8
    333a:	d5f3      	bpl.n	3324 <serial6_putchar+0x20>
    333c:	78eb      	ldrb	r3, [r5, #3]
    333e:	3301      	adds	r3, #1
    3340:	2b28      	cmp	r3, #40	; 0x28
    3342:	bf28      	it	cs
    3344:	2300      	movcs	r3, #0
    3346:	18f1      	adds	r1, r6, r3
    3348:	b2db      	uxtb	r3, r3
    334a:	7c09      	ldrb	r1, [r1, #16]
    334c:	b2c9      	uxtb	r1, r1
    334e:	60d1      	str	r1, [r2, #12]
    3350:	70f3      	strb	r3, [r6, #3]
    3352:	e7e7      	b.n	3324 <serial6_putchar+0x20>
    3354:	28ff      	cmp	r0, #255	; 0xff
    3356:	dde5      	ble.n	3324 <serial6_putchar+0x20>
    3358:	f002 f92a 	bl	55b0 <yield>
    335c:	e7e2      	b.n	3324 <serial6_putchar+0x20>
    335e:	192b      	adds	r3, r5, r4
    3360:	b2ff      	uxtb	r7, r7
    3362:	4a07      	ldr	r2, [pc, #28]	; (3380 <serial6_putchar+0x7c>)
    3364:	741f      	strb	r7, [r3, #16]
    3366:	b2e4      	uxtb	r4, r4
    3368:	2301      	movs	r3, #1
    336a:	712b      	strb	r3, [r5, #4]
    336c:	70ac      	strb	r4, [r5, #2]
    336e:	6013      	str	r3, [r2, #0]
    3370:	bdf8      	pop	{r3, r4, r5, r6, r7, pc}
    3372:	bf00      	nop
    3374:	4004802c 	.word	0x4004802c
    3378:	1fff0df0 	.word	0x1fff0df0
    337c:	400c4000 	.word	0x400c4000
    3380:	4388015c 	.word	0x4388015c

00003384 <serial6_write>:
    3384:	b538      	push	{r3, r4, r5, lr}
    3386:	4604      	mov	r4, r0
    3388:	1845      	adds	r5, r0, r1
    338a:	42ac      	cmp	r4, r5
    338c:	d004      	beq.n	3398 <serial6_write+0x14>
    338e:	f814 0b01 	ldrb.w	r0, [r4], #1
    3392:	f7ff ffb7 	bl	3304 <serial6_putchar>
    3396:	e7f8      	b.n	338a <serial6_write+0x6>
    3398:	bd38      	pop	{r3, r4, r5, pc}

0000339a <serial6_flush>:
    339a:	b508      	push	{r3, lr}
    339c:	4b03      	ldr	r3, [pc, #12]	; (33ac <serial6_flush+0x12>)
    339e:	791b      	ldrb	r3, [r3, #4]
    33a0:	b113      	cbz	r3, 33a8 <serial6_flush+0xe>
    33a2:	f002 f905 	bl	55b0 <yield>
    33a6:	e7f9      	b.n	339c <serial6_flush+0x2>
    33a8:	bd08      	pop	{r3, pc}
    33aa:	bf00      	nop
    33ac:	1fff0df0 	.word	0x1fff0df0

000033b0 <serial6_write_buffer_free>:
    33b0:	4a05      	ldr	r2, [pc, #20]	; (33c8 <serial6_write_buffer_free+0x18>)
    33b2:	7893      	ldrb	r3, [r2, #2]
    33b4:	78d0      	ldrb	r0, [r2, #3]
    33b6:	b2db      	uxtb	r3, r3
    33b8:	b2c0      	uxtb	r0, r0
    33ba:	4283      	cmp	r3, r0
    33bc:	bf2c      	ite	cs
    33be:	3027      	addcs	r0, #39	; 0x27
    33c0:	f100 30ff 	addcc.w	r0, r0, #4294967295
    33c4:	1ac0      	subs	r0, r0, r3
    33c6:	4770      	bx	lr
    33c8:	1fff0df0 	.word	0x1fff0df0

000033cc <serial6_available>:
    33cc:	4a04      	ldr	r2, [pc, #16]	; (33e0 <serial6_available+0x14>)
    33ce:	7810      	ldrb	r0, [r2, #0]
    33d0:	7853      	ldrb	r3, [r2, #1]
    33d2:	b2c0      	uxtb	r0, r0
    33d4:	b2db      	uxtb	r3, r3
    33d6:	4298      	cmp	r0, r3
    33d8:	bf38      	it	cc
    33da:	3040      	addcc	r0, #64	; 0x40
    33dc:	1ac0      	subs	r0, r0, r3
    33de:	4770      	bx	lr
    33e0:	1fff0df0 	.word	0x1fff0df0

000033e4 <serial6_getchar>:
    33e4:	b510      	push	{r4, lr}
    33e6:	4a0f      	ldr	r2, [pc, #60]	; (3424 <serial6_getchar+0x40>)
    33e8:	7811      	ldrb	r1, [r2, #0]
    33ea:	7853      	ldrb	r3, [r2, #1]
    33ec:	b2c9      	uxtb	r1, r1
    33ee:	b2db      	uxtb	r3, r3
    33f0:	4299      	cmp	r1, r3
    33f2:	d014      	beq.n	341e <serial6_getchar+0x3a>
    33f4:	3301      	adds	r3, #1
    33f6:	2b40      	cmp	r3, #64	; 0x40
    33f8:	bf28      	it	cs
    33fa:	2300      	movcs	r3, #0
    33fc:	18d0      	adds	r0, r2, r3
    33fe:	b2dc      	uxtb	r4, r3
    3400:	f890 0038 	ldrb.w	r0, [r0, #56]	; 0x38
    3404:	7054      	strb	r4, [r2, #1]
    3406:	6892      	ldr	r2, [r2, #8]
    3408:	b2c0      	uxtb	r0, r0
    340a:	b152      	cbz	r2, 3422 <serial6_getchar+0x3e>
    340c:	4299      	cmp	r1, r3
    340e:	bf38      	it	cc
    3410:	3140      	addcc	r1, #64	; 0x40
    3412:	1acb      	subs	r3, r1, r3
    3414:	2b1a      	cmp	r3, #26
    3416:	dc04      	bgt.n	3422 <serial6_getchar+0x3e>
    3418:	2300      	movs	r3, #0
    341a:	7013      	strb	r3, [r2, #0]
    341c:	bd10      	pop	{r4, pc}
    341e:	f04f 30ff 	mov.w	r0, #4294967295
    3422:	bd10      	pop	{r4, pc}
    3424:	1fff0df0 	.word	0x1fff0df0

00003428 <serial6_peek>:
    3428:	4a08      	ldr	r2, [pc, #32]	; (344c <serial6_peek+0x24>)
    342a:	7811      	ldrb	r1, [r2, #0]
    342c:	7853      	ldrb	r3, [r2, #1]
    342e:	b2db      	uxtb	r3, r3
    3430:	4299      	cmp	r1, r3
    3432:	d008      	beq.n	3446 <serial6_peek+0x1e>
    3434:	3301      	adds	r3, #1
    3436:	2b40      	cmp	r3, #64	; 0x40
    3438:	bf28      	it	cs
    343a:	2300      	movcs	r3, #0
    343c:	4413      	add	r3, r2
    343e:	f893 0038 	ldrb.w	r0, [r3, #56]	; 0x38
    3442:	b2c0      	uxtb	r0, r0
    3444:	4770      	bx	lr
    3446:	f04f 30ff 	mov.w	r0, #4294967295
    344a:	4770      	bx	lr
    344c:	1fff0df0 	.word	0x1fff0df0

00003450 <serial6_clear>:
    3450:	4b04      	ldr	r3, [pc, #16]	; (3464 <serial6_clear+0x14>)
    3452:	785a      	ldrb	r2, [r3, #1]
    3454:	b2d2      	uxtb	r2, r2
    3456:	701a      	strb	r2, [r3, #0]
    3458:	689b      	ldr	r3, [r3, #8]
    345a:	b10b      	cbz	r3, 3460 <serial6_clear+0x10>
    345c:	2200      	movs	r2, #0
    345e:	701a      	strb	r2, [r3, #0]
    3460:	4770      	bx	lr
    3462:	bf00      	nop
    3464:	1fff0df0 	.word	0x1fff0df0

00003468 <lpuart0_status_isr>:
    3468:	b510      	push	{r4, lr}
    346a:	4b28      	ldr	r3, [pc, #160]	; (350c <lpuart0_status_isr+0xa4>)
    346c:	685a      	ldr	r2, [r3, #4]
    346e:	0292      	lsls	r2, r2, #10
    3470:	d51f      	bpl.n	34b2 <lpuart0_status_isr+0x4a>
    3472:	4a27      	ldr	r2, [pc, #156]	; (3510 <lpuart0_status_isr+0xa8>)
    3474:	68d8      	ldr	r0, [r3, #12]
    3476:	7813      	ldrb	r3, [r2, #0]
    3478:	7851      	ldrb	r1, [r2, #1]
    347a:	3301      	adds	r3, #1
    347c:	2b40      	cmp	r3, #64	; 0x40
    347e:	bf28      	it	cs
    3480:	2300      	movcs	r3, #0
    3482:	428b      	cmp	r3, r1
    3484:	d005      	beq.n	3492 <lpuart0_status_isr+0x2a>
    3486:	18d1      	adds	r1, r2, r3
    3488:	b2c0      	uxtb	r0, r0
    348a:	f881 0038 	strb.w	r0, [r1, #56]	; 0x38
    348e:	b2d9      	uxtb	r1, r3
    3490:	7011      	strb	r1, [r2, #0]
    3492:	6891      	ldr	r1, [r2, #8]
    3494:	b169      	cbz	r1, 34b2 <lpuart0_status_isr+0x4a>
    3496:	4a1e      	ldr	r2, [pc, #120]	; (3510 <lpuart0_status_isr+0xa8>)
    3498:	78d2      	ldrb	r2, [r2, #3]
    349a:	b2d2      	uxtb	r2, r2
    349c:	4293      	cmp	r3, r2
    349e:	bf36      	itet	cc
    34a0:	f1c2 0240 	rsbcc	r2, r2, #64	; 0x40
    34a4:	ebc2 0303 	rsbcs	r3, r2, r3
    34a8:	189b      	addcc	r3, r3, r2
    34aa:	2b27      	cmp	r3, #39	; 0x27
    34ac:	bfc4      	itt	gt
    34ae:	2301      	movgt	r3, #1
    34b0:	700b      	strbgt	r3, [r1, #0]
    34b2:	4916      	ldr	r1, [pc, #88]	; (350c <lpuart0_status_isr+0xa4>)
    34b4:	6888      	ldr	r0, [r1, #8]
    34b6:	0203      	lsls	r3, r0, #8
    34b8:	d519      	bpl.n	34ee <lpuart0_status_isr+0x86>
    34ba:	684b      	ldr	r3, [r1, #4]
    34bc:	021c      	lsls	r4, r3, #8
    34be:	d516      	bpl.n	34ee <lpuart0_status_isr+0x86>
    34c0:	4a13      	ldr	r2, [pc, #76]	; (3510 <lpuart0_status_isr+0xa8>)
    34c2:	7894      	ldrb	r4, [r2, #2]
    34c4:	78d3      	ldrb	r3, [r2, #3]
    34c6:	b2db      	uxtb	r3, r3
    34c8:	429c      	cmp	r4, r3
    34ca:	d106      	bne.n	34da <lpuart0_status_isr+0x72>
    34cc:	4b11      	ldr	r3, [pc, #68]	; (3514 <lpuart0_status_isr+0xac>)
    34ce:	2200      	movs	r2, #0
    34d0:	601a      	str	r2, [r3, #0]
    34d2:	2201      	movs	r2, #1
    34d4:	f843 2c04 	str.w	r2, [r3, #-4]
    34d8:	e009      	b.n	34ee <lpuart0_status_isr+0x86>
    34da:	3301      	adds	r3, #1
    34dc:	2b28      	cmp	r3, #40	; 0x28
    34de:	bf28      	it	cs
    34e0:	2300      	movcs	r3, #0
    34e2:	18d4      	adds	r4, r2, r3
    34e4:	b2db      	uxtb	r3, r3
    34e6:	7c24      	ldrb	r4, [r4, #16]
    34e8:	b2e4      	uxtb	r4, r4
    34ea:	60cc      	str	r4, [r1, #12]
    34ec:	70d3      	strb	r3, [r2, #3]
    34ee:	0242      	lsls	r2, r0, #9
    34f0:	d50b      	bpl.n	350a <lpuart0_status_isr+0xa2>
    34f2:	4b06      	ldr	r3, [pc, #24]	; (350c <lpuart0_status_isr+0xa4>)
    34f4:	685b      	ldr	r3, [r3, #4]
    34f6:	025b      	lsls	r3, r3, #9
    34f8:	d507      	bpl.n	350a <lpuart0_status_isr+0xa2>
    34fa:	4a05      	ldr	r2, [pc, #20]	; (3510 <lpuart0_status_isr+0xa8>)
    34fc:	2300      	movs	r3, #0
    34fe:	7113      	strb	r3, [r2, #4]
    3500:	68d2      	ldr	r2, [r2, #12]
    3502:	b102      	cbz	r2, 3506 <lpuart0_status_isr+0x9e>
    3504:	7013      	strb	r3, [r2, #0]
    3506:	4a04      	ldr	r2, [pc, #16]	; (3518 <lpuart0_status_isr+0xb0>)
    3508:	6013      	str	r3, [r2, #0]
    350a:	bd10      	pop	{r4, pc}
    350c:	400c4000 	.word	0x400c4000
    3510:	1fff0df0 	.word	0x1fff0df0
    3514:	4388015c 	.word	0x4388015c
    3518:	43880158 	.word	0x43880158

0000351c <usb_init_serialnumber>:
    351c:	b51f      	push	{r0, r1, r2, r3, r4, lr}
    351e:	b672      	cpsid	i
    3520:	4b13      	ldr	r3, [pc, #76]	; (3570 <usb_init_serialnumber+0x54>)
    3522:	4914      	ldr	r1, [pc, #80]	; (3574 <usb_init_serialnumber+0x58>)
    3524:	2270      	movs	r2, #112	; 0x70
    3526:	701a      	strb	r2, [r3, #0]
    3528:	4a13      	ldr	r2, [pc, #76]	; (3578 <usb_init_serialnumber+0x5c>)
    352a:	6011      	str	r1, [r2, #0]
    352c:	2280      	movs	r2, #128	; 0x80
    352e:	701a      	strb	r2, [r3, #0]
    3530:	781a      	ldrb	r2, [r3, #0]
    3532:	0612      	lsls	r2, r2, #24
    3534:	d5fc      	bpl.n	3530 <usb_init_serialnumber+0x14>
    3536:	4b11      	ldr	r3, [pc, #68]	; (357c <usb_init_serialnumber+0x60>)
    3538:	6818      	ldr	r0, [r3, #0]
    353a:	b662      	cpsie	i
    353c:	4b10      	ldr	r3, [pc, #64]	; (3580 <usb_init_serialnumber+0x64>)
    353e:	4298      	cmp	r0, r3
    3540:	bf98      	it	ls
    3542:	230a      	movls	r3, #10
    3544:	ac01      	add	r4, sp, #4
    3546:	bf98      	it	ls
    3548:	4358      	mulls	r0, r3
    354a:	4621      	mov	r1, r4
    354c:	220a      	movs	r2, #10
    354e:	f7fd fa4d 	bl	9ec <ultoa>
    3552:	2300      	movs	r3, #0
    3554:	5ce1      	ldrb	r1, [r4, r3]
    3556:	4a0b      	ldr	r2, [pc, #44]	; (3584 <usb_init_serialnumber+0x68>)
    3558:	b129      	cbz	r1, 3566 <usb_init_serialnumber+0x4a>
    355a:	eb02 0043 	add.w	r0, r2, r3, lsl #1
    355e:	3301      	adds	r3, #1
    3560:	2b0a      	cmp	r3, #10
    3562:	8041      	strh	r1, [r0, #2]
    3564:	d1f6      	bne.n	3554 <usb_init_serialnumber+0x38>
    3566:	3301      	adds	r3, #1
    3568:	005b      	lsls	r3, r3, #1
    356a:	7013      	strb	r3, [r2, #0]
    356c:	b004      	add	sp, #16
    356e:	bd10      	pop	{r4, pc}
    3570:	40020000 	.word	0x40020000
    3574:	41070000 	.word	0x41070000
    3578:	40020004 	.word	0x40020004
    357c:	4002000c 	.word	0x4002000c
    3580:	0098967f 	.word	0x0098967f
    3584:	1fff0a10 	.word	0x1fff0a10

00003588 <endpoint0_transmit>:
    3588:	b570      	push	{r4, r5, r6, lr}
    358a:	4b0c      	ldr	r3, [pc, #48]	; (35bc <endpoint0_transmit+0x34>)
    358c:	4c0c      	ldr	r4, [pc, #48]	; (35c0 <endpoint0_transmit+0x38>)
    358e:	781a      	ldrb	r2, [r3, #0]
    3590:	f042 0502 	orr.w	r5, r2, #2
    3594:	eb04 06c5 	add.w	r6, r4, r5, lsl #3
    3598:	f082 0201 	eor.w	r2, r2, #1
    359c:	6070      	str	r0, [r6, #4]
    359e:	7858      	ldrb	r0, [r3, #1]
    35a0:	701a      	strb	r2, [r3, #0]
    35a2:	2800      	cmp	r0, #0
    35a4:	bf0c      	ite	eq
    35a6:	2688      	moveq	r6, #136	; 0x88
    35a8:	26c8      	movne	r6, #200	; 0xc8
    35aa:	f080 0001 	eor.w	r0, r0, #1
    35ae:	ea46 4101 	orr.w	r1, r6, r1, lsl #16
    35b2:	7058      	strb	r0, [r3, #1]
    35b4:	f844 1035 	str.w	r1, [r4, r5, lsl #3]
    35b8:	bd70      	pop	{r4, r5, r6, pc}
    35ba:	bf00      	nop
    35bc:	1fff0e68 	.word	0x1fff0e68
    35c0:	1fff0000 	.word	0x1fff0000

000035c4 <usb_rx>:
    35c4:	1e43      	subs	r3, r0, #1
    35c6:	2b03      	cmp	r3, #3
    35c8:	b510      	push	{r4, lr}
    35ca:	d810      	bhi.n	35ee <usb_rx+0x2a>
    35cc:	b672      	cpsid	i
    35ce:	4a09      	ldr	r2, [pc, #36]	; (35f4 <usb_rx+0x30>)
    35d0:	eb02 0283 	add.w	r2, r2, r3, lsl #2
    35d4:	6850      	ldr	r0, [r2, #4]
    35d6:	b140      	cbz	r0, 35ea <usb_rx+0x26>
    35d8:	6841      	ldr	r1, [r0, #4]
    35da:	6051      	str	r1, [r2, #4]
    35dc:	4a06      	ldr	r2, [pc, #24]	; (35f8 <usb_rx+0x34>)
    35de:	8801      	ldrh	r1, [r0, #0]
    35e0:	f832 4013 	ldrh.w	r4, [r2, r3, lsl #1]
    35e4:	1a61      	subs	r1, r4, r1
    35e6:	f822 1013 	strh.w	r1, [r2, r3, lsl #1]
    35ea:	b662      	cpsie	i
    35ec:	bd10      	pop	{r4, pc}
    35ee:	2000      	movs	r0, #0
    35f0:	bd10      	pop	{r4, pc}
    35f2:	bf00      	nop
    35f4:	1fff0e68 	.word	0x1fff0e68
    35f8:	1fff10dc 	.word	0x1fff10dc

000035fc <usb_tx_byte_count>:
    35fc:	3801      	subs	r0, #1
    35fe:	2803      	cmp	r0, #3
    3600:	d80c      	bhi.n	361c <usb_tx_byte_count+0x20>
    3602:	4b07      	ldr	r3, [pc, #28]	; (3620 <usb_tx_byte_count+0x24>)
    3604:	eb03 0080 	add.w	r0, r3, r0, lsl #2
    3608:	6943      	ldr	r3, [r0, #20]
    360a:	b672      	cpsid	i
    360c:	2000      	movs	r0, #0
    360e:	b11b      	cbz	r3, 3618 <usb_tx_byte_count+0x1c>
    3610:	881a      	ldrh	r2, [r3, #0]
    3612:	685b      	ldr	r3, [r3, #4]
    3614:	4410      	add	r0, r2
    3616:	e7fa      	b.n	360e <usb_tx_byte_count+0x12>
    3618:	b662      	cpsie	i
    361a:	4770      	bx	lr
    361c:	2000      	movs	r0, #0
    361e:	4770      	bx	lr
    3620:	1fff0e68 	.word	0x1fff0e68

00003624 <usb_tx_packet_count>:
    3624:	3801      	subs	r0, #1
    3626:	2803      	cmp	r0, #3
    3628:	d80b      	bhi.n	3642 <usb_tx_packet_count+0x1e>
    362a:	b672      	cpsid	i
    362c:	4b06      	ldr	r3, [pc, #24]	; (3648 <usb_tx_packet_count+0x24>)
    362e:	eb03 0080 	add.w	r0, r3, r0, lsl #2
    3632:	6943      	ldr	r3, [r0, #20]
    3634:	2000      	movs	r0, #0
    3636:	b113      	cbz	r3, 363e <usb_tx_packet_count+0x1a>
    3638:	3001      	adds	r0, #1
    363a:	685b      	ldr	r3, [r3, #4]
    363c:	e7fb      	b.n	3636 <usb_tx_packet_count+0x12>
    363e:	b662      	cpsie	i
    3640:	4770      	bx	lr
    3642:	2000      	movs	r0, #0
    3644:	4770      	bx	lr
    3646:	bf00      	nop
    3648:	1fff0e68 	.word	0x1fff0e68

0000364c <usb_rx_memory>:
    364c:	b510      	push	{r4, lr}
    364e:	b672      	cpsid	i
    3650:	2301      	movs	r3, #1
    3652:	4a18      	ldr	r2, [pc, #96]	; (36b4 <usb_rx_memory+0x68>)
    3654:	441a      	add	r2, r3
    3656:	f812 2c01 	ldrb.w	r2, [r2, #-1]
    365a:	0712      	lsls	r2, r2, #28
    365c:	d51e      	bpl.n	369c <usb_rx_memory+0x50>
    365e:	0099      	lsls	r1, r3, #2
    3660:	4a15      	ldr	r2, [pc, #84]	; (36b8 <usb_rx_memory+0x6c>)
    3662:	f852 4031 	ldr.w	r4, [r2, r1, lsl #3]
    3666:	b92c      	cbnz	r4, 3674 <usb_rx_memory+0x28>
    3668:	eb02 1343 	add.w	r3, r2, r3, lsl #5
    366c:	3008      	adds	r0, #8
    366e:	6058      	str	r0, [r3, #4]
    3670:	4b12      	ldr	r3, [pc, #72]	; (36bc <usb_rx_memory+0x70>)
    3672:	e009      	b.n	3688 <usb_rx_memory+0x3c>
    3674:	f041 0101 	orr.w	r1, r1, #1
    3678:	f852 4031 	ldr.w	r4, [r2, r1, lsl #3]
    367c:	b974      	cbnz	r4, 369c <usb_rx_memory+0x50>
    367e:	eb02 03c1 	add.w	r3, r2, r1, lsl #3
    3682:	3008      	adds	r0, #8
    3684:	6058      	str	r0, [r3, #4]
    3686:	4b0e      	ldr	r3, [pc, #56]	; (36c0 <usb_rx_memory+0x74>)
    3688:	f842 3031 	str.w	r3, [r2, r1, lsl #3]
    368c:	4b0d      	ldr	r3, [pc, #52]	; (36c4 <usb_rx_memory+0x78>)
    368e:	f893 2024 	ldrb.w	r2, [r3, #36]	; 0x24
    3692:	3a01      	subs	r2, #1
    3694:	f883 2024 	strb.w	r2, [r3, #36]	; 0x24
    3698:	b662      	cpsie	i
    369a:	bd10      	pop	{r4, pc}
    369c:	3301      	adds	r3, #1
    369e:	2b05      	cmp	r3, #5
    36a0:	d1d7      	bne.n	3652 <usb_rx_memory+0x6>
    36a2:	b662      	cpsie	i
    36a4:	4b07      	ldr	r3, [pc, #28]	; (36c4 <usb_rx_memory+0x78>)
    36a6:	2200      	movs	r2, #0
    36a8:	f883 2024 	strb.w	r2, [r3, #36]	; 0x24
    36ac:	e8bd 4010 	ldmia.w	sp!, {r4, lr}
    36b0:	f000 bbfc 	b.w	3eac <usb_free>
    36b4:	0000a0c4 	.word	0x0000a0c4
    36b8:	1fff0000 	.word	0x1fff0000
    36bc:	00400088 	.word	0x00400088
    36c0:	004000c8 	.word	0x004000c8
    36c4:	1fff0e68 	.word	0x1fff0e68

000036c8 <usb_tx>:
    36c8:	1e42      	subs	r2, r0, #1
    36ca:	2a03      	cmp	r2, #3
    36cc:	b530      	push	{r4, r5, lr}
    36ce:	d833      	bhi.n	3738 <usb_tx+0x70>
    36d0:	4b1a      	ldr	r3, [pc, #104]	; (373c <usb_tx+0x74>)
    36d2:	0140      	lsls	r0, r0, #5
    36d4:	f040 0010 	orr.w	r0, r0, #16
    36d8:	4418      	add	r0, r3
    36da:	b672      	cpsid	i
    36dc:	4c18      	ldr	r4, [pc, #96]	; (3740 <usb_tx+0x78>)
    36de:	18a3      	adds	r3, r4, r2
    36e0:	f893 3025 	ldrb.w	r3, [r3, #37]	; 0x25
    36e4:	2b03      	cmp	r3, #3
    36e6:	d809      	bhi.n	36fc <usb_tx+0x34>
    36e8:	e8df f003 	tbb	[pc, r3]
    36ec:	05150213 	.word	0x05150213
    36f0:	3008      	adds	r0, #8
    36f2:	2302      	movs	r3, #2
    36f4:	e010      	b.n	3718 <usb_tx+0x50>
    36f6:	3008      	adds	r0, #8
    36f8:	2304      	movs	r3, #4
    36fa:	e00d      	b.n	3718 <usb_tx+0x50>
    36fc:	0092      	lsls	r2, r2, #2
    36fe:	18a3      	adds	r3, r4, r2
    3700:	6958      	ldr	r0, [r3, #20]
    3702:	b908      	cbnz	r0, 3708 <usb_tx+0x40>
    3704:	6159      	str	r1, [r3, #20]
    3706:	e001      	b.n	370c <usb_tx+0x44>
    3708:	6adb      	ldr	r3, [r3, #44]	; 0x2c
    370a:	6059      	str	r1, [r3, #4]
    370c:	4422      	add	r2, r4
    370e:	62d1      	str	r1, [r2, #44]	; 0x2c
    3710:	e011      	b.n	3736 <usb_tx+0x6e>
    3712:	2303      	movs	r3, #3
    3714:	e000      	b.n	3718 <usb_tx+0x50>
    3716:	2305      	movs	r3, #5
    3718:	4422      	add	r2, r4
    371a:	f010 0f08 	tst.w	r0, #8
    371e:	f882 3025 	strb.w	r3, [r2, #37]	; 0x25
    3722:	f101 0308 	add.w	r3, r1, #8
    3726:	880a      	ldrh	r2, [r1, #0]
    3728:	6043      	str	r3, [r0, #4]
    372a:	bf0c      	ite	eq
    372c:	2388      	moveq	r3, #136	; 0x88
    372e:	23c8      	movne	r3, #200	; 0xc8
    3730:	ea43 4302 	orr.w	r3, r3, r2, lsl #16
    3734:	6003      	str	r3, [r0, #0]
    3736:	b662      	cpsie	i
    3738:	bd30      	pop	{r4, r5, pc}
    373a:	bf00      	nop
    373c:	1fff0000 	.word	0x1fff0000
    3740:	1fff0e68 	.word	0x1fff0e68

